
arch/arm/mach-sunxi/pm/standby/resume1.elf:     file format elf32-littlearm


Disassembly of section .text:

00010000 <resume_head>:
   10000:	ea00000a 	b	10030 <_start>
   10004:	4e4f4765 	cdpmi	7, 4, cr4, cr15, cr5, {3}
   10008:	3054422e 	subscc	r4, r4, lr, lsr #4
   1000c:	5f0a6c39 	svcpl	0x000a6c39
   10010:	00000400 	andeq	r0, r0, r0, lsl #8
   10014:	00000030 	andeq	r0, r0, r0, lsr r0
   10018:	30303131 	eorscc	r3, r0, r1, lsr r1
   1001c:	30333231 	eorscc	r3, r3, r1, lsr r2
   10020:	30333231 	eorscc	r3, r3, r1, lsr r2
   10024:	30303131 	eorscc	r3, r0, r1, lsr r1
	...

00010030 <_start>:
   10030:	e10f0000 	mrs	r0, CPSR
   10034:	e3c0001f 	bic	r0, r0, #31
   10038:	e3800013 	orr	r0, r0, #19
   1003c:	e38000c0 	orr	r0, r0, #192	; 0xc0
   10040:	e3c00c02 	bic	r0, r0, #512	; 0x200
   10044:	e121f000 	msr	CPSR_c, r0
   10048:	ee110f10 	mrc	15, 0, r0, cr1, cr0, {0}
   1004c:	e3c00005 	bic	r0, r0, #5
   10050:	e3c00b06 	bic	r0, r0, #6144	; 0x1800
   10054:	e3c00002 	bic	r0, r0, #2
   10058:	ee010f10 	mcr	15, 0, r0, cr1, cr0, {0}
   1005c:	f57ff04f 	dsb	sy
   10060:	f57ff06f 	isb	sy
   10064:	ee100fb0 	mrc	15, 0, r0, cr0, cr0, {5}
   10068:	e1a00480 	lsl	r0, r0, #9
   1006c:	e280db4e 	add	sp, r0, #79872	; 0x13800
   10070:	eb00004f 	bl	101b4 <set_pll>
   10074:	eb000014 	bl	100cc <resume1_c_part>
   10078:	eafffffe 	b	10078 <_start+0x48>

0001007c <mem_memcpy>:
   1007c:	e2822003 	add	r2, r2, #3
   10080:	e1a02142 	asr	r2, r2, #2
   10084:	e3520000 	cmp	r2, #0
   10088:	d12fff1e 	bxle	lr
   1008c:	e2411004 	sub	r1, r1, #4
   10090:	e5b13004 	ldr	r3, [r1, #4]!
   10094:	e2522001 	subs	r2, r2, #1
   10098:	e4803004 	str	r3, [r0], #4
   1009c:	1afffffb 	bne	10090 <mem_memcpy+0x14>
   100a0:	e12fff1e 	bx	lr

000100a4 <mem_delay>:
   100a4:	e92d000f 	push	{r0, r1, r2, r3}
   100a8:	e3a01011 	mov	r1, #17
   100ac:	e1a03000 	mov	r3, r0

000100b0 <loop2>:
   100b0:	e2500001 	subs	r0, r0, #1
   100b4:	8afffffd 	bhi	100b0 <loop2>
   100b8:	e1a00003 	mov	r0, r3
   100bc:	e2511001 	subs	r1, r1, #1
   100c0:	8afffffa 	bhi	100b0 <loop2>
   100c4:	e8bd000f 	pop	{r0, r1, r2, r3}
   100c8:	e1a0f00e 	mov	pc, lr

000100cc <resume1_c_part>:
   100cc:	e92d4010 	push	{r4, lr}
   100d0:	e3a00047 	mov	r0, #71	; 0x47
   100d4:	e59f40b8 	ldr	r4, [pc, #184]	; 10194 <resume1_c_part+0xc8>
   100d8:	eb000112 	bl	10528 <save_mem_status_nommu>
   100dc:	eb0003bd 	bl	10fd8 <set_copro_default>
   100e0:	e3a00048 	mov	r0, #72	; 0x48
   100e4:	eb00010f 	bl	10528 <save_mem_status_nommu>
   100e8:	e5943010 	ldr	r3, [r4, #16]
   100ec:	e3130002 	tst	r3, #2
   100f0:	1a00001e 	bne	10170 <resume1_c_part+0xa4>
   100f4:	e59f009c 	ldr	r0, [pc, #156]	; 10198 <resume1_c_part+0xcc>
   100f8:	eb000a43 	bl	12a0c <mem_clk_setdiv>
   100fc:	e59f0098 	ldr	r0, [pc, #152]	; 1019c <resume1_c_part+0xd0>
   10100:	eb000a55 	bl	12a5c <mem_clk_set_pll_factor>
   10104:	eb000168 	bl	106ac <change_runtime_env>
   10108:	e5940014 	ldr	r0, [r4, #20]
   1010c:	eb000190 	bl	10754 <delay_ms>
   10110:	e5943010 	ldr	r3, [r4, #16]
   10114:	e3130002 	tst	r3, #2
   10118:	1a00001a 	bne	10188 <resume1_c_part+0xbc>
   1011c:	e3a00049 	mov	r0, #73	; 0x49
   10120:	eb000100 	bl	10528 <save_mem_status_nommu>
   10124:	e59f0074 	ldr	r0, [pc, #116]	; 101a0 <resume1_c_part+0xd4>
   10128:	eb0001c3 	bl	1083c <restore_mmu_state>
   1012c:	e3a0004a 	mov	r0, #74	; 0x4a
   10130:	eb0000ac 	bl	103e8 <save_mem_status>
   10134:	e3a0004b 	mov	r0, #75	; 0x4b
   10138:	eb0000aa 	bl	103e8 <save_mem_status>
   1013c:	eb00027e 	bl	10b3c <mem_flush_tlb>
   10140:	e3a00001 	mov	r0, #1
   10144:	eb0008ad 	bl	12400 <mem_clk_init>
   10148:	e5943010 	ldr	r3, [r4, #16]
   1014c:	e3130002 	tst	r3, #2
   10150:	1a000009 	bne	1017c <resume1_c_part+0xb0>
   10154:	e3a0004e 	mov	r0, #78	; 0x4e
   10158:	eb0000a2 	bl	103e8 <save_mem_status>
   1015c:	e5940000 	ldr	r0, [r4]
   10160:	e59f103c 	ldr	r1, [pc, #60]	; 101a4 <resume1_c_part+0xd8>
   10164:	eb0002e1 	bl	10cf0 <jump_to_resume>
   10168:	e3a00000 	mov	r0, #0
   1016c:	e8bd8010 	pop	{r4, pc}
   10170:	e59f0030 	ldr	r0, [pc, #48]	; 101a8 <resume1_c_part+0xdc>
   10174:	eb000429 	bl	11220 <serial_puts_nommu>
   10178:	eaffffdd 	b	100f4 <resume1_c_part+0x28>
   1017c:	e59f0028 	ldr	r0, [pc, #40]	; 101ac <resume1_c_part+0xe0>
   10180:	eb000499 	bl	113ec <serial_puts>
   10184:	eafffff2 	b	10154 <resume1_c_part+0x88>
   10188:	e59f0020 	ldr	r0, [pc, #32]	; 101b0 <resume1_c_part+0xe4>
   1018c:	eb000423 	bl	11220 <serial_puts_nommu>
   10190:	eaffffe1 	b	1011c <resume1_c_part+0x50>
   10194:	00012f80 	andeq	r2, r1, r0, lsl #31
   10198:	00012fd0 	ldrdeq	r2, [r1], -r0
   1019c:	00013008 	andeq	r3, r1, r8
   101a0:	00013010 	andeq	r3, r1, r0, lsl r0
   101a4:	00012f98 	muleq	r1, r8, pc	; <UNPREDICTABLE>
   101a8:	00012c80 	andeq	r2, r1, r0, lsl #25
   101ac:	00012cb4 			; <UNDEFINED> instruction: 0x00012cb4
   101b0:	00012c90 	muleq	r1, r0, ip

000101b4 <set_pll>:
   101b4:	e92d4070 	push	{r4, r5, r6, lr}
   101b8:	ee100fb0 	mrc	15, 0, r0, cr0, cr0, {5}
   101bc:	e2100003 	ands	r0, r0, #3
   101c0:	1a000035 	bne	1029c <set_pll+0xe8>
   101c4:	e59f2108 	ldr	r2, [pc, #264]	; 102d4 <set_pll+0x120>
   101c8:	e59f1108 	ldr	r1, [pc, #264]	; 102d8 <set_pll+0x124>
   101cc:	e5923000 	ldr	r3, [r2]
   101d0:	e4830004 	str	r0, [r3], #4
   101d4:	e1530001 	cmp	r3, r1
   101d8:	e3a06000 	mov	r6, #0
   101dc:	9afffffb 	bls	101d0 <set_pll+0x1c>
   101e0:	e5823000 	str	r3, [r2]
   101e4:	e1a00006 	mov	r0, r6
   101e8:	eb000884 	bl	12400 <mem_clk_init>
   101ec:	e59f50e8 	ldr	r5, [pc, #232]	; 102dc <set_pll+0x128>
   101f0:	e1a04000 	mov	r4, r0
   101f4:	eb00004d 	bl	10330 <mem_status_init_nommu>
   101f8:	e3a00042 	mov	r0, #66	; 0x42
   101fc:	eb0000c9 	bl	10528 <save_mem_status_nommu>
   10200:	e3a00043 	mov	r0, #67	; 0x43
   10204:	e5846050 	str	r6, [r4, #80]	; 0x50
   10208:	eb0000c6 	bl	10528 <save_mem_status_nommu>
   1020c:	e1a01006 	mov	r1, r6
   10210:	e3a020b4 	mov	r2, #180	; 0xb4
   10214:	e3421302 	movt	r1, #8962	; 0x2302
   10218:	e1a00005 	mov	r0, r5
   1021c:	ebffff96 	bl	1007c <mem_memcpy>
   10220:	e3a00044 	mov	r0, #68	; 0x44
   10224:	eb0000bf 	bl	10528 <save_mem_status_nommu>
   10228:	e5953010 	ldr	r3, [r5, #16]
   1022c:	e3a00045 	mov	r0, #69	; 0x45
   10230:	e3130080 	tst	r3, #128	; 0x80
   10234:	13a03406 	movne	r3, #100663296	; 0x6000000
   10238:	13022222 	movwne	r2, #8738	; 0x2222
   1023c:	15832900 	strne	r2, [r3, #2304]	; 0x900
   10240:	eb0000b8 	bl	10528 <save_mem_status_nommu>
   10244:	e59f0094 	ldr	r0, [pc, #148]	; 102e0 <set_pll+0x12c>
   10248:	eb000a28 	bl	12af0 <mem_clk_set_misc>
   1024c:	e3a03c11 	mov	r3, #4352	; 0x1100
   10250:	e3a00046 	mov	r0, #70	; 0x46
   10254:	e3483200 	movt	r3, #33280	; 0x8200
   10258:	e5843000 	str	r3, [r4]
   1025c:	eb0000b1 	bl	10528 <save_mem_status_nommu>
   10260:	e3a00001 	mov	r0, #1
   10264:	e3a01000 	mov	r1, #0
   10268:	eb0000ee 	bl	10628 <init_perfcounters>
   1026c:	eb00010e 	bl	106ac <change_runtime_env>
   10270:	e3a0000a 	mov	r0, #10
   10274:	eb000136 	bl	10754 <delay_ms>
   10278:	e5953010 	ldr	r3, [r5, #16]
   1027c:	e3130002 	tst	r3, #2
   10280:	1a000011 	bne	102cc <set_pll+0x118>
   10284:	e3a03001 	mov	r3, #1
   10288:	e5843050 	str	r3, [r4, #80]	; 0x50
   1028c:	eb000106 	bl	106ac <change_runtime_env>
   10290:	e3a00064 	mov	r0, #100	; 0x64
   10294:	e8bd4070 	pop	{r4, r5, r6, lr}
   10298:	ea00010d 	b	106d4 <delay_us>
   1029c:	e3a03000 	mov	r3, #0
   102a0:	ee083f33 	mcr	15, 0, r3, cr8, cr3, {1}
   102a4:	f57ff04f 	dsb	sy
   102a8:	e300357d 	movw	r3, #1405	; 0x57d
   102ac:	e3a020ff 	mov	r2, #255	; 0xff
   102b0:	e3403200 	movt	r3, #512	; 0x200
   102b4:	e0803003 	add	r3, r0, r3
   102b8:	e1a03103 	lsl	r3, r3, #2
   102bc:	e5832000 	str	r2, [r3]
   102c0:	f57ff04f 	dsb	sy
   102c4:	e320f004 	sev
   102c8:	eaffffed 	b	10284 <set_pll+0xd0>
   102cc:	eb0003af 	bl	11190 <serial_init_nommu>
   102d0:	eaffffeb 	b	10284 <set_pll+0xd0>
   102d4:	00012d78 	andeq	r2, r1, r8, ror sp
   102d8:	0001314c 	andeq	r3, r1, ip, asr #2
   102dc:	00012f80 	andeq	r2, r1, r0, lsl #31
   102e0:	00012fd4 	ldrdeq	r2, [r1], -r4

000102e4 <busy_waiting>:
   102e4:	e24dd008 	sub	sp, sp, #8
   102e8:	e3a03001 	mov	r3, #1
   102ec:	e58d3004 	str	r3, [sp, #4]
   102f0:	e59d3004 	ldr	r3, [sp, #4]
   102f4:	e3530001 	cmp	r3, #1
   102f8:	0afffffc 	beq	102f0 <busy_waiting+0xc>
   102fc:	e28dd008 	add	sp, sp, #8
   10300:	e12fff1e 	bx	lr

00010304 <save_mem_flag>:
   10304:	e12fff1e 	bx	lr

00010308 <clear_mem_flag>:
   10308:	e12fff1e 	bx	lr

0001030c <mem_status_init>:
   1030c:	e30115f0 	movw	r1, #5616	; 0x15f0
   10310:	e3023d7c 	movw	r3, #11644	; 0x2d7c
   10314:	e1a02001 	mov	r2, r1
   10318:	e3403001 	movt	r3, #1
   1031c:	e34f1800 	movt	r1, #63488	; 0xf800
   10320:	e3402800 	movt	r2, #2048	; 0x800
   10324:	e3a00001 	mov	r0, #1
   10328:	e8830006 	stm	r3, {r1, r2}
   1032c:	ea0007d9 	b	12298 <hwspinlock_init>

00010330 <mem_status_init_nommu>:
   10330:	e30115f0 	movw	r1, #5616	; 0x15f0
   10334:	e3023d7c 	movw	r3, #11644	; 0x2d7c
   10338:	e1a02001 	mov	r2, r1
   1033c:	e3403001 	movt	r3, #1
   10340:	e34f1800 	movt	r1, #63488	; 0xf800
   10344:	e3402800 	movt	r2, #2048	; 0x800
   10348:	e3a00000 	mov	r0, #0
   1034c:	e8830006 	stm	r3, {r1, r2}
   10350:	ea0007d0 	b	12298 <hwspinlock_init>

00010354 <mem_status_clear>:
   10354:	e92d4010 	push	{r4, lr}
   10358:	e3041e20 	movw	r1, #20000	; 0x4e20
   1035c:	e59f407c 	ldr	r4, [pc, #124]	; 103e0 <mem_status_clear+0x8c>
   10360:	e3a00002 	mov	r0, #2
   10364:	e5943000 	ldr	r3, [r4]
   10368:	e5933000 	ldr	r3, [r3]
   1036c:	e5843008 	str	r3, [r4, #8]
   10370:	eb0007d3 	bl	122c4 <hwspin_lock_timeout>
   10374:	e5942000 	ldr	r2, [r4]
   10378:	e3a01001 	mov	r1, #1
   1037c:	e3a0c000 	mov	ip, #0
   10380:	e5943008 	ldr	r3, [r4, #8]
   10384:	e2810001 	add	r0, r1, #1
   10388:	e7d13811 	bfi	r3, r1, #16, #2
   1038c:	e2101003 	ands	r1, r0, #3
   10390:	e5843008 	str	r3, [r4, #8]
   10394:	e5c4c009 	strb	ip, [r4, #9]
   10398:	e5940008 	ldr	r0, [r4, #8]
   1039c:	e1a03000 	mov	r3, r0
   103a0:	e5820000 	str	r0, [r2]
   103a4:	e7df3f9f 	bfc	r3, #31, #1
   103a8:	e5843008 	str	r3, [r4, #8]
   103ac:	e5823000 	str	r3, [r2]
   103b0:	e5943008 	ldr	r3, [r4, #8]
   103b4:	e3833102 	orr	r3, r3, #-2147483648	; 0x80000000
   103b8:	e5843008 	str	r3, [r4, #8]
   103bc:	e5823000 	str	r3, [r2]
   103c0:	e5943008 	ldr	r3, [r4, #8]
   103c4:	e7df3f9f 	bfc	r3, #31, #1
   103c8:	e5843008 	str	r3, [r4, #8]
   103cc:	e5823000 	str	r3, [r2]
   103d0:	1affffea 	bne	10380 <mem_status_clear+0x2c>
   103d4:	e3a00002 	mov	r0, #2
   103d8:	e8bd4010 	pop	{r4, lr}
   103dc:	ea0007d7 	b	12340 <hwspin_unlock>
   103e0:	00012d7c 	andeq	r2, r1, ip, ror sp

000103e4 <mem_status_exit>:
   103e4:	e12fff1e 	bx	lr

000103e8 <save_mem_status>:
   103e8:	e52de004 	push	{lr}		; (str lr, [sp, #-4]!)
   103ec:	e24dd00c 	sub	sp, sp, #12
   103f0:	e58d0004 	str	r0, [sp, #4]
   103f4:	e3041e20 	movw	r1, #20000	; 0x4e20
   103f8:	e3a00002 	mov	r0, #2
   103fc:	eb0007b0 	bl	122c4 <hwspin_lock_timeout>
   10400:	e3023d7c 	movw	r3, #11644	; 0x2d7c
   10404:	e59dc004 	ldr	ip, [sp, #4]
   10408:	e3403001 	movt	r3, #1
   1040c:	e3a0e001 	mov	lr, #1
   10410:	e5931008 	ldr	r1, [r3, #8]
   10414:	e3a00002 	mov	r0, #2
   10418:	e5932000 	ldr	r2, [r3]
   1041c:	e7d1181e 	bfi	r1, lr, #16, #2
   10420:	e5831008 	str	r1, [r3, #8]
   10424:	e5c3c009 	strb	ip, [r3, #9]
   10428:	e593c008 	ldr	ip, [r3, #8]
   1042c:	e1a0100c 	mov	r1, ip
   10430:	e582c000 	str	ip, [r2]
   10434:	e7df1f9f 	bfc	r1, #31, #1
   10438:	e5831008 	str	r1, [r3, #8]
   1043c:	e5821000 	str	r1, [r2]
   10440:	e5931008 	ldr	r1, [r3, #8]
   10444:	e3811102 	orr	r1, r1, #-2147483648	; 0x80000000
   10448:	e5831008 	str	r1, [r3, #8]
   1044c:	e5821000 	str	r1, [r2]
   10450:	e5931008 	ldr	r1, [r3, #8]
   10454:	e7df1f9f 	bfc	r1, #31, #1
   10458:	e5831008 	str	r1, [r3, #8]
   1045c:	e5821000 	str	r1, [r2]
   10460:	eb0007b6 	bl	12340 <hwspin_unlock>
   10464:	f57ff04f 	dsb	sy
   10468:	f57ff06f 	isb	sy
   1046c:	e28dd00c 	add	sp, sp, #12
   10470:	e8bd8000 	pop	{pc}

00010474 <get_mem_status>:
   10474:	e92d4010 	push	{r4, lr}
   10478:	e3024d7c 	movw	r4, #11644	; 0x2d7c
   1047c:	e3404001 	movt	r4, #1
   10480:	e3a02001 	mov	r2, #1
   10484:	e3041e20 	movw	r1, #20000	; 0x4e20
   10488:	e3a00002 	mov	r0, #2
   1048c:	e5943008 	ldr	r3, [r4, #8]
   10490:	e7d13812 	bfi	r3, r2, #16, #2
   10494:	e5843008 	str	r3, [r4, #8]
   10498:	eb000789 	bl	122c4 <hwspin_lock_timeout>
   1049c:	e5943000 	ldr	r3, [r4]
   104a0:	e3a00002 	mov	r0, #2
   104a4:	e5942008 	ldr	r2, [r4, #8]
   104a8:	e5832000 	str	r2, [r3]
   104ac:	e5933000 	ldr	r3, [r3]
   104b0:	e5843008 	str	r3, [r4, #8]
   104b4:	eb0007a1 	bl	12340 <hwspin_unlock>
   104b8:	e5d40008 	ldrb	r0, [r4, #8]
   104bc:	e8bd8010 	pop	{r4, pc}

000104c0 <show_mem_status>:
   104c0:	e92d4038 	push	{r3, r4, r5, lr}
   104c4:	e3a05001 	mov	r5, #1
   104c8:	e59f4050 	ldr	r4, [pc, #80]	; 10520 <show_mem_status+0x60>
   104cc:	e5943008 	ldr	r3, [r4, #8]
   104d0:	e3041e20 	movw	r1, #20000	; 0x4e20
   104d4:	e3a00002 	mov	r0, #2
   104d8:	e7d13815 	bfi	r3, r5, #16, #2
   104dc:	e5843008 	str	r3, [r4, #8]
   104e0:	eb000777 	bl	122c4 <hwspin_lock_timeout>
   104e4:	e5942008 	ldr	r2, [r4, #8]
   104e8:	e3a00002 	mov	r0, #2
   104ec:	e5943000 	ldr	r3, [r4]
   104f0:	e5832000 	str	r2, [r3]
   104f4:	e5933000 	ldr	r3, [r3]
   104f8:	e5843008 	str	r3, [r4, #8]
   104fc:	eb00078f 	bl	12340 <hwspin_unlock>
   10500:	e1a01005 	mov	r1, r5
   10504:	e59f0018 	ldr	r0, [pc, #24]	; 10524 <show_mem_status+0x64>
   10508:	e5d42008 	ldrb	r2, [r4, #8]
   1050c:	e2855001 	add	r5, r5, #1
   10510:	eb00048b 	bl	11744 <printk>
   10514:	e3550004 	cmp	r5, #4
   10518:	1affffeb 	bne	104cc <show_mem_status+0xc>
   1051c:	e8bd8038 	pop	{r3, r4, r5, pc}
   10520:	00012d7c 	andeq	r2, r1, ip, ror sp
   10524:	00012ce4 	andeq	r2, r1, r4, ror #25

00010528 <save_mem_status_nommu>:
   10528:	e92d4010 	push	{r4, lr}
   1052c:	e24dd008 	sub	sp, sp, #8
   10530:	e58d0004 	str	r0, [sp, #4]
   10534:	e3041e20 	movw	r1, #20000	; 0x4e20
   10538:	e3a00002 	mov	r0, #2
   1053c:	e3a04001 	mov	r4, #1
   10540:	eb00078a 	bl	12370 <hwspin_lock_timeout_nommu>
   10544:	e3023d7c 	movw	r3, #11644	; 0x2d7c
   10548:	e59dc004 	ldr	ip, [sp, #4]
   1054c:	e3403001 	movt	r3, #1
   10550:	e3a00002 	mov	r0, #2
   10554:	e593100c 	ldr	r1, [r3, #12]
   10558:	e5932004 	ldr	r2, [r3, #4]
   1055c:	e7d11814 	bfi	r1, r4, #16, #2
   10560:	e583100c 	str	r1, [r3, #12]
   10564:	e5c3c00d 	strb	ip, [r3, #13]
   10568:	e593c00c 	ldr	ip, [r3, #12]
   1056c:	e1a0100c 	mov	r1, ip
   10570:	e582c000 	str	ip, [r2]
   10574:	e7df1f9f 	bfc	r1, #31, #1
   10578:	e583100c 	str	r1, [r3, #12]
   1057c:	e5821000 	str	r1, [r2]
   10580:	e593100c 	ldr	r1, [r3, #12]
   10584:	e3811102 	orr	r1, r1, #-2147483648	; 0x80000000
   10588:	e583100c 	str	r1, [r3, #12]
   1058c:	e5821000 	str	r1, [r2]
   10590:	e593100c 	ldr	r1, [r3, #12]
   10594:	e7df1f9f 	bfc	r1, #31, #1
   10598:	e583100c 	str	r1, [r3, #12]
   1059c:	e5821000 	str	r1, [r2]
   105a0:	e28dd008 	add	sp, sp, #8
   105a4:	e8bd4010 	pop	{r4, lr}
   105a8:	ea00078a 	b	123d8 <hwspin_unlock_nommu>

000105ac <io_init>:
   105ac:	e3a03000 	mov	r3, #0
   105b0:	e3012111 	movw	r2, #4369	; 0x1111
   105b4:	e34f31c2 	movt	r3, #61890	; 0xf1c2
   105b8:	e3402011 	movt	r2, #17
   105bc:	e5832890 	str	r2, [r3, #2192]	; 0x890
   105c0:	e12fff1e 	bx	lr

000105c4 <io_init_high>:
   105c4:	e3a03000 	mov	r3, #0
   105c8:	e34f31c2 	movt	r3, #61890	; 0xf1c2
   105cc:	e59328a0 	ldr	r2, [r3, #2208]	; 0x8a0
   105d0:	e382203f 	orr	r2, r2, #63	; 0x3f
   105d4:	e58328a0 	str	r2, [r3, #2208]	; 0x8a0
   105d8:	e12fff1e 	bx	lr

000105dc <io_init_low>:
   105dc:	e3a03000 	mov	r3, #0
   105e0:	e34f31c2 	movt	r3, #61890	; 0xf1c2
   105e4:	e59328a0 	ldr	r2, [r3, #2208]	; 0x8a0
   105e8:	e3c2203f 	bic	r2, r2, #63	; 0x3f
   105ec:	e58328a0 	str	r2, [r3, #2208]	; 0x8a0
   105f0:	e12fff1e 	bx	lr

000105f4 <io_high>:
   105f4:	e92d4070 	push	{r4, r5, r6, lr}
   105f8:	e3a04000 	mov	r4, #0
   105fc:	e34f41c2 	movt	r4, #61890	; 0xf1c2
   10600:	e3a05001 	mov	r5, #1
   10604:	e1a05015 	lsl	r5, r5, r0
   10608:	e3020710 	movw	r0, #10000	; 0x2710
   1060c:	e59468a0 	ldr	r6, [r4, #2208]	; 0x8a0
   10610:	e1c66005 	bic	r6, r6, r5
   10614:	e58468a0 	str	r6, [r4, #2208]	; 0x8a0
   10618:	e1865005 	orr	r5, r6, r5
   1061c:	eb00002c 	bl	106d4 <delay_us>
   10620:	e58458a0 	str	r5, [r4, #2208]	; 0x8a0
   10624:	e8bd8070 	pop	{r4, r5, r6, pc}

00010628 <init_perfcounters>:
   10628:	e3500000 	cmp	r0, #0
   1062c:	13a00007 	movne	r0, #7
   10630:	03a00001 	moveq	r0, #1
   10634:	e3510000 	cmp	r1, #0
   10638:	13800008 	orrne	r0, r0, #8
   1063c:	e3800010 	orr	r0, r0, #16
   10640:	ee090f1c 	mcr	15, 0, r0, cr9, cr12, {0}
   10644:	e3a0313e 	mov	r3, #-2147483633	; 0x8000000f
   10648:	ee093f3c 	mcr	15, 0, r3, cr9, cr12, {1}
   1064c:	ee093f7c 	mcr	15, 0, r3, cr9, cr12, {3}
   10650:	e12fff1e 	bx	lr

00010654 <backup_perfcounter>:
   10654:	ee192f1c 	mrc	15, 0, r2, cr9, cr12, {0}
   10658:	e3023d90 	movw	r3, #11664	; 0x2d90
   1065c:	e3403001 	movt	r3, #1
   10660:	e5832000 	str	r2, [r3]
   10664:	ee192f3c 	mrc	15, 0, r2, cr9, cr12, {1}
   10668:	e5832004 	str	r2, [r3, #4]
   1066c:	e12fff1e 	bx	lr

00010670 <restore_perfcounter>:
   10670:	e3023d90 	movw	r3, #11664	; 0x2d90
   10674:	e3403001 	movt	r3, #1
   10678:	e5933000 	ldr	r3, [r3]
   1067c:	ee093f1c 	mcr	15, 0, r3, cr9, cr12, {0}
   10680:	e3023d90 	movw	r3, #11664	; 0x2d90
   10684:	e3403001 	movt	r3, #1
   10688:	e5933004 	ldr	r3, [r3, #4]
   1068c:	ee093f3c 	mcr	15, 0, r3, cr9, cr12, {1}
   10690:	e12fff1e 	bx	lr

00010694 <get_cyclecount>:
   10694:	ee190f1d 	mrc	15, 0, r0, cr9, cr13, {0}
   10698:	e12fff1e 	bx	lr

0001069c <reset_counter>:
   1069c:	ee193f1c 	mrc	15, 0, r3, cr9, cr12, {0}
   106a0:	e3833004 	orr	r3, r3, #4
   106a4:	ee093f1c 	mcr	15, 0, r3, cr9, cr12, {0}
   106a8:	e12fff1e 	bx	lr

000106ac <change_runtime_env>:
   106ac:	e92d4010 	push	{r4, lr}
   106b0:	ee193f1d 	mrc	15, 0, r3, cr9, cr13, {0}
   106b4:	ee192f1d 	mrc	15, 0, r2, cr9, cr13, {0}
   106b8:	e3024d90 	movw	r4, #11664	; 0x2d90
   106bc:	e0633002 	rsb	r3, r3, r2
   106c0:	e3404001 	movt	r4, #1
   106c4:	e5843008 	str	r3, [r4, #8]
   106c8:	eb00094f 	bl	12c0c <mem_clk_get_cpu_freq>
   106cc:	e584000c 	str	r0, [r4, #12]
   106d0:	e8bd8010 	pop	{r4, pc}

000106d4 <delay_us>:
   106d4:	e92d4038 	push	{r3, r4, r5, lr}
   106d8:	e1a05000 	mov	r5, r0
   106dc:	e59f406c 	ldr	r4, [pc, #108]	; 10750 <delay_us+0x7c>
   106e0:	e594000c 	ldr	r0, [r4, #12]
   106e4:	e3500ffa 	cmp	r0, #1000	; 0x3e8
   106e8:	8a000002 	bhi	106f8 <delay_us+0x24>
   106ec:	f57ff05f 	dmb	sy
   106f0:	f57ff06f 	isb	sy
   106f4:	e8bd8038 	pop	{r3, r4, r5, pc}
   106f8:	e3a01ffa 	mov	r1, #1000	; 0x3e8
   106fc:	eb0005f2 	bl	11ecc <raw_lib_udiv>
   10700:	ee193f1d 	mrc	15, 0, r3, cr9, cr13, {0}
   10704:	e5942008 	ldr	r2, [r4, #8]
   10708:	e0255590 	mla	r5, r0, r5, r5
   1070c:	e0622003 	rsb	r2, r2, r3
   10710:	e0825005 	add	r5, r2, r5
   10714:	ee192f3c 	mrc	15, 0, r2, cr9, cr12, {1}
   10718:	e202213e 	and	r2, r2, #-2147483633	; 0x8000000f
   1071c:	e352013e 	cmp	r2, #-2147483633	; 0x8000000f
   10720:	0a000006 	beq	10740 <delay_us+0x6c>
   10724:	e3a02017 	mov	r2, #23
   10728:	ee092f1c 	mcr	15, 0, r2, cr9, cr12, {0}
   1072c:	e3a0213e 	mov	r2, #-2147483633	; 0x8000000f
   10730:	ee092f3c 	mcr	15, 0, r2, cr9, cr12, {1}
   10734:	ee092f7c 	mcr	15, 0, r2, cr9, cr12, {3}
   10738:	ea000000 	b	10740 <delay_us+0x6c>
   1073c:	ee193f1d 	mrc	15, 0, r3, cr9, cr13, {0}
   10740:	e0653003 	rsb	r3, r5, r3
   10744:	e3530000 	cmp	r3, #0
   10748:	bafffffb 	blt	1073c <delay_us+0x68>
   1074c:	eaffffe6 	b	106ec <delay_us+0x18>
   10750:	00012d90 	muleq	r1, r0, sp

00010754 <delay_ms>:
   10754:	e3a03ffa 	mov	r3, #1000	; 0x3e8
   10758:	e0000093 	mul	r0, r3, r0
   1075c:	eaffffdc 	b	106d4 <delay_us>

00010760 <init_event_counter>:
   10760:	e3500000 	cmp	r0, #0
   10764:	13a00007 	movne	r0, #7
   10768:	03a00001 	moveq	r0, #1
   1076c:	e3510000 	cmp	r1, #0
   10770:	13800008 	orrne	r0, r0, #8
   10774:	e3800010 	orr	r0, r0, #16
   10778:	ee090f1c 	mcr	15, 0, r0, cr9, cr12, {0}
   1077c:	e3a0313e 	mov	r3, #-2147483633	; 0x8000000f
   10780:	ee093f3c 	mcr	15, 0, r3, cr9, cr12, {1}
   10784:	ee093f7c 	mcr	15, 0, r3, cr9, cr12, {3}
   10788:	e12fff1e 	bx	lr

0001078c <set_event_counter>:
   1078c:	e2403002 	sub	r3, r0, #2
   10790:	e3530003 	cmp	r3, #3
   10794:	959f2018 	ldrls	r2, [pc, #24]	; 107b4 <set_event_counter+0x28>
   10798:	83a03000 	movhi	r3, #0
   1079c:	97923103 	ldrls	r3, [r2, r3, lsl #2]
   107a0:	ee093fbc 	mcr	15, 0, r3, cr9, cr12, {5}
   107a4:	ee090f3d 	mcr	15, 0, r0, cr9, cr13, {1}
   107a8:	f57ff04f 	dsb	sy
   107ac:	f57ff06f 	isb	sy
   107b0:	e12fff1e 	bx	lr
   107b4:	00012c68 	andeq	r2, r1, r8, ror #24

000107b8 <get_event_counter>:
   107b8:	e2400002 	sub	r0, r0, #2
   107bc:	e3500003 	cmp	r0, #3
   107c0:	959f3018 	ldrls	r3, [pc, #24]	; 107e0 <get_event_counter+0x28>
   107c4:	83a03000 	movhi	r3, #0
   107c8:	97933100 	ldrls	r3, [r3, r0, lsl #2]
   107cc:	ee093fbc 	mcr	15, 0, r3, cr9, cr12, {5}
   107d0:	ee190f5d 	mrc	15, 0, r0, cr9, cr13, {2}
   107d4:	f57ff04f 	dsb	sy
   107d8:	f57ff06f 	isb	sy
   107dc:	e12fff1e 	bx	lr
   107e0:	00012c68 	andeq	r2, r1, r8, ror #24
	...

00010800 <save_mmu_state>:
   10800:	ee503f10 	mrc	15, 2, r3, cr0, cr0, {0}
   10804:	e5803000 	str	r3, [r0]
   10808:	ee113f50 	mrc	15, 0, r3, cr1, cr0, {2}
   1080c:	e5803008 	str	r3, [r0, #8]
   10810:	ee133f10 	mrc	15, 0, r3, cr3, cr0, {0}
   10814:	e5803018 	str	r3, [r0, #24]
   10818:	ee123f10 	mrc	15, 0, r3, cr2, cr0, {0}
   1081c:	e580300c 	str	r3, [r0, #12]
   10820:	ee123f30 	mrc	15, 0, r3, cr2, cr0, {1}
   10824:	e5803010 	str	r3, [r0, #16]
   10828:	ee123f50 	mrc	15, 0, r3, cr2, cr0, {2}
   1082c:	e5803014 	str	r3, [r0, #20]
   10830:	ee113f10 	mrc	15, 0, r3, cr1, cr0, {0}
   10834:	e5803004 	str	r3, [r0, #4]
   10838:	e12fff1e 	bx	lr

0001083c <restore_mmu_state>:
   1083c:	e5903000 	ldr	r3, [r0]
   10840:	ee403f10 	mcr	15, 2, r3, cr0, cr0, {0}
   10844:	e5903008 	ldr	r3, [r0, #8]
   10848:	ee013f50 	mcr	15, 0, r3, cr1, cr0, {2}
   1084c:	e5903018 	ldr	r3, [r0, #24]
   10850:	ee033f10 	mcr	15, 0, r3, cr3, cr0, {0}
   10854:	e5903010 	ldr	r3, [r0, #16]
   10858:	ee023f10 	mcr	15, 0, r3, cr2, cr0, {0}
   1085c:	ee023f30 	mcr	15, 0, r3, cr2, cr0, {1}
   10860:	e5903014 	ldr	r3, [r0, #20]
   10864:	ee023f50 	mcr	15, 0, r3, cr2, cr0, {2}
   10868:	ea000004 	b	10880 <__turn_mmu_on>
   1086c:	e320f000 	nop	{0}
   10870:	e320f000 	nop	{0}
   10874:	e320f000 	nop	{0}
   10878:	e320f000 	nop	{0}
   1087c:	e320f000 	nop	{0}

00010880 <__turn_mmu_on>:
   10880:	e1a00000 	nop			; (mov r0, r0)
   10884:	e5903004 	ldr	r3, [r0, #4]
   10888:	ee013f10 	mcr	15, 0, r3, cr1, cr0, {0}
   1088c:	ee103f10 	mrc	15, 0, r3, cr0, cr0, {0}
   10890:	e1a03003 	mov	r3, r3
   10894:	e1a03003 	mov	r3, r3
   10898:	f57ff06f 	isb	sy
   1089c:	e12fff1e 	bx	lr

000108a0 <save_sp>:
   108a0:	e1a0000d 	mov	r0, sp
   108a4:	e59fd49c 	ldr	sp, [pc, #1180]	; 10d48 <jump_to_resume0_nommu+0x28>
   108a8:	e1a0f00e 	mov	pc, lr

000108ac <save_sp_nommu>:
   108ac:	e1a0000d 	mov	r0, sp
   108b0:	e59fd494 	ldr	sp, [pc, #1172]	; 10d4c <jump_to_resume0_nommu+0x2c>
   108b4:	e1a0f00e 	mov	pc, lr

000108b8 <restore_sp>:
   108b8:	e1a0d000 	mov	sp, r0
   108bc:	e1a0f00e 	mov	pc, lr

000108c0 <get_sp>:
   108c0:	e1a0000d 	mov	r0, sp
   108c4:	e1a0f00e 	mov	pc, lr
   108c8:	e320f000 	nop	{0}
   108cc:	e320f000 	nop	{0}

000108d0 <invalidate_dcache>:
   108d0:	f57ff05f 	dmb	sy
   108d4:	ee300f30 	mrc	15, 1, r0, cr0, cr0, {1}
   108d8:	e2103407 	ands	r3, r0, #117440512	; 0x7000000
   108dc:	e1a03ba3 	lsr	r3, r3, #23
   108e0:	0a00001a 	beq	10950 <inv_finished>
   108e4:	e3a0a000 	mov	sl, #0

000108e8 <inv_loop1>:
   108e8:	e08a20aa 	add	r2, sl, sl, lsr #1
   108ec:	e1a01230 	lsr	r1, r0, r2
   108f0:	e2011007 	and	r1, r1, #7
   108f4:	e3510002 	cmp	r1, #2
   108f8:	ba000011 	blt	10944 <inv_skip>
   108fc:	ee40af10 	mcr	15, 2, sl, cr0, cr0, {0}
   10900:	f57ff06f 	isb	sy
   10904:	ee301f10 	mrc	15, 1, r1, cr0, cr0, {0}
   10908:	e2012007 	and	r2, r1, #7
   1090c:	e2822004 	add	r2, r2, #4
   10910:	e59f4438 	ldr	r4, [pc, #1080]	; 10d50 <jump_to_resume0_nommu+0x30>
   10914:	e01441a1 	ands	r4, r4, r1, lsr #3
   10918:	e16f5f14 	clz	r5, r4
   1091c:	e59f7430 	ldr	r7, [pc, #1072]	; 10d54 <jump_to_resume0_nommu+0x34>
   10920:	e01776a1 	ands	r7, r7, r1, lsr #13

00010924 <inv_loop2>:
   10924:	e1a09004 	mov	r9, r4

00010928 <inv_loop3>:
   10928:	e18ab519 	orr	fp, sl, r9, lsl r5
   1092c:	e18bb217 	orr	fp, fp, r7, lsl r2
   10930:	ee07bf56 	mcr	15, 0, fp, cr7, cr6, {2}
   10934:	e2599001 	subs	r9, r9, #1
   10938:	aafffffa 	bge	10928 <inv_loop3>
   1093c:	e2577001 	subs	r7, r7, #1
   10940:	aafffff7 	bge	10924 <inv_loop2>

00010944 <inv_skip>:
   10944:	e28aa002 	add	sl, sl, #2
   10948:	e153000a 	cmp	r3, sl
   1094c:	caffffe5 	bgt	108e8 <inv_loop1>

00010950 <inv_finished>:
   10950:	e3a0a000 	mov	sl, #0
   10954:	ee40af10 	mcr	15, 2, sl, cr0, cr0, {0}
   10958:	f57ff04f 	dsb	sy
   1095c:	f57ff06f 	isb	sy
   10960:	e1a0f00e 	mov	pc, lr

00010964 <invalidate_icache>:
   10964:	e3a00000 	mov	r0, #0
   10968:	ee070f11 	mcr	15, 0, r0, cr7, cr1, {0}
   1096c:	ee070f15 	mcr	15, 0, r0, cr7, cr5, {0}
   10970:	f57ff04f 	dsb	sy
   10974:	f57ff06f 	isb	sy
   10978:	e1a0f00e 	mov	pc, lr

0001097c <flush_dcache>:
   1097c:	e92d1fff 	push	{r0, r1, r2, r3, r4, r5, r6, r7, r8, r9, sl, fp, ip}
   10980:	f57ff05f 	dmb	sy
   10984:	ee300f30 	mrc	15, 1, r0, cr0, cr0, {1}
   10988:	e2103407 	ands	r3, r0, #117440512	; 0x7000000
   1098c:	e1a03ba3 	lsr	r3, r3, #23
   10990:	0a00001a 	beq	10a00 <finished>
   10994:	e3a0a000 	mov	sl, #0

00010998 <loop1>:
   10998:	e08a20aa 	add	r2, sl, sl, lsr #1
   1099c:	e1a01230 	lsr	r1, r0, r2
   109a0:	e2011007 	and	r1, r1, #7
   109a4:	e3510002 	cmp	r1, #2
   109a8:	ba000011 	blt	109f4 <skip>
   109ac:	ee40af10 	mcr	15, 2, sl, cr0, cr0, {0}
   109b0:	f57ff06f 	isb	sy
   109b4:	ee301f10 	mrc	15, 1, r1, cr0, cr0, {0}
   109b8:	e2012007 	and	r2, r1, #7
   109bc:	e2822004 	add	r2, r2, #4
   109c0:	e59f4388 	ldr	r4, [pc, #904]	; 10d50 <jump_to_resume0_nommu+0x30>
   109c4:	e01441a1 	ands	r4, r4, r1, lsr #3
   109c8:	e16f5f14 	clz	r5, r4
   109cc:	e59f7380 	ldr	r7, [pc, #896]	; 10d54 <jump_to_resume0_nommu+0x34>
   109d0:	e01776a1 	ands	r7, r7, r1, lsr #13

000109d4 <loop2>:
   109d4:	e1a09004 	mov	r9, r4

000109d8 <loop3>:
   109d8:	e18ab519 	orr	fp, sl, r9, lsl r5
   109dc:	e18bb217 	orr	fp, fp, r7, lsl r2
   109e0:	ee07bf5e 	mcr	15, 0, fp, cr7, cr14, {2}
   109e4:	e2599001 	subs	r9, r9, #1
   109e8:	aafffffa 	bge	109d8 <loop3>
   109ec:	e2577001 	subs	r7, r7, #1
   109f0:	aafffff7 	bge	109d4 <loop2>

000109f4 <skip>:
   109f4:	e28aa002 	add	sl, sl, #2
   109f8:	e153000a 	cmp	r3, sl
   109fc:	caffffe5 	bgt	10998 <loop1>

00010a00 <finished>:
   10a00:	e3a0a000 	mov	sl, #0
   10a04:	ee40af10 	mcr	15, 2, sl, cr0, cr0, {0}
   10a08:	f57ff04f 	dsb	sy
   10a0c:	f57ff06f 	isb	sy
   10a10:	e8bd1fff 	pop	{r0, r1, r2, r3, r4, r5, r6, r7, r8, r9, sl, fp, ip}
   10a14:	e1a0f00e 	mov	pc, lr

00010a18 <flush_icache>:
   10a18:	e92d000f 	push	{r0, r1, r2, r3}
   10a1c:	e3a00000 	mov	r0, #0
   10a20:	ee070f15 	mcr	15, 0, r0, cr7, cr5, {0}
   10a24:	ee070f11 	mcr	15, 0, r0, cr7, cr1, {0}
   10a28:	ee070fd1 	mcr	15, 0, r0, cr7, cr1, {6}
   10a2c:	f57ff06f 	isb	sy
   10a30:	f57ff04f 	dsb	sy
   10a34:	e8bd000f 	pop	{r0, r1, r2, r3}
   10a38:	e1a0f00e 	mov	pc, lr

00010a3c <disable_cache>:
   10a3c:	e92d000f 	push	{r0, r1, r2, r3}
   10a40:	ee110f10 	mrc	15, 0, r0, cr1, cr0, {0}
   10a44:	e3c00a01 	bic	r0, r0, #4096	; 0x1000
   10a48:	e3c00004 	bic	r0, r0, #4
   10a4c:	ee010f10 	mcr	15, 0, r0, cr1, cr0, {0}
   10a50:	f57ff06f 	isb	sy
   10a54:	e8bd000f 	pop	{r0, r1, r2, r3}
   10a58:	e1a0f00e 	mov	pc, lr

00010a5c <disable_dcache>:
   10a5c:	e92d000f 	push	{r0, r1, r2, r3}
   10a60:	ee110f10 	mrc	15, 0, r0, cr1, cr0, {0}
   10a64:	e3c00004 	bic	r0, r0, #4
   10a68:	ee010f10 	mcr	15, 0, r0, cr1, cr0, {0}
   10a6c:	f57ff06f 	isb	sy
   10a70:	e8bd000f 	pop	{r0, r1, r2, r3}
   10a74:	e1a0f00e 	mov	pc, lr

00010a78 <disable_icache>:
   10a78:	e92d000f 	push	{r0, r1, r2, r3}
   10a7c:	ee110f10 	mrc	15, 0, r0, cr1, cr0, {0}
   10a80:	e3c00a01 	bic	r0, r0, #4096	; 0x1000
   10a84:	ee010f10 	mcr	15, 0, r0, cr1, cr0, {0}
   10a88:	f57ff06f 	isb	sy
   10a8c:	e8bd000f 	pop	{r0, r1, r2, r3}
   10a90:	e1a0f00e 	mov	pc, lr

00010a94 <disable_l2cache>:
   10a94:	e92d000f 	push	{r0, r1, r2, r3}
   10a98:	ee110f30 	mrc	15, 0, r0, cr1, cr0, {1}
   10a9c:	e3c00002 	bic	r0, r0, #2
   10aa0:	ee010f30 	mcr	15, 0, r0, cr1, cr0, {1}
   10aa4:	f57ff06f 	isb	sy
   10aa8:	e8bd000f 	pop	{r0, r1, r2, r3}
   10aac:	e1a0f00e 	mov	pc, lr

00010ab0 <enable_cache>:
   10ab0:	e92d000f 	push	{r0, r1, r2, r3}
   10ab4:	ee110f10 	mrc	15, 0, r0, cr1, cr0, {0}
   10ab8:	e3800a01 	orr	r0, r0, #4096	; 0x1000
   10abc:	e3800004 	orr	r0, r0, #4
   10ac0:	ee010f10 	mcr	15, 0, r0, cr1, cr0, {0}
   10ac4:	f57ff06f 	isb	sy
   10ac8:	e8bd000f 	pop	{r0, r1, r2, r3}
   10acc:	e1a0f00e 	mov	pc, lr

00010ad0 <enable_icache>:
   10ad0:	e92d000f 	push	{r0, r1, r2, r3}
   10ad4:	ee110f10 	mrc	15, 0, r0, cr1, cr0, {0}
   10ad8:	e3800a01 	orr	r0, r0, #4096	; 0x1000
   10adc:	ee010f10 	mcr	15, 0, r0, cr1, cr0, {0}
   10ae0:	f57ff06f 	isb	sy
   10ae4:	e8bd000f 	pop	{r0, r1, r2, r3}
   10ae8:	e1a0f00e 	mov	pc, lr

00010aec <invalidate_branch_predictor>:
   10aec:	e92d000f 	push	{r0, r1, r2, r3}
   10af0:	e3a00000 	mov	r0, #0
   10af4:	ee070fd5 	mcr	15, 0, r0, cr7, cr5, {6}
   10af8:	f57ff06f 	isb	sy
   10afc:	e8bd000f 	pop	{r0, r1, r2, r3}
   10b00:	e1a0f00e 	mov	pc, lr

00010b04 <disable_program_flow_prediction>:
   10b04:	e92d000f 	push	{r0, r1, r2, r3}
   10b08:	ee110f10 	mrc	15, 0, r0, cr1, cr0, {0}
   10b0c:	e3c00b02 	bic	r0, r0, #2048	; 0x800
   10b10:	ee010f10 	mcr	15, 0, r0, cr1, cr0, {0}
   10b14:	f57ff06f 	isb	sy
   10b18:	e8bd000f 	pop	{r0, r1, r2, r3}
   10b1c:	e1a0f00e 	mov	pc, lr

00010b20 <enable_program_flow_prediction>:
   10b20:	e92d000f 	push	{r0, r1, r2, r3}
   10b24:	ee110f10 	mrc	15, 0, r0, cr1, cr0, {0}
   10b28:	e3800b02 	orr	r0, r0, #2048	; 0x800
   10b2c:	ee010f10 	mcr	15, 0, r0, cr1, cr0, {0}
   10b30:	f57ff06f 	isb	sy
   10b34:	e8bd000f 	pop	{r0, r1, r2, r3}
   10b38:	e1a0f00e 	mov	pc, lr

00010b3c <mem_flush_tlb>:
   10b3c:	e92d000f 	push	{r0, r1, r2, r3}
   10b40:	e3a00000 	mov	r0, #0
   10b44:	ee080f15 	mcr	15, 0, r0, cr8, cr5, {0}
   10b48:	ee080f16 	mcr	15, 0, r0, cr8, cr6, {0}
   10b4c:	ee080f13 	mcr	15, 0, r0, cr8, cr3, {0}
   10b50:	f57ff04f 	dsb	sy
   10b54:	f57ff06f 	isb	sy
   10b58:	e8bd000f 	pop	{r0, r1, r2, r3}
   10b5c:	e1a0f00e 	mov	pc, lr

00010b60 <mem_preload_tlb>:
   10b60:	e92d000f 	push	{r0, r1, r2, r3}
   10b64:	e59f01ec 	ldr	r0, [pc, #492]	; 10d58 <jump_to_resume0_nommu+0x38>
   10b68:	e5901000 	ldr	r1, [r0]
   10b6c:	e59f01e8 	ldr	r0, [pc, #488]	; 10d5c <jump_to_resume0_nommu+0x3c>
   10b70:	e5901000 	ldr	r1, [r0]
   10b74:	e59f01e4 	ldr	r0, [pc, #484]	; 10d60 <jump_to_resume0_nommu+0x40>
   10b78:	e5901000 	ldr	r1, [r0]
   10b7c:	e59f01e0 	ldr	r0, [pc, #480]	; 10d64 <jump_to_resume0_nommu+0x44>
   10b80:	e5901000 	ldr	r1, [r0]
   10b84:	e59f01dc 	ldr	r0, [pc, #476]	; 10d68 <jump_to_resume0_nommu+0x48>
   10b88:	e5901000 	ldr	r1, [r0]
   10b8c:	e59f01d8 	ldr	r0, [pc, #472]	; 10d6c <jump_to_resume0_nommu+0x4c>
   10b90:	e5901000 	ldr	r1, [r0]
   10b94:	e59f01d4 	ldr	r0, [pc, #468]	; 10d70 <jump_to_resume0_nommu+0x50>
   10b98:	e5901000 	ldr	r1, [r0]
   10b9c:	e59f01d0 	ldr	r0, [pc, #464]	; 10d74 <jump_to_resume0_nommu+0x54>
   10ba0:	e5901000 	ldr	r1, [r0]
   10ba4:	e59f01cc 	ldr	r0, [pc, #460]	; 10d78 <jump_to_resume0_nommu+0x58>
   10ba8:	e5901000 	ldr	r1, [r0]
   10bac:	e59f01c8 	ldr	r0, [pc, #456]	; 10d7c <jump_to_resume0_nommu+0x5c>
   10bb0:	e5901000 	ldr	r1, [r0]
   10bb4:	e59f01c4 	ldr	r0, [pc, #452]	; 10d80 <jump_to_resume0_nommu+0x60>
   10bb8:	e5901000 	ldr	r1, [r0]
   10bbc:	e59f01c0 	ldr	r0, [pc, #448]	; 10d84 <jump_to_resume0_nommu+0x64>
   10bc0:	e5901000 	ldr	r1, [r0]
   10bc4:	e59f01bc 	ldr	r0, [pc, #444]	; 10d88 <jump_to_resume0_nommu+0x68>
   10bc8:	e5901000 	ldr	r1, [r0]
   10bcc:	e59f01b8 	ldr	r0, [pc, #440]	; 10d8c <jump_to_resume0_nommu+0x6c>
   10bd0:	e5901000 	ldr	r1, [r0]
   10bd4:	e59f01b4 	ldr	r0, [pc, #436]	; 10d90 <jump_to_resume0_nommu+0x70>
   10bd8:	e5901000 	ldr	r1, [r0]
   10bdc:	e59f01b0 	ldr	r0, [pc, #432]	; 10d94 <jump_to_resume0_nommu+0x74>
   10be0:	e5901000 	ldr	r1, [r0]
   10be4:	e59f01ac 	ldr	r0, [pc, #428]	; 10d98 <jump_to_resume0_nommu+0x78>
   10be8:	e5901000 	ldr	r1, [r0]
   10bec:	e59f01a8 	ldr	r0, [pc, #424]	; 10d9c <jump_to_resume0_nommu+0x7c>
   10bf0:	e5901000 	ldr	r1, [r0]
   10bf4:	e59f01a4 	ldr	r0, [pc, #420]	; 10da0 <jump_to_resume0_nommu+0x80>
   10bf8:	e5901000 	ldr	r1, [r0]
   10bfc:	e59f01a0 	ldr	r0, [pc, #416]	; 10da4 <jump_to_resume0_nommu+0x84>
   10c00:	e5901000 	ldr	r1, [r0]
   10c04:	e59f019c 	ldr	r0, [pc, #412]	; 10da8 <jump_to_resume0_nommu+0x88>
   10c08:	e5901000 	ldr	r1, [r0]
   10c0c:	e59f0198 	ldr	r0, [pc, #408]	; 10dac <jump_to_resume0_nommu+0x8c>
   10c10:	e5901000 	ldr	r1, [r0]
   10c14:	e59f0194 	ldr	r0, [pc, #404]	; 10db0 <jump_to_resume0_nommu+0x90>
   10c18:	e5901000 	ldr	r1, [r0]
   10c1c:	e59f0190 	ldr	r0, [pc, #400]	; 10db4 <jump_to_resume0_nommu+0x94>
   10c20:	e5901000 	ldr	r1, [r0]
   10c24:	e59f018c 	ldr	r0, [pc, #396]	; 10db8 <jump_to_resume0_nommu+0x98>
   10c28:	e5901000 	ldr	r1, [r0]
   10c2c:	e59f0188 	ldr	r0, [pc, #392]	; 10dbc <jump_to_resume0_nommu+0x9c>
   10c30:	e5901000 	ldr	r1, [r0]
   10c34:	e59f0184 	ldr	r0, [pc, #388]	; 10dc0 <jump_to_resume0_nommu+0xa0>
   10c38:	e5901000 	ldr	r1, [r0]
   10c3c:	e59f0180 	ldr	r0, [pc, #384]	; 10dc4 <jump_to_resume0_nommu+0xa4>
   10c40:	e5901000 	ldr	r1, [r0]
   10c44:	e3a004f7 	mov	r0, #-150994944	; 0xf7000000
   10c48:	e5901000 	ldr	r1, [r0]
   10c4c:	e59f0104 	ldr	r0, [pc, #260]	; 10d58 <jump_to_resume0_nommu+0x38>
   10c50:	e5901000 	ldr	r1, [r0]
   10c54:	e3a004f6 	mov	r0, #-167772160	; 0xf6000000
   10c58:	e5901000 	ldr	r1, [r0]
   10c5c:	f57ff04f 	dsb	sy
   10c60:	f57ff06f 	isb	sy
   10c64:	e8bd000f 	pop	{r0, r1, r2, r3}
   10c68:	e1a0f00e 	mov	pc, lr

00010c6c <disable_mmu>:
   10c6c:	ee111f10 	mrc	15, 0, r1, cr1, cr0, {0}
   10c70:	e3c11a01 	bic	r1, r1, #4096	; 0x1000
   10c74:	e3c11005 	bic	r1, r1, #5
   10c78:	ea000000 	b	10c80 <__turn_mmu_off>
   10c7c:	e320f000 	nop	{0}

00010c80 <__turn_mmu_off>:
   10c80:	ee011f10 	mcr	15, 0, r1, cr1, cr0, {0}
   10c84:	ee103f10 	mrc	15, 0, r3, cr0, cr0, {0}
   10c88:	e1a03003 	mov	r3, r3
   10c8c:	e1a03003 	mov	r3, r3
   10c90:	e1a0f00e 	mov	pc, lr

00010c94 <enable_mmu>:
   10c94:	ee111f10 	mrc	15, 0, r1, cr1, cr0, {0}
   10c98:	e3811a01 	orr	r1, r1, #4096	; 0x1000
   10c9c:	e3811005 	orr	r1, r1, #5
   10ca0:	ea000006 	b	10cc0 <__turn_mmu_on>
   10ca4:	e320f000 	nop	{0}
   10ca8:	e320f000 	nop	{0}
   10cac:	e320f000 	nop	{0}
   10cb0:	e320f000 	nop	{0}
   10cb4:	e320f000 	nop	{0}
   10cb8:	e320f000 	nop	{0}
   10cbc:	e320f000 	nop	{0}

00010cc0 <__turn_mmu_on>:
   10cc0:	ee011f10 	mcr	15, 0, r1, cr1, cr0, {0}
   10cc4:	ee103f10 	mrc	15, 0, r3, cr0, cr0, {0}
   10cc8:	e1a03003 	mov	r3, r3
   10ccc:	e1a03003 	mov	r3, r3
   10cd0:	e1a0f00e 	mov	pc, lr

00010cd4 <jump_to_suspend>:
   10cd4:	ee020f10 	mcr	15, 0, r0, cr2, cr0, {0}
   10cd8:	f57ff04f 	dsb	sy
   10cdc:	f57ff06f 	isb	sy
   10ce0:	e1a0f001 	mov	pc, r1
   10ce4:	e320f000 	nop	{0}
   10ce8:	e320f000 	nop	{0}
   10cec:	e320f000 	nop	{0}

00010cf0 <jump_to_resume>:
   10cf0:	e1a0c000 	mov	ip, r0
   10cf4:	e1a08001 	mov	r8, r1
   10cf8:	ebfffef4 	bl	108d0 <invalidate_dcache>
   10cfc:	e1a01008 	mov	r1, r8
   10d00:	e1a0e00c 	mov	lr, ip
   10d04:	e8913fff 	ldm	r1, {r0, r1, r2, r3, r4, r5, r6, r7, r8, r9, sl, fp, ip, sp}
   10d08:	e1a0f00e 	mov	pc, lr
   10d0c:	e320f000 	nop	{0}

00010d10 <jump_to_resume0>:
   10d10:	e1a0e000 	mov	lr, r0
   10d14:	e1a0f00e 	mov	pc, lr
   10d18:	e320f000 	nop	{0}
   10d1c:	e320f000 	nop	{0}

00010d20 <jump_to_resume0_nommu>:
   10d20:	ee111f10 	mrc	15, 0, r1, cr1, cr0, {0}
   10d24:	e3c11a01 	bic	r1, r1, #4096	; 0x1000
   10d28:	e3c11007 	bic	r1, r1, #7
   10d2c:	ee011f10 	mcr	15, 0, r1, cr1, cr0, {0}
   10d30:	ee103f10 	mrc	15, 0, r3, cr0, cr0, {0}
   10d34:	e1a03003 	mov	r3, r3
   10d38:	e1a03003 	mov	r3, r3
   10d3c:	e1a0e000 	mov	lr, r0
   10d40:	f57ff06f 	isb	sy
   10d44:	e1a0f00e 	mov	pc, lr
   10d48:	f0003ffc 			; <UNDEFINED> instruction: 0xf0003ffc
   10d4c:	00003ffc 	strdeq	r3, [r0], -ip
   10d50:	000003ff 	strdeq	r0, [r0], -pc	; <UNPREDICTABLE>
   10d54:	00007fff 	strdeq	r7, [r0], -pc	; <UNPREDICTABLE>
   10d58:	f0010000 			; <UNDEFINED> instruction: 0xf0010000
   10d5c:	f0011000 			; <UNDEFINED> instruction: 0xf0011000
   10d60:	f0012000 			; <UNDEFINED> instruction: 0xf0012000
   10d64:	f0013000 			; <UNDEFINED> instruction: 0xf0013000
   10d68:	f8100000 			; <UNDEFINED> instruction: 0xf8100000
   10d6c:	f8101000 			; <UNDEFINED> instruction: 0xf8101000
   10d70:	f8102000 			; <UNDEFINED> instruction: 0xf8102000
   10d74:	f8103000 			; <UNDEFINED> instruction: 0xf8103000
   10d78:	f8104000 			; <UNDEFINED> instruction: 0xf8104000
   10d7c:	f8105000 			; <UNDEFINED> instruction: 0xf8105000
   10d80:	f8106000 			; <UNDEFINED> instruction: 0xf8106000
   10d84:	f8107000 			; <UNDEFINED> instruction: 0xf8107000
   10d88:	f8108000 			; <UNDEFINED> instruction: 0xf8108000
   10d8c:	f8109000 			; <UNDEFINED> instruction: 0xf8109000
   10d90:	f810a000 			; <UNDEFINED> instruction: 0xf810a000
   10d94:	f810b000 			; <UNDEFINED> instruction: 0xf810b000
   10d98:	f810c000 			; <UNDEFINED> instruction: 0xf810c000
   10d9c:	f810d000 			; <UNDEFINED> instruction: 0xf810d000
   10da0:	f810e000 			; <UNDEFINED> instruction: 0xf810e000
   10da4:	f810f000 			; <UNDEFINED> instruction: 0xf810f000
   10da8:	f8110000 			; <UNDEFINED> instruction: 0xf8110000
   10dac:	f8111000 			; <UNDEFINED> instruction: 0xf8111000
   10db0:	f8112000 			; <UNDEFINED> instruction: 0xf8112000
   10db4:	f8113000 			; <UNDEFINED> instruction: 0xf8113000
   10db8:	f0803000 			; <UNDEFINED> instruction: 0xf0803000
   10dbc:	f0804000 			; <UNDEFINED> instruction: 0xf0804000
   10dc0:	f6000800 			; <UNDEFINED> instruction: 0xf6000800
   10dc4:	f8001400 			; <UNDEFINED> instruction: 0xf8001400
   10dc8:	e320f000 	nop	{0}
   10dcc:	e320f000 	nop	{0}
   10dd0:	e320f000 	nop	{0}
   10dd4:	e320f000 	nop	{0}
   10dd8:	e320f000 	nop	{0}
   10ddc:	e320f000 	nop	{0}

00010de0 <__save_processor_state>:
   10de0:	ee503f10 	mrc	15, 2, r3, cr0, cr0, {0}
   10de4:	e5803000 	str	r3, [r0]
   10de8:	ee113f10 	mrc	15, 0, r3, cr1, cr0, {0}
   10dec:	e5803004 	str	r3, [r0, #4]
   10df0:	ee113f50 	mrc	15, 0, r3, cr1, cr0, {2}
   10df4:	e580300c 	str	r3, [r0, #12]
   10df8:	ee123f10 	mrc	15, 0, r3, cr2, cr0, {0}
   10dfc:	e580301c 	str	r3, [r0, #28]
   10e00:	ee123f30 	mrc	15, 0, r3, cr2, cr0, {1}
   10e04:	e5803020 	str	r3, [r0, #32]
   10e08:	ee123f50 	mrc	15, 0, r3, cr2, cr0, {2}
   10e0c:	e5803024 	str	r3, [r0, #36]	; 0x24
   10e10:	ee133f10 	mrc	15, 0, r3, cr3, cr0, {0}
   10e14:	e5803028 	str	r3, [r0, #40]	; 0x28
   10e18:	ee153f10 	mrc	15, 0, r3, cr5, cr0, {0}
   10e1c:	e580302c 	str	r3, [r0, #44]	; 0x2c
   10e20:	ee153f30 	mrc	15, 0, r3, cr5, cr0, {1}
   10e24:	e5803030 	str	r3, [r0, #48]	; 0x30
   10e28:	ee153f11 	mrc	15, 0, r3, cr5, cr1, {0}
   10e2c:	e5803034 	str	r3, [r0, #52]	; 0x34
   10e30:	ee153f31 	mrc	15, 0, r3, cr5, cr1, {1}
   10e34:	e5803038 	str	r3, [r0, #56]	; 0x38
   10e38:	ee163f10 	mrc	15, 0, r3, cr6, cr0, {0}
   10e3c:	e580303c 	str	r3, [r0, #60]	; 0x3c
   10e40:	ee163f50 	mrc	15, 0, r3, cr6, cr0, {2}
   10e44:	e5803040 	str	r3, [r0, #64]	; 0x40
   10e48:	ee173f14 	mrc	15, 0, r3, cr7, cr4, {0}
   10e4c:	e5803044 	str	r3, [r0, #68]	; 0x44
   10e50:	ee193f1c 	mrc	15, 0, r3, cr9, cr12, {0}
   10e54:	e5803048 	str	r3, [r0, #72]	; 0x48
   10e58:	ee193f3c 	mrc	15, 0, r3, cr9, cr12, {1}
   10e5c:	e580304c 	str	r3, [r0, #76]	; 0x4c
   10e60:	ee193f5c 	mrc	15, 0, r3, cr9, cr12, {2}
   10e64:	e5803050 	str	r3, [r0, #80]	; 0x50
   10e68:	ee193f7c 	mrc	15, 0, r3, cr9, cr12, {3}
   10e6c:	e5803054 	str	r3, [r0, #84]	; 0x54
   10e70:	ee193fbc 	mrc	15, 0, r3, cr9, cr12, {5}
   10e74:	e580305c 	str	r3, [r0, #92]	; 0x5c
   10e78:	ee193f1d 	mrc	15, 0, r3, cr9, cr13, {0}
   10e7c:	e5803060 	str	r3, [r0, #96]	; 0x60
   10e80:	ee193f3d 	mrc	15, 0, r3, cr9, cr13, {1}
   10e84:	e5803064 	str	r3, [r0, #100]	; 0x64
   10e88:	ee193f5d 	mrc	15, 0, r3, cr9, cr13, {2}
   10e8c:	e5803068 	str	r3, [r0, #104]	; 0x68
   10e90:	ee193f1e 	mrc	15, 0, r3, cr9, cr14, {0}
   10e94:	e580306c 	str	r3, [r0, #108]	; 0x6c
   10e98:	ee193f3e 	mrc	15, 0, r3, cr9, cr14, {1}
   10e9c:	e5803070 	str	r3, [r0, #112]	; 0x70
   10ea0:	ee193f5e 	mrc	15, 0, r3, cr9, cr14, {2}
   10ea4:	e5803074 	str	r3, [r0, #116]	; 0x74
   10ea8:	ee1a3f12 	mrc	15, 0, r3, cr10, cr2, {0}
   10eac:	e5803078 	str	r3, [r0, #120]	; 0x78
   10eb0:	ee1a3f32 	mrc	15, 0, r3, cr10, cr2, {1}
   10eb4:	e580307c 	str	r3, [r0, #124]	; 0x7c
   10eb8:	ee1c3f10 	mrc	15, 0, r3, cr12, cr0, {0}
   10ebc:	e5803080 	str	r3, [r0, #128]	; 0x80
   10ec0:	ee1c3f30 	mrc	15, 0, r3, cr12, cr0, {1}
   10ec4:	e5803084 	str	r3, [r0, #132]	; 0x84
   10ec8:	ee1d3f30 	mrc	15, 0, r3, cr13, cr0, {1}
   10ecc:	e5803090 	str	r3, [r0, #144]	; 0x90
   10ed0:	ee1d3f50 	mrc	15, 0, r3, cr13, cr0, {2}
   10ed4:	e5803094 	str	r3, [r0, #148]	; 0x94
   10ed8:	ee1d3f70 	mrc	15, 0, r3, cr13, cr0, {3}
   10edc:	e5803098 	str	r3, [r0, #152]	; 0x98
   10ee0:	ee1d3f90 	mrc	15, 0, r3, cr13, cr0, {4}
   10ee4:	e580309c 	str	r3, [r0, #156]	; 0x9c
   10ee8:	e12fff1e 	bx	lr

00010eec <__restore_processor_state>:
   10eec:	e5903000 	ldr	r3, [r0]
   10ef0:	ee403f10 	mcr	15, 2, r3, cr0, cr0, {0}
   10ef4:	e590300c 	ldr	r3, [r0, #12]
   10ef8:	ee013f50 	mcr	15, 0, r3, cr1, cr0, {2}
   10efc:	e590301c 	ldr	r3, [r0, #28]
   10f00:	ee023f10 	mcr	15, 0, r3, cr2, cr0, {0}
   10f04:	f57ff04f 	dsb	sy
   10f08:	f57ff06f 	isb	sy
   10f0c:	e5903020 	ldr	r3, [r0, #32]
   10f10:	ee023f30 	mcr	15, 0, r3, cr2, cr0, {1}
   10f14:	f57ff04f 	dsb	sy
   10f18:	f57ff06f 	isb	sy
   10f1c:	e5903024 	ldr	r3, [r0, #36]	; 0x24
   10f20:	ee023f50 	mcr	15, 0, r3, cr2, cr0, {2}
   10f24:	f57ff04f 	dsb	sy
   10f28:	f57ff06f 	isb	sy
   10f2c:	e5903028 	ldr	r3, [r0, #40]	; 0x28
   10f30:	ee033f10 	mcr	15, 0, r3, cr3, cr0, {0}
   10f34:	e5903044 	ldr	r3, [r0, #68]	; 0x44
   10f38:	ee073f14 	mcr	15, 0, r3, cr7, cr4, {0}
   10f3c:	e590305c 	ldr	r3, [r0, #92]	; 0x5c
   10f40:	ee093fbc 	mcr	15, 0, r3, cr9, cr12, {5}
   10f44:	e5903060 	ldr	r3, [r0, #96]	; 0x60
   10f48:	ee093f1d 	mcr	15, 0, r3, cr9, cr13, {0}
   10f4c:	e5903064 	ldr	r3, [r0, #100]	; 0x64
   10f50:	ee093f3d 	mcr	15, 0, r3, cr9, cr13, {1}
   10f54:	e5903068 	ldr	r3, [r0, #104]	; 0x68
   10f58:	ee093f5d 	mcr	15, 0, r3, cr9, cr13, {2}
   10f5c:	e590306c 	ldr	r3, [r0, #108]	; 0x6c
   10f60:	ee093f1e 	mcr	15, 0, r3, cr9, cr14, {0}
   10f64:	e5903070 	ldr	r3, [r0, #112]	; 0x70
   10f68:	ee093f3e 	mcr	15, 0, r3, cr9, cr14, {1}
   10f6c:	e5903074 	ldr	r3, [r0, #116]	; 0x74
   10f70:	ee093f5e 	mcr	15, 0, r3, cr9, cr14, {2}
   10f74:	e5903078 	ldr	r3, [r0, #120]	; 0x78
   10f78:	ee0a3f12 	mcr	15, 0, r3, cr10, cr2, {0}
   10f7c:	e590307c 	ldr	r3, [r0, #124]	; 0x7c
   10f80:	ee0a3f32 	mcr	15, 0, r3, cr10, cr2, {1}
   10f84:	e5903080 	ldr	r3, [r0, #128]	; 0x80
   10f88:	ee0c3f10 	mcr	15, 0, r3, cr12, cr0, {0}
   10f8c:	e5903084 	ldr	r3, [r0, #132]	; 0x84
   10f90:	ee0c3f30 	mcr	15, 0, r3, cr12, cr0, {1}
   10f94:	e5903090 	ldr	r3, [r0, #144]	; 0x90
   10f98:	ee0d3f30 	mcr	15, 0, r3, cr13, cr0, {1}
   10f9c:	e5903094 	ldr	r3, [r0, #148]	; 0x94
   10fa0:	ee0d3f50 	mcr	15, 0, r3, cr13, cr0, {2}
   10fa4:	e5903098 	ldr	r3, [r0, #152]	; 0x98
   10fa8:	ee0d3f70 	mcr	15, 0, r3, cr13, cr0, {3}
   10fac:	e590309c 	ldr	r3, [r0, #156]	; 0x9c
   10fb0:	ee0d3f90 	mcr	15, 0, r3, cr13, cr0, {4}
   10fb4:	f57ff04f 	dsb	sy
   10fb8:	f57ff06f 	isb	sy
   10fbc:	e12fff1e 	bx	lr

00010fc0 <disable_cache_invalidate>:
   10fc0:	e3a03000 	mov	r3, #0
   10fc4:	e34f31c2 	movt	r3, #61890	; 0xf1c2
   10fc8:	e5932d3c 	ldr	r2, [r3, #3388]	; 0xd3c
   10fcc:	e3822003 	orr	r2, r2, #3
   10fd0:	e5832d3c 	str	r2, [r3, #3388]	; 0xd3c
   10fd4:	e12fff1e 	bx	lr

00010fd8 <set_copro_default>:
   10fd8:	e3a03002 	mov	r3, #2
   10fdc:	ee403f10 	mcr	15, 2, r3, cr0, cr0, {0}
   10fe0:	e3003878 	movw	r3, #2168	; 0x878
   10fe4:	e34030c5 	movt	r3, #197	; 0xc5
   10fe8:	ee013f10 	mcr	15, 0, r3, cr1, cr0, {0}
   10fec:	e3063040 	movw	r3, #24640	; 0x6040
   10ff0:	ee013f30 	mcr	15, 0, r3, cr1, cr0, {1}
   10ff4:	e3a03000 	mov	r3, #0
   10ff8:	ee013f50 	mcr	15, 0, r3, cr1, cr0, {2}
   10ffc:	ee013f11 	mcr	15, 0, r3, cr1, cr1, {0}
   11000:	ee013f31 	mcr	15, 0, r3, cr1, cr1, {1}
   11004:	ee013f51 	mcr	15, 0, r3, cr1, cr1, {2}
   11008:	ee023f10 	mcr	15, 0, r3, cr2, cr0, {0}
   1100c:	ee023f30 	mcr	15, 0, r3, cr2, cr0, {1}
   11010:	ee023f50 	mcr	15, 0, r3, cr2, cr0, {2}
   11014:	ee033f10 	mcr	15, 0, r3, cr3, cr0, {0}
   11018:	ee053f10 	mcr	15, 0, r3, cr5, cr0, {0}
   1101c:	ee053f30 	mcr	15, 0, r3, cr5, cr0, {1}
   11020:	ee053f11 	mcr	15, 0, r3, cr5, cr1, {0}
   11024:	ee053f31 	mcr	15, 0, r3, cr5, cr1, {1}
   11028:	ee063f10 	mcr	15, 0, r3, cr6, cr0, {0}
   1102c:	ee063f50 	mcr	15, 0, r3, cr6, cr0, {2}
   11030:	ee073f14 	mcr	15, 0, r3, cr7, cr4, {0}
   11034:	ee093f1e 	mcr	15, 0, r3, cr9, cr14, {0}
   11038:	ee093f3e 	mcr	15, 0, r3, cr9, cr14, {1}
   1103c:	ee093f5e 	mcr	15, 0, r3, cr9, cr14, {2}
   11040:	e30831a4 	movw	r3, #33188	; 0x81a4
   11044:	e340300a 	movt	r3, #10
   11048:	ee0a3f12 	mcr	15, 0, r3, cr10, cr2, {0}
   1104c:	e30438e0 	movw	r3, #18656	; 0x48e0
   11050:	e34434e0 	movt	r3, #17632	; 0x44e0
   11054:	ee0a3f32 	mcr	15, 0, r3, cr10, cr2, {1}
   11058:	e3a03000 	mov	r3, #0
   1105c:	ee0c3f10 	mcr	15, 0, r3, cr12, cr0, {0}
   11060:	ee0c3f30 	mcr	15, 0, r3, cr12, cr0, {1}
   11064:	ee0d3f30 	mcr	15, 0, r3, cr13, cr0, {1}
   11068:	ee0d3f50 	mcr	15, 0, r3, cr13, cr0, {2}
   1106c:	ee0d3f70 	mcr	15, 0, r3, cr13, cr0, {3}
   11070:	ee0d3f90 	mcr	15, 0, r3, cr13, cr0, {4}
   11074:	f57ff04f 	dsb	sy
   11078:	f57ff06f 	isb	sy
   1107c:	e12fff1e 	bx	lr

00011080 <save_processor_state>:
   11080:	e3020da0 	movw	r0, #11680	; 0x2da0
   11084:	e3400001 	movt	r0, #1
   11088:	eaffff54 	b	10de0 <__save_processor_state>

0001108c <restore_processor_state>:
   1108c:	e3020da0 	movw	r0, #11680	; 0x2da0
   11090:	e3400001 	movt	r0, #1
   11094:	eaffff94 	b	10eec <__restore_processor_state>

00011098 <restore_processor_ttbr0>:
   11098:	e3023da0 	movw	r3, #11680	; 0x2da0
   1109c:	e3403001 	movt	r3, #1
   110a0:	e593301c 	ldr	r3, [r3, #28]
   110a4:	ee023f10 	mcr	15, 0, r3, cr2, cr0, {0}
   110a8:	e12fff1e 	bx	lr

000110ac <set_ttbr0>:
   110ac:	ee123f30 	mrc	15, 0, r3, cr2, cr0, {1}
   110b0:	ee023f10 	mcr	15, 0, r3, cr2, cr0, {0}
   110b4:	f57ff06f 	isb	sy
   110b8:	e12fff1e 	bx	lr

000110bc <set_serial_clk>:
   110bc:	e92d4038 	push	{r3, r4, r5, lr}
   110c0:	e1a04000 	mov	r4, r0
   110c4:	eb0004d8 	bl	1242c <mem_get_ba>
   110c8:	e5902074 	ldr	r2, [r0, #116]	; 0x74
   110cc:	e5901074 	ldr	r1, [r0, #116]	; 0x74
   110d0:	e5903074 	ldr	r3, [r0, #116]	; 0x74
   110d4:	e7e00c52 	ubfx	r0, r2, #24, #1
   110d8:	e59f20a8 	ldr	r2, [pc, #168]	; 11188 <set_serial_clk+0xcc>
   110dc:	e201101f 	and	r1, r1, #31
   110e0:	e7e13853 	ubfx	r3, r3, #16, #2
   110e4:	e2811001 	add	r1, r1, #1
   110e8:	e7920100 	ldr	r0, [r2, r0, lsl #2]
   110ec:	e1a01311 	lsl	r1, r1, r3
   110f0:	eb00030c 	bl	11d28 <__aeabi_uidiv>
   110f4:	e3540000 	cmp	r4, #0
   110f8:	e1a05000 	mov	r5, r0
   110fc:	1a000011 	bne	11148 <set_serial_clk+0x8c>
   11100:	e3a04406 	mov	r4, #100663296	; 0x6000000
   11104:	e5943594 	ldr	r3, [r4, #1428]	; 0x594
   11108:	e3c33801 	bic	r3, r3, #65536	; 0x10000
   1110c:	e5843594 	str	r3, [r4, #1428]	; 0x594
   11110:	e5943594 	ldr	r3, [r4, #1428]	; 0x594
   11114:	e3833801 	orr	r3, r3, #65536	; 0x10000
   11118:	e5843594 	str	r3, [r4, #1428]	; 0x594
   1111c:	ebfffd62 	bl	106ac <change_runtime_env>
   11120:	e3a00001 	mov	r0, #1
   11124:	ebfffd6a 	bl	106d4 <delay_us>
   11128:	e59435b4 	ldr	r3, [r4, #1460]	; 0x5b4
   1112c:	e1a00005 	mov	r0, r5
   11130:	e3c33801 	bic	r3, r3, #65536	; 0x10000
   11134:	e58435b4 	str	r3, [r4, #1460]	; 0x5b4
   11138:	e59435b4 	ldr	r3, [r4, #1460]	; 0x5b4
   1113c:	e3833801 	orr	r3, r3, #65536	; 0x10000
   11140:	e58435b4 	str	r3, [r4, #1460]	; 0x5b4
   11144:	e8bd8038 	pop	{r3, r4, r5, pc}
   11148:	e3a044f6 	mov	r4, #-167772160	; 0xf6000000
   1114c:	e3a03406 	mov	r3, #100663296	; 0x6000000
   11150:	e594c594 	ldr	ip, [r4, #1428]	; 0x594
   11154:	e59405b4 	ldr	r0, [r4, #1460]	; 0x5b4
   11158:	e5931900 	ldr	r1, [r3, #2304]	; 0x900
   1115c:	e5942594 	ldr	r2, [r4, #1428]	; 0x594
   11160:	e59f3024 	ldr	r3, [pc, #36]	; 1118c <set_serial_clk+0xd0>
   11164:	e3c22801 	bic	r2, r2, #65536	; 0x10000
   11168:	e5842594 	str	r2, [r4, #1428]	; 0x594
   1116c:	e5942594 	ldr	r2, [r4, #1428]	; 0x594
   11170:	e583c000 	str	ip, [r3]
   11174:	e5830004 	str	r0, [r3, #4]
   11178:	e3822801 	orr	r2, r2, #65536	; 0x10000
   1117c:	e5831008 	str	r1, [r3, #8]
   11180:	e5842594 	str	r2, [r4, #1428]	; 0x594
   11184:	eaffffe4 	b	1111c <set_serial_clk+0x60>
   11188:	00012c78 	andeq	r2, r1, r8, ror ip
   1118c:	00012e40 	andeq	r2, r1, r0, asr #28

00011190 <serial_init_nommu>:
   11190:	e92d4038 	push	{r3, r4, r5, lr}
   11194:	e3a03406 	mov	r3, #100663296	; 0x6000000
   11198:	e5932900 	ldr	r2, [r3, #2304]	; 0x900
   1119c:	e3a00000 	mov	r0, #0
   111a0:	e3c22877 	bic	r2, r2, #7798784	; 0x770000
   111a4:	e5832900 	str	r2, [r3, #2304]	; 0x900
   111a8:	e5932900 	ldr	r2, [r3, #2304]	; 0x900
   111ac:	e3822822 	orr	r2, r2, #2228224	; 0x220000
   111b0:	e5832900 	str	r2, [r3, #2304]	; 0x900
   111b4:	ebffffc0 	bl	110bc <set_serial_clk>
   111b8:	e30b33c5 	movw	r3, #46021	; 0xb3c5
   111bc:	e2800ae1 	add	r0, r0, #921600	; 0xe1000
   111c0:	e34931a2 	movt	r3, #37282	; 0x91a2
   111c4:	e3a02407 	mov	r2, #117440512	; 0x7000000
   111c8:	e0831093 	umull	r1, r3, r3, r0
   111cc:	e592000c 	ldr	r0, [r2, #12]
   111d0:	e3a0c001 	mov	ip, #1
   111d4:	e3021e40 	movw	r1, #11840	; 0x2e40
   111d8:	e582c0a4 	str	ip, [r2, #164]	; 0xa4
   111dc:	e3401001 	movt	r1, #1
   111e0:	e3805080 	orr	r5, r0, #128	; 0x80
   111e4:	e582500c 	str	r5, [r2, #12]
   111e8:	e3c00080 	bic	r0, r0, #128	; 0x80
   111ec:	e1a04e23 	lsr	r4, r3, #28
   111f0:	e7e73a53 	ubfx	r3, r3, #20, #8
   111f4:	e5824004 	str	r4, [r2, #4]
   111f8:	e5823000 	str	r3, [r2]
   111fc:	e3a03000 	mov	r3, #0
   11200:	e582000c 	str	r0, [r2, #12]
   11204:	e58230a4 	str	r3, [r2, #164]	; 0xa4
   11208:	e3a03003 	mov	r3, #3
   1120c:	e582300c 	str	r3, [r2, #12]
   11210:	e3a030e1 	mov	r3, #225	; 0xe1
   11214:	e5823008 	str	r3, [r2, #8]
   11218:	e581c00c 	str	ip, [r1, #12]
   1121c:	e8bd8038 	pop	{r3, r4, r5, pc}

00011220 <serial_puts_nommu>:
   11220:	e59f3078 	ldr	r3, [pc, #120]	; 112a0 <serial_puts_nommu+0x80>
   11224:	e593300c 	ldr	r3, [r3, #12]
   11228:	e3530000 	cmp	r3, #0
   1122c:	03e00000 	mvneq	r0, #0
   11230:	012fff1e 	bxeq	lr
   11234:	e5d03000 	ldrb	r3, [r0]
   11238:	e3530000 	cmp	r3, #0
   1123c:	0a000015 	beq	11298 <serial_puts_nommu+0x78>
   11240:	e2401001 	sub	r1, r0, #1
   11244:	e3a02407 	mov	r2, #117440512	; 0x7000000
   11248:	e3a0c00d 	mov	ip, #13
   1124c:	e353000a 	cmp	r3, #10
   11250:	0a00000a 	beq	11280 <serial_puts_nommu+0x60>
   11254:	e5f10001 	ldrb	r0, [r1, #1]!
   11258:	e592307c 	ldr	r3, [r2, #124]	; 0x7c
   1125c:	e3130002 	tst	r3, #2
   11260:	0afffffc 	beq	11258 <serial_puts_nommu+0x38>
   11264:	e3a03407 	mov	r3, #117440512	; 0x7000000
   11268:	e5830000 	str	r0, [r3]
   1126c:	e5d13001 	ldrb	r3, [r1, #1]
   11270:	e3530000 	cmp	r3, #0
   11274:	1afffff4 	bne	1124c <serial_puts_nommu+0x2c>
   11278:	e1a00003 	mov	r0, r3
   1127c:	e12fff1e 	bx	lr
   11280:	e592307c 	ldr	r3, [r2, #124]	; 0x7c
   11284:	e3130002 	tst	r3, #2
   11288:	0afffffc 	beq	11280 <serial_puts_nommu+0x60>
   1128c:	e3a03407 	mov	r3, #117440512	; 0x7000000
   11290:	e583c000 	str	ip, [r3]
   11294:	eaffffee 	b	11254 <serial_puts_nommu+0x34>
   11298:	e1a00003 	mov	r0, r3
   1129c:	e12fff1e 	bx	lr
   112a0:	00012e40 	andeq	r2, r1, r0, asr #28

000112a4 <serial_gets_nommu>:
   112a4:	e59f307c 	ldr	r3, [pc, #124]	; 11328 <serial_gets_nommu+0x84>
   112a8:	e52d4004 	push	{r4}		; (str r4, [sp, #-4]!)
   112ac:	e593300c 	ldr	r3, [r3, #12]
   112b0:	e3530000 	cmp	r3, #0
   112b4:	03e00000 	mvneq	r0, #0
   112b8:	1a000001 	bne	112c4 <serial_gets_nommu+0x20>
   112bc:	e8bd0010 	pop	{r4}
   112c0:	e12fff1e 	bx	lr
   112c4:	e3510000 	cmp	r1, #0
   112c8:	03a00001 	moveq	r0, #1
   112cc:	0afffffa 	beq	112bc <serial_gets_nommu+0x18>
   112d0:	e3a04000 	mov	r4, #0
   112d4:	e3a0c407 	mov	ip, #117440512	; 0x7000000
   112d8:	e30f3fff 	movw	r3, #65535	; 0xffff
   112dc:	ea000001 	b	112e8 <serial_gets_nommu+0x44>
   112e0:	e2533001 	subs	r3, r3, #1
   112e4:	3a000006 	bcc	11304 <serial_gets_nommu+0x60>
   112e8:	e59c207c 	ldr	r2, [ip, #124]	; 0x7c
   112ec:	e3120008 	tst	r2, #8
   112f0:	0afffffa 	beq	112e0 <serial_gets_nommu+0x3c>
   112f4:	e3530000 	cmp	r3, #0
   112f8:	1a000001 	bne	11304 <serial_gets_nommu+0x60>
   112fc:	e2840001 	add	r0, r4, #1
   11300:	eaffffed 	b	112bc <serial_gets_nommu+0x18>
   11304:	e59c3000 	ldr	r3, [ip]
   11308:	e6ef3073 	uxtb	r3, r3
   1130c:	e3530000 	cmp	r3, #0
   11310:	0afffff9 	beq	112fc <serial_gets_nommu+0x58>
   11314:	e7c03004 	strb	r3, [r0, r4]
   11318:	e2844001 	add	r4, r4, #1
   1131c:	e1540001 	cmp	r4, r1
   11320:	1affffec 	bne	112d8 <serial_gets_nommu+0x34>
   11324:	eafffff4 	b	112fc <serial_gets_nommu+0x58>
   11328:	00012e40 	andeq	r2, r1, r0, asr #28

0001132c <serial_init>:
   1132c:	e92d4038 	push	{r3, r4, r5, lr}
   11330:	e3a034f6 	mov	r3, #-167772160	; 0xf6000000
   11334:	e5932900 	ldr	r2, [r3, #2304]	; 0x900
   11338:	e3a00001 	mov	r0, #1
   1133c:	e3c22877 	bic	r2, r2, #7798784	; 0x770000
   11340:	e5832900 	str	r2, [r3, #2304]	; 0x900
   11344:	e5932900 	ldr	r2, [r3, #2304]	; 0x900
   11348:	e3822822 	orr	r2, r2, #2228224	; 0x220000
   1134c:	e5832900 	str	r2, [r3, #2304]	; 0x900
   11350:	ebffff59 	bl	110bc <set_serial_clk>
   11354:	e30b33c5 	movw	r3, #46021	; 0xb3c5
   11358:	e2800ae1 	add	r0, r0, #921600	; 0xe1000
   1135c:	e34931a2 	movt	r3, #37282	; 0x91a2
   11360:	e3a024f7 	mov	r2, #-150994944	; 0xf7000000
   11364:	e0831093 	umull	r1, r3, r3, r0
   11368:	e592000c 	ldr	r0, [r2, #12]
   1136c:	e3a0c001 	mov	ip, #1
   11370:	e3021e40 	movw	r1, #11840	; 0x2e40
   11374:	e582c0a4 	str	ip, [r2, #164]	; 0xa4
   11378:	e3401001 	movt	r1, #1
   1137c:	e3805080 	orr	r5, r0, #128	; 0x80
   11380:	e582500c 	str	r5, [r2, #12]
   11384:	e3c00080 	bic	r0, r0, #128	; 0x80
   11388:	e1a04e23 	lsr	r4, r3, #28
   1138c:	e7e73a53 	ubfx	r3, r3, #20, #8
   11390:	e5824004 	str	r4, [r2, #4]
   11394:	e5823000 	str	r3, [r2]
   11398:	e3a03000 	mov	r3, #0
   1139c:	e582000c 	str	r0, [r2, #12]
   113a0:	e58230a4 	str	r3, [r2, #164]	; 0xa4
   113a4:	e3a03003 	mov	r3, #3
   113a8:	e582300c 	str	r3, [r2, #12]
   113ac:	e3a030e1 	mov	r3, #225	; 0xe1
   113b0:	e5823008 	str	r3, [r2, #8]
   113b4:	e581c00c 	str	ip, [r1, #12]
   113b8:	e8bd8038 	pop	{r3, r4, r5, pc}

000113bc <serial_exit>:
   113bc:	e3023e40 	movw	r3, #11840	; 0x2e40
   113c0:	e3a024f6 	mov	r2, #-167772160	; 0xf6000000
   113c4:	e3403001 	movt	r3, #1
   113c8:	e5931000 	ldr	r1, [r3]
   113cc:	e5821594 	str	r1, [r2, #1428]	; 0x594
   113d0:	e5931004 	ldr	r1, [r3, #4]
   113d4:	e58215b4 	str	r1, [r2, #1460]	; 0x5b4
   113d8:	e5931008 	ldr	r1, [r3, #8]
   113dc:	e5821900 	str	r1, [r2, #2304]	; 0x900
   113e0:	e3a02000 	mov	r2, #0
   113e4:	e583200c 	str	r2, [r3, #12]
   113e8:	e12fff1e 	bx	lr

000113ec <serial_puts>:
   113ec:	e59f3078 	ldr	r3, [pc, #120]	; 1146c <serial_puts+0x80>
   113f0:	e593300c 	ldr	r3, [r3, #12]
   113f4:	e3530000 	cmp	r3, #0
   113f8:	03e00000 	mvneq	r0, #0
   113fc:	012fff1e 	bxeq	lr
   11400:	e5d03000 	ldrb	r3, [r0]
   11404:	e3530000 	cmp	r3, #0
   11408:	0a000015 	beq	11464 <serial_puts+0x78>
   1140c:	e2401001 	sub	r1, r0, #1
   11410:	e3a024f7 	mov	r2, #-150994944	; 0xf7000000
   11414:	e3a0c00d 	mov	ip, #13
   11418:	e353000a 	cmp	r3, #10
   1141c:	0a00000a 	beq	1144c <serial_puts+0x60>
   11420:	e5f10001 	ldrb	r0, [r1, #1]!
   11424:	e592307c 	ldr	r3, [r2, #124]	; 0x7c
   11428:	e3130002 	tst	r3, #2
   1142c:	0afffffc 	beq	11424 <serial_puts+0x38>
   11430:	e3a034f7 	mov	r3, #-150994944	; 0xf7000000
   11434:	e5830000 	str	r0, [r3]
   11438:	e5d13001 	ldrb	r3, [r1, #1]
   1143c:	e3530000 	cmp	r3, #0
   11440:	1afffff4 	bne	11418 <serial_puts+0x2c>
   11444:	e1a00003 	mov	r0, r3
   11448:	e12fff1e 	bx	lr
   1144c:	e592307c 	ldr	r3, [r2, #124]	; 0x7c
   11450:	e3130002 	tst	r3, #2
   11454:	0afffffc 	beq	1144c <serial_puts+0x60>
   11458:	e3a034f7 	mov	r3, #-150994944	; 0xf7000000
   1145c:	e583c000 	str	ip, [r3]
   11460:	eaffffee 	b	11420 <serial_puts+0x34>
   11464:	e1a00003 	mov	r0, r3
   11468:	e12fff1e 	bx	lr
   1146c:	00012e40 	andeq	r2, r1, r0, asr #28

00011470 <serial_gets>:
   11470:	e59f307c 	ldr	r3, [pc, #124]	; 114f4 <serial_gets+0x84>
   11474:	e52d4004 	push	{r4}		; (str r4, [sp, #-4]!)
   11478:	e593300c 	ldr	r3, [r3, #12]
   1147c:	e3530000 	cmp	r3, #0
   11480:	03e00000 	mvneq	r0, #0
   11484:	1a000001 	bne	11490 <serial_gets+0x20>
   11488:	e8bd0010 	pop	{r4}
   1148c:	e12fff1e 	bx	lr
   11490:	e3510000 	cmp	r1, #0
   11494:	03a00001 	moveq	r0, #1
   11498:	0afffffa 	beq	11488 <serial_gets+0x18>
   1149c:	e3a04000 	mov	r4, #0
   114a0:	e3a0c4f7 	mov	ip, #-150994944	; 0xf7000000
   114a4:	e30f3fff 	movw	r3, #65535	; 0xffff
   114a8:	ea000001 	b	114b4 <serial_gets+0x44>
   114ac:	e2533001 	subs	r3, r3, #1
   114b0:	3a000006 	bcc	114d0 <serial_gets+0x60>
   114b4:	e59c207c 	ldr	r2, [ip, #124]	; 0x7c
   114b8:	e3120008 	tst	r2, #8
   114bc:	0afffffa 	beq	114ac <serial_gets+0x3c>
   114c0:	e3530000 	cmp	r3, #0
   114c4:	1a000001 	bne	114d0 <serial_gets+0x60>
   114c8:	e2840001 	add	r0, r4, #1
   114cc:	eaffffed 	b	11488 <serial_gets+0x18>
   114d0:	e59c3000 	ldr	r3, [ip]
   114d4:	e6ef3073 	uxtb	r3, r3
   114d8:	e3530000 	cmp	r3, #0
   114dc:	0afffff9 	beq	114c8 <serial_gets+0x58>
   114e0:	e7c03004 	strb	r3, [r0, r4]
   114e4:	e2844001 	add	r4, r4, #1
   114e8:	e1540001 	cmp	r4, r1
   114ec:	1affffec 	bne	114a4 <serial_gets+0x34>
   114f0:	eafffff4 	b	114c8 <serial_gets+0x58>
   114f4:	00012e40 	andeq	r2, r1, r0, asr #28

000114f8 <utoa>:
   114f8:	e92d45f0 	push	{r4, r5, r6, r7, r8, sl, lr}
   114fc:	e3500000 	cmp	r0, #0
   11500:	e59f60a8 	ldr	r6, [pc, #168]	; 115b0 <utoa+0xb8>
   11504:	e1a07001 	mov	r7, r1
   11508:	e1a04000 	mov	r4, r0
   1150c:	e1a05002 	mov	r5, r2
   11510:	e24dd02c 	sub	sp, sp, #44	; 0x2c
   11514:	13a08000 	movne	r8, #0
   11518:	e28dc004 	add	ip, sp, #4
   1151c:	128da018 	addne	sl, sp, #24
   11520:	e8b6000f 	ldm	r6!, {r0, r1, r2, r3}
   11524:	e5966000 	ldr	r6, [r6]
   11528:	e8ac000f 	stmia	ip!, {r0, r1, r2, r3}
   1152c:	03a03030 	moveq	r3, #48	; 0x30
   11530:	05c74001 	strbeq	r4, [r7, #1]
   11534:	e5cc6000 	strb	r6, [ip]
   11538:	05c73000 	strbeq	r3, [r7]
   1153c:	1a000001 	bne	11548 <utoa+0x50>
   11540:	ea000017 	b	115a4 <utoa+0xac>
   11544:	e1a08003 	mov	r8, r3
   11548:	e1a00004 	mov	r0, r4
   1154c:	e1a01005 	mov	r1, r5
   11550:	eb00024e 	bl	11e90 <__aeabi_uidivmod>
   11554:	e28d3028 	add	r3, sp, #40	; 0x28
   11558:	e1a00004 	mov	r0, r4
   1155c:	e0831001 	add	r1, r3, r1
   11560:	e5516024 	ldrb	r6, [r1, #-36]	; 0x24
   11564:	e1a01005 	mov	r1, r5
   11568:	e7ca6008 	strb	r6, [sl, r8]
   1156c:	eb0001ed 	bl	11d28 <__aeabi_uidiv>
   11570:	e2504000 	subs	r4, r0, #0
   11574:	e2883001 	add	r3, r8, #1
   11578:	1afffff1 	bne	11544 <utoa+0x4c>
   1157c:	e2472001 	sub	r2, r7, #1
   11580:	e08a3008 	add	r3, sl, r8
   11584:	ea000000 	b	1158c <utoa+0x94>
   11588:	e5736001 	ldrb	r6, [r3, #-1]!
   1158c:	e153000a 	cmp	r3, sl
   11590:	e5e26001 	strb	r6, [r2, #1]!
   11594:	1afffffb 	bne	11588 <utoa+0x90>
   11598:	e0878008 	add	r8, r7, r8
   1159c:	e3a03000 	mov	r3, #0
   115a0:	e5c83001 	strb	r3, [r8, #1]
   115a4:	e1a00007 	mov	r0, r7
   115a8:	e28dd02c 	add	sp, sp, #44	; 0x2c
   115ac:	e8bd85f0 	pop	{r4, r5, r6, r7, r8, sl, pc}
   115b0:	00012cfc 	strdeq	r2, [r1], -ip

000115b4 <print_align>:
   115b4:	e92d00f0 	push	{r4, r5, r6, r7}
   115b8:	e1510002 	cmp	r1, r2
   115bc:	e59f4094 	ldr	r4, [pc, #148]	; 11658 <print_align+0xa4>
   115c0:	e1a07001 	mov	r7, r1
   115c4:	e1a06002 	mov	r6, r2
   115c8:	e1a05000 	mov	r5, r0
   115cc:	e24dd018 	sub	sp, sp, #24
   115d0:	e28dc004 	add	ip, sp, #4
   115d4:	e8b4000f 	ldm	r4!, {r0, r1, r2, r3}
   115d8:	e5944000 	ldr	r4, [r4]
   115dc:	e8ac000f 	stmia	ip!, {r0, r1, r2, r3}
   115e0:	a3a00000 	movge	r0, #0
   115e4:	e5cc4000 	strb	r4, [ip]
   115e8:	aa000017 	bge	1164c <print_align+0x98>
   115ec:	e0670006 	rsb	r0, r7, r6
   115f0:	e3500000 	cmp	r0, #0
   115f4:	e1a01000 	mov	r1, r0
   115f8:	0a000013 	beq	1164c <print_align+0x98>
   115fc:	e5d53000 	ldrb	r3, [r5]
   11600:	e3530000 	cmp	r3, #0
   11604:	0a000005 	beq	11620 <print_align+0x6c>
   11608:	e1a03005 	mov	r3, r5
   1160c:	e2833001 	add	r3, r3, #1
   11610:	e5d32000 	ldrb	r2, [r3]
   11614:	e1a05003 	mov	r5, r3
   11618:	e3520000 	cmp	r2, #0
   1161c:	1afffffa 	bne	1160c <print_align+0x58>
   11620:	e28dc003 	add	ip, sp, #3
   11624:	ea000000 	b	1162c <print_align+0x78>
   11628:	e1a05003 	mov	r5, r3
   1162c:	e5fc2001 	ldrb	r2, [ip, #1]!
   11630:	e1a03005 	mov	r3, r5
   11634:	e3520000 	cmp	r2, #0
   11638:	e4c32001 	strb	r2, [r3], #1
   1163c:	0a000002 	beq	1164c <print_align+0x98>
   11640:	e2511001 	subs	r1, r1, #1
   11644:	1afffff7 	bne	11628 <print_align+0x74>
   11648:	e5c51001 	strb	r1, [r5, #1]
   1164c:	e28dd018 	add	sp, sp, #24
   11650:	e8bd00f0 	pop	{r4, r5, r6, r7}
   11654:	e12fff1e 	bx	lr
   11658:	00012d10 	andeq	r2, r1, r0, lsl sp

0001165c <itoa.constprop.0>:
   1165c:	e92d01f0 	push	{r4, r5, r6, r7, r8}
   11660:	e3500000 	cmp	r0, #0
   11664:	e59f50d4 	ldr	r5, [pc, #212]	; 11740 <itoa.constprop.0+0xe4>
   11668:	e1a06001 	mov	r6, r1
   1166c:	e1a0c000 	mov	ip, r0
   11670:	e24dd02c 	sub	sp, sp, #44	; 0x2c
   11674:	e28d4004 	add	r4, sp, #4
   11678:	e8b5000f 	ldm	r5!, {r0, r1, r2, r3}
   1167c:	e5955000 	ldr	r5, [r5]
   11680:	e8a4000f 	stmia	r4!, {r0, r1, r2, r3}
   11684:	03a03030 	moveq	r3, #48	; 0x30
   11688:	05c6c001 	strbeq	ip, [r6, #1]
   1168c:	e5c45000 	strb	r5, [r4]
   11690:	05c63000 	strbeq	r3, [r6]
   11694:	0a000025 	beq	11730 <itoa.constprop.0+0xd4>
   11698:	e3065667 	movw	r5, #26215	; 0x6667
   1169c:	b26cc000 	rsblt	ip, ip, #0
   116a0:	b3a07001 	movlt	r7, #1
   116a4:	a3a07000 	movge	r7, #0
   116a8:	e3a03000 	mov	r3, #0
   116ac:	e28d0018 	add	r0, sp, #24
   116b0:	e3465666 	movt	r5, #26214	; 0x6666
   116b4:	ea000000 	b	116bc <itoa.constprop.0+0x60>
   116b8:	e1a03004 	mov	r3, r4
   116bc:	e0c12c95 	smull	r2, r1, r5, ip
   116c0:	e1a02fcc 	asr	r2, ip, #31
   116c4:	e28d8028 	add	r8, sp, #40	; 0x28
   116c8:	e2834001 	add	r4, r3, #1
   116cc:	e0622141 	rsb	r2, r2, r1, asr #2
   116d0:	e0821102 	add	r1, r2, r2, lsl #2
   116d4:	e04c1081 	sub	r1, ip, r1, lsl #1
   116d8:	e252c000 	subs	ip, r2, #0
   116dc:	e0882001 	add	r2, r8, r1
   116e0:	e5522024 	ldrb	r2, [r2, #-36]	; 0x24
   116e4:	e7c02003 	strb	r2, [r0, r3]
   116e8:	1afffff2 	bne	116b8 <itoa.constprop.0+0x5c>
   116ec:	e3570000 	cmp	r7, #0
   116f0:	e1a0c003 	mov	ip, r3
   116f4:	13a0102d 	movne	r1, #45	; 0x2d
   116f8:	13a07001 	movne	r7, #1
   116fc:	15c61000 	strbne	r1, [r6]
   11700:	e2471001 	sub	r1, r7, #1
   11704:	e0861001 	add	r1, r6, r1
   11708:	ea000000 	b	11710 <itoa.constprop.0+0xb4>
   1170c:	e7d02003 	ldrb	r2, [r0, r3]
   11710:	e2433001 	sub	r3, r3, #1
   11714:	e5e12001 	strb	r2, [r1, #1]!
   11718:	e3730001 	cmn	r3, #1
   1171c:	1afffffa 	bne	1170c <itoa.constprop.0+0xb0>
   11720:	e2877001 	add	r7, r7, #1
   11724:	e3a03000 	mov	r3, #0
   11728:	e0867007 	add	r7, r6, r7
   1172c:	e7c7300c 	strb	r3, [r7, ip]
   11730:	e1a00006 	mov	r0, r6
   11734:	e28dd02c 	add	sp, sp, #44	; 0x2c
   11738:	e8bd01f0 	pop	{r4, r5, r6, r7, r8}
   1173c:	e12fff1e 	bx	lr
   11740:	00012cfc 	strdeq	r2, [r1], -ip

00011744 <printk>:
   11744:	e92d000f 	push	{r0, r1, r2, r3}
   11748:	e92d47f0 	push	{r4, r5, r6, r7, r8, r9, sl, lr}
   1174c:	e24dd018 	sub	sp, sp, #24
   11750:	e28d303c 	add	r3, sp, #60	; 0x3c
   11754:	e59d4038 	ldr	r4, [sp, #56]	; 0x38
   11758:	e58d3014 	str	r3, [sp, #20]
   1175c:	e59f82ac 	ldr	r8, [pc, #684]	; 11a10 <printk+0x2cc>
   11760:	e5d43000 	ldrb	r3, [r4]
   11764:	e3530000 	cmp	r3, #0
   11768:	01a05008 	moveq	r5, r8
   1176c:	0a00002c 	beq	11824 <printk+0xe0>
   11770:	e3a09025 	mov	r9, #37	; 0x25
   11774:	e28d6004 	add	r6, sp, #4
   11778:	e1a05008 	mov	r5, r8
   1177c:	ea000003 	b	11790 <printk+0x4c>
   11780:	e5d43001 	ldrb	r3, [r4, #1]
   11784:	e2844001 	add	r4, r4, #1
   11788:	e3530000 	cmp	r3, #0
   1178c:	0a000024 	beq	11824 <printk+0xe0>
   11790:	e3530025 	cmp	r3, #37	; 0x25
   11794:	14c53001 	strbne	r3, [r5], #1
   11798:	1afffff8 	bne	11780 <printk+0x3c>
   1179c:	e5d43001 	ldrb	r3, [r4, #1]
   117a0:	e2432031 	sub	r2, r3, #49	; 0x31
   117a4:	e3520008 	cmp	r2, #8
   117a8:	92437030 	subls	r7, r3, #48	; 0x30
   117ac:	95d43002 	ldrbls	r3, [r4, #2]
   117b0:	82844001 	addhi	r4, r4, #1
   117b4:	83a07000 	movhi	r7, #0
   117b8:	92844002 	addls	r4, r4, #2
   117bc:	e2433063 	sub	r3, r3, #99	; 0x63
   117c0:	e3530015 	cmp	r3, #21
   117c4:	979ff103 	ldrls	pc, [pc, r3, lsl #2]
   117c8:	ea000070 	b	11990 <printk+0x24c>
   117cc:	00011978 	andeq	r1, r1, r8, ror r9
   117d0:	000119a4 	andeq	r1, r1, r4, lsr #19
   117d4:	00011990 	muleq	r1, r0, r9
   117d8:	00011990 	muleq	r1, r0, r9
   117dc:	00011990 	muleq	r1, r0, r9
   117e0:	00011990 	muleq	r1, r0, r9
   117e4:	00011990 	muleq	r1, r0, r9
   117e8:	00011990 	muleq	r1, r0, r9
   117ec:	00011990 	muleq	r1, r0, r9
   117f0:	00011990 	muleq	r1, r0, r9
   117f4:	00011990 	muleq	r1, r0, r9
   117f8:	00011990 	muleq	r1, r0, r9
   117fc:	00011990 	muleq	r1, r0, r9
   11800:	00011908 	andeq	r1, r1, r8, lsl #18
   11804:	00011990 	muleq	r1, r0, r9
   11808:	00011990 	muleq	r1, r0, r9
   1180c:	000118b8 			; <UNDEFINED> instruction: 0x000118b8
   11810:	00011990 	muleq	r1, r0, r9
   11814:	00011848 	andeq	r1, r1, r8, asr #16
   11818:	00011990 	muleq	r1, r0, r9
   1181c:	00011990 	muleq	r1, r0, r9
   11820:	00011908 	andeq	r1, r1, r8, lsl #18
   11824:	e3a03000 	mov	r3, #0
   11828:	e59f01e0 	ldr	r0, [pc, #480]	; 11a10 <printk+0x2cc>
   1182c:	e4c53001 	strb	r3, [r5], #1
   11830:	ebfffeed 	bl	113ec <serial_puts>
   11834:	e0680005 	rsb	r0, r8, r5
   11838:	e28dd018 	add	sp, sp, #24
   1183c:	e8bd47f0 	pop	{r4, r5, r6, r7, r8, r9, sl, lr}
   11840:	e28dd010 	add	sp, sp, #16
   11844:	e12fff1e 	bx	lr
   11848:	e59d0014 	ldr	r0, [sp, #20]
   1184c:	e1a01006 	mov	r1, r6
   11850:	e3a0200a 	mov	r2, #10
   11854:	e2803004 	add	r3, r0, #4
   11858:	e5900000 	ldr	r0, [r0]
   1185c:	e58d3014 	str	r3, [sp, #20]
   11860:	ebffff24 	bl	114f8 <utoa>
   11864:	e5d6a000 	ldrb	sl, [r6]
   11868:	e35a0000 	cmp	sl, #0
   1186c:	0a000004 	beq	11884 <printk+0x140>
   11870:	e1a0a006 	mov	sl, r6
   11874:	e5fa3001 	ldrb	r3, [sl, #1]!
   11878:	e3530000 	cmp	r3, #0
   1187c:	1afffffc 	bne	11874 <printk+0x130>
   11880:	e066a00a 	rsb	sl, r6, sl
   11884:	e1a0100a 	mov	r1, sl
   11888:	e1a00006 	mov	r0, r6
   1188c:	e1a02007 	mov	r2, r7
   11890:	ebffff47 	bl	115b4 <print_align>
   11894:	e28d3003 	add	r3, sp, #3
   11898:	e080000a 	add	r0, r0, sl
   1189c:	e1a01005 	mov	r1, r5
   118a0:	e5f32001 	ldrb	r2, [r3, #1]!
   118a4:	e3520000 	cmp	r2, #0
   118a8:	e4c12001 	strb	r2, [r1], #1
   118ac:	1afffffb 	bne	118a0 <printk+0x15c>
   118b0:	e0855000 	add	r5, r5, r0
   118b4:	eaffffb1 	b	11780 <printk+0x3c>
   118b8:	e59d3014 	ldr	r3, [sp, #20]
   118bc:	e1a01005 	mov	r1, r5
   118c0:	e2832004 	add	r2, r3, #4
   118c4:	e58d2014 	str	r2, [sp, #20]
   118c8:	e5930000 	ldr	r0, [r3]
   118cc:	e2402001 	sub	r2, r0, #1
   118d0:	e5f23001 	ldrb	r3, [r2, #1]!
   118d4:	e3530000 	cmp	r3, #0
   118d8:	e4c13001 	strb	r3, [r1], #1
   118dc:	1afffffb 	bne	118d0 <printk+0x18c>
   118e0:	e5d03000 	ldrb	r3, [r0]
   118e4:	e3530000 	cmp	r3, #0
   118e8:	0a000004 	beq	11900 <printk+0x1bc>
   118ec:	e1a03000 	mov	r3, r0
   118f0:	e5f32001 	ldrb	r2, [r3, #1]!
   118f4:	e3520000 	cmp	r2, #0
   118f8:	1afffffc 	bne	118f0 <printk+0x1ac>
   118fc:	e0603003 	rsb	r3, r0, r3
   11900:	e0855003 	add	r5, r5, r3
   11904:	eaffff9d 	b	11780 <printk+0x3c>
   11908:	e59d0014 	ldr	r0, [sp, #20]
   1190c:	e1a01006 	mov	r1, r6
   11910:	e3a02010 	mov	r2, #16
   11914:	e2803004 	add	r3, r0, #4
   11918:	e5900000 	ldr	r0, [r0]
   1191c:	e58d3014 	str	r3, [sp, #20]
   11920:	ebfffef4 	bl	114f8 <utoa>
   11924:	e5d6a000 	ldrb	sl, [r6]
   11928:	e35a0000 	cmp	sl, #0
   1192c:	0a000004 	beq	11944 <printk+0x200>
   11930:	e1a0a006 	mov	sl, r6
   11934:	e5fa3001 	ldrb	r3, [sl, #1]!
   11938:	e3530000 	cmp	r3, #0
   1193c:	1afffffc 	bne	11934 <printk+0x1f0>
   11940:	e066a00a 	rsb	sl, r6, sl
   11944:	e1a0100a 	mov	r1, sl
   11948:	e1a00006 	mov	r0, r6
   1194c:	e1a02007 	mov	r2, r7
   11950:	ebffff17 	bl	115b4 <print_align>
   11954:	e28d3003 	add	r3, sp, #3
   11958:	e080000a 	add	r0, r0, sl
   1195c:	e1a01005 	mov	r1, r5
   11960:	e5f32001 	ldrb	r2, [r3, #1]!
   11964:	e3520000 	cmp	r2, #0
   11968:	e4c12001 	strb	r2, [r1], #1
   1196c:	1afffffb 	bne	11960 <printk+0x21c>
   11970:	e0855000 	add	r5, r5, r0
   11974:	eaffff81 	b	11780 <printk+0x3c>
   11978:	e59d3014 	ldr	r3, [sp, #20]
   1197c:	e5932000 	ldr	r2, [r3]
   11980:	e2833004 	add	r3, r3, #4
   11984:	e58d3014 	str	r3, [sp, #20]
   11988:	e5c52000 	strb	r2, [r5]
   1198c:	eaffff7b 	b	11780 <printk+0x3c>
   11990:	e5c59000 	strb	r9, [r5]
   11994:	e5d43000 	ldrb	r3, [r4]
   11998:	e5c53001 	strb	r3, [r5, #1]
   1199c:	e2855002 	add	r5, r5, #2
   119a0:	eaffff76 	b	11780 <printk+0x3c>
   119a4:	e59d2014 	ldr	r2, [sp, #20]
   119a8:	e1a01006 	mov	r1, r6
   119ac:	e2823004 	add	r3, r2, #4
   119b0:	e5920000 	ldr	r0, [r2]
   119b4:	e58d3014 	str	r3, [sp, #20]
   119b8:	ebffff27 	bl	1165c <itoa.constprop.0>
   119bc:	e5d6a000 	ldrb	sl, [r6]
   119c0:	e35a0000 	cmp	sl, #0
   119c4:	0a000004 	beq	119dc <printk+0x298>
   119c8:	e1a0a006 	mov	sl, r6
   119cc:	e5fa3001 	ldrb	r3, [sl, #1]!
   119d0:	e3530000 	cmp	r3, #0
   119d4:	1afffffc 	bne	119cc <printk+0x288>
   119d8:	e066a00a 	rsb	sl, r6, sl
   119dc:	e1a0100a 	mov	r1, sl
   119e0:	e1a00006 	mov	r0, r6
   119e4:	e1a02007 	mov	r2, r7
   119e8:	ebfffef1 	bl	115b4 <print_align>
   119ec:	e28d3003 	add	r3, sp, #3
   119f0:	e080000a 	add	r0, r0, sl
   119f4:	e1a01005 	mov	r1, r5
   119f8:	e5f32001 	ldrb	r2, [r3, #1]!
   119fc:	e3520000 	cmp	r2, #0
   11a00:	e4c12001 	strb	r2, [r1], #1
   11a04:	1afffffb 	bne	119f8 <printk+0x2b4>
   11a08:	e0855000 	add	r5, r5, r0
   11a0c:	eaffff5b 	b	11780 <printk+0x3c>
   11a10:	00012e50 	andeq	r2, r1, r0, asr lr

00011a14 <printk_nommu>:
   11a14:	e92d000f 	push	{r0, r1, r2, r3}
   11a18:	e92d47f0 	push	{r4, r5, r6, r7, r8, r9, sl, lr}
   11a1c:	e24dd018 	sub	sp, sp, #24
   11a20:	e28d303c 	add	r3, sp, #60	; 0x3c
   11a24:	e59d4038 	ldr	r4, [sp, #56]	; 0x38
   11a28:	e58d3014 	str	r3, [sp, #20]
   11a2c:	e59f82ac 	ldr	r8, [pc, #684]	; 11ce0 <printk_nommu+0x2cc>
   11a30:	e5d43000 	ldrb	r3, [r4]
   11a34:	e3530000 	cmp	r3, #0
   11a38:	01a05008 	moveq	r5, r8
   11a3c:	0a00002c 	beq	11af4 <printk_nommu+0xe0>
   11a40:	e3a09025 	mov	r9, #37	; 0x25
   11a44:	e28d6004 	add	r6, sp, #4
   11a48:	e1a05008 	mov	r5, r8
   11a4c:	ea000003 	b	11a60 <printk_nommu+0x4c>
   11a50:	e5d43001 	ldrb	r3, [r4, #1]
   11a54:	e2844001 	add	r4, r4, #1
   11a58:	e3530000 	cmp	r3, #0
   11a5c:	0a000024 	beq	11af4 <printk_nommu+0xe0>
   11a60:	e3530025 	cmp	r3, #37	; 0x25
   11a64:	14c53001 	strbne	r3, [r5], #1
   11a68:	1afffff8 	bne	11a50 <printk_nommu+0x3c>
   11a6c:	e5d43001 	ldrb	r3, [r4, #1]
   11a70:	e2432031 	sub	r2, r3, #49	; 0x31
   11a74:	e3520008 	cmp	r2, #8
   11a78:	92437030 	subls	r7, r3, #48	; 0x30
   11a7c:	95d43002 	ldrbls	r3, [r4, #2]
   11a80:	82844001 	addhi	r4, r4, #1
   11a84:	83a07000 	movhi	r7, #0
   11a88:	92844002 	addls	r4, r4, #2
   11a8c:	e2433063 	sub	r3, r3, #99	; 0x63
   11a90:	e3530015 	cmp	r3, #21
   11a94:	979ff103 	ldrls	pc, [pc, r3, lsl #2]
   11a98:	ea000070 	b	11c60 <printk_nommu+0x24c>
   11a9c:	00011c48 	andeq	r1, r1, r8, asr #24
   11aa0:	00011c74 	andeq	r1, r1, r4, ror ip
   11aa4:	00011c60 	andeq	r1, r1, r0, ror #24
   11aa8:	00011c60 	andeq	r1, r1, r0, ror #24
   11aac:	00011c60 	andeq	r1, r1, r0, ror #24
   11ab0:	00011c60 	andeq	r1, r1, r0, ror #24
   11ab4:	00011c60 	andeq	r1, r1, r0, ror #24
   11ab8:	00011c60 	andeq	r1, r1, r0, ror #24
   11abc:	00011c60 	andeq	r1, r1, r0, ror #24
   11ac0:	00011c60 	andeq	r1, r1, r0, ror #24
   11ac4:	00011c60 	andeq	r1, r1, r0, ror #24
   11ac8:	00011c60 	andeq	r1, r1, r0, ror #24
   11acc:	00011c60 	andeq	r1, r1, r0, ror #24
   11ad0:	00011bd8 	ldrdeq	r1, [r1], -r8
   11ad4:	00011c60 	andeq	r1, r1, r0, ror #24
   11ad8:	00011c60 	andeq	r1, r1, r0, ror #24
   11adc:	00011b88 	andeq	r1, r1, r8, lsl #23
   11ae0:	00011c60 	andeq	r1, r1, r0, ror #24
   11ae4:	00011b18 	andeq	r1, r1, r8, lsl fp
   11ae8:	00011c60 	andeq	r1, r1, r0, ror #24
   11aec:	00011c60 	andeq	r1, r1, r0, ror #24
   11af0:	00011bd8 	ldrdeq	r1, [r1], -r8
   11af4:	e3a03000 	mov	r3, #0
   11af8:	e59f01e0 	ldr	r0, [pc, #480]	; 11ce0 <printk_nommu+0x2cc>
   11afc:	e4c53001 	strb	r3, [r5], #1
   11b00:	ebfffdc6 	bl	11220 <serial_puts_nommu>
   11b04:	e0680005 	rsb	r0, r8, r5
   11b08:	e28dd018 	add	sp, sp, #24
   11b0c:	e8bd47f0 	pop	{r4, r5, r6, r7, r8, r9, sl, lr}
   11b10:	e28dd010 	add	sp, sp, #16
   11b14:	e12fff1e 	bx	lr
   11b18:	e59d0014 	ldr	r0, [sp, #20]
   11b1c:	e1a01006 	mov	r1, r6
   11b20:	e3a0200a 	mov	r2, #10
   11b24:	e2803004 	add	r3, r0, #4
   11b28:	e5900000 	ldr	r0, [r0]
   11b2c:	e58d3014 	str	r3, [sp, #20]
   11b30:	ebfffe70 	bl	114f8 <utoa>
   11b34:	e5d6a000 	ldrb	sl, [r6]
   11b38:	e35a0000 	cmp	sl, #0
   11b3c:	0a000004 	beq	11b54 <printk_nommu+0x140>
   11b40:	e1a0a006 	mov	sl, r6
   11b44:	e5fa3001 	ldrb	r3, [sl, #1]!
   11b48:	e3530000 	cmp	r3, #0
   11b4c:	1afffffc 	bne	11b44 <printk_nommu+0x130>
   11b50:	e066a00a 	rsb	sl, r6, sl
   11b54:	e1a0100a 	mov	r1, sl
   11b58:	e1a00006 	mov	r0, r6
   11b5c:	e1a02007 	mov	r2, r7
   11b60:	ebfffe93 	bl	115b4 <print_align>
   11b64:	e28d3003 	add	r3, sp, #3
   11b68:	e080000a 	add	r0, r0, sl
   11b6c:	e1a01005 	mov	r1, r5
   11b70:	e5f32001 	ldrb	r2, [r3, #1]!
   11b74:	e3520000 	cmp	r2, #0
   11b78:	e4c12001 	strb	r2, [r1], #1
   11b7c:	1afffffb 	bne	11b70 <printk_nommu+0x15c>
   11b80:	e0855000 	add	r5, r5, r0
   11b84:	eaffffb1 	b	11a50 <printk_nommu+0x3c>
   11b88:	e59d3014 	ldr	r3, [sp, #20]
   11b8c:	e1a01005 	mov	r1, r5
   11b90:	e2832004 	add	r2, r3, #4
   11b94:	e58d2014 	str	r2, [sp, #20]
   11b98:	e5930000 	ldr	r0, [r3]
   11b9c:	e2402001 	sub	r2, r0, #1
   11ba0:	e5f23001 	ldrb	r3, [r2, #1]!
   11ba4:	e3530000 	cmp	r3, #0
   11ba8:	e4c13001 	strb	r3, [r1], #1
   11bac:	1afffffb 	bne	11ba0 <printk_nommu+0x18c>
   11bb0:	e5d03000 	ldrb	r3, [r0]
   11bb4:	e3530000 	cmp	r3, #0
   11bb8:	0a000004 	beq	11bd0 <printk_nommu+0x1bc>
   11bbc:	e1a03000 	mov	r3, r0
   11bc0:	e5f32001 	ldrb	r2, [r3, #1]!
   11bc4:	e3520000 	cmp	r2, #0
   11bc8:	1afffffc 	bne	11bc0 <printk_nommu+0x1ac>
   11bcc:	e0603003 	rsb	r3, r0, r3
   11bd0:	e0855003 	add	r5, r5, r3
   11bd4:	eaffff9d 	b	11a50 <printk_nommu+0x3c>
   11bd8:	e59d0014 	ldr	r0, [sp, #20]
   11bdc:	e1a01006 	mov	r1, r6
   11be0:	e3a02010 	mov	r2, #16
   11be4:	e2803004 	add	r3, r0, #4
   11be8:	e5900000 	ldr	r0, [r0]
   11bec:	e58d3014 	str	r3, [sp, #20]
   11bf0:	ebfffe40 	bl	114f8 <utoa>
   11bf4:	e5d6a000 	ldrb	sl, [r6]
   11bf8:	e35a0000 	cmp	sl, #0
   11bfc:	0a000004 	beq	11c14 <printk_nommu+0x200>
   11c00:	e1a0a006 	mov	sl, r6
   11c04:	e5fa3001 	ldrb	r3, [sl, #1]!
   11c08:	e3530000 	cmp	r3, #0
   11c0c:	1afffffc 	bne	11c04 <printk_nommu+0x1f0>
   11c10:	e066a00a 	rsb	sl, r6, sl
   11c14:	e1a0100a 	mov	r1, sl
   11c18:	e1a00006 	mov	r0, r6
   11c1c:	e1a02007 	mov	r2, r7
   11c20:	ebfffe63 	bl	115b4 <print_align>
   11c24:	e28d3003 	add	r3, sp, #3
   11c28:	e080000a 	add	r0, r0, sl
   11c2c:	e1a01005 	mov	r1, r5
   11c30:	e5f32001 	ldrb	r2, [r3, #1]!
   11c34:	e3520000 	cmp	r2, #0
   11c38:	e4c12001 	strb	r2, [r1], #1
   11c3c:	1afffffb 	bne	11c30 <printk_nommu+0x21c>
   11c40:	e0855000 	add	r5, r5, r0
   11c44:	eaffff81 	b	11a50 <printk_nommu+0x3c>
   11c48:	e59d3014 	ldr	r3, [sp, #20]
   11c4c:	e5932000 	ldr	r2, [r3]
   11c50:	e2833004 	add	r3, r3, #4
   11c54:	e58d3014 	str	r3, [sp, #20]
   11c58:	e5c52000 	strb	r2, [r5]
   11c5c:	eaffff7b 	b	11a50 <printk_nommu+0x3c>
   11c60:	e5c59000 	strb	r9, [r5]
   11c64:	e5d43000 	ldrb	r3, [r4]
   11c68:	e5c53001 	strb	r3, [r5, #1]
   11c6c:	e2855002 	add	r5, r5, #2
   11c70:	eaffff76 	b	11a50 <printk_nommu+0x3c>
   11c74:	e59d2014 	ldr	r2, [sp, #20]
   11c78:	e1a01006 	mov	r1, r6
   11c7c:	e2823004 	add	r3, r2, #4
   11c80:	e5920000 	ldr	r0, [r2]
   11c84:	e58d3014 	str	r3, [sp, #20]
   11c88:	ebfffe73 	bl	1165c <itoa.constprop.0>
   11c8c:	e5d6a000 	ldrb	sl, [r6]
   11c90:	e35a0000 	cmp	sl, #0
   11c94:	0a000004 	beq	11cac <printk_nommu+0x298>
   11c98:	e1a0a006 	mov	sl, r6
   11c9c:	e5fa3001 	ldrb	r3, [sl, #1]!
   11ca0:	e3530000 	cmp	r3, #0
   11ca4:	1afffffc 	bne	11c9c <printk_nommu+0x288>
   11ca8:	e066a00a 	rsb	sl, r6, sl
   11cac:	e1a0100a 	mov	r1, sl
   11cb0:	e1a00006 	mov	r0, r6
   11cb4:	e1a02007 	mov	r2, r7
   11cb8:	ebfffe3d 	bl	115b4 <print_align>
   11cbc:	e28d3003 	add	r3, sp, #3
   11cc0:	e080000a 	add	r0, r0, sl
   11cc4:	e1a01005 	mov	r1, r5
   11cc8:	e5f32001 	ldrb	r2, [r3, #1]!
   11ccc:	e3520000 	cmp	r2, #0
   11cd0:	e4c12001 	strb	r2, [r1], #1
   11cd4:	1afffffb 	bne	11cc8 <printk_nommu+0x2b4>
   11cd8:	e0855000 	add	r5, r5, r0
   11cdc:	eaffff5b 	b	11a50 <printk_nommu+0x3c>
   11ce0:	00012e50 	andeq	r2, r1, r0, asr lr

00011ce4 <standby_delay>:
   11ce4:	e92d000f 	push	{r0, r1, r2, r3}
   11ce8:	e3a01011 	mov	r1, #17
   11cec:	e1a03000 	mov	r3, r0

00011cf0 <standby_delay_loop2>:
   11cf0:	e2500001 	subs	r0, r0, #1
   11cf4:	8afffffd 	bhi	11cf0 <standby_delay_loop2>
   11cf8:	e1a00003 	mov	r0, r3
   11cfc:	e2511001 	subs	r1, r1, #1
   11d00:	8afffffa 	bhi	11cf0 <standby_delay_loop2>
   11d04:	e8bd000f 	pop	{r0, r1, r2, r3}
   11d08:	e1a0f00e 	mov	pc, lr

00011d0c <standby_delay_cycle>:
   11d0c:	e2500001 	subs	r0, r0, #1
   11d10:	8afffffd 	bhi	11d0c <standby_delay_cycle>
   11d14:	e1a0f00e 	mov	pc, lr

00011d18 <Ldiv0>:
   11d18:	e52de008 	str	lr, [sp, #-8]!
   11d1c:	eb000067 	bl	11ec0 <__mem_div0>
   11d20:	e3a00000 	mov	r0, #0
   11d24:	e49df008 	ldr	pc, [sp], #8

00011d28 <__aeabi_uidiv>:
   11d28:	e2512001 	subs	r2, r1, #1
   11d2c:	01a0f00e 	moveq	pc, lr
   11d30:	3afffff8 	bcc	11d18 <Ldiv0>
   11d34:	e1500001 	cmp	r0, r1
   11d38:	9a00001a 	bls	11da8 <__aeabi_uidiv+0x80>
   11d3c:	e1110002 	tst	r1, r2
   11d40:	0a00001b 	beq	11db4 <__aeabi_uidiv+0x8c>
   11d44:	e16f3f11 	clz	r3, r1
   11d48:	e16f2f10 	clz	r2, r0
   11d4c:	e0432002 	sub	r2, r3, r2
   11d50:	e3a03001 	mov	r3, #1
   11d54:	e1a01211 	lsl	r1, r1, r2
   11d58:	e1a03213 	lsl	r3, r3, r2
   11d5c:	e3a02000 	mov	r2, #0
   11d60:	e1500001 	cmp	r0, r1
   11d64:	20400001 	subcs	r0, r0, r1
   11d68:	21822003 	orrcs	r2, r2, r3
   11d6c:	e15000a1 	cmp	r0, r1, lsr #1
   11d70:	204000a1 	subcs	r0, r0, r1, lsr #1
   11d74:	218220a3 	orrcs	r2, r2, r3, lsr #1
   11d78:	e1500121 	cmp	r0, r1, lsr #2
   11d7c:	20400121 	subcs	r0, r0, r1, lsr #2
   11d80:	21822123 	orrcs	r2, r2, r3, lsr #2
   11d84:	e15001a1 	cmp	r0, r1, lsr #3
   11d88:	204001a1 	subcs	r0, r0, r1, lsr #3
   11d8c:	218221a3 	orrcs	r2, r2, r3, lsr #3
   11d90:	e3500000 	cmp	r0, #0
   11d94:	11b03223 	lsrsne	r3, r3, #4
   11d98:	11a01221 	lsrne	r1, r1, #4
   11d9c:	1affffef 	bne	11d60 <__aeabi_uidiv+0x38>
   11da0:	e1a00002 	mov	r0, r2
   11da4:	e1a0f00e 	mov	pc, lr
   11da8:	03a00001 	moveq	r0, #1
   11dac:	13a00000 	movne	r0, #0
   11db0:	e1a0f00e 	mov	pc, lr
   11db4:	e16f2f11 	clz	r2, r1
   11db8:	e262201f 	rsb	r2, r2, #31
   11dbc:	e1a00230 	lsr	r0, r0, r2
   11dc0:	e1a0f00e 	mov	pc, lr

00011dc4 <__aeabi_idiv>:
   11dc4:	e3510000 	cmp	r1, #0
   11dc8:	e020c001 	eor	ip, r0, r1
   11dcc:	0affffd1 	beq	11d18 <Ldiv0>
   11dd0:	42611000 	rsbmi	r1, r1, #0
   11dd4:	e2512001 	subs	r2, r1, #1
   11dd8:	0a00001f 	beq	11e5c <__aeabi_idiv+0x98>
   11ddc:	e1b03000 	movs	r3, r0
   11de0:	42603000 	rsbmi	r3, r0, #0
   11de4:	e1530001 	cmp	r3, r1
   11de8:	9a00001e 	bls	11e68 <__aeabi_idiv+0xa4>
   11dec:	e1110002 	tst	r1, r2
   11df0:	0a000020 	beq	11e78 <__aeabi_idiv+0xb4>
   11df4:	e16f2f11 	clz	r2, r1
   11df8:	e16f0f13 	clz	r0, r3
   11dfc:	e0420000 	sub	r0, r2, r0
   11e00:	e3a02001 	mov	r2, #1
   11e04:	e1a01011 	lsl	r1, r1, r0
   11e08:	e1a02012 	lsl	r2, r2, r0
   11e0c:	e3a00000 	mov	r0, #0
   11e10:	e1530001 	cmp	r3, r1
   11e14:	20433001 	subcs	r3, r3, r1
   11e18:	21800002 	orrcs	r0, r0, r2
   11e1c:	e15300a1 	cmp	r3, r1, lsr #1
   11e20:	204330a1 	subcs	r3, r3, r1, lsr #1
   11e24:	218000a2 	orrcs	r0, r0, r2, lsr #1
   11e28:	e1530121 	cmp	r3, r1, lsr #2
   11e2c:	20433121 	subcs	r3, r3, r1, lsr #2
   11e30:	21800122 	orrcs	r0, r0, r2, lsr #2
   11e34:	e15301a1 	cmp	r3, r1, lsr #3
   11e38:	204331a1 	subcs	r3, r3, r1, lsr #3
   11e3c:	218001a2 	orrcs	r0, r0, r2, lsr #3
   11e40:	e3530000 	cmp	r3, #0
   11e44:	11b02222 	lsrsne	r2, r2, #4
   11e48:	11a01221 	lsrne	r1, r1, #4
   11e4c:	1affffef 	bne	11e10 <__aeabi_idiv+0x4c>
   11e50:	e35c0000 	cmp	ip, #0
   11e54:	42600000 	rsbmi	r0, r0, #0
   11e58:	e1a0f00e 	mov	pc, lr
   11e5c:	e13c0000 	teq	ip, r0
   11e60:	42600000 	rsbmi	r0, r0, #0
   11e64:	e1a0f00e 	mov	pc, lr
   11e68:	33a00000 	movcc	r0, #0
   11e6c:	01a00fcc 	asreq	r0, ip, #31
   11e70:	03800001 	orreq	r0, r0, #1
   11e74:	e1a0f00e 	mov	pc, lr
   11e78:	e16f2f11 	clz	r2, r1
   11e7c:	e262201f 	rsb	r2, r2, #31
   11e80:	e35c0000 	cmp	ip, #0
   11e84:	e1a00233 	lsr	r0, r3, r2
   11e88:	42600000 	rsbmi	r0, r0, #0
   11e8c:	e1a0f00e 	mov	pc, lr

00011e90 <__aeabi_uidivmod>:
   11e90:	e92d5003 	push	{r0, r1, ip, lr}
   11e94:	ebffffa3 	bl	11d28 <__aeabi_uidiv>
   11e98:	e8bd5006 	pop	{r1, r2, ip, lr}
   11e9c:	e0030290 	mul	r3, r0, r2
   11ea0:	e0411003 	sub	r1, r1, r3
   11ea4:	e1a0f00e 	mov	pc, lr

00011ea8 <__aeabi_idivmod>:
   11ea8:	e92d5003 	push	{r0, r1, ip, lr}
   11eac:	ebffffc4 	bl	11dc4 <__aeabi_idiv>
   11eb0:	e8bd5006 	pop	{r1, r2, ip, lr}
   11eb4:	e0030290 	mul	r3, r0, r2
   11eb8:	e0411003 	sub	r1, r1, r3
   11ebc:	e1a0f00e 	mov	pc, lr

00011ec0 <__mem_div0>:
   11ec0:	e3020d24 	movw	r0, #11556	; 0x2d24
   11ec4:	e3400001 	movt	r0, #1
   11ec8:	eafffe1d 	b	11744 <printk>

00011ecc <raw_lib_udiv>:
   11ecc:	e3510000 	cmp	r1, #0
   11ed0:	01a02001 	moveq	r2, r1
   11ed4:	0a00000d 	beq	11f10 <raw_lib_udiv+0x44>
   11ed8:	e3a03000 	mov	r3, #0
   11edc:	ba000002 	blt	11eec <raw_lib_udiv+0x20>
   11ee0:	e1b01081 	lsls	r1, r1, #1
   11ee4:	e2833001 	add	r3, r3, #1
   11ee8:	5afffffc 	bpl	11ee0 <raw_lib_udiv+0x14>
   11eec:	e3a02000 	mov	r2, #0
   11ef0:	e1a0c082 	lsl	ip, r2, #1
   11ef4:	e1500001 	cmp	r0, r1
   11ef8:	20610000 	rsbcs	r0, r1, r0
   11efc:	31a02082 	lslcc	r2, r2, #1
   11f00:	238c2001 	orrcs	r2, ip, #1
   11f04:	e1a010a1 	lsr	r1, r1, #1
   11f08:	e2533001 	subs	r3, r3, #1
   11f0c:	5afffff7 	bpl	11ef0 <raw_lib_udiv+0x24>
   11f10:	e1a00002 	mov	r0, r2
   11f14:	e12fff1e 	bx	lr

00011f18 <mem_int_init>:
   11f18:	e59f0080 	ldr	r0, [pc, #128]	; 11fa0 <mem_int_init+0x88>
   11f1c:	e3013184 	movw	r3, #4484	; 0x1184
   11f20:	e3a02d47 	mov	r2, #4544	; 0x11c0
   11f24:	e92d4010 	push	{r4, lr}
   11f28:	e3a0ca02 	mov	ip, #8192	; 0x2000
   11f2c:	e3a04a01 	mov	r4, #4096	; 0x1000
   11f30:	e34f31c4 	movt	r3, #61892	; 0xf1c4
   11f34:	e3e01000 	mvn	r1, #0
   11f38:	e34f21c4 	movt	r2, #61892	; 0xf1c4
   11f3c:	e34f41c4 	movt	r4, #61892	; 0xf1c4
   11f40:	e34fc1c4 	movt	ip, #61892	; 0xf1c4
   11f44:	e8801010 	stm	r0, {r4, ip}
   11f48:	e4831004 	str	r1, [r3], #4
   11f4c:	e1530002 	cmp	r3, r2
   11f50:	1afffffc 	bne	11f48 <mem_int_init+0x30>
   11f54:	e3013284 	movw	r3, #4740	; 0x1284
   11f58:	e3a02d4b 	mov	r2, #4800	; 0x12c0
   11f5c:	e34f31c4 	movt	r3, #61892	; 0xf1c4
   11f60:	e3e01000 	mvn	r1, #0
   11f64:	e34f21c4 	movt	r2, #61892	; 0xf1c4
   11f68:	e4831004 	str	r1, [r3], #4
   11f6c:	e1530002 	cmp	r3, r2
   11f70:	1afffffc 	bne	11f68 <mem_int_init+0x50>
   11f74:	e3a03a02 	mov	r3, #8192	; 0x2000
   11f78:	e30023ff 	movw	r2, #1023	; 0x3ff
   11f7c:	e34f31c4 	movt	r3, #61892	; 0xf1c4
   11f80:	e593100c 	ldr	r1, [r3, #12]
   11f84:	e1510002 	cmp	r1, r2
   11f88:	0a000002 	beq	11f98 <mem_int_init+0x80>
   11f8c:	e5831010 	str	r1, [r3, #16]
   11f90:	e59f000c 	ldr	r0, [pc, #12]	; 11fa4 <mem_int_init+0x8c>
   11f94:	ebfffdea 	bl	11744 <printk>
   11f98:	e3a00000 	mov	r0, #0
   11f9c:	e8bd8010 	pop	{r4, pc}
   11fa0:	00012f50 	andeq	r2, r1, r0, asr pc
   11fa4:	00012d40 	andeq	r2, r1, r0, asr #26

00011fa8 <mem_int_exit>:
   11fa8:	e3a02000 	mov	r2, #0
   11fac:	e24dd008 	sub	sp, sp, #8
   11fb0:	e1a03002 	mov	r3, r2
   11fb4:	e58d2004 	str	r2, [sp, #4]
   11fb8:	e59f2038 	ldr	r2, [pc, #56]	; 11ff8 <mem_int_exit+0x50>
   11fbc:	e5922000 	ldr	r2, [r2]
   11fc0:	e282cc01 	add	ip, r2, #256	; 0x100
   11fc4:	e2822d0a 	add	r2, r2, #640	; 0x280
   11fc8:	e79c1003 	ldr	r1, [ip, r3]
   11fcc:	e58d1004 	str	r1, [sp, #4]
   11fd0:	e7921003 	ldr	r1, [r2, r3]
   11fd4:	e59d0004 	ldr	r0, [sp, #4]
   11fd8:	e1c11000 	bic	r1, r1, r0
   11fdc:	e7821003 	str	r1, [r2, r3]
   11fe0:	e2833004 	add	r3, r3, #4
   11fe4:	e3530040 	cmp	r3, #64	; 0x40
   11fe8:	1afffff6 	bne	11fc8 <mem_int_exit+0x20>
   11fec:	e3a00000 	mov	r0, #0
   11ff0:	e28dd008 	add	sp, sp, #8
   11ff4:	e12fff1e 	bx	lr
   11ff8:	00012f50 	andeq	r2, r1, r0, asr pc

00011ffc <mem_enable_int>:
   11ffc:	e1a022a0 	lsr	r2, r0, #5
   12000:	e92d0030 	push	{r4, r5}
   12004:	e3023f50 	movw	r3, #12112	; 0x2f50
   12008:	e2822040 	add	r2, r2, #64	; 0x40
   1200c:	e3a0ca01 	mov	ip, #4096	; 0x1000
   12010:	e1a02102 	lsl	r2, r2, #2
   12014:	e3a01a02 	mov	r1, #8192	; 0x2000
   12018:	e3403001 	movt	r3, #1
   1201c:	e24226e3 	sub	r2, r2, #238026752	; 0xe300000
   12020:	e34fc1c4 	movt	ip, #61892	; 0xf1c4
   12024:	e2422abf 	sub	r2, r2, #782336	; 0xbf000
   12028:	e34f11c4 	movt	r1, #61892	; 0xf1c4
   1202c:	e5924000 	ldr	r4, [r2]
   12030:	e200501f 	and	r5, r0, #31
   12034:	e583c000 	str	ip, [r3]
   12038:	e3a00000 	mov	r0, #0
   1203c:	e5831004 	str	r1, [r3, #4]
   12040:	e3a03001 	mov	r3, #1
   12044:	e1843513 	orr	r3, r4, r3, lsl r5
   12048:	e5823000 	str	r3, [r2]
   1204c:	e8bd0030 	pop	{r4, r5}
   12050:	e12fff1e 	bx	lr

00012054 <mem_query_int>:
   12054:	e1a0c2a0 	lsr	ip, r0, #5
   12058:	e59f3040 	ldr	r3, [pc, #64]	; 120a0 <mem_query_int+0x4c>
   1205c:	e3a01a01 	mov	r1, #4096	; 0x1000
   12060:	e28cc080 	add	ip, ip, #128	; 0x80
   12064:	e34f11c4 	movt	r1, #61892	; 0xf1c4
   12068:	e1a0c10c 	lsl	ip, ip, #2
   1206c:	e5831000 	str	r1, [r3]
   12070:	e3a02a02 	mov	r2, #8192	; 0x2000
   12074:	e24cc6e3 	sub	ip, ip, #238026752	; 0xe300000
   12078:	e34f21c4 	movt	r2, #61892	; 0xf1c4
   1207c:	e24ccabf 	sub	ip, ip, #782336	; 0xbf000
   12080:	e200001f 	and	r0, r0, #31
   12084:	e59c1000 	ldr	r1, [ip]
   12088:	e5832004 	str	r2, [r3, #4]
   1208c:	e3a03001 	mov	r3, #1
   12090:	e0113013 	ands	r3, r1, r3, lsl r0
   12094:	03e00000 	mvneq	r0, #0
   12098:	13a00000 	movne	r0, #0
   1209c:	e12fff1e 	bx	lr
   120a0:	00012f50 	andeq	r2, r1, r0, asr pc

000120a4 <mem_tmr_save>:
   120a4:	e3a024f6 	mov	r2, #-167772160	; 0xf6000000
   120a8:	e52d4004 	push	{r4}		; (str r4, [sp, #-4]!)
   120ac:	e5924c00 	ldr	r4, [r2, #3072]	; 0xc00
   120b0:	e1a03000 	mov	r3, r0
   120b4:	e3021f58 	movw	r1, #12120	; 0x2f58
   120b8:	e3a0cb03 	mov	ip, #3072	; 0xc00
   120bc:	e3401001 	movt	r1, #1
   120c0:	e34fc600 	movt	ip, #62976	; 0xf600
   120c4:	e5834000 	str	r4, [r3]
   120c8:	e3a00000 	mov	r0, #0
   120cc:	e5924c10 	ldr	r4, [r2, #3088]	; 0xc10
   120d0:	e581c000 	str	ip, [r1]
   120d4:	e5834010 	str	r4, [r3, #16]
   120d8:	e5921c14 	ldr	r1, [r2, #3092]	; 0xc14
   120dc:	e5831014 	str	r1, [r3, #20]
   120e0:	e5921c18 	ldr	r1, [r2, #3096]	; 0xc18
   120e4:	e5831018 	str	r1, [r3, #24]
   120e8:	e5921c20 	ldr	r1, [r2, #3104]	; 0xc20
   120ec:	e5831020 	str	r1, [r3, #32]
   120f0:	e5921c24 	ldr	r1, [r2, #3108]	; 0xc24
   120f4:	e5831024 	str	r1, [r3, #36]	; 0x24
   120f8:	e5922c28 	ldr	r2, [r2, #3112]	; 0xc28
   120fc:	e5832028 	str	r2, [r3, #40]	; 0x28
   12100:	e8bd0010 	pop	{r4}
   12104:	e12fff1e 	bx	lr

00012108 <mem_tmr_restore>:
   12108:	e3023f58 	movw	r3, #12120	; 0x2f58
   1210c:	e5901014 	ldr	r1, [r0, #20]
   12110:	e3403001 	movt	r3, #1
   12114:	e1a02000 	mov	r2, r0
   12118:	e5933000 	ldr	r3, [r3]
   1211c:	e3a00000 	mov	r0, #0
   12120:	e5831014 	str	r1, [r3, #20]
   12124:	e5921018 	ldr	r1, [r2, #24]
   12128:	e5831018 	str	r1, [r3, #24]
   1212c:	e5921010 	ldr	r1, [r2, #16]
   12130:	e5831010 	str	r1, [r3, #16]
   12134:	e5921024 	ldr	r1, [r2, #36]	; 0x24
   12138:	e5831024 	str	r1, [r3, #36]	; 0x24
   1213c:	e5921028 	ldr	r1, [r2, #40]	; 0x28
   12140:	e5831028 	str	r1, [r3, #40]	; 0x28
   12144:	e5921020 	ldr	r1, [r2, #32]
   12148:	e5831020 	str	r1, [r3, #32]
   1214c:	e5922000 	ldr	r2, [r2]
   12150:	e5832000 	str	r2, [r3]
   12154:	e12fff1e 	bx	lr

00012158 <mem_tmr_init>:
   12158:	e3a024f6 	mov	r2, #-167772160	; 0xf6000000
   1215c:	e3023f58 	movw	r3, #12120	; 0x2f58
   12160:	e592ccb4 	ldr	ip, [r2, #3252]	; 0xcb4
   12164:	e3403001 	movt	r3, #1
   12168:	e3a01b03 	mov	r1, #3072	; 0xc00
   1216c:	e3a00000 	mov	r0, #0
   12170:	e34f1600 	movt	r1, #62976	; 0xf600
   12174:	e583c004 	str	ip, [r3, #4]
   12178:	e592ccb8 	ldr	ip, [r2, #3256]	; 0xcb8
   1217c:	e5831000 	str	r1, [r3]
   12180:	e583c008 	str	ip, [r3, #8]
   12184:	e5922ca0 	ldr	r2, [r2, #3232]	; 0xca0
   12188:	e583200c 	str	r2, [r3, #12]
   1218c:	e12fff1e 	bx	lr

00012190 <mem_tmr_exit>:
   12190:	e3023f58 	movw	r3, #12120	; 0x2f58
   12194:	e3a00000 	mov	r0, #0
   12198:	e3403001 	movt	r3, #1
   1219c:	e8931004 	ldm	r3, {r2, ip}
   121a0:	e5931008 	ldr	r1, [r3, #8]
   121a4:	e593300c 	ldr	r3, [r3, #12]
   121a8:	e582c0b4 	str	ip, [r2, #180]	; 0xb4
   121ac:	e58210b8 	str	r1, [r2, #184]	; 0xb8
   121b0:	e58230a0 	str	r3, [r2, #160]	; 0xa0
   121b4:	e12fff1e 	bx	lr

000121b8 <mem_tmr_enable_watchdog>:
   121b8:	e3023f58 	movw	r3, #12120	; 0x2f58
   121bc:	e3403001 	movt	r3, #1
   121c0:	e5933000 	ldr	r3, [r3]
   121c4:	e59320b4 	ldr	r2, [r3, #180]	; 0xb4
   121c8:	e3c22003 	bic	r2, r2, #3
   121cc:	e58320b4 	str	r2, [r3, #180]	; 0xb4
   121d0:	e59320b4 	ldr	r2, [r3, #180]	; 0xb4
   121d4:	e3822001 	orr	r2, r2, #1
   121d8:	e58320b4 	str	r2, [r3, #180]	; 0xb4
   121dc:	e3a020b0 	mov	r2, #176	; 0xb0
   121e0:	e58320b8 	str	r2, [r3, #184]	; 0xb8
   121e4:	e59320a0 	ldr	r2, [r3, #160]	; 0xa0
   121e8:	e3822001 	orr	r2, r2, #1
   121ec:	e58320a0 	str	r2, [r3, #160]	; 0xa0
   121f0:	e59320b8 	ldr	r2, [r3, #184]	; 0xb8
   121f4:	e3822001 	orr	r2, r2, #1
   121f8:	e58320b8 	str	r2, [r3, #184]	; 0xb8
   121fc:	e12fff1e 	bx	lr

00012200 <mem_tmr_disable_watchdog>:
   12200:	e3023f58 	movw	r3, #12120	; 0x2f58
   12204:	e3403001 	movt	r3, #1
   12208:	e5933000 	ldr	r3, [r3]
   1220c:	e59320b4 	ldr	r2, [r3, #180]	; 0xb4
   12210:	e3c22003 	bic	r2, r2, #3
   12214:	e58320b4 	str	r2, [r3, #180]	; 0xb4
   12218:	e59320b4 	ldr	r2, [r3, #180]	; 0xb4
   1221c:	e3822002 	orr	r2, r2, #2
   12220:	e58320b4 	str	r2, [r3, #180]	; 0xb4
   12224:	e59320a0 	ldr	r2, [r3, #160]	; 0xa0
   12228:	e3c22001 	bic	r2, r2, #1
   1222c:	e58320a0 	str	r2, [r3, #160]	; 0xa0
   12230:	e59320b8 	ldr	r2, [r3, #184]	; 0xb8
   12234:	e3c22001 	bic	r2, r2, #1
   12238:	e58320b8 	str	r2, [r3, #184]	; 0xb8
   1223c:	e12fff1e 	bx	lr

00012240 <mem_tmstmp_save>:
   12240:	e3a03000 	mov	r3, #0
   12244:	e1a02000 	mov	r2, r0
   12248:	e34f3172 	movt	r3, #61810	; 0xf172
   1224c:	e3020f68 	movw	r0, #12136	; 0x2f68
   12250:	e5931000 	ldr	r1, [r3]
   12254:	e3400001 	movt	r0, #1
   12258:	e5803000 	str	r3, [r0]
   1225c:	e3a00000 	mov	r0, #0
   12260:	e5821000 	str	r1, [r2]
   12264:	e5933020 	ldr	r3, [r3, #32]
   12268:	e5823020 	str	r3, [r2, #32]
   1226c:	e12fff1e 	bx	lr

00012270 <mem_tmstmp_restore>:
   12270:	e3023f68 	movw	r3, #12136	; 0x2f68
   12274:	e5901000 	ldr	r1, [r0]
   12278:	e3403001 	movt	r3, #1
   1227c:	e1a02000 	mov	r2, r0
   12280:	e5933000 	ldr	r3, [r3]
   12284:	e3a00000 	mov	r0, #0
   12288:	e5831000 	str	r1, [r3]
   1228c:	e5922020 	ldr	r2, [r2, #32]
   12290:	e5832020 	str	r2, [r3, #32]
   12294:	e12fff1e 	bx	lr

00012298 <hwspinlock_init>:
   12298:	e3500001 	cmp	r0, #1
   1229c:	e3a00000 	mov	r0, #0
   122a0:	03a034f6 	moveq	r3, #-167772160	; 0xf6000000
   122a4:	13a03406 	movne	r3, #100663296	; 0x6000000
   122a8:	e59325a4 	ldr	r2, [r3, #1444]	; 0x5a4
   122ac:	e3822501 	orr	r2, r2, #4194304	; 0x400000
   122b0:	e58325a4 	str	r2, [r3, #1444]	; 0x5a4
   122b4:	e5932584 	ldr	r2, [r3, #1412]	; 0x584
   122b8:	e3822501 	orr	r2, r2, #4194304	; 0x400000
   122bc:	e5832584 	str	r2, [r3, #1412]	; 0x584
   122c0:	e12fff1e 	bx	lr

000122c4 <hwspin_lock_timeout>:
   122c4:	e92d4008 	push	{r3, lr}
   122c8:	e10fc000 	mrs	ip, CPSR
   122cc:	f10c0080 	cpsid	i
   122d0:	e3a02d41 	mov	r2, #4160	; 0x1040
   122d4:	e3432c20 	movt	r2, #15392	; 0x3c20
   122d8:	e59f3058 	ldr	r3, [pc, #88]	; 12338 <hwspin_lock_timeout+0x74>
   122dc:	e0802002 	add	r2, r0, r2
   122e0:	e1a02102 	lsl	r2, r2, #2
   122e4:	e583c000 	str	ip, [r3]
   122e8:	e5923000 	ldr	r3, [r2]
   122ec:	e3530001 	cmp	r3, #1
   122f0:	1a00000e 	bne	12330 <hwspin_lock_timeout+0x6c>
   122f4:	e1b01501 	lsls	r1, r1, #10
   122f8:	1a000002 	bne	12308 <hwspin_lock_timeout+0x44>
   122fc:	ea000006 	b	1231c <hwspin_lock_timeout+0x58>
   12300:	e2511001 	subs	r1, r1, #1
   12304:	0a000004 	beq	1231c <hwspin_lock_timeout+0x58>
   12308:	e5923000 	ldr	r3, [r2]
   1230c:	e3530001 	cmp	r3, #1
   12310:	0afffffa 	beq	12300 <hwspin_lock_timeout+0x3c>
   12314:	e3a00000 	mov	r0, #0
   12318:	e8bd8008 	pop	{r3, pc}
   1231c:	e121f00c 	msr	CPSR_c, ip
   12320:	e59f0014 	ldr	r0, [pc, #20]	; 1233c <hwspin_lock_timeout+0x78>
   12324:	ebfffd06 	bl	11744 <printk>
   12328:	e3e00000 	mvn	r0, #0
   1232c:	e8bd8008 	pop	{r3, pc}
   12330:	e3a00000 	mov	r0, #0
   12334:	e8bd8008 	pop	{r3, pc}
   12338:	00012f6c 	andeq	r2, r1, ip, ror #30
   1233c:	00012d5c 	andeq	r2, r1, ip, asr sp

00012340 <hwspin_unlock>:
   12340:	e3a03d41 	mov	r3, #4160	; 0x1040
   12344:	e3022f6c 	movw	r2, #12140	; 0x2f6c
   12348:	e3433c20 	movt	r3, #15392	; 0x3c20
   1234c:	e3a01000 	mov	r1, #0
   12350:	e0803003 	add	r3, r0, r3
   12354:	e3402001 	movt	r2, #1
   12358:	e1a03103 	lsl	r3, r3, #2
   1235c:	e5922000 	ldr	r2, [r2]
   12360:	e5831000 	str	r1, [r3]
   12364:	e121f002 	msr	CPSR_c, r2
   12368:	e1a00001 	mov	r0, r1
   1236c:	e12fff1e 	bx	lr

00012370 <hwspin_lock_timeout_nommu>:
   12370:	e10f2000 	mrs	r2, CPSR
   12374:	f10c0080 	cpsid	i
   12378:	e2800602 	add	r0, r0, #2097152	; 0x200000
   1237c:	e59f3050 	ldr	r3, [pc, #80]	; 123d4 <hwspin_lock_timeout_nommu+0x64>
   12380:	e2800d41 	add	r0, r0, #4160	; 0x1040
   12384:	e1a00100 	lsl	r0, r0, #2
   12388:	e5832000 	str	r2, [r3]
   1238c:	e5903000 	ldr	r3, [r0]
   12390:	e3530001 	cmp	r3, #1
   12394:	1a00000c 	bne	123cc <hwspin_lock_timeout_nommu+0x5c>
   12398:	e1b01501 	lsls	r1, r1, #10
   1239c:	1a000002 	bne	123ac <hwspin_lock_timeout_nommu+0x3c>
   123a0:	ea000006 	b	123c0 <hwspin_lock_timeout_nommu+0x50>
   123a4:	e2511001 	subs	r1, r1, #1
   123a8:	0a000004 	beq	123c0 <hwspin_lock_timeout_nommu+0x50>
   123ac:	e5903000 	ldr	r3, [r0]
   123b0:	e3530001 	cmp	r3, #1
   123b4:	0afffffa 	beq	123a4 <hwspin_lock_timeout_nommu+0x34>
   123b8:	e3a00000 	mov	r0, #0
   123bc:	e12fff1e 	bx	lr
   123c0:	e121f002 	msr	CPSR_c, r2
   123c4:	e3e00000 	mvn	r0, #0
   123c8:	e12fff1e 	bx	lr
   123cc:	e3a00000 	mov	r0, #0
   123d0:	e12fff1e 	bx	lr
   123d4:	00012f6c 	andeq	r2, r1, ip, ror #30

000123d8 <hwspin_unlock_nommu>:
   123d8:	e2802602 	add	r2, r0, #2097152	; 0x200000
   123dc:	e3023f6c 	movw	r3, #12140	; 0x2f6c
   123e0:	e2822d41 	add	r2, r2, #4160	; 0x1040
   123e4:	e3a00000 	mov	r0, #0
   123e8:	e1a02102 	lsl	r2, r2, #2
   123ec:	e3403001 	movt	r3, #1
   123f0:	e5933000 	ldr	r3, [r3]
   123f4:	e5820000 	str	r0, [r2]
   123f8:	e121f003 	msr	CPSR_c, r3
   123fc:	e12fff1e 	bx	lr

00012400 <mem_clk_init>:
   12400:	e3500001 	cmp	r0, #1
   12404:	059f201c 	ldreq	r2, [pc, #28]	; 12428 <mem_clk_init+0x28>
   12408:	03a034f6 	moveq	r3, #-167772160	; 0xf6000000
   1240c:	159f2014 	ldrne	r2, [pc, #20]	; 12428 <mem_clk_init+0x28>
   12410:	13a03406 	movne	r3, #100663296	; 0x6000000
   12414:	01a00003 	moveq	r0, r3
   12418:	11a00003 	movne	r0, r3
   1241c:	05823000 	streq	r3, [r2]
   12420:	15823000 	strne	r3, [r2]
   12424:	e12fff1e 	bx	lr
   12428:	00012f70 	andeq	r2, r1, r0, ror pc

0001242c <mem_get_ba>:
   1242c:	e3023f70 	movw	r3, #12144	; 0x2f70
   12430:	e3403001 	movt	r3, #1
   12434:	e5930000 	ldr	r0, [r3]
   12438:	e12fff1e 	bx	lr

0001243c <mem_clk_save>:
   1243c:	e3a01b01 	mov	r1, #1024	; 0x400
   12440:	e1a03000 	mov	r3, r0
   12444:	e3a024f6 	mov	r2, #-167772160	; 0xf6000000
   12448:	e34f1600 	movt	r1, #62976	; 0xf600
   1244c:	e5802000 	str	r2, [r0]
   12450:	e3a00000 	mov	r0, #0
   12454:	e5831188 	str	r1, [r3, #392]	; 0x188
   12458:	e59210a4 	ldr	r1, [r2, #164]	; 0xa4
   1245c:	e58310a8 	str	r1, [r3, #168]	; 0xa8
   12460:	e59210a8 	ldr	r1, [r2, #168]	; 0xa8
   12464:	e58310ac 	str	r1, [r3, #172]	; 0xac
   12468:	e59210ac 	ldr	r1, [r2, #172]	; 0xac
   1246c:	e58310b0 	str	r1, [r3, #176]	; 0xb0
   12470:	e59210b0 	ldr	r1, [r2, #176]	; 0xb0
   12474:	e58310b4 	str	r1, [r3, #180]	; 0xb4
   12478:	e59210b8 	ldr	r1, [r2, #184]	; 0xb8
   1247c:	e58310bc 	str	r1, [r3, #188]	; 0xbc
   12480:	e59210bc 	ldr	r1, [r2, #188]	; 0xbc
   12484:	e58310c0 	str	r1, [r3, #192]	; 0xc0
   12488:	e59210c0 	ldr	r1, [r2, #192]	; 0xc0
   1248c:	e58310c4 	str	r1, [r3, #196]	; 0xc4
   12490:	e59210c4 	ldr	r1, [r2, #196]	; 0xc4
   12494:	e58310c8 	str	r1, [r3, #200]	; 0xc8
   12498:	e59210c8 	ldr	r1, [r2, #200]	; 0xc8
   1249c:	e58310cc 	str	r1, [r3, #204]	; 0xcc
   124a0:	e59210cc 	ldr	r1, [r2, #204]	; 0xcc
   124a4:	e58310d0 	str	r1, [r3, #208]	; 0xd0
   124a8:	e59210e4 	ldr	r1, [r2, #228]	; 0xe4
   124ac:	e58310e8 	str	r1, [r3, #232]	; 0xe8
   124b0:	e5921104 	ldr	r1, [r2, #260]	; 0x104
   124b4:	e5831108 	str	r1, [r3, #264]	; 0x108
   124b8:	e5921108 	ldr	r1, [r2, #264]	; 0x108
   124bc:	e583110c 	str	r1, [r3, #268]	; 0x10c
   124c0:	e592110c 	ldr	r1, [r2, #268]	; 0x10c
   124c4:	e5831110 	str	r1, [r3, #272]	; 0x110
   124c8:	e5921114 	ldr	r1, [r2, #276]	; 0x114
   124cc:	e5831118 	str	r1, [r3, #280]	; 0x118
   124d0:	e5921118 	ldr	r1, [r2, #280]	; 0x118
   124d4:	e583111c 	str	r1, [r3, #284]	; 0x11c
   124d8:	e592111c 	ldr	r1, [r2, #284]	; 0x11c
   124dc:	e5831120 	str	r1, [r3, #288]	; 0x120
   124e0:	e5921120 	ldr	r1, [r2, #288]	; 0x120
   124e4:	e5831124 	str	r1, [r3, #292]	; 0x124
   124e8:	e5921124 	ldr	r1, [r2, #292]	; 0x124
   124ec:	e5831128 	str	r1, [r3, #296]	; 0x128
   124f0:	e5921128 	ldr	r1, [r2, #296]	; 0x128
   124f4:	e583112c 	str	r1, [r3, #300]	; 0x12c
   124f8:	e5921004 	ldr	r1, [r2, #4]
   124fc:	e5831008 	str	r1, [r3, #8]
   12500:	e5921008 	ldr	r1, [r2, #8]
   12504:	e583100c 	str	r1, [r3, #12]
   12508:	e592100c 	ldr	r1, [r2, #12]
   1250c:	e5831010 	str	r1, [r3, #16]
   12510:	e5921010 	ldr	r1, [r2, #16]
   12514:	e5831014 	str	r1, [r3, #20]
   12518:	e5921018 	ldr	r1, [r2, #24]
   1251c:	e583101c 	str	r1, [r3, #28]
   12520:	e592101c 	ldr	r1, [r2, #28]
   12524:	e5831020 	str	r1, [r3, #32]
   12528:	e5921020 	ldr	r1, [r2, #32]
   1252c:	e5831024 	str	r1, [r3, #36]	; 0x24
   12530:	e5921024 	ldr	r1, [r2, #36]	; 0x24
   12534:	e5831028 	str	r1, [r3, #40]	; 0x28
   12538:	e5921028 	ldr	r1, [r2, #40]	; 0x28
   1253c:	e583102c 	str	r1, [r3, #44]	; 0x2c
   12540:	e592102c 	ldr	r1, [r2, #44]	; 0x2c
   12544:	e5831030 	str	r1, [r3, #48]	; 0x30
   12548:	e5921050 	ldr	r1, [r2, #80]	; 0x50
   1254c:	e5831054 	str	r1, [r3, #84]	; 0x54
   12550:	e5921054 	ldr	r1, [r2, #84]	; 0x54
   12554:	e5831058 	str	r1, [r3, #88]	; 0x58
   12558:	e5921058 	ldr	r1, [r2, #88]	; 0x58
   1255c:	e583105c 	str	r1, [r3, #92]	; 0x5c
   12560:	e5921060 	ldr	r1, [r2, #96]	; 0x60
   12564:	e5831064 	str	r1, [r3, #100]	; 0x64
   12568:	e5921064 	ldr	r1, [r2, #100]	; 0x64
   1256c:	e5831068 	str	r1, [r3, #104]	; 0x68
   12570:	e5921068 	ldr	r1, [r2, #104]	; 0x68
   12574:	e583106c 	str	r1, [r3, #108]	; 0x6c
   12578:	e5921070 	ldr	r1, [r2, #112]	; 0x70
   1257c:	e5831074 	str	r1, [r3, #116]	; 0x74
   12580:	e5921074 	ldr	r1, [r2, #116]	; 0x74
   12584:	e5831078 	str	r1, [r3, #120]	; 0x78
   12588:	e5921080 	ldr	r1, [r2, #128]	; 0x80
   1258c:	e5831084 	str	r1, [r3, #132]	; 0x84
   12590:	e5921084 	ldr	r1, [r2, #132]	; 0x84
   12594:	e5831088 	str	r1, [r3, #136]	; 0x88
   12598:	e5921090 	ldr	r1, [r2, #144]	; 0x90
   1259c:	e5831094 	str	r1, [r3, #148]	; 0x94
   125a0:	e5921094 	ldr	r1, [r2, #148]	; 0x94
   125a4:	e5831098 	str	r1, [r3, #152]	; 0x98
   125a8:	e592109c 	ldr	r1, [r2, #156]	; 0x9c
   125ac:	e58310a0 	str	r1, [r3, #160]	; 0xa0
   125b0:	e592117c 	ldr	r1, [r2, #380]	; 0x17c
   125b4:	e5831180 	str	r1, [r3, #384]	; 0x180
   125b8:	e5921180 	ldr	r1, [r2, #384]	; 0x180
   125bc:	e5831184 	str	r1, [r3, #388]	; 0x184
   125c0:	e5921078 	ldr	r1, [r2, #120]	; 0x78
   125c4:	e583107c 	str	r1, [r3, #124]	; 0x7c
   125c8:	e592205c 	ldr	r2, [r2, #92]	; 0x5c
   125cc:	e5832060 	str	r2, [r3, #96]	; 0x60
   125d0:	e12fff1e 	bx	lr

000125d4 <mem_clk_restore>:
   125d4:	e92d41f0 	push	{r4, r5, r6, r7, r8, lr}
   125d8:	e1a04000 	mov	r4, r0
   125dc:	e3a000a0 	mov	r0, #160	; 0xa0
   125e0:	ebfff780 	bl	103e8 <save_mem_status>
   125e4:	ebfff830 	bl	106ac <change_runtime_env>
   125e8:	e59420ac 	ldr	r2, [r4, #172]	; 0xac
   125ec:	e3a000a2 	mov	r0, #162	; 0xa2
   125f0:	e5943000 	ldr	r3, [r4]
   125f4:	e58320a8 	str	r2, [r3, #168]	; 0xa8
   125f8:	e59420b0 	ldr	r2, [r4, #176]	; 0xb0
   125fc:	e5943000 	ldr	r3, [r4]
   12600:	e58320ac 	str	r2, [r3, #172]	; 0xac
   12604:	e59420b4 	ldr	r2, [r4, #180]	; 0xb4
   12608:	e5943000 	ldr	r3, [r4]
   1260c:	e58320b0 	str	r2, [r3, #176]	; 0xb0
   12610:	e59420c4 	ldr	r2, [r4, #196]	; 0xc4
   12614:	e5943000 	ldr	r3, [r4]
   12618:	e58320c0 	str	r2, [r3, #192]	; 0xc0
   1261c:	e59420c8 	ldr	r2, [r4, #200]	; 0xc8
   12620:	e5943000 	ldr	r3, [r4]
   12624:	e58320c4 	str	r2, [r3, #196]	; 0xc4
   12628:	e59420cc 	ldr	r2, [r4, #204]	; 0xcc
   1262c:	e5943000 	ldr	r3, [r4]
   12630:	e58320c8 	str	r2, [r3, #200]	; 0xc8
   12634:	e5943000 	ldr	r3, [r4]
   12638:	e59420d0 	ldr	r2, [r4, #208]	; 0xd0
   1263c:	e58320cc 	str	r2, [r3, #204]	; 0xcc
   12640:	ebfff768 	bl	103e8 <save_mem_status>
   12644:	e5942108 	ldr	r2, [r4, #264]	; 0x108
   12648:	e3a000a4 	mov	r0, #164	; 0xa4
   1264c:	e5943000 	ldr	r3, [r4]
   12650:	e5832104 	str	r2, [r3, #260]	; 0x104
   12654:	e594210c 	ldr	r2, [r4, #268]	; 0x10c
   12658:	e5943000 	ldr	r3, [r4]
   1265c:	e5832108 	str	r2, [r3, #264]	; 0x108
   12660:	e5942110 	ldr	r2, [r4, #272]	; 0x110
   12664:	e583210c 	str	r2, [r3, #268]	; 0x10c
   12668:	e5942120 	ldr	r2, [r4, #288]	; 0x120
   1266c:	e5943000 	ldr	r3, [r4]
   12670:	e583211c 	str	r2, [r3, #284]	; 0x11c
   12674:	e5942124 	ldr	r2, [r4, #292]	; 0x124
   12678:	e5943000 	ldr	r3, [r4]
   1267c:	e5832120 	str	r2, [r3, #288]	; 0x120
   12680:	e5942128 	ldr	r2, [r4, #296]	; 0x128
   12684:	e5943000 	ldr	r3, [r4]
   12688:	e5832124 	str	r2, [r3, #292]	; 0x124
   1268c:	e5943000 	ldr	r3, [r4]
   12690:	e594212c 	ldr	r2, [r4, #300]	; 0x12c
   12694:	e5832128 	str	r2, [r3, #296]	; 0x128
   12698:	ebfff752 	bl	103e8 <save_mem_status>
   1269c:	e3a0000a 	mov	r0, #10
   126a0:	ebfff80b 	bl	106d4 <delay_us>
   126a4:	e5943000 	ldr	r3, [r4]
   126a8:	e3a0000a 	mov	r0, #10
   126ac:	e594200c 	ldr	r2, [r4, #12]
   126b0:	e5832008 	str	r2, [r3, #8]
   126b4:	ebfff806 	bl	106d4 <delay_us>
   126b8:	e5943000 	ldr	r3, [r4]
   126bc:	e3a0000a 	mov	r0, #10
   126c0:	e5942010 	ldr	r2, [r4, #16]
   126c4:	e583200c 	str	r2, [r3, #12]
   126c8:	ebfff801 	bl	106d4 <delay_us>
   126cc:	e5943000 	ldr	r3, [r4]
   126d0:	e3a0000a 	mov	r0, #10
   126d4:	e5942014 	ldr	r2, [r4, #20]
   126d8:	e5832010 	str	r2, [r3, #16]
   126dc:	ebfff7fc 	bl	106d4 <delay_us>
   126e0:	e5943000 	ldr	r3, [r4]
   126e4:	e3a0000a 	mov	r0, #10
   126e8:	e5942024 	ldr	r2, [r4, #36]	; 0x24
   126ec:	e5832020 	str	r2, [r3, #32]
   126f0:	ebfff7f7 	bl	106d4 <delay_us>
   126f4:	e5943000 	ldr	r3, [r4]
   126f8:	e3a0000a 	mov	r0, #10
   126fc:	e5942028 	ldr	r2, [r4, #40]	; 0x28
   12700:	e5832024 	str	r2, [r3, #36]	; 0x24
   12704:	ebfff7f2 	bl	106d4 <delay_us>
   12708:	e5943000 	ldr	r3, [r4]
   1270c:	e3a0000a 	mov	r0, #10
   12710:	e594202c 	ldr	r2, [r4, #44]	; 0x2c
   12714:	e5832028 	str	r2, [r3, #40]	; 0x28
   12718:	ebfff7ed 	bl	106d4 <delay_us>
   1271c:	e5942000 	ldr	r2, [r4]
   12720:	e3a03b05 	mov	r3, #5120	; 0x1400
   12724:	e3483004 	movt	r3, #32772	; 0x8004
   12728:	e3a0000a 	mov	r0, #10
   1272c:	e582302c 	str	r3, [r2, #44]	; 0x2c
   12730:	ebfff7e7 	bl	106d4 <delay_us>
   12734:	e3a000a5 	mov	r0, #165	; 0xa5
   12738:	ebfff72a 	bl	103e8 <save_mem_status>
   1273c:	e5943000 	ldr	r3, [r4]
   12740:	e3a0000a 	mov	r0, #10
   12744:	e5942054 	ldr	r2, [r4, #84]	; 0x54
   12748:	e5832050 	str	r2, [r3, #80]	; 0x50
   1274c:	ebfff7e0 	bl	106d4 <delay_us>
   12750:	e5943000 	ldr	r3, [r4]
   12754:	e3a0000a 	mov	r0, #10
   12758:	e5942058 	ldr	r2, [r4, #88]	; 0x58
   1275c:	e5832054 	str	r2, [r3, #84]	; 0x54
   12760:	ebfff7db 	bl	106d4 <delay_us>
   12764:	e5943000 	ldr	r3, [r4]
   12768:	e3a000c8 	mov	r0, #200	; 0xc8
   1276c:	e594205c 	ldr	r2, [r4, #92]	; 0x5c
   12770:	e5832058 	str	r2, [r3, #88]	; 0x58
   12774:	ebfff7d6 	bl	106d4 <delay_us>
   12778:	e5942060 	ldr	r2, [r4, #96]	; 0x60
   1277c:	e3a0000a 	mov	r0, #10
   12780:	e5943000 	ldr	r3, [r4]
   12784:	e2022403 	and	r2, r2, #50331648	; 0x3000000
   12788:	e583205c 	str	r2, [r3, #92]	; 0x5c
   1278c:	ebfff7d0 	bl	106d4 <delay_us>
   12790:	e3a000a6 	mov	r0, #166	; 0xa6
   12794:	ebfff713 	bl	103e8 <save_mem_status>
   12798:	e5942064 	ldr	r2, [r4, #100]	; 0x64
   1279c:	e3a0000a 	mov	r0, #10
   127a0:	e5943000 	ldr	r3, [r4]
   127a4:	e3c22403 	bic	r2, r2, #50331648	; 0x3000000
   127a8:	e5832060 	str	r2, [r3, #96]	; 0x60
   127ac:	ebfff7c8 	bl	106d4 <delay_us>
   127b0:	e5943000 	ldr	r3, [r4]
   127b4:	e3a0000a 	mov	r0, #10
   127b8:	e5942064 	ldr	r2, [r4, #100]	; 0x64
   127bc:	e5832060 	str	r2, [r3, #96]	; 0x60
   127c0:	ebfff7c3 	bl	106d4 <delay_us>
   127c4:	e3a000a7 	mov	r0, #167	; 0xa7
   127c8:	ebfff706 	bl	103e8 <save_mem_status>
   127cc:	e5943000 	ldr	r3, [r4]
   127d0:	e3a0000a 	mov	r0, #10
   127d4:	e5942060 	ldr	r2, [r4, #96]	; 0x60
   127d8:	e583205c 	str	r2, [r3, #92]	; 0x5c
   127dc:	ebfff7bc 	bl	106d4 <delay_us>
   127e0:	e5943000 	ldr	r3, [r4]
   127e4:	e3a000c8 	mov	r0, #200	; 0xc8
   127e8:	e5942030 	ldr	r2, [r4, #48]	; 0x30
   127ec:	e583202c 	str	r2, [r3, #44]	; 0x2c
   127f0:	ebfff7b7 	bl	106d4 <delay_us>
   127f4:	e3a000a8 	mov	r0, #168	; 0xa8
   127f8:	ebfff6fa 	bl	103e8 <save_mem_status>
   127fc:	e5942068 	ldr	r2, [r4, #104]	; 0x68
   12800:	e3a0000a 	mov	r0, #10
   12804:	e5943000 	ldr	r3, [r4]
   12808:	e3c22403 	bic	r2, r2, #50331648	; 0x3000000
   1280c:	e5832064 	str	r2, [r3, #100]	; 0x64
   12810:	e594206c 	ldr	r2, [r4, #108]	; 0x6c
   12814:	e5943000 	ldr	r3, [r4]
   12818:	e3c22403 	bic	r2, r2, #50331648	; 0x3000000
   1281c:	e5832068 	str	r2, [r3, #104]	; 0x68
   12820:	e5942074 	ldr	r2, [r4, #116]	; 0x74
   12824:	e5943000 	ldr	r3, [r4]
   12828:	e3c22403 	bic	r2, r2, #50331648	; 0x3000000
   1282c:	e5832070 	str	r2, [r3, #112]	; 0x70
   12830:	ebfff7a7 	bl	106d4 <delay_us>
   12834:	e5942078 	ldr	r2, [r4, #120]	; 0x78
   12838:	e3a0000a 	mov	r0, #10
   1283c:	e5943000 	ldr	r3, [r4]
   12840:	e3c22403 	bic	r2, r2, #50331648	; 0x3000000
   12844:	e5832074 	str	r2, [r3, #116]	; 0x74
   12848:	e594207c 	ldr	r2, [r4, #124]	; 0x7c
   1284c:	e5943000 	ldr	r3, [r4]
   12850:	e3c22403 	bic	r2, r2, #50331648	; 0x3000000
   12854:	e5832078 	str	r2, [r3, #120]	; 0x78
   12858:	ebfff79d 	bl	106d4 <delay_us>
   1285c:	e5942084 	ldr	r2, [r4, #132]	; 0x84
   12860:	e3a000a8 	mov	r0, #168	; 0xa8
   12864:	e5943000 	ldr	r3, [r4]
   12868:	e5832080 	str	r2, [r3, #128]	; 0x80
   1286c:	e5942088 	ldr	r2, [r4, #136]	; 0x88
   12870:	e5943000 	ldr	r3, [r4]
   12874:	e5832084 	str	r2, [r3, #132]	; 0x84
   12878:	e5942094 	ldr	r2, [r4, #148]	; 0x94
   1287c:	e5943000 	ldr	r3, [r4]
   12880:	e5832090 	str	r2, [r3, #144]	; 0x90
   12884:	e5942098 	ldr	r2, [r4, #152]	; 0x98
   12888:	e5943000 	ldr	r3, [r4]
   1288c:	e5832094 	str	r2, [r3, #148]	; 0x94
   12890:	e59420a0 	ldr	r2, [r4, #160]	; 0xa0
   12894:	e5943000 	ldr	r3, [r4]
   12898:	e583209c 	str	r2, [r3, #156]	; 0x9c
   1289c:	e5942180 	ldr	r2, [r4, #384]	; 0x180
   128a0:	e5943000 	ldr	r3, [r4]
   128a4:	e583217c 	str	r2, [r3, #380]	; 0x17c
   128a8:	e5943000 	ldr	r3, [r4]
   128ac:	e5942184 	ldr	r2, [r4, #388]	; 0x184
   128b0:	e5832180 	str	r2, [r3, #384]	; 0x180
   128b4:	ebfff6cb 	bl	103e8 <save_mem_status>
   128b8:	e5943000 	ldr	r3, [r4]
   128bc:	e3a0000a 	mov	r0, #10
   128c0:	e594207c 	ldr	r2, [r4, #124]	; 0x7c
   128c4:	e5832078 	str	r2, [r3, #120]	; 0x78
   128c8:	ebfff781 	bl	106d4 <delay_us>
   128cc:	e5942068 	ldr	r2, [r4, #104]	; 0x68
   128d0:	e3a0000a 	mov	r0, #10
   128d4:	e5943000 	ldr	r3, [r4]
   128d8:	e5832064 	str	r2, [r3, #100]	; 0x64
   128dc:	e594206c 	ldr	r2, [r4, #108]	; 0x6c
   128e0:	e5943000 	ldr	r3, [r4]
   128e4:	e5832068 	str	r2, [r3, #104]	; 0x68
   128e8:	e5943000 	ldr	r3, [r4]
   128ec:	e5942074 	ldr	r2, [r4, #116]	; 0x74
   128f0:	e5832070 	str	r2, [r3, #112]	; 0x70
   128f4:	ebfff776 	bl	106d4 <delay_us>
   128f8:	e5943000 	ldr	r3, [r4]
   128fc:	e3a000aa 	mov	r0, #170	; 0xaa
   12900:	e5942078 	ldr	r2, [r4, #120]	; 0x78
   12904:	e5832074 	str	r2, [r3, #116]	; 0x74
   12908:	ebfff6b6 	bl	103e8 <save_mem_status>
   1290c:	f57ff05f 	dmb	sy
   12910:	f57ff06f 	isb	sy
   12914:	e3a04a02 	mov	r4, #8192	; 0x2000
   12918:	e3a000ab 	mov	r0, #171	; 0xab
   1291c:	e34f41c6 	movt	r4, #61894	; 0xf1c6
   12920:	ebfff6b0 	bl	103e8 <save_mem_status>
   12924:	e5943010 	ldr	r3, [r4, #16]
   12928:	e3833008 	orr	r3, r3, #8
   1292c:	e5843010 	str	r3, [r4, #16]
   12930:	f57ff05f 	dmb	sy
   12934:	f57ff06f 	isb	sy
   12938:	e3056fff 	movw	r6, #24575	; 0x5fff
   1293c:	e34f61c6 	movt	r6, #61894	; 0xf1c6
   12940:	e5168dbf 	ldr	r8, [r6, #-3519]	; 0xdbf
   12944:	e3c83b0e 	bic	r3, r8, #14336	; 0x3800
   12948:	e5063dbf 	str	r3, [r6, #-3519]	; 0xdbf
   1294c:	f57ff05f 	dmb	sy
   12950:	f57ff06f 	isb	sy
   12954:	e3065fff 	movw	r5, #28671	; 0x6fff
   12958:	e34f51c6 	movt	r5, #61894	; 0xf1c6
   1295c:	e5157dbf 	ldr	r7, [r5, #-3519]	; 0xdbf
   12960:	e3c73b0e 	bic	r3, r7, #14336	; 0x3800
   12964:	e5053dbf 	str	r3, [r5, #-3519]	; 0xdbf
   12968:	f57ff05f 	dmb	sy
   1296c:	f57ff06f 	isb	sy
   12970:	e3a00032 	mov	r0, #50	; 0x32
   12974:	ebfff756 	bl	106d4 <delay_us>
   12978:	e3033fff 	movw	r3, #16383	; 0x3fff
   1297c:	e34f31c6 	movt	r3, #61894	; 0xf1c6
   12980:	e5132e57 	ldr	r2, [r3, #-3671]	; 0xe57
   12984:	e3c226ff 	bic	r2, r2, #267386880	; 0xff00000
   12988:	e3c2280f 	bic	r2, r2, #983040	; 0xf0000
   1298c:	e3822501 	orr	r2, r2, #4194304	; 0x400000
   12990:	e5032e57 	str	r2, [r3, #-3671]	; 0xe57
   12994:	f57ff05f 	dmb	sy
   12998:	f57ff06f 	isb	sy
   1299c:	e3a03901 	mov	r3, #16384	; 0x4000
   129a0:	e34f31c6 	movt	r3, #61894	; 0xf1c6
   129a4:	e59321a8 	ldr	r2, [r3, #424]	; 0x1a8
   129a8:	e3c226ff 	bic	r2, r2, #267386880	; 0xff00000
   129ac:	e3c2280f 	bic	r2, r2, #983040	; 0xf0000
   129b0:	e3822501 	orr	r2, r2, #4194304	; 0x400000
   129b4:	e58321a8 	str	r2, [r3, #424]	; 0x1a8
   129b8:	f57ff05f 	dmb	sy
   129bc:	f57ff06f 	isb	sy
   129c0:	e5068dbf 	str	r8, [r6, #-3519]	; 0xdbf
   129c4:	f57ff05f 	dmb	sy
   129c8:	f57ff06f 	isb	sy
   129cc:	e5057dbf 	str	r7, [r5, #-3519]	; 0xdbf
   129d0:	f57ff05f 	dmb	sy
   129d4:	f57ff06f 	isb	sy
   129d8:	e3a000ae 	mov	r0, #174	; 0xae
   129dc:	ebfff681 	bl	103e8 <save_mem_status>
   129e0:	e5943010 	ldr	r3, [r4, #16]
   129e4:	e3c33008 	bic	r3, r3, #8
   129e8:	e5843010 	str	r3, [r4, #16]
   129ec:	f57ff05f 	dmb	sy
   129f0:	f57ff06f 	isb	sy
   129f4:	e3a0000a 	mov	r0, #10
   129f8:	ebfff735 	bl	106d4 <delay_us>
   129fc:	e3a000af 	mov	r0, #175	; 0xaf
   12a00:	ebfff678 	bl	103e8 <save_mem_status>
   12a04:	e3a00000 	mov	r0, #0
   12a08:	e8bd81f0 	pop	{r4, r5, r6, r7, r8, pc}

00012a0c <mem_clk_setdiv>:
   12a0c:	e3500000 	cmp	r0, #0
   12a10:	15902000 	ldrne	r2, [r0]
   12a14:	13a03406 	movne	r3, #100663296	; 0x6000000
   12a18:	159f1010 	ldrne	r1, [pc, #16]	; 12a30 <mem_clk_setdiv+0x24>
   12a1c:	13a00000 	movne	r0, #0
   12a20:	03e00000 	mvneq	r0, #0
   12a24:	15813000 	strne	r3, [r1]
   12a28:	15832054 	strne	r2, [r3, #84]	; 0x54
   12a2c:	e12fff1e 	bx	lr
   12a30:	00012f70 	andeq	r2, r1, r0, ror pc

00012a34 <mem_clk_getdiv>:
   12a34:	e2502000 	subs	r2, r0, #0
   12a38:	13a034f6 	movne	r3, #-167772160	; 0xf6000000
   12a3c:	159fc014 	ldrne	ip, [pc, #20]	; 12a58 <mem_clk_getdiv+0x24>
   12a40:	15931054 	ldrne	r1, [r3, #84]	; 0x54
   12a44:	13a00000 	movne	r0, #0
   12a48:	03e00000 	mvneq	r0, #0
   12a4c:	158c3000 	strne	r3, [ip]
   12a50:	15821000 	strne	r1, [r2]
   12a54:	e12fff1e 	bx	lr
   12a58:	00012f70 	andeq	r2, r1, r0, ror pc

00012a5c <mem_clk_set_pll_factor>:
   12a5c:	e3023f70 	movw	r3, #12144	; 0x2f70
   12a60:	e3a02406 	mov	r2, #100663296	; 0x6000000
   12a64:	e3403001 	movt	r3, #1
   12a68:	e1a01000 	mov	r1, r0
   12a6c:	e52d4004 	push	{r4}		; (str r4, [sp, #-4]!)
   12a70:	e3a00000 	mov	r0, #0
   12a74:	e5d14002 	ldrb	r4, [r1, #2]
   12a78:	e5832000 	str	r2, [r3]
   12a7c:	e592c000 	ldr	ip, [r2]
   12a80:	e7c1c014 	bfi	ip, r4, #0, #2
   12a84:	e583c004 	str	ip, [r3, #4]
   12a88:	e5d14003 	ldrb	r4, [r1, #3]
   12a8c:	e7d0c814 	bfi	ip, r4, #16, #1
   12a90:	e583c004 	str	ip, [r3, #4]
   12a94:	e5d11000 	ldrb	r1, [r1]
   12a98:	e5c31005 	strb	r1, [r3, #5]
   12a9c:	e5933004 	ldr	r3, [r3, #4]
   12aa0:	e5823000 	str	r3, [r2]
   12aa4:	e8bd0010 	pop	{r4}
   12aa8:	e12fff1e 	bx	lr

00012aac <mem_clk_get_pll_factor>:
   12aac:	e3023f70 	movw	r3, #12144	; 0x2f70
   12ab0:	e3a024f6 	mov	r2, #-167772160	; 0xf6000000
   12ab4:	e3403001 	movt	r3, #1
   12ab8:	e92d0030 	push	{r4, r5}
   12abc:	e5832000 	str	r2, [r3]
   12ac0:	e1a01000 	mov	r1, r0
   12ac4:	e3a00000 	mov	r0, #0
   12ac8:	e5922000 	ldr	r2, [r2]
   12acc:	e7e75452 	ubfx	r5, r2, #8, #8
   12ad0:	e7e14052 	ubfx	r4, r2, #0, #2
   12ad4:	e7e0c852 	ubfx	ip, r2, #16, #1
   12ad8:	e5832004 	str	r2, [r3, #4]
   12adc:	e5c15000 	strb	r5, [r1]
   12ae0:	e5c14002 	strb	r4, [r1, #2]
   12ae4:	e5c1c003 	strb	ip, [r1, #3]
   12ae8:	e8bd0030 	pop	{r4, r5}
   12aec:	e12fff1e 	bx	lr

00012af0 <mem_clk_set_misc>:
   12af0:	e590c000 	ldr	ip, [r0]
   12af4:	e3021f70 	movw	r1, #12144	; 0x2f70
   12af8:	e3a03406 	mov	r3, #100663296	; 0x6000000
   12afc:	e1a02000 	mov	r2, r0
   12b00:	e3401001 	movt	r1, #1
   12b04:	e3a00000 	mov	r0, #0
   12b08:	e5813000 	str	r3, [r1]
   12b0c:	e583c0a0 	str	ip, [r3, #160]	; 0xa0
   12b10:	e592c00c 	ldr	ip, [r2, #12]
   12b14:	e583c0e0 	str	ip, [r3, #224]	; 0xe0
   12b18:	e592c004 	ldr	ip, [r2, #4]
   12b1c:	e583c0ac 	str	ip, [r3, #172]	; 0xac
   12b20:	e592c008 	ldr	ip, [r2, #8]
   12b24:	e583c0cc 	str	ip, [r3, #204]	; 0xcc
   12b28:	e592c010 	ldr	ip, [r2, #16]
   12b2c:	e583c0a4 	str	ip, [r3, #164]	; 0xa4
   12b30:	e592c014 	ldr	ip, [r2, #20]
   12b34:	e583c0b8 	str	ip, [r3, #184]	; 0xb8
   12b38:	e592c018 	ldr	ip, [r2, #24]
   12b3c:	e583c0bc 	str	ip, [r3, #188]	; 0xbc
   12b40:	e592c01c 	ldr	ip, [r2, #28]
   12b44:	e583c0e4 	str	ip, [r3, #228]	; 0xe4
   12b48:	e592c020 	ldr	ip, [r2, #32]
   12b4c:	e583c114 	str	ip, [r3, #276]	; 0x114
   12b50:	e592c024 	ldr	ip, [r2, #36]	; 0x24
   12b54:	e583c118 	str	ip, [r3, #280]	; 0x118
   12b58:	e592c028 	ldr	ip, [r2, #40]	; 0x28
   12b5c:	e583c004 	str	ip, [r3, #4]
   12b60:	e592c02c 	ldr	ip, [r2, #44]	; 0x2c
   12b64:	e583c018 	str	ip, [r3, #24]
   12b68:	e3a0c001 	mov	ip, #1
   12b6c:	e5922030 	ldr	r2, [r2, #48]	; 0x30
   12b70:	e583201c 	str	r2, [r3, #28]
   12b74:	e5932054 	ldr	r2, [r3, #84]	; 0x54
   12b78:	e7c2201c 	bfi	r2, ip, #0, #3
   12b7c:	e5812008 	str	r2, [r1, #8]
   12b80:	e5832054 	str	r2, [r3, #84]	; 0x54
   12b84:	e12fff1e 	bx	lr

00012b88 <mem_clk_get_misc>:
   12b88:	e3021f70 	movw	r1, #12144	; 0x2f70
   12b8c:	e3a034f6 	mov	r3, #-167772160	; 0xf6000000
   12b90:	e3401001 	movt	r1, #1
   12b94:	e1a02000 	mov	r2, r0
   12b98:	e5813000 	str	r3, [r1]
   12b9c:	e3a00000 	mov	r0, #0
   12ba0:	e59310a0 	ldr	r1, [r3, #160]	; 0xa0
   12ba4:	e5821000 	str	r1, [r2]
   12ba8:	e59310e0 	ldr	r1, [r3, #224]	; 0xe0
   12bac:	e582100c 	str	r1, [r2, #12]
   12bb0:	e59310ac 	ldr	r1, [r3, #172]	; 0xac
   12bb4:	e5821004 	str	r1, [r2, #4]
   12bb8:	e59310cc 	ldr	r1, [r3, #204]	; 0xcc
   12bbc:	e5821008 	str	r1, [r2, #8]
   12bc0:	e59310a4 	ldr	r1, [r3, #164]	; 0xa4
   12bc4:	e5821010 	str	r1, [r2, #16]
   12bc8:	e59310b8 	ldr	r1, [r3, #184]	; 0xb8
   12bcc:	e5821014 	str	r1, [r2, #20]
   12bd0:	e59310bc 	ldr	r1, [r3, #188]	; 0xbc
   12bd4:	e5821018 	str	r1, [r2, #24]
   12bd8:	e59310e4 	ldr	r1, [r3, #228]	; 0xe4
   12bdc:	e582101c 	str	r1, [r2, #28]
   12be0:	e5931114 	ldr	r1, [r3, #276]	; 0x114
   12be4:	e5821020 	str	r1, [r2, #32]
   12be8:	e5931118 	ldr	r1, [r3, #280]	; 0x118
   12bec:	e5821024 	str	r1, [r2, #36]	; 0x24
   12bf0:	e5931004 	ldr	r1, [r3, #4]
   12bf4:	e5821028 	str	r1, [r2, #40]	; 0x28
   12bf8:	e5931018 	ldr	r1, [r3, #24]
   12bfc:	e582102c 	str	r1, [r2, #44]	; 0x2c
   12c00:	e593301c 	ldr	r3, [r3, #28]
   12c04:	e5823030 	str	r3, [r2, #48]	; 0x30
   12c08:	e12fff1e 	bx	lr

00012c0c <mem_clk_get_cpu_freq>:
   12c0c:	e59f3050 	ldr	r3, [pc, #80]	; 12c64 <mem_clk_get_cpu_freq+0x58>
   12c10:	e52d4004 	push	{r4}		; (str r4, [sp, #-4]!)
   12c14:	e5931000 	ldr	r1, [r3]
   12c18:	e5912050 	ldr	r2, [r1, #80]	; 0x50
   12c1c:	e3120001 	tst	r2, #1
   12c20:	e583200c 	str	r2, [r3, #12]
   12c24:	1a000002 	bne	12c34 <mem_clk_get_cpu_freq+0x28>
   12c28:	e3050dc0 	movw	r0, #24000	; 0x5dc0
   12c2c:	e8bd0010 	pop	{r4}
   12c30:	e12fff1e 	bx	lr
   12c34:	e5912000 	ldr	r2, [r1]
   12c38:	e3054dc0 	movw	r4, #24000	; 0x5dc0
   12c3c:	e3120801 	tst	r2, #65536	; 0x10000
   12c40:	e7e70452 	ubfx	r0, r2, #8, #8
   12c44:	e202c003 	and	ip, r2, #3
   12c48:	13a01004 	movne	r1, #4
   12c4c:	03a01001 	moveq	r1, #1
   12c50:	e0000094 	mul	r0, r4, r0
   12c54:	e5832004 	str	r2, [r3, #4]
   12c58:	e021119c 	mla	r1, ip, r1, r1
   12c5c:	e8bd0010 	pop	{r4}
   12c60:	eafffc99 	b	11ecc <raw_lib_udiv>
   12c64:	00012f70 	andeq	r2, r1, r0, ror pc

Disassembly of section .rodata:

00012c68 <CSWTCH.9>:
   12c68:	00000001 	andeq	r0, r0, r1
   12c6c:	00000002 	andeq	r0, r0, r2
   12c70:	00000000 	andeq	r0, r0, r0
   12c74:	00000003 	andeq	r0, r0, r3

00012c78 <CSWTCH.11>:
   12c78:	016e3600 	cmneq	lr, r0, lsl #12
   12c7c:	39387000 	ldmdbcc	r8!, {ip, sp, lr}

Disassembly of section .rodata.str1.4:

00012c80 <.rodata.str1.4>:
   12c80:	75736572 	ldrbvc	r6, [r3, #-1394]!	; 0x572
   12c84:	3a31656d 	bcc	c6c240 <__bss_end+0xc590f4>
   12c88:	202e3020 	eorcs	r3, lr, r0, lsr #32
   12c8c:	0000000a 	andeq	r0, r0, sl
   12c90:	75736572 	ldrbvc	r6, [r3, #-1394]!	; 0x572
   12c94:	3a31656d 	bcc	c6c250 <__bss_end+0xc59104>
   12c98:	202e3120 	eorcs	r3, lr, r0, lsr #2
   12c9c:	6f666562 	svcvs	0x00666562
   12ca0:	72206572 	eorvc	r6, r0, #478150656	; 0x1c800000
   12ca4:	6f747365 	svcvs	0x00747365
   12ca8:	6d206572 	cfstr32vs	mvfx6, [r0, #-456]!	; 0xfffffe38
   12cac:	202e756d 	eorcs	r7, lr, sp, ror #10
   12cb0:	0000000a 	andeq	r0, r0, sl
   12cb4:	75736572 	ldrbvc	r6, [r3, #-1394]!	; 0x572
   12cb8:	3a31656d 	bcc	c6c274 <__bss_end+0xc59128>
   12cbc:	202e3320 	eorcs	r3, lr, r0, lsr #6
   12cc0:	65746661 	ldrbvs	r6, [r4, #-1633]!	; 0x661
   12cc4:	65722072 	ldrbvs	r2, [r2, #-114]!	; 0x72
   12cc8:	726f7473 	rsbvc	r7, pc, #1929379840	; 0x73000000
   12ccc:	6d6d2065 	stclvs	0, cr2, [sp, #-404]!	; 0xfffffe6c
   12cd0:	62202c75 	eorvs	r2, r0, #29952	; 0x7500
   12cd4:	726f6665 	rsbvc	r6, pc, #105906176	; 0x6500000
   12cd8:	756a2065 	strbvc	r2, [sl, #-101]!	; 0x65
   12cdc:	0a2e706d 	beq	baee98 <__bss_end+0xb9bd4c>
   12ce0:	00000000 	andeq	r0, r0, r0
   12ce4:	72646461 	rsbvc	r6, r4, #1627389952	; 0x61000000
   12ce8:	2c782520 	cfldr64cs	mvdx2, [r8], #-128	; 0xffffff80
   12cec:	6c617620 	stclvs	6, cr7, [r1], #-128	; 0xffffff80
   12cf0:	3d206575 	cfstr32cc	mvfx6, [r0, #-468]!	; 0xfffffe2c
   12cf4:	2e782520 	cdpcs	5, 7, cr2, cr8, cr0, {1}
   12cf8:	00000a20 	andeq	r0, r0, r0, lsr #20
   12cfc:	33323130 	teqcc	r2, #12
   12d00:	37363534 			; <UNDEFINED> instruction: 0x37363534
   12d04:	42413938 	submi	r3, r1, #917504	; 0xe0000
   12d08:	46454443 	strbmi	r4, [r5], -r3, asr #8
   12d0c:	00000000 	andeq	r0, r0, r0
   12d10:	20202020 	eorcs	r2, r0, r0, lsr #32
   12d14:	20202020 	eorcs	r2, r0, r0, lsr #32
   12d18:	20202020 	eorcs	r2, r0, r0, lsr #32
   12d1c:	20202020 	eorcs	r2, r0, r0, lsr #32
   12d20:	00000000 	andeq	r0, r0, r0
   12d24:	65747441 	ldrbvs	r7, [r4, #-1089]!	; 0x441
   12d28:	6974706d 	ldmdbvs	r4!, {r0, r2, r3, r5, r6, ip, sp, lr}^
   12d2c:	6420676e 	strtvs	r6, [r0], #-1902	; 0x76e
   12d30:	73697669 	cmnvc	r9, #110100480	; 0x6900000
   12d34:	206e6f69 	rsbcs	r6, lr, r9, ror #30
   12d38:	30207962 	eorcc	r7, r0, r2, ror #18
   12d3c:	00000021 	andeq	r0, r0, r1, lsr #32
   12d40:	69746f6e 	ldmdbvs	r4!, {r1, r2, r3, r5, r6, r8, r9, sl, fp, sp, lr}^
   12d44:	203a6563 	eorscs	r6, sl, r3, ror #10
   12d48:	20636967 	rsbcs	r6, r3, r7, ror #18
   12d4c:	20726169 	rsbscs	r6, r2, r9, ror #2
   12d50:	30203d3d 	eorcc	r3, r0, sp, lsr sp
   12d54:	2e782578 	mrccs	5, 3, r2, cr8, cr8, {3}
   12d58:	00000a20 	andeq	r0, r0, r0, lsr #20
   12d5c:	656b6174 	strbvs	r6, [fp, #-372]!	; 0x174
   12d60:	73776820 	cmnvc	r7, #2097152	; 0x200000
   12d64:	6c6e6970 	stclvs	9, cr6, [lr], #-448	; 0xfffffe40
   12d68:	206b636f 	rsbcs	r6, fp, pc, ror #6
   12d6c:	656d6974 	strbvs	r6, [sp, #-2420]!	; 0x974
   12d70:	0a74756f 	beq	1d30334 <__bss_end+0x1d1d1e8>
   12d74:	00000000 	andeq	r0, r0, r0

Disassembly of section .data:

00012d78 <tmpPtr>:
   12d78:	00012d7c 	andeq	r2, r1, ip, ror sp

Disassembly of section .bss:

00012d7c <status_reg>:
   12d7c:	00000000 	andeq	r0, r0, r0

00012d80 <status_reg_pa>:
   12d80:	00000000 	andeq	r0, r0, r0

00012d84 <status_reg_tmp>:
   12d84:	00000000 	andeq	r0, r0, r0

00012d88 <status_reg_pa_tmp>:
   12d88:	00000000 	andeq	r0, r0, r0

00012d8c <print_flag>:
   12d8c:	00000000 	andeq	r0, r0, r0

00012d90 <backup_perf_counter_ctrl_reg>:
   12d90:	00000000 	andeq	r0, r0, r0

00012d94 <backup_perf_counter_enable_reg>:
   12d94:	00000000 	andeq	r0, r0, r0

00012d98 <overhead>:
   12d98:	00000000 	andeq	r0, r0, r0

00012d9c <cpu_freq>:
   12d9c:	00000000 	andeq	r0, r0, r0

00012da0 <saved_context>:
	...

00012e40 <backup_ccu_uart>:
   12e40:	00000000 	andeq	r0, r0, r0

00012e44 <backup_ccu_uart_reset>:
   12e44:	00000000 	andeq	r0, r0, r0

00012e48 <backup_gpio_uart>:
   12e48:	00000000 	andeq	r0, r0, r0

00012e4c <serial_inited_flag>:
   12e4c:	00000000 	andeq	r0, r0, r0

00012e50 <debugger_buffer>:
	...

00012f50 <GicDDisc>:
   12f50:	00000000 	andeq	r0, r0, r0

00012f54 <GicCDisc>:
   12f54:	00000000 	andeq	r0, r0, r0

00012f58 <TmrReg>:
   12f58:	00000000 	andeq	r0, r0, r0

00012f5c <WatchDog1_Config_Reg_Bak>:
   12f5c:	00000000 	andeq	r0, r0, r0

00012f60 <WatchDog1_Mod_Reg_Bak>:
   12f60:	00000000 	andeq	r0, r0, r0

00012f64 <WatchDog1_Irq_En_Bak>:
   12f64:	00000000 	andeq	r0, r0, r0

00012f68 <TmstmpReg>:
   12f68:	00000000 	andeq	r0, r0, r0

00012f6c <cpsr_backup>:
   12f6c:	00000000 	andeq	r0, r0, r0

00012f70 <CmuReg>:
   12f70:	00000000 	andeq	r0, r0, r0

00012f74 <CmuReg_Pll_C0_Cfg_tmp>:
   12f74:	00000000 	andeq	r0, r0, r0

00012f78 <CmuReg_Axi0_Cfg_tmp>:
   12f78:	00000000 	andeq	r0, r0, r0

00012f7c <CmuReg_Cpu_Clk_Src_tmp>:
   12f7c:	00000000 	andeq	r0, r0, r0

00012f80 <mem_para_info>:
	...

00013034 <saved_context_r13_irq>:
	...

0001303c <saved_context_r12_svc>:
	...

00013044 <saved_spsr_fiq>:
   13044:	00000000 	andeq	r0, r0, r0

00013048 <saved_spsr_und>:
   13048:	00000000 	andeq	r0, r0, r0

0001304c <saved_spsr_irq>:
   1304c:	00000000 	andeq	r0, r0, r0

00013050 <saved_context_r13_abt>:
	...

00013058 <saved_spsr_mon>:
   13058:	00000000 	andeq	r0, r0, r0

0001305c <saved_empty_context_svc>:
	...

0001310c <saved_context_r13_fiq>:
	...

00013128 <saved_cpsr_svc>:
   13128:	00000000 	andeq	r0, r0, r0

0001312c <saved_context_r13_sys>:
	...

00013134 <saved_spsr_abt>:
   13134:	00000000 	andeq	r0, r0, r0

00013138 <saved_context_r13_mon>:
	...

00013140 <saved_spsr_svc>:
   13140:	00000000 	andeq	r0, r0, r0

00013144 <saved_context_r13_und>:
	...

Disassembly of section .debug_info:

00000000 <.debug_info>:
       0:	0000013c 	andeq	r0, r0, ip, lsr r1
       4:	00000002 	andeq	r0, r0, r2
       8:	01040000 	mrseq	r0, (UNDEF: 4)
       c:	0000010d 	andeq	r0, r0, sp, lsl #2
      10:	00007801 	andeq	r7, r0, r1, lsl #16
      14:	00004200 	andeq	r4, r0, r0, lsl #4
      18:	01007c00 	tsteq	r0, r0, lsl #24
      1c:	01007c00 	tsteq	r0, r0, lsl #24
      20:	00000000 	andeq	r0, r0, r0
      24:	06010200 	streq	r0, [r1], -r0, lsl #4
      28:	000000d3 	ldrdeq	r0, [r0], -r3
      2c:	d1080102 	tstle	r8, r2, lsl #2
      30:	02000000 	andeq	r0, r0, #0
      34:	01410502 	cmpeq	r1, r2, lsl #10
      38:	02020000 	andeq	r0, r2, #0
      3c:	0000fa07 	andeq	pc, r0, r7, lsl #20
      40:	05040300 	streq	r0, [r4, #-768]	; 0x300
      44:	00746e69 	rsbseq	r6, r4, r9, ror #28
      48:	6b070402 	blvs	1c1058 <__bss_end+0x1adf0c>
      4c:	02000000 	andeq	r0, r0, #0
      50:	00000508 	andeq	r0, r0, r8, lsl #10
      54:	08020000 	stmdaeq	r2, {}	; <UNPREDICTABLE>
      58:	00006107 	andeq	r6, r0, r7, lsl #2
      5c:	07040200 	streq	r0, [r4, -r0, lsl #4]
      60:	00000066 	andeq	r0, r0, r6, rrx
      64:	00000e04 	andeq	r0, r0, r4, lsl #28
      68:	49013000 	stmdbmi	r1, {ip, sp}
      6c:	000000fd 	strdeq	r0, [r0], -sp
      70:	0000df05 	andeq	sp, r0, r5, lsl #30
      74:	484b0100 	stmdami	fp, {r8}^
      78:	02000000 	andeq	r0, r0, #0
      7c:	bd050023 	stclt	0, cr0, [r5, #-140]	; 0xffffff74
      80:	01000000 	mrseq	r0, (UNDEF: 0)
      84:	0000fd4c 	andeq	pc, r0, ip, asr #26
      88:	04230200 	strteq	r0, [r3], #-512	; 0x200
      8c:	0000f005 	andeq	pc, r0, r5
      90:	484d0100 	stmdami	sp, {r8}^
      94:	02000000 	andeq	r0, r0, #0
      98:	2e050c23 	cdpcs	12, 0, cr0, cr5, cr3, {1}
      9c:	01000000 	mrseq	r0, (UNDEF: 0)
      a0:	0000484e 	andeq	r4, r0, lr, asr #16
      a4:	10230200 	eorne	r0, r3, r0, lsl #4
      a8:	0000c305 	andeq	ip, r0, r5, lsl #6
      ac:	484f0100 	stmdami	pc, {r8}^	; <UNPREDICTABLE>
      b0:	02000000 	andeq	r0, r0, #0
      b4:	35051423 	strcc	r1, [r5, #-1059]	; 0x423
      b8:	01000000 	mrseq	r0, (UNDEF: 0)
      bc:	00010d50 	andeq	r0, r1, r0, asr sp
      c0:	18230200 	stmdane	r3!, {r9}
      c4:	00002005 	andeq	r2, r0, r5
      c8:	0d510100 	ldfeqe	f0, [r1, #-0]
      cc:	02000001 	andeq	r0, r0, #1
      d0:	b2051c23 	andlt	r1, r5, #8960	; 0x2300
      d4:	01000000 	mrseq	r0, (UNDEF: 0)
      d8:	00010d52 	andeq	r0, r1, r2, asr sp
      dc:	20230200 	eorcs	r0, r3, r0, lsl #4
      e0:	00012f05 	andeq	r2, r1, r5, lsl #30
      e4:	0d530100 	ldfeqe	f0, [r3, #-0]
      e8:	02000001 	andeq	r0, r0, #1
      ec:	38052423 	stmdacc	r5, {r0, r1, r5, sl, sp}
      f0:	01000001 	tsteq	r0, r1
      f4:	0000fd54 	andeq	pc, r0, r4, asr sp	; <UNPREDICTABLE>
      f8:	28230200 	stmdacs	r3!, {r9}
      fc:	002c0600 	eoreq	r0, ip, r0, lsl #12
     100:	010d0000 	mrseq	r0, (UNDEF: 13)
     104:	48070000 	stmdami	r7, {}	; <UNPREDICTABLE>
     108:	07000000 	streq	r0, [r0, -r0]
     10c:	002c0600 	eoreq	r0, ip, r0, lsl #12
     110:	011d0000 	tsteq	sp, r0
     114:	48070000 	stmdami	r7, {}	; <UNPREDICTABLE>
     118:	03000000 	movweq	r0, #0
     11c:	01570800 	cmpeq	r7, r0, lsl #16
     120:	55010000 	strpl	r0, [r1, #-0]
     124:	00000064 	andeq	r0, r0, r4, rrx
     128:	00014b09 	andeq	r4, r1, r9, lsl #22
     12c:	3a240200 	bcc	900934 <__bss_end+0x8ed7e8>
     130:	01000001 	tsteq	r0, r1
     134:	00000305 	andeq	r0, r0, r5, lsl #6
     138:	1d0a0001 	stcne	0, cr0, [sl, #-4]
     13c:	00000001 	andeq	r0, r0, r1
     140:	00000077 	andeq	r0, r0, r7, ror r0
     144:	007f0002 	rsbseq	r0, pc, r2
     148:	01040000 	mrseq	r0, (UNDEF: 4)
     14c:	00000098 	muleq	r0, r8, r0
     150:	00010030 	andeq	r0, r1, r0, lsr r0
     154:	0001007c 	andeq	r0, r1, ip, ror r0
     158:	68637261 	stmdavs	r3!, {r0, r5, r6, r9, ip, sp, lr}^
     15c:	6d72612f 	ldfvse	f6, [r2, #-188]!	; 0xffffff44
     160:	63616d2f 	cmnvs	r1, #3008	; 0xbc0
     164:	75732d68 	ldrbvc	r2, [r3, #-3432]!	; 0xd68
     168:	2f69786e 	svccs	0x0069786e
     16c:	732f6d70 	teqvc	pc, #7168	; 0x1c00
     170:	646e6174 	strbtvs	r6, [lr], #-372	; 0x174
     174:	732f7962 	teqvc	pc, #1605632	; 0x188000
     178:	72657075 	rsbvc	r7, r5, #117	; 0x75
     17c:	7365722f 	cmnvc	r5, #-268435454	; 0xf0000002
     180:	2f656d75 	svccs	0x00656d75
     184:	75736572 	ldrbvc	r6, [r3, #-1394]!	; 0x572
     188:	2e31656d 	cdpcs	5, 3, cr6, cr1, cr13, {3}
     18c:	772f0053 			; <UNDEFINED> instruction: 0x772f0053
     190:	2f6b726f 	svccs	0x006b726f
     194:	2f6b6473 	svccs	0x006b6473
     198:	2f303861 	svccs	0x00303861
     19c:	68746967 	ldmdavs	r4!, {r0, r1, r2, r5, r6, r8, fp, sp, lr}^
     1a0:	6c2f6275 	sfmvs	f6, 4, [pc], #-468	; ffffffd4 <__bss_end+0xfffece88>
     1a4:	78756e69 	ldmdavc	r5!, {r0, r3, r5, r6, r9, sl, fp, sp, lr}^
     1a8:	342e332d 	strtcc	r3, [lr], #-813	; 0x32d
     1ac:	554e4700 	strbpl	r4, [lr, #-1792]	; 0x700
     1b0:	20534120 	subscs	r4, r3, r0, lsr #2
     1b4:	32322e32 	eorscc	r2, r2, #800	; 0x320
     1b8:	c5800100 	strgt	r0, [r0, #256]	; 0x100
     1bc:	02000000 	andeq	r0, r0, #0
     1c0:	00009300 	andeq	r9, r0, r0, lsl #6
     1c4:	0d010400 	cfstrseq	mvf0, [r1, #-0]
     1c8:	01000001 	tsteq	r0, r1
     1cc:	0000016a 	andeq	r0, r0, sl, ror #2
     1d0:	00000042 	andeq	r0, r0, r2, asr #32
     1d4:	0001007c 	andeq	r0, r1, ip, ror r0
     1d8:	000100a4 	andeq	r0, r1, r4, lsr #1
     1dc:	00000112 	andeq	r0, r0, r2, lsl r1
     1e0:	d3060102 	movwle	r0, #24834	; 0x6102
     1e4:	02000000 	andeq	r0, r0, #0
     1e8:	00d10801 	sbcseq	r0, r1, r1, lsl #16
     1ec:	02020000 	andeq	r0, r2, #0
     1f0:	00014105 	andeq	r4, r1, r5, lsl #2
     1f4:	07020200 	streq	r0, [r2, -r0, lsl #4]
     1f8:	000000fa 	strdeq	r0, [r0], -sl
     1fc:	69050403 	stmdbvs	r5, {r0, r1, sl}
     200:	0200746e 	andeq	r7, r0, #1845493760	; 0x6e000000
     204:	006b0704 	rsbeq	r0, fp, r4, lsl #14
     208:	08020000 	stmdaeq	r2, {}	; <UNPREDICTABLE>
     20c:	00000005 	andeq	r0, r0, r5
     210:	07080200 	streq	r0, [r8, -r0, lsl #4]
     214:	00000061 	andeq	r0, r0, r1, rrx
     218:	66070402 	strvs	r0, [r7], -r2, lsl #8
     21c:	04000000 	streq	r0, [r0], #-0
     220:	00004804 	andeq	r4, r0, r4, lsl #16
     224:	06040500 	streq	r0, [r4], -r0, lsl #10
     228:	0001a801 	andeq	sl, r1, r1, lsl #16
     22c:	01230100 	teqeq	r3, r0, lsl #2
     230:	0001007c 	andeq	r0, r1, ip, ror r0
     234:	000100a4 	andeq	r0, r1, r4, lsr #1
     238:	07007d02 	streq	r7, [r0, -r2, lsl #26]
     23c:	000017a6 	andeq	r1, r0, r6, lsr #15
     240:	006a2301 	rsbeq	r2, sl, r1, lsl #6
     244:	00000000 	andeq	r0, r0, r0
     248:	73080000 	movwvc	r0, #32768	; 0x8000
     24c:	01006372 	tsteq	r0, r2, ror r3
     250:	00006a23 	andeq	r6, r0, r3, lsr #20
     254:	00001300 	andeq	r1, r0, r0, lsl #6
     258:	006e0800 	rsbeq	r0, lr, r0, lsl #16
     25c:	00412301 	subeq	r2, r1, r1, lsl #6
     260:	00260000 	eoreq	r0, r6, r0
     264:	a0090000 	andge	r0, r9, r0
     268:	01000001 	tsteq	r0, r1
     26c:	00006425 	andeq	r6, r0, r5, lsr #8
     270:	00005100 	andeq	r5, r0, r0, lsl #2
     274:	01980a00 	orrseq	r0, r8, r0, lsl #20
     278:	26010000 	strcs	r0, [r1], -r0
     27c:	00000064 	andeq	r0, r0, r4, rrx
     280:	00005001 	andeq	r5, r0, r1
     284:	00000061 	andeq	r0, r0, r1, rrx
     288:	011e0002 	tsteq	lr, r2
     28c:	01040000 	mrseq	r0, (UNDEF: 4)
     290:	0000010d 	andeq	r0, r0, sp, lsl #2
     294:	0001b301 	andeq	fp, r1, r1, lsl #6
     298:	00004200 	andeq	r4, r0, r0, lsl #4
     29c:	0100a400 	tsteq	r0, r0, lsl #8
     2a0:	0100a400 	tsteq	r0, r0, lsl #8
     2a4:	00018800 	andeq	r8, r1, r0, lsl #16
     2a8:	06010200 	streq	r0, [r1], -r0, lsl #4
     2ac:	000000d3 	ldrdeq	r0, [r0], -r3
     2b0:	d1080102 	tstle	r8, r2, lsl #2
     2b4:	02000000 	andeq	r0, r0, #0
     2b8:	01410502 	cmpeq	r1, r2, lsl #10
     2bc:	02020000 	andeq	r0, r2, #0
     2c0:	0000fa07 	andeq	pc, r0, r7, lsl #20
     2c4:	05040300 	streq	r0, [r4, #-768]	; 0x300
     2c8:	00746e69 	rsbseq	r6, r4, r9, ror #28
     2cc:	6b070402 	blvs	1c12dc <__bss_end+0x1ae190>
     2d0:	02000000 	andeq	r0, r0, #0
     2d4:	00000508 	andeq	r0, r0, r8, lsl #10
     2d8:	08020000 	stmdaeq	r2, {}	; <UNPREDICTABLE>
     2dc:	00006107 	andeq	r6, r0, r7, lsl #2
     2e0:	07040200 	streq	r0, [r4, -r0, lsl #4]
     2e4:	00000066 	andeq	r0, r0, r6, rrx
     2e8:	00007400 	andeq	r7, r0, r0, lsl #8
     2ec:	48000200 	stmdami	r0, {r9}
     2f0:	04000001 	streq	r0, [r0], #-1
     2f4:	0001a501 	andeq	sl, r1, r1, lsl #10
     2f8:	0100a400 	tsteq	r0, r0, lsl #8
     2fc:	0100cc00 	tsteq	r0, r0, lsl #24
     300:	63726100 	cmnvs	r2, #0
     304:	72612f68 	rsbvc	r2, r1, #416	; 0x1a0
     308:	616d2f6d 	cmnvs	sp, sp, ror #30
     30c:	732d6863 	teqvc	sp, #6488064	; 0x630000
     310:	69786e75 	ldmdbvs	r8!, {r0, r2, r4, r5, r6, r9, sl, fp, sp, lr}^
     314:	2f6d702f 	svccs	0x006d702f
     318:	6e617473 	mcrvs	4, 3, r7, cr1, cr3, {3}
     31c:	2f796264 	svccs	0x00796264
     320:	65707573 	ldrbvs	r7, [r0, #-1395]!	; 0x573
     324:	75732f72 	ldrbvc	r2, [r3, #-3954]!	; 0xf72
     328:	5f726570 	svcpl	0x00726570
     32c:	616c6564 	cmnvs	ip, r4, ror #10
     330:	00532e79 	subseq	r2, r3, r9, ror lr
     334:	726f772f 	rsbvc	r7, pc, #12320768	; 0xbc0000
     338:	64732f6b 	ldrbtvs	r2, [r3], #-3947	; 0xf6b
     33c:	38612f6b 	stmdacc	r1!, {r0, r1, r3, r5, r6, r8, r9, sl, fp, sp}^
     340:	69672f30 	stmdbvs	r7!, {r4, r5, r8, r9, sl, fp, sp}^
     344:	62756874 	rsbsvs	r6, r5, #7602176	; 0x740000
     348:	6e696c2f 	cdpvs	12, 6, cr6, cr9, cr15, {1}
     34c:	332d7875 	teqcc	sp, #7667712	; 0x750000
     350:	4700342e 	strmi	r3, [r0, -lr, lsr #8]
     354:	4120554e 	teqmi	r0, lr, asr #10
     358:	2e322053 	mrccs	0, 1, r2, cr2, cr3, {2}
     35c:	01003232 	tsteq	r0, r2, lsr r2
     360:	00006180 	andeq	r6, r0, r0, lsl #3
     364:	5c000200 	sfmpl	f0, 4, [r0], {-0}
     368:	04000001 	streq	r0, [r0], #-1
     36c:	00010d01 	andeq	r0, r1, r1, lsl #26
     370:	01e40100 	mvneq	r0, r0, lsl #2
     374:	00420000 	subeq	r0, r2, r0
     378:	00cc0000 	sbceq	r0, ip, r0
     37c:	00cc0001 	sbceq	r0, ip, r1
     380:	02100001 	andseq	r0, r0, #1
     384:	01020000 	mrseq	r0, (UNDEF: 2)
     388:	0000d306 	andeq	sp, r0, r6, lsl #6
     38c:	08010200 	stmdaeq	r1, {r9}
     390:	000000d1 	ldrdeq	r0, [r0], -r1
     394:	41050202 	tstmi	r5, r2, lsl #4
     398:	02000001 	andeq	r0, r0, #1
     39c:	00fa0702 	rscseq	r0, sl, r2, lsl #14
     3a0:	04030000 	streq	r0, [r3], #-0
     3a4:	746e6905 	strbtvc	r6, [lr], #-2309	; 0x905
     3a8:	07040200 	streq	r0, [r4, -r0, lsl #4]
     3ac:	0000006b 	andeq	r0, r0, fp, rrx
     3b0:	00050802 	andeq	r0, r5, r2, lsl #16
     3b4:	02000000 	andeq	r0, r0, #0
     3b8:	00610708 	rsbeq	r0, r1, r8, lsl #14
     3bc:	04020000 	streq	r0, [r2], #-0
     3c0:	00006607 	andeq	r6, r0, r7, lsl #12
     3c4:	00610000 	rsbeq	r0, r1, r0
     3c8:	00020000 	andeq	r0, r2, r0
     3cc:	00000186 	andeq	r0, r0, r6, lsl #3
     3d0:	010d0104 	tsteq	sp, r4, lsl #2
     3d4:	17010000 	strne	r0, [r1, -r0]
     3d8:	42000002 	andmi	r0, r0, #2
     3dc:	cc000000 	stcgt	0, cr0, [r0], {-0}
     3e0:	cc000100 	stfgts	f0, [r0], {-0}
     3e4:	2d000100 	stfcss	f0, [r0, #-0]
     3e8:	02000002 	andeq	r0, r0, #2
     3ec:	00d30601 	sbcseq	r0, r3, r1, lsl #12
     3f0:	01020000 	mrseq	r0, (UNDEF: 2)
     3f4:	0000d108 	andeq	sp, r0, r8, lsl #2
     3f8:	05020200 	streq	r0, [r2, #-512]	; 0x200
     3fc:	00000141 	andeq	r0, r0, r1, asr #2
     400:	fa070202 	blx	1c0c10 <__bss_end+0x1adac4>
     404:	03000000 	movweq	r0, #0
     408:	6e690504 	cdpvs	5, 6, cr0, cr9, cr4, {0}
     40c:	04020074 	streq	r0, [r2], #-116	; 0x74
     410:	00006b07 	andeq	r6, r0, r7, lsl #22
     414:	05080200 	streq	r0, [r8, #-512]	; 0x200
     418:	00000000 	andeq	r0, r0, r0
     41c:	61070802 	tstvs	r7, r2, lsl #16
     420:	02000000 	andeq	r0, r0, #0
     424:	00660704 	rsbeq	r0, r6, r4, lsl #14
     428:	61000000 	mrsvs	r0, (UNDEF: 0)
     42c:	02000000 	andeq	r0, r0, #0
     430:	0001b000 	andeq	fp, r1, r0
     434:	0d010400 	cfstrseq	mvf0, [r1, #-0]
     438:	01000001 	tsteq	r0, r1
     43c:	0000024a 	andeq	r0, r0, sl, asr #4
     440:	00000042 	andeq	r0, r0, r2, asr #32
     444:	000100cc 	andeq	r0, r1, ip, asr #1
     448:	000100cc 	andeq	r0, r1, ip, asr #1
     44c:	0000024a 	andeq	r0, r0, sl, asr #4
     450:	d3060102 	movwle	r0, #24834	; 0x6102
     454:	02000000 	andeq	r0, r0, #0
     458:	00d10801 	sbcseq	r0, r1, r1, lsl #16
     45c:	02020000 	andeq	r0, r2, #0
     460:	00014105 	andeq	r4, r1, r5, lsl #2
     464:	07020200 	streq	r0, [r2, -r0, lsl #4]
     468:	000000fa 	strdeq	r0, [r0], -sl
     46c:	69050403 	stmdbvs	r5, {r0, r1, sl}
     470:	0200746e 	andeq	r7, r0, #1845493760	; 0x6e000000
     474:	006b0704 	rsbeq	r0, fp, r4, lsl #14
     478:	08020000 	stmdaeq	r2, {}	; <UNPREDICTABLE>
     47c:	00000005 	andeq	r0, r0, r5
     480:	07080200 	streq	r0, [r8, -r0, lsl #4]
     484:	00000061 	andeq	r0, r0, r1, rrx
     488:	66070402 	strvs	r0, [r7], -r2, lsl #8
     48c:	00000000 	andeq	r0, r0, r0
     490:	000029d2 	ldrdeq	r2, [r0], -r2	; <UNPREDICTABLE>
     494:	01da0002 	bicseq	r0, sl, r2
     498:	01040000 	mrseq	r0, (UNDEF: 4)
     49c:	0000010d 	andeq	r0, r0, sp, lsl #2
     4a0:	00072201 	andeq	r2, r7, r1, lsl #4
     4a4:	00004200 	andeq	r4, r0, r0, lsl #4
     4a8:	0100cc00 	tsteq	r0, r0, lsl #24
     4ac:	0102e400 	tsteq	r2, r0, lsl #8
     4b0:	00026700 	andeq	r6, r2, r0, lsl #14
     4b4:	06010200 	streq	r0, [r1], -r0, lsl #4
     4b8:	000000d3 	ldrdeq	r0, [r0], -r3
     4bc:	000ce603 	andeq	lr, ip, r3, lsl #12
     4c0:	370f0200 	strcc	r0, [pc, -r0, lsl #4]
     4c4:	02000000 	andeq	r0, r0, #0
     4c8:	00d10801 	sbcseq	r0, r1, r1, lsl #16
     4cc:	02020000 	andeq	r0, r2, #0
     4d0:	00014105 	andeq	r4, r1, r5, lsl #2
     4d4:	07020200 	streq	r0, [r2, -r0, lsl #4]
     4d8:	000000fa 	strdeq	r0, [r0], -sl
     4dc:	69050404 	stmdbvs	r5, {r2, sl}
     4e0:	0300746e 	movweq	r7, #1134	; 0x46e
     4e4:	000008a8 	andeq	r0, r0, r8, lsr #17
     4e8:	005e1302 	subseq	r1, lr, r2, lsl #6
     4ec:	04020000 	streq	r0, [r2], #-0
     4f0:	00006b07 	andeq	r6, r0, r7, lsl #22
     4f4:	05080200 	streq	r0, [r8, #-512]	; 0x200
     4f8:	00000000 	andeq	r0, r0, r0
     4fc:	61070802 	tstvs	r7, r2, lsl #16
     500:	05000000 	streq	r0, [r0, #-0]
     504:	04910304 	ldreq	r0, [r1], #772	; 0x304
     508:	06000001 	streq	r0, [r0], -r1
     50c:	00000338 	andeq	r0, r0, r8, lsr r3
     510:	00539303 	subseq	r9, r3, r3, lsl #6
     514:	02040000 	andeq	r0, r4, #0
     518:	0023021e 	eoreq	r0, r3, lr, lsl r2
     51c:	000e4606 	andeq	r4, lr, r6, lsl #12
     520:	53940300 	orrspl	r0, r4, #0
     524:	04000000 	streq	r0, [r0], #-0
     528:	23021806 	movwcs	r1, #10246	; 0x2806
     52c:	0d9e0600 	ldceq	6, cr0, [lr]
     530:	95030000 	strls	r0, [r3, #-0]
     534:	00000053 	andeq	r0, r0, r3, asr r0
     538:	02100804 	andseq	r0, r0, #262144	; 0x40000
     53c:	82060023 	andhi	r0, r6, #35	; 0x23
     540:	0300000c 	movweq	r0, #12
     544:	00005396 	muleq	r0, r6, r3
     548:	0f010400 	svceq	0x00010400
     54c:	06002302 	streq	r2, [r0], -r2, lsl #6
     550:	00000e4b 	andeq	r0, r0, fp, asr #28
     554:	00539703 	subseq	r9, r3, r3, lsl #14
     558:	07040000 	streq	r0, [r4, -r0]
     55c:	00230208 	eoreq	r0, r3, r8, lsl #4
     560:	0007f306 	andeq	pc, r7, r6, lsl #6
     564:	53980300 	orrspl	r0, r8, #0
     568:	04000000 	streq	r0, [r0], #-0
     56c:	23020503 	movwcs	r0, #9475	; 0x2503
     570:	0e500600 	cdpeq	6, 5, cr0, cr0, cr0, {0}
     574:	99030000 	stmdbls	r3, {}	; <UNPREDICTABLE>
     578:	00000053 	andeq	r0, r0, r3, asr r0
     57c:	02010404 	andeq	r0, r1, #67108864	; 0x4000000
     580:	0f060023 	svceq	0x00060023
     584:	0300000d 	movweq	r0, #13
     588:	0000539a 	muleq	r0, sl, r3
     58c:	00010400 	andeq	r0, r1, r0, lsl #8
     590:	00002302 	andeq	r2, r0, r2, lsl #6
     594:	8e030407 	cdphi	4, 0, cr0, cr3, cr7, {0}
     598:	00000123 	andeq	r0, r0, r3, lsr #2
     59c:	0002c608 	andeq	ip, r2, r8, lsl #12
     5a0:	53900300 	orrspl	r0, r0, #0
     5a4:	08000000 	stmdaeq	r0, {}	; <UNPREDICTABLE>
     5a8:	00000925 	andeq	r0, r0, r5, lsr #18
     5ac:	00739b03 	rsbseq	r9, r3, r3, lsl #22
     5b0:	03000000 	movweq	r0, #0
     5b4:	00000532 	andeq	r0, r0, r2, lsr r5
     5b8:	01049c03 	tsteq	r4, r3, lsl #24
     5bc:	04050000 	streq	r0, [r5], #-0
     5c0:	01bfa103 			; <UNDEFINED> instruction: 0x01bfa103
     5c4:	38060000 	stmdacc	r6, {}	; <UNPREDICTABLE>
     5c8:	03000003 	movweq	r0, #3
     5cc:	000053a3 	andeq	r5, r0, r3, lsr #7
     5d0:	1e020400 	cfcpysne	mvf0, mvf2
     5d4:	06002302 	streq	r2, [r0], -r2, lsl #6
     5d8:	00000e46 	andeq	r0, r0, r6, asr #28
     5dc:	0053a403 	subseq	sl, r3, r3, lsl #8
     5e0:	06040000 	streq	r0, [r4], -r0
     5e4:	00230218 	eoreq	r0, r3, r8, lsl r2
     5e8:	000d9e06 	andeq	r9, sp, r6, lsl #28
     5ec:	53a50300 			; <UNDEFINED> instruction: 0x53a50300
     5f0:	04000000 	streq	r0, [r0], #-0
     5f4:	23021008 	movwcs	r1, #8200	; 0x2008
     5f8:	0c820600 	stceq	6, cr0, [r2], {0}
     5fc:	a6030000 	strge	r0, [r3], -r0
     600:	00000053 	andeq	r0, r0, r3, asr r0
     604:	020f0104 	andeq	r0, pc, #1
     608:	4b060023 	blmi	18069c <__bss_end+0x16d550>
     60c:	0300000e 	movweq	r0, #14
     610:	000053a7 	andeq	r5, r0, r7, lsr #7
     614:	08070400 	stmdaeq	r7, {sl}
     618:	06002302 	streq	r2, [r0], -r2, lsl #6
     61c:	000007f3 	strdeq	r0, [r0], -r3
     620:	0053a803 	subseq	sl, r3, r3, lsl #16
     624:	03040000 	movweq	r0, #16384	; 0x4000
     628:	00230205 	eoreq	r0, r3, r5, lsl #4
     62c:	000e5006 	andeq	r5, lr, r6
     630:	53a90300 			; <UNDEFINED> instruction: 0x53a90300
     634:	04000000 	streq	r0, [r0], #-0
     638:	23020104 	movwcs	r0, #8452	; 0x2104
     63c:	0d0f0600 	stceq	6, cr0, [pc, #-0]	; 644 <__resume1_start+0x644>
     640:	aa030000 	bge	c0648 <__bss_end+0xad4fc>
     644:	00000053 	andeq	r0, r0, r3, asr r0
     648:	02000104 	andeq	r0, r0, #1
     64c:	07000023 	streq	r0, [r0, -r3, lsr #32]
     650:	de9e0304 	cdple	3, 9, cr0, cr14, cr4, {0}
     654:	08000001 	stmdaeq	r0, {r0}
     658:	000002c6 	andeq	r0, r0, r6, asr #5
     65c:	0053a003 	subseq	sl, r3, r3
     660:	25080000 	strcs	r0, [r8, #-0]
     664:	03000009 	movweq	r0, #9
     668:	00012eab 	andeq	r2, r1, fp, lsr #29
     66c:	6e030000 	cdpvs	0, 0, cr0, cr3, cr0, {0}
     670:	03000003 	movweq	r0, #3
     674:	0001bfac 	andeq	fp, r1, ip, lsr #31
     678:	03040500 	movweq	r0, #17664	; 0x4500
     67c:	00029cb1 			; <UNDEFINED> instruction: 0x00029cb1
     680:	03460600 	movteq	r0, #26112	; 0x6600
     684:	b3030000 	movwlt	r0, #12288	; 0x3000
     688:	00000053 	andeq	r0, r0, r3, asr r0
     68c:	021a0604 	andseq	r0, sl, #4194304	; 0x400000
     690:	46060023 	strmi	r0, [r6], -r3, lsr #32
     694:	0300000e 	movweq	r0, #14
     698:	000053b4 			; <UNDEFINED> instruction: 0x000053b4
     69c:	18020400 	stmdane	r2, {sl}
     6a0:	06002302 	streq	r2, [r0], -r2, lsl #6
     6a4:	00000d9e 	muleq	r0, lr, sp
     6a8:	0053b503 	subseq	fp, r3, r3, lsl #10
     6ac:	08040000 	stmdaeq	r4, {}	; <UNPREDICTABLE>
     6b0:	00230210 	eoreq	r0, r3, r0, lsl r2
     6b4:	000ceb06 	andeq	lr, ip, r6, lsl #22
     6b8:	53b60300 			; <UNDEFINED> instruction: 0x53b60300
     6bc:	04000000 	streq	r0, [r0], #-0
     6c0:	23020f01 	movwcs	r0, #12033	; 0x2f01
     6c4:	0e4b0600 	cdpeq	6, 4, cr0, cr11, cr0, {0}
     6c8:	b7030000 	strlt	r0, [r3, -r0]
     6cc:	00000053 	andeq	r0, r0, r3, asr r0
     6d0:	020e0104 	andeq	r0, lr, #1
     6d4:	f4060023 	vst4.8	{d0-d3}, [r6 :128], r3
     6d8:	0300000c 	movweq	r0, #12
     6dc:	000053b8 			; <UNDEFINED> instruction: 0x000053b8
     6e0:	0d010400 	cfstrseq	mvf0, [r1, #-0]
     6e4:	06002302 	streq	r2, [r0], -r2, lsl #6
     6e8:	00000e50 	andeq	r0, r0, r0, asr lr
     6ec:	0053b903 	subseq	fp, r3, r3, lsl #18
     6f0:	05040000 	streq	r0, [r4, #-0]
     6f4:	00230208 	eoreq	r0, r3, r8, lsl #4
     6f8:	0003a806 	andeq	sl, r3, r6, lsl #16
     6fc:	53ba0300 			; <UNDEFINED> instruction: 0x53ba0300
     700:	04000000 	streq	r0, [r0], #-0
     704:	23020701 	movwcs	r0, #9985	; 0x2701
     708:	0e550600 	cdpeq	6, 5, cr0, cr5, cr0, {0}
     70c:	bb030000 	bllt	c0714 <__bss_end+0xad5c8>
     710:	00000053 	andeq	r0, r0, r3, asr r0
     714:	02010604 	andeq	r0, r1, #4194304	; 0x400000
     718:	0f060023 	svceq	0x00060023
     71c:	0300000d 	movweq	r0, #13
     720:	000053bc 			; <UNDEFINED> instruction: 0x000053bc
     724:	00010400 	andeq	r0, r1, r0, lsl #8
     728:	00002302 	andeq	r2, r0, r2, lsl #6
     72c:	ae030407 	cdpge	4, 0, cr0, cr3, cr7, {0}
     730:	000002bb 			; <UNDEFINED> instruction: 0x000002bb
     734:	0002c608 	andeq	ip, r2, r8, lsl #12
     738:	53b00300 	movspl	r0, #0
     73c:	08000000 	stmdaeq	r0, {}	; <UNPREDICTABLE>
     740:	00000925 	andeq	r0, r0, r5, lsr #18
     744:	01e9bd03 	mvneq	fp, r3, lsl #26
     748:	03000000 	movweq	r0, #0
     74c:	000009c2 	andeq	r0, r0, r2, asr #19
     750:	029cbe03 	addseq	fp, ip, #48	; 0x30
     754:	04050000 	streq	r0, [r5], #-0
     758:	0368c303 	cmneq	r8, #201326592	; 0xc000000
     75c:	46060000 	strmi	r0, [r6], -r0
     760:	0300000e 	movweq	r0, #14
     764:	000053c5 	andeq	r5, r0, r5, asr #7
     768:	18080400 	stmdane	r8, {sl}
     76c:	06002302 	streq	r2, [r0], -r2, lsl #6
     770:	00000d9e 	muleq	r0, lr, sp
     774:	0053c603 	subseq	ip, r3, r3, lsl #12
     778:	08040000 	stmdaeq	r4, {}	; <UNPREDICTABLE>
     77c:	00230210 	eoreq	r0, r3, r0, lsl r2
     780:	000ceb06 	andeq	lr, ip, r6, lsl #22
     784:	53c70300 	bicpl	r0, r7, #0
     788:	04000000 	streq	r0, [r0], #-0
     78c:	23020f01 	movwcs	r0, #12033	; 0x2f01
     790:	0e4b0600 	cdpeq	6, 4, cr0, cr11, cr0, {0}
     794:	c8030000 	stmdagt	r3, {}	; <UNPREDICTABLE>
     798:	00000053 	andeq	r0, r0, r3, asr r0
     79c:	020e0104 	andeq	r0, lr, #1
     7a0:	f4060023 	vst4.8	{d0-d3}, [r6 :128], r3
     7a4:	0300000c 	movweq	r0, #12
     7a8:	000053c9 	andeq	r5, r0, r9, asr #7
     7ac:	0d010400 	cfstrseq	mvf0, [r1, #-0]
     7b0:	06002302 	streq	r2, [r0], -r2, lsl #6
     7b4:	00000e50 	andeq	r0, r0, r0, asr lr
     7b8:	0053ca03 	subseq	ip, r3, r3, lsl #20
     7bc:	05040000 	streq	r0, [r4, #-0]
     7c0:	00230208 	eoreq	r0, r3, r8, lsl #4
     7c4:	0003a806 	andeq	sl, r3, r6, lsl #16
     7c8:	53cb0300 	bicpl	r0, fp, #0
     7cc:	04000000 	streq	r0, [r0], #-0
     7d0:	23020701 	movwcs	r0, #9985	; 0x2701
     7d4:	0e550600 	cdpeq	6, 5, cr0, cr5, cr0, {0}
     7d8:	cc030000 	stcgt	0, cr0, [r3], {-0}
     7dc:	00000053 	andeq	r0, r0, r3, asr r0
     7e0:	02010604 	andeq	r0, r1, #4194304	; 0x400000
     7e4:	0f060023 	svceq	0x00060023
     7e8:	0300000d 	movweq	r0, #13
     7ec:	000053cd 	andeq	r5, r0, sp, asr #7
     7f0:	00010400 	andeq	r0, r1, r0, lsl #8
     7f4:	00002302 	andeq	r2, r0, r2, lsl #6
     7f8:	c0030407 	andgt	r0, r3, r7, lsl #8
     7fc:	00000387 	andeq	r0, r0, r7, lsl #7
     800:	0002c608 	andeq	ip, r2, r8, lsl #12
     804:	53c20300 	bicpl	r0, r2, #0
     808:	08000000 	stmdaeq	r0, {}	; <UNPREDICTABLE>
     80c:	00000925 	andeq	r0, r0, r5, lsr #18
     810:	02c6ce03 	sbceq	ip, r6, #48	; 0x30
     814:	03000000 	movweq	r0, #0
     818:	00000b40 	andeq	r0, r0, r0, asr #22
     81c:	0368cf03 	cmneq	r8, #12
     820:	04050000 	streq	r0, [r5], #-0
     824:	0434d403 	ldrteq	sp, [r4], #-1027	; 0x403
     828:	46060000 	strmi	r0, [r6], -r0
     82c:	0300000e 	movweq	r0, #14
     830:	000053d6 	ldrdeq	r5, [r0], -r6
     834:	18080400 	stmdane	r8, {sl}
     838:	06002302 	streq	r2, [r0], -r2, lsl #6
     83c:	00000d9e 	muleq	r0, lr, sp
     840:	0053d703 	subseq	sp, r3, r3, lsl #14
     844:	08040000 	stmdaeq	r4, {}	; <UNPREDICTABLE>
     848:	00230210 	eoreq	r0, r3, r0, lsl r2
     84c:	000ceb06 	andeq	lr, ip, r6, lsl #22
     850:	53d80300 	bicspl	r0, r8, #0
     854:	04000000 	streq	r0, [r0], #-0
     858:	23020f01 	movwcs	r0, #12033	; 0x2f01
     85c:	0e4b0600 	cdpeq	6, 4, cr0, cr11, cr0, {0}
     860:	d9030000 	stmdble	r3, {}	; <UNPREDICTABLE>
     864:	00000053 	andeq	r0, r0, r3, asr r0
     868:	020e0104 	andeq	r0, lr, #1
     86c:	f4060023 	vst4.8	{d0-d3}, [r6 :128], r3
     870:	0300000c 	movweq	r0, #12
     874:	000053da 	ldrdeq	r5, [r0], -sl
     878:	0d010400 	cfstrseq	mvf0, [r1, #-0]
     87c:	06002302 	streq	r2, [r0], -r2, lsl #6
     880:	00000e50 	andeq	r0, r0, r0, asr lr
     884:	0053db03 	subseq	sp, r3, r3, lsl #22
     888:	05040000 	streq	r0, [r4, #-0]
     88c:	00230208 	eoreq	r0, r3, r8, lsl #4
     890:	0003a806 	andeq	sl, r3, r6, lsl #16
     894:	53dc0300 	bicspl	r0, ip, #0
     898:	04000000 	streq	r0, [r0], #-0
     89c:	23020701 	movwcs	r0, #9985	; 0x2701
     8a0:	0e550600 	cdpeq	6, 5, cr0, cr5, cr0, {0}
     8a4:	dd030000 	stcle	0, cr0, [r3, #-0]
     8a8:	00000053 	andeq	r0, r0, r3, asr r0
     8ac:	02010604 	andeq	r0, r1, #4194304	; 0x400000
     8b0:	0f060023 	svceq	0x00060023
     8b4:	0300000d 	movweq	r0, #13
     8b8:	000053de 	ldrdeq	r5, [r0], -lr
     8bc:	00010400 	andeq	r0, r1, r0, lsl #8
     8c0:	00002302 	andeq	r2, r0, r2, lsl #6
     8c4:	d1030407 	tstle	r3, r7, lsl #8
     8c8:	00000453 	andeq	r0, r0, r3, asr r4
     8cc:	0002c608 	andeq	ip, r2, r8, lsl #12
     8d0:	53d30300 	bicspl	r0, r3, #0
     8d4:	08000000 	stmdaeq	r0, {}	; <UNPREDICTABLE>
     8d8:	00000925 	andeq	r0, r0, r5, lsr #18
     8dc:	0392df03 	orrseq	sp, r2, #12
     8e0:	03000000 	movweq	r0, #0
     8e4:	00000658 	andeq	r0, r0, r8, asr r6
     8e8:	0434e003 	ldrteq	lr, [r4], #-3
     8ec:	04050000 	streq	r0, [r5], #-0
     8f0:	0511e503 	ldreq	lr, [r1, #-1283]	; 0x503
     8f4:	46060000 	strmi	r0, [r6], -r0
     8f8:	0300000e 	movweq	r0, #14
     8fc:	000053e7 	andeq	r5, r0, r7, ror #7
     900:	18080400 	stmdane	r8, {sl}
     904:	06002302 	streq	r2, [r0], -r2, lsl #6
     908:	00000d9e 	muleq	r0, lr, sp
     90c:	0053e803 	subseq	lr, r3, r3, lsl #16
     910:	08040000 	stmdaeq	r4, {}	; <UNPREDICTABLE>
     914:	00230210 	eoreq	r0, r3, r0, lsl r2
     918:	000ceb06 	andeq	lr, ip, r6, lsl #22
     91c:	53e90300 	mvnpl	r0, #0
     920:	04000000 	streq	r0, [r0], #-0
     924:	23020f01 	movwcs	r0, #12033	; 0x2f01
     928:	0e4b0600 	cdpeq	6, 4, cr0, cr11, cr0, {0}
     92c:	ea030000 	b	c0934 <__bss_end+0xad7e8>
     930:	00000053 	andeq	r0, r0, r3, asr r0
     934:	020e0104 	andeq	r0, lr, #1
     938:	f4060023 	vst4.8	{d0-d3}, [r6 :128], r3
     93c:	0300000c 	movweq	r0, #12
     940:	000053eb 	andeq	r5, r0, fp, ror #7
     944:	0d010400 	cfstrseq	mvf0, [r1, #-0]
     948:	06002302 	streq	r2, [r0], -r2, lsl #6
     94c:	00000e50 	andeq	r0, r0, r0, asr lr
     950:	0053ec03 	subseq	lr, r3, r3, lsl #24
     954:	05040000 	streq	r0, [r4, #-0]
     958:	00230208 	eoreq	r0, r3, r8, lsl #4
     95c:	0003a806 	andeq	sl, r3, r6, lsl #16
     960:	53ed0300 	mvnpl	r0, #0
     964:	04000000 	streq	r0, [r0], #-0
     968:	23020701 	movwcs	r0, #9985	; 0x2701
     96c:	0e550600 	cdpeq	6, 5, cr0, cr5, cr0, {0}
     970:	ee030000 	cdp	0, 0, cr0, cr3, cr0, {0}
     974:	00000053 	andeq	r0, r0, r3, asr r0
     978:	02020504 	andeq	r0, r2, #16777216	; 0x1000000
     97c:	31060023 	tstcc	r6, r3, lsr #32
     980:	03000008 	movweq	r0, #8
     984:	000053ef 	andeq	r5, r0, pc, ror #7
     988:	01010400 	tsteq	r1, r0, lsl #8
     98c:	06002302 	streq	r2, [r0], -r2, lsl #6
     990:	00000d0f 	andeq	r0, r0, pc, lsl #26
     994:	0053f003 	subseq	pc, r3, r3
     998:	01040000 	mrseq	r0, (UNDEF: 4)
     99c:	00230200 	eoreq	r0, r3, r0, lsl #4
     9a0:	03040700 	movweq	r0, #18176	; 0x4700
     9a4:	000530e2 	andeq	r3, r5, r2, ror #1
     9a8:	02c60800 	sbceq	r0, r6, #0
     9ac:	e4030000 	str	r0, [r3], #-0
     9b0:	00000053 	andeq	r0, r0, r3, asr r0
     9b4:	00092508 	andeq	r2, r9, r8, lsl #10
     9b8:	5ef10300 	cdppl	3, 15, cr0, cr1, cr0, {0}
     9bc:	00000004 	andeq	r0, r0, r4
     9c0:	000f6003 	andeq	r6, pc, r3
     9c4:	11f20300 	mvnsne	r0, r0, lsl #6
     9c8:	05000005 	streq	r0, [r0, #-5]
     9cc:	dff70304 	svcle	0x00f70304
     9d0:	06000005 	streq	r0, [r0], -r5
     9d4:	00000e46 	andeq	r0, r0, r6, asr #28
     9d8:	0053f903 	subseq	pc, r3, r3, lsl #18
     9dc:	08040000 	stmdaeq	r4, {}	; <UNPREDICTABLE>
     9e0:	00230218 	eoreq	r0, r3, r8, lsl r2
     9e4:	000d9e06 	andeq	r9, sp, r6, lsl #28
     9e8:	53fa0300 	mvnspl	r0, #0
     9ec:	04000000 	streq	r0, [r0], #-0
     9f0:	23021008 	movwcs	r1, #8200	; 0x2008
     9f4:	03f00600 	mvnseq	r0, #0
     9f8:	fb030000 	blx	c0a02 <__bss_end+0xad8b6>
     9fc:	00000053 	andeq	r0, r0, r3, asr r0
     a00:	020f0104 	andeq	r0, pc, #1
     a04:	4b060023 	blmi	180a98 <__bss_end+0x16d94c>
     a08:	0300000e 	movweq	r0, #14
     a0c:	000053fc 	strdeq	r5, [r0], -ip
     a10:	0e010400 	cfcpyseq	mvf0, mvf1
     a14:	06002302 	streq	r2, [r0], -r2, lsl #6
     a18:	00000cf4 	strdeq	r0, [r0], -r4
     a1c:	0053fd03 	subseq	pc, r3, r3, lsl #26
     a20:	01040000 	mrseq	r0, (UNDEF: 4)
     a24:	0023020d 	eoreq	r0, r3, sp, lsl #4
     a28:	000e5006 	andeq	r5, lr, r6
     a2c:	53fe0300 	mvnspl	r0, #0
     a30:	04000000 	streq	r0, [r0], #-0
     a34:	23020805 	movwcs	r0, #10245	; 0x2805
     a38:	03a80600 			; <UNDEFINED> instruction: 0x03a80600
     a3c:	ff030000 			; <UNDEFINED> instruction: 0xff030000
     a40:	00000053 	andeq	r0, r0, r3, asr r0
     a44:	02070104 	andeq	r0, r7, #1
     a48:	55090023 	strpl	r0, [r9, #-35]	; 0x23
     a4c:	0300000e 	movweq	r0, #14
     a50:	00530100 	subseq	r0, r3, r0, lsl #2
     a54:	06040000 	streq	r0, [r4], -r0
     a58:	00230201 	eoreq	r0, r3, r1, lsl #4
     a5c:	000d0f09 	andeq	r0, sp, r9, lsl #30
     a60:	01010300 	mrseq	r0, SP_irq
     a64:	00000053 	andeq	r0, r0, r3, asr r0
     a68:	02000104 	andeq	r0, r0, #1
     a6c:	07000023 	streq	r0, [r0, -r3, lsr #32]
     a70:	fff40304 			; <UNDEFINED> instruction: 0xfff40304
     a74:	08000005 	stmdaeq	r0, {r0, r2}
     a78:	000002c6 	andeq	r0, r0, r6, asr #5
     a7c:	0053f603 	subseq	pc, r3, r3, lsl #12
     a80:	250a0000 	strcs	r0, [sl, #-0]
     a84:	03000009 	movweq	r0, #9
     a88:	053b0102 	ldreq	r0, [fp, #-258]!	; 0x102
     a8c:	0b000000 	bleq	a94 <__resume1_start+0xa94>
     a90:	00000bc2 	andeq	r0, r0, r2, asr #23
     a94:	df010303 	svcle	0x00010303
     a98:	0c000005 	stceq	0, cr0, [r0], {5}
     a9c:	01080304 	tsteq	r8, r4, lsl #6
     aa0:	000006c9 	andeq	r0, r0, r9, asr #13
     aa4:	000c8209 	andeq	r8, ip, r9, lsl #4
     aa8:	010a0300 	mrseq	r0, (UNDEF: 58)
     aac:	00000053 	andeq	r0, r0, r3, asr r0
     ab0:	021e0204 	andseq	r0, lr, #1073741824	; 0x40000000
     ab4:	46090023 	strmi	r0, [r9], -r3, lsr #32
     ab8:	0300000e 	movweq	r0, #14
     abc:	0053010b 	subseq	r0, r3, fp, lsl #2
     ac0:	06040000 	streq	r0, [r4], -r0
     ac4:	00230218 	eoreq	r0, r3, r8, lsl r2
     ac8:	000d9e09 	andeq	r9, sp, r9, lsl #28
     acc:	010c0300 	mrseq	r0, LR_mon
     ad0:	00000053 	andeq	r0, r0, r3, asr r0
     ad4:	02100804 	andseq	r0, r0, #262144	; 0x40000
     ad8:	f0090023 			; <UNDEFINED> instruction: 0xf0090023
     adc:	03000003 	movweq	r0, #3
     ae0:	0053010d 	subseq	r0, r3, sp, lsl #2
     ae4:	01040000 	mrseq	r0, (UNDEF: 4)
     ae8:	0023020f 	eoreq	r0, r3, pc, lsl #4
     aec:	000e4b09 	andeq	r4, lr, r9, lsl #22
     af0:	010e0300 	mrseq	r0, ELR_hyp
     af4:	00000053 	andeq	r0, r0, r3, asr r0
     af8:	020e0104 	andeq	r0, lr, #1
     afc:	f4090023 	vst4.8	{d0-d3}, [r9 :128], r3
     b00:	0300000c 	movweq	r0, #12
     b04:	0053010f 	subseq	r0, r3, pc, lsl #2
     b08:	01040000 	mrseq	r0, (UNDEF: 4)
     b0c:	0023020d 	eoreq	r0, r3, sp, lsl #4
     b10:	000e5009 	andeq	r5, lr, r9
     b14:	01100300 	tsteq	r0, r0, lsl #6
     b18:	00000053 	andeq	r0, r0, r3, asr r0
     b1c:	02080504 	andeq	r0, r8, #16777216	; 0x1000000
     b20:	a8090023 	stmdage	r9, {r0, r1, r5}
     b24:	03000003 	movweq	r0, #3
     b28:	00530111 	subseq	r0, r3, r1, lsl r1
     b2c:	01040000 	mrseq	r0, (UNDEF: 4)
     b30:	00230207 	eoreq	r0, r3, r7, lsl #4
     b34:	000e5509 	andeq	r5, lr, r9, lsl #10
     b38:	01120300 	tsteq	r2, r0, lsl #6
     b3c:	00000053 	andeq	r0, r0, r3, asr r0
     b40:	02010604 	andeq	r0, r1, #4194304	; 0x400000
     b44:	0f090023 	svceq	0x00090023
     b48:	0300000d 	movweq	r0, #13
     b4c:	00530113 	subseq	r0, r3, r3, lsl r1
     b50:	01040000 	mrseq	r0, (UNDEF: 4)
     b54:	00230200 	eoreq	r0, r3, r0, lsl #4
     b58:	03040d00 	movweq	r0, #19712	; 0x4d00
     b5c:	06eb0105 	strbteq	r0, [fp], r5, lsl #2
     b60:	c60a0000 	strgt	r0, [sl], -r0
     b64:	03000002 	movweq	r0, #2
     b68:	00530107 	subseq	r0, r3, r7, lsl #2
     b6c:	250a0000 	strcs	r0, [sl, #-0]
     b70:	03000009 	movweq	r0, #9
     b74:	060b0114 			; <UNDEFINED> instruction: 0x060b0114
     b78:	0b000000 	bleq	b80 <__resume1_start+0xb80>
     b7c:	00000893 	muleq	r0, r3, r8
     b80:	c9011503 	stmdbgt	r1, {r0, r1, r8, sl, ip}
     b84:	0c000006 	stceq	0, cr0, [r0], {6}
     b88:	011a0304 	tsteq	sl, r4, lsl #6
     b8c:	000007a3 	andeq	r0, r0, r3, lsr #15
     b90:	000e4609 	andeq	r4, lr, r9, lsl #12
     b94:	011c0300 	tsteq	ip, r0, lsl #6
     b98:	00000053 	andeq	r0, r0, r3, asr r0
     b9c:	02180804 	andseq	r0, r8, #262144	; 0x40000
     ba0:	9e090023 	cdpls	0, 0, cr0, cr9, cr3, {1}
     ba4:	0300000d 	movweq	r0, #13
     ba8:	0053011d 	subseq	r0, r3, sp, lsl r1
     bac:	08040000 	stmdaeq	r4, {}	; <UNPREDICTABLE>
     bb0:	00230210 	eoreq	r0, r3, r0, lsl r2
     bb4:	000ceb09 	andeq	lr, ip, r9, lsl #22
     bb8:	011e0300 	tsteq	lr, r0, lsl #6
     bbc:	00000053 	andeq	r0, r0, r3, asr r0
     bc0:	020f0104 	andeq	r0, pc, #1
     bc4:	4b090023 	blmi	240c58 <__bss_end+0x22db0c>
     bc8:	0300000e 	movweq	r0, #14
     bcc:	0053011f 	subseq	r0, r3, pc, lsl r1
     bd0:	01040000 	mrseq	r0, (UNDEF: 4)
     bd4:	0023020e 	eoreq	r0, r3, lr, lsl #4
     bd8:	000cf409 	andeq	pc, ip, r9, lsl #8
     bdc:	01200300 	teqeq	r0, r0, lsl #6
     be0:	00000053 	andeq	r0, r0, r3, asr r0
     be4:	020d0104 	andeq	r0, sp, #1
     be8:	50090023 	andpl	r0, r9, r3, lsr #32
     bec:	0300000e 	movweq	r0, #14
     bf0:	00530121 	subseq	r0, r3, r1, lsr #2
     bf4:	05040000 	streq	r0, [r4, #-0]
     bf8:	00230208 	eoreq	r0, r3, r8, lsl #4
     bfc:	0003a809 	andeq	sl, r3, r9, lsl #16
     c00:	01220300 	teqeq	r2, r0, lsl #6
     c04:	00000053 	andeq	r0, r0, r3, asr r0
     c08:	02070104 	andeq	r0, r7, #1
     c0c:	55090023 	strpl	r0, [r9, #-35]	; 0x23
     c10:	0300000e 	movweq	r0, #14
     c14:	00530123 	subseq	r0, r3, r3, lsr #2
     c18:	06040000 	streq	r0, [r4], -r0
     c1c:	00230201 	eoreq	r0, r3, r1, lsl #4
     c20:	000d0f09 	andeq	r0, sp, r9, lsl #30
     c24:	01240300 	teqeq	r4, r0, lsl #6
     c28:	00000053 	andeq	r0, r0, r3, asr r0
     c2c:	02000104 	andeq	r0, r0, #1
     c30:	0d000023 	stceq	0, cr0, [r0, #-140]	; 0xffffff74
     c34:	01170304 	tsteq	r7, r4, lsl #6
     c38:	000007c5 	andeq	r0, r0, r5, asr #15
     c3c:	0002c60a 	andeq	ip, r2, sl, lsl #12
     c40:	01190300 	tsteq	r9, r0, lsl #6
     c44:	00000053 	andeq	r0, r0, r3, asr r0
     c48:	0009250a 	andeq	r2, r9, sl, lsl #10
     c4c:	01250300 	teqeq	r5, r0, lsl #6
     c50:	000006f7 	strdeq	r0, [r0], -r7
     c54:	027c0b00 	rsbseq	r0, ip, #0
     c58:	26030000 	strcs	r0, [r3], -r0
     c5c:	0007a301 	andeq	sl, r7, r1, lsl #6
     c60:	03040c00 	movweq	r0, #19456	; 0x4c00
     c64:	087d012b 	ldmdaeq	sp!, {r0, r1, r3, r5, r8}^
     c68:	46090000 	strmi	r0, [r9], -r0
     c6c:	0300000e 	movweq	r0, #14
     c70:	0053012d 	subseq	r0, r3, sp, lsr #2
     c74:	08040000 	stmdaeq	r4, {}	; <UNPREDICTABLE>
     c78:	00230218 	eoreq	r0, r3, r8, lsl r2
     c7c:	000d9e09 	andeq	r9, sp, r9, lsl #28
     c80:	012e0300 	teqeq	lr, r0, lsl #6
     c84:	00000053 	andeq	r0, r0, r3, asr r0
     c88:	02100804 	andseq	r0, r0, #262144	; 0x40000
     c8c:	eb090023 	bl	240d20 <__bss_end+0x22dbd4>
     c90:	0300000c 	movweq	r0, #12
     c94:	0053012f 	subseq	r0, r3, pc, lsr #2
     c98:	01040000 	mrseq	r0, (UNDEF: 4)
     c9c:	0023020f 	eoreq	r0, r3, pc, lsl #4
     ca0:	000e4b09 	andeq	r4, lr, r9, lsl #22
     ca4:	01300300 	teqeq	r0, r0, lsl #6
     ca8:	00000053 	andeq	r0, r0, r3, asr r0
     cac:	020e0104 	andeq	r0, lr, #1
     cb0:	f4090023 	vst4.8	{d0-d3}, [r9 :128], r3
     cb4:	0300000c 	movweq	r0, #12
     cb8:	00530131 	subseq	r0, r3, r1, lsr r1
     cbc:	01040000 	mrseq	r0, (UNDEF: 4)
     cc0:	0023020d 	eoreq	r0, r3, sp, lsl #4
     cc4:	000e5009 	andeq	r5, lr, r9
     cc8:	01320300 	teqeq	r2, r0, lsl #6
     ccc:	00000053 	andeq	r0, r0, r3, asr r0
     cd0:	02080504 	andeq	r0, r8, #16777216	; 0x1000000
     cd4:	a8090023 	stmdage	r9, {r0, r1, r5}
     cd8:	03000003 	movweq	r0, #3
     cdc:	00530133 	subseq	r0, r3, r3, lsr r1
     ce0:	01040000 	mrseq	r0, (UNDEF: 4)
     ce4:	00230207 	eoreq	r0, r3, r7, lsl #4
     ce8:	000e5509 	andeq	r5, lr, r9, lsl #10
     cec:	01340300 	teqeq	r4, r0, lsl #6
     cf0:	00000053 	andeq	r0, r0, r3, asr r0
     cf4:	02010604 	andeq	r0, r1, #4194304	; 0x400000
     cf8:	0f090023 	svceq	0x00090023
     cfc:	0300000d 	movweq	r0, #13
     d00:	00530135 	subseq	r0, r3, r5, lsr r1
     d04:	01040000 	mrseq	r0, (UNDEF: 4)
     d08:	00230200 	eoreq	r0, r3, r0, lsl #4
     d0c:	03040d00 	movweq	r0, #19712	; 0x4d00
     d10:	089f0128 	ldmeq	pc, {r3, r5, r8}	; <UNPREDICTABLE>
     d14:	c60a0000 	strgt	r0, [sl], -r0
     d18:	03000002 	movweq	r0, #2
     d1c:	0053012a 	subseq	r0, r3, sl, lsr #2
     d20:	250a0000 	strcs	r0, [sl, #-0]
     d24:	03000009 	movweq	r0, #9
     d28:	07d10136 			; <UNDEFINED> instruction: 0x07d10136
     d2c:	0b000000 	bleq	d34 <__resume1_start+0xd34>
     d30:	00000edf 	ldrdeq	r0, [r0], -pc	; <UNPREDICTABLE>
     d34:	7d013703 	stcvc	7, cr3, [r1, #-12]
     d38:	0c000008 	stceq	0, cr0, [r0], {8}
     d3c:	013c0304 	teqeq	ip, r4, lsl #6
     d40:	00000957 	andeq	r0, r0, r7, asr r9
     d44:	000e4609 	andeq	r4, lr, r9, lsl #12
     d48:	013e0300 	teqeq	lr, r0, lsl #6
     d4c:	00000053 	andeq	r0, r0, r3, asr r0
     d50:	02180804 	andseq	r0, r8, #262144	; 0x40000
     d54:	9e090023 	cdpls	0, 0, cr0, cr9, cr3, {1}
     d58:	0300000d 	movweq	r0, #13
     d5c:	0053013f 	subseq	r0, r3, pc, lsr r1
     d60:	08040000 	stmdaeq	r4, {}	; <UNPREDICTABLE>
     d64:	00230210 	eoreq	r0, r3, r0, lsl r2
     d68:	000ceb09 	andeq	lr, ip, r9, lsl #22
     d6c:	01400300 	mrseq	r0, SPSR_irq
     d70:	00000053 	andeq	r0, r0, r3, asr r0
     d74:	020f0104 	andeq	r0, pc, #1
     d78:	4b090023 	blmi	240e0c <__bss_end+0x22dcc0>
     d7c:	0300000e 	movweq	r0, #14
     d80:	00530141 	subseq	r0, r3, r1, asr #2
     d84:	01040000 	mrseq	r0, (UNDEF: 4)
     d88:	0023020e 	eoreq	r0, r3, lr, lsl #4
     d8c:	000cf409 	andeq	pc, ip, r9, lsl #8
     d90:	01420300 	mrseq	r0, SPSR_svc
     d94:	00000053 	andeq	r0, r0, r3, asr r0
     d98:	020d0104 	andeq	r0, sp, #1
     d9c:	50090023 	andpl	r0, r9, r3, lsr #32
     da0:	0300000e 	movweq	r0, #14
     da4:	00530143 	subseq	r0, r3, r3, asr #2
     da8:	05040000 	streq	r0, [r4, #-0]
     dac:	00230208 	eoreq	r0, r3, r8, lsl #4
     db0:	0003a809 	andeq	sl, r3, r9, lsl #16
     db4:	01440300 	mrseq	r0, SPSR_abt
     db8:	00000053 	andeq	r0, r0, r3, asr r0
     dbc:	02070104 	andeq	r0, r7, #1
     dc0:	55090023 	strpl	r0, [r9, #-35]	; 0x23
     dc4:	0300000e 	movweq	r0, #14
     dc8:	00530145 	subseq	r0, r3, r5, asr #2
     dcc:	06040000 	streq	r0, [r4], -r0
     dd0:	00230201 	eoreq	r0, r3, r1, lsl #4
     dd4:	000d0f09 	andeq	r0, sp, r9, lsl #30
     dd8:	01460300 	mrseq	r0, SPSR_und
     ddc:	00000053 	andeq	r0, r0, r3, asr r0
     de0:	02000104 	andeq	r0, r0, #1
     de4:	0d000023 	stceq	0, cr0, [r0, #-140]	; 0xffffff74
     de8:	01390304 	teqeq	r9, r4, lsl #6
     dec:	00000979 	andeq	r0, r0, r9, ror r9
     df0:	0002c60a 	andeq	ip, r2, sl, lsl #12
     df4:	013b0300 	teqeq	fp, r0, lsl #6
     df8:	00000053 	andeq	r0, r0, r3, asr r0
     dfc:	0009250a 	andeq	r2, r9, sl, lsl #10
     e00:	01470300 	mrseq	r0, (UNDEF: 119)
     e04:	000008ab 	andeq	r0, r0, fp, lsr #17
     e08:	0f250b00 	svceq	0x00250b00
     e0c:	48030000 	stmdami	r3, {}	; <UNPREDICTABLE>
     e10:	00095701 	andeq	r5, r9, r1, lsl #14
     e14:	03040c00 	movweq	r0, #19456	; 0x4c00
     e18:	0a31014d 	beq	c41354 <__bss_end+0xc2e208>
     e1c:	46090000 	strmi	r0, [r9], -r0
     e20:	0300000e 	movweq	r0, #14
     e24:	0053014f 	subseq	r0, r3, pc, asr #2
     e28:	08040000 	stmdaeq	r4, {}	; <UNPREDICTABLE>
     e2c:	00230218 	eoreq	r0, r3, r8, lsl r2
     e30:	000d9e09 	andeq	r9, sp, r9, lsl #28
     e34:	01500300 	cmpeq	r0, r0, lsl #6
     e38:	00000053 	andeq	r0, r0, r3, asr r0
     e3c:	02100804 	andseq	r0, r0, #262144	; 0x40000
     e40:	eb090023 	bl	240ed4 <__bss_end+0x22dd88>
     e44:	0300000c 	movweq	r0, #12
     e48:	00530151 	subseq	r0, r3, r1, asr r1
     e4c:	01040000 	mrseq	r0, (UNDEF: 4)
     e50:	0023020f 	eoreq	r0, r3, pc, lsl #4
     e54:	000e4b09 	andeq	r4, lr, r9, lsl #22
     e58:	01520300 	cmpeq	r2, r0, lsl #6
     e5c:	00000053 	andeq	r0, r0, r3, asr r0
     e60:	020e0104 	andeq	r0, lr, #1
     e64:	f4090023 	vst4.8	{d0-d3}, [r9 :128], r3
     e68:	0300000c 	movweq	r0, #12
     e6c:	00530153 	subseq	r0, r3, r3, asr r1
     e70:	01040000 	mrseq	r0, (UNDEF: 4)
     e74:	0023020d 	eoreq	r0, r3, sp, lsl #4
     e78:	000e5009 	andeq	r5, lr, r9
     e7c:	01540300 	cmpeq	r4, r0, lsl #6
     e80:	00000053 	andeq	r0, r0, r3, asr r0
     e84:	02080504 	andeq	r0, r8, #16777216	; 0x1000000
     e88:	a8090023 	stmdage	r9, {r0, r1, r5}
     e8c:	03000003 	movweq	r0, #3
     e90:	00530155 	subseq	r0, r3, r5, asr r1
     e94:	01040000 	mrseq	r0, (UNDEF: 4)
     e98:	00230207 	eoreq	r0, r3, r7, lsl #4
     e9c:	000e5509 	andeq	r5, lr, r9, lsl #10
     ea0:	01560300 	cmpeq	r6, r0, lsl #6
     ea4:	00000053 	andeq	r0, r0, r3, asr r0
     ea8:	02010604 	andeq	r0, r1, #4194304	; 0x400000
     eac:	0f090023 	svceq	0x00090023
     eb0:	0300000d 	movweq	r0, #13
     eb4:	00530157 	subseq	r0, r3, r7, asr r1
     eb8:	01040000 	mrseq	r0, (UNDEF: 4)
     ebc:	00230200 	eoreq	r0, r3, r0, lsl #4
     ec0:	03040d00 	movweq	r0, #19712	; 0x4d00
     ec4:	0a53014a 	beq	14c13f4 <__bss_end+0x14ae2a8>
     ec8:	c60a0000 	strgt	r0, [sl], -r0
     ecc:	03000002 	movweq	r0, #2
     ed0:	0053014c 	subseq	r0, r3, ip, asr #2
     ed4:	250a0000 	strcs	r0, [sl, #-0]
     ed8:	03000009 	movweq	r0, #9
     edc:	09850158 	stmibeq	r5, {r3, r4, r6, r8}
     ee0:	0b000000 	bleq	ee8 <__resume1_start+0xee8>
     ee4:	000007dd 	ldrdeq	r0, [r0], -sp
     ee8:	31015903 	tstcc	r1, r3, lsl #18
     eec:	0c00000a 	stceq	0, cr0, [r0], {10}
     ef0:	015e0304 	cmpeq	lr, r4, lsl #6
     ef4:	00000ab1 			; <UNDEFINED> instruction: 0x00000ab1
     ef8:	000b2d09 	andeq	r2, fp, r9, lsl #26
     efc:	01600300 	cmneq	r0, r0, lsl #6
     f00:	00000053 	andeq	r0, r0, r3, asr r0
     f04:	021f0104 	andseq	r0, pc, #1
     f08:	46090023 	strmi	r0, [r9], -r3, lsr #32
     f0c:	0300000e 	movweq	r0, #14
     f10:	00530161 	subseq	r0, r3, r1, ror #2
     f14:	07040000 	streq	r0, [r4, -r0]
     f18:	00230218 	eoreq	r0, r3, r8, lsl r2
     f1c:	00047a09 	andeq	r7, r4, r9, lsl #20
     f20:	01620300 	cmneq	r2, r0, lsl #6
     f24:	00000053 	andeq	r0, r0, r3, asr r0
     f28:	02170104 	andseq	r0, r7, #1
     f2c:	4b090023 	blmi	240fc0 <__bss_end+0x22de74>
     f30:	0300000e 	movweq	r0, #14
     f34:	00530163 	subseq	r0, r3, r3, ror #2
     f38:	17040000 	strne	r0, [r4, -r0]
     f3c:	00230200 	eoreq	r0, r3, r0, lsl #4
     f40:	03040d00 	movweq	r0, #19712	; 0x4d00
     f44:	0ad3015b 	beq	ff4c14b8 <__bss_end+0xff4ae36c>
     f48:	c60a0000 	strgt	r0, [sl], -r0
     f4c:	03000002 	movweq	r0, #2
     f50:	0053015d 	subseq	r0, r3, sp, asr r1
     f54:	250a0000 	strcs	r0, [sl, #-0]
     f58:	03000009 	movweq	r0, #9
     f5c:	0a5f0164 	beq	17c14f4 <__bss_end+0x17ae3a8>
     f60:	0b000000 	bleq	f68 <__resume1_start+0xf68>
     f64:	0000061f 	andeq	r0, r0, pc, lsl r6
     f68:	b1016503 	tstlt	r1, r3, lsl #10
     f6c:	0c00000a 	stceq	0, cr0, [r0], {10}
     f70:	016a0304 	cmneq	sl, r4, lsl #6
     f74:	00000b31 	andeq	r0, r0, r1, lsr fp
     f78:	0008ae09 	andeq	sl, r8, r9, lsl #28
     f7c:	016c0300 	cmneq	ip, r0, lsl #6
     f80:	00000053 	andeq	r0, r0, r3, asr r0
     f84:	021d0304 	andseq	r0, sp, #268435456	; 0x10000000
     f88:	46090023 	strmi	r0, [r9], -r3, lsr #32
     f8c:	0300000e 	movweq	r0, #14
     f90:	0053016d 	subseq	r0, r3, sp, ror #2
     f94:	05040000 	streq	r0, [r4, #-0]
     f98:	00230218 	eoreq	r0, r3, r8, lsl r2
     f9c:	00035d09 	andeq	r5, r3, r9, lsl #26
     fa0:	016e0300 	cmneq	lr, r0, lsl #6
     fa4:	00000053 	andeq	r0, r0, r3, asr r0
     fa8:	02160204 	andseq	r0, r6, #1073741824	; 0x40000000
     fac:	4b090023 	blmi	241040 <__bss_end+0x22def4>
     fb0:	0300000e 	movweq	r0, #14
     fb4:	0053016f 	subseq	r0, r3, pc, ror #2
     fb8:	06040000 	streq	r0, [r4], -r0
     fbc:	00230210 	eoreq	r0, r3, r0, lsl r2
     fc0:	03040d00 	movweq	r0, #19712	; 0x4d00
     fc4:	0b530167 	bleq	14c1568 <__bss_end+0x14ae41c>
     fc8:	c60a0000 	strgt	r0, [sl], -r0
     fcc:	03000002 	movweq	r0, #2
     fd0:	00530169 	subseq	r0, r3, r9, ror #2
     fd4:	250a0000 	strcs	r0, [sl, #-0]
     fd8:	03000009 	movweq	r0, #9
     fdc:	0adf0170 	beq	ff7c15a4 <__bss_end+0xff7ae458>
     fe0:	0b000000 	bleq	fe8 <__resume1_start+0xfe8>
     fe4:	000009b3 			; <UNDEFINED> instruction: 0x000009b3
     fe8:	31017103 	tstcc	r1, r3, lsl #2
     fec:	0c00000b 	stceq	0, cr0, [r0], {11}
     ff0:	01760304 	cmneq	r6, r4, lsl #6
     ff4:	00000bb1 			; <UNDEFINED> instruction: 0x00000bb1
     ff8:	0006bf09 	andeq	fp, r6, r9, lsl #30
     ffc:	01780300 	cmneq	r8, r0, lsl #6
    1000:	00000053 	andeq	r0, r0, r3, asr r0
    1004:	021d0304 	andseq	r0, sp, #268435456	; 0x10000000
    1008:	46090023 	strmi	r0, [r9], -r3, lsr #32
    100c:	0300000e 	movweq	r0, #14
    1010:	00530179 	subseq	r0, r3, r9, ror r1
    1014:	05040000 	streq	r0, [r4, #-0]
    1018:	00230218 	eoreq	r0, r3, r8, lsl r2
    101c:	0006ae09 	andeq	sl, r6, r9, lsl #28
    1020:	017a0300 	cmneq	sl, r0, lsl #6
    1024:	00000053 	andeq	r0, r0, r3, asr r0
    1028:	02160204 	andseq	r0, r6, #1073741824	; 0x40000000
    102c:	4b090023 	blmi	2410c0 <__bss_end+0x22df74>
    1030:	0300000e 	movweq	r0, #14
    1034:	0053017b 	subseq	r0, r3, fp, ror r1
    1038:	06040000 	streq	r0, [r4], -r0
    103c:	00230210 	eoreq	r0, r3, r0, lsl r2
    1040:	03040d00 	movweq	r0, #19712	; 0x4d00
    1044:	0bd30173 	bleq	ff4c1618 <__bss_end+0xff4ae4cc>
    1048:	c60a0000 	strgt	r0, [sl], -r0
    104c:	03000002 	movweq	r0, #2
    1050:	00530175 	subseq	r0, r3, r5, ror r1
    1054:	250a0000 	strcs	r0, [sl, #-0]
    1058:	03000009 	movweq	r0, #9
    105c:	0b5f017c 	bleq	17c1654 <__bss_end+0x17ae508>
    1060:	0b000000 	bleq	1068 <__resume1_start+0x1068>
    1064:	00000d21 	andeq	r0, r0, r1, lsr #26
    1068:	b1017d03 	tstlt	r1, r3, lsl #26
    106c:	0c00000b 	stceq	0, cr0, [r0], {11}
    1070:	01820304 	orreq	r0, r2, r4, lsl #6
    1074:	00000c31 	andeq	r0, r0, r1, lsr ip
    1078:	0006e209 	andeq	lr, r6, r9, lsl #4
    107c:	01840300 	orreq	r0, r4, r0, lsl #6
    1080:	00000053 	andeq	r0, r0, r3, asr r0
    1084:	021e0204 	andseq	r0, lr, #1073741824	; 0x40000000
    1088:	46090023 	strmi	r0, [r9], -r3, lsr #32
    108c:	0300000e 	movweq	r0, #14
    1090:	00530185 	subseq	r0, r3, r5, lsl #3
    1094:	16040000 	strne	r0, [r4], -r0
    1098:	00230208 	eoreq	r0, r3, r8, lsl #4
    109c:	0007bb09 	andeq	fp, r7, r9, lsl #22
    10a0:	01860300 	orreq	r0, r6, r0, lsl #6
    10a4:	00000053 	andeq	r0, r0, r3, asr r0
    10a8:	02060204 	andeq	r0, r6, #1073741824	; 0x40000000
    10ac:	4b090023 	blmi	241140 <__bss_end+0x22dff4>
    10b0:	0300000e 	movweq	r0, #14
    10b4:	00530187 	subseq	r0, r3, r7, lsl #3
    10b8:	06040000 	streq	r0, [r4], -r0
    10bc:	00230200 	eoreq	r0, r3, r0, lsl #4
    10c0:	03040d00 	movweq	r0, #19712	; 0x4d00
    10c4:	0c53017f 	ldfeqe	f0, [r3], {127}	; 0x7f
    10c8:	c60a0000 	strgt	r0, [sl], -r0
    10cc:	03000002 	movweq	r0, #2
    10d0:	00530181 	subseq	r0, r3, r1, lsl #3
    10d4:	250a0000 	strcs	r0, [sl, #-0]
    10d8:	03000009 	movweq	r0, #9
    10dc:	0bdf0188 	bleq	ff7c1704 <__bss_end+0xff7ae5b8>
    10e0:	0b000000 	bleq	10e8 <__resume1_start+0x10e8>
    10e4:	00000328 	andeq	r0, r0, r8, lsr #6
    10e8:	31018903 	tstcc	r1, r3, lsl #18
    10ec:	0c00000c 	stceq	0, cr0, [r0], {12}
    10f0:	018e0304 	orreq	r0, lr, r4, lsl #6
    10f4:	00000cb1 			; <UNDEFINED> instruction: 0x00000cb1
    10f8:	000c2309 	andeq	r2, ip, r9, lsl #6
    10fc:	01900300 	orrseq	r0, r0, r0, lsl #6
    1100:	00000053 	andeq	r0, r0, r3, asr r0
    1104:	021e0204 	andseq	r0, lr, #1073741824	; 0x40000000
    1108:	46090023 	strmi	r0, [r9], -r3, lsr #32
    110c:	0300000e 	movweq	r0, #14
    1110:	00530191 			; <UNDEFINED> instruction: 0x00530191
    1114:	16040000 	strne	r0, [r4], -r0
    1118:	00230208 	eoreq	r0, r3, r8, lsl #4
    111c:	000e2609 	andeq	r2, lr, r9, lsl #12
    1120:	01920300 	orrseq	r0, r2, r0, lsl #6
    1124:	00000053 	andeq	r0, r0, r3, asr r0
    1128:	02060204 	andeq	r0, r6, #1073741824	; 0x40000000
    112c:	4b090023 	blmi	2411c0 <__bss_end+0x22e074>
    1130:	0300000e 	movweq	r0, #14
    1134:	00530193 			; <UNDEFINED> instruction: 0x00530193
    1138:	06040000 	streq	r0, [r4], -r0
    113c:	00230200 	eoreq	r0, r3, r0, lsl #4
    1140:	03040d00 	movweq	r0, #19712	; 0x4d00
    1144:	0cd3018b 	ldfeqe	f0, [r3], {139}	; 0x8b
    1148:	c60a0000 	strgt	r0, [sl], -r0
    114c:	03000002 	movweq	r0, #2
    1150:	0053018d 	subseq	r0, r3, sp, lsl #3
    1154:	250a0000 	strcs	r0, [sl, #-0]
    1158:	03000009 	movweq	r0, #9
    115c:	0c5f0194 	ldfeqe	f0, [pc], {148}	; 0x94
    1160:	0b000000 	bleq	1168 <__resume1_start+0x1168>
    1164:	00000be4 	andeq	r0, r0, r4, ror #23
    1168:	b1019503 	tstlt	r1, r3, lsl #10
    116c:	0c00000c 	stceq	0, cr0, [r0], {12}
    1170:	019a0304 	orrseq	r0, sl, r4, lsl #6
    1174:	00000d31 	andeq	r0, r0, r1, lsr sp
    1178:	000ae609 	andeq	lr, sl, r9, lsl #12
    117c:	019c0300 	orrseq	r0, ip, r0, lsl #6
    1180:	00000053 	andeq	r0, r0, r3, asr r0
    1184:	021e0204 	andseq	r0, lr, #1073741824	; 0x40000000
    1188:	46090023 	strmi	r0, [r9], -r3, lsr #32
    118c:	0300000e 	movweq	r0, #14
    1190:	0053019d 			; <UNDEFINED> instruction: 0x0053019d
    1194:	16040000 	strne	r0, [r4], -r0
    1198:	00230208 	eoreq	r0, r3, r8, lsl #4
    119c:	00066909 	andeq	r6, r6, r9, lsl #18
    11a0:	019e0300 	orrseq	r0, lr, r0, lsl #6
    11a4:	00000053 	andeq	r0, r0, r3, asr r0
    11a8:	02060204 	andeq	r0, r6, #1073741824	; 0x40000000
    11ac:	4b090023 	blmi	241240 <__bss_end+0x22e0f4>
    11b0:	0300000e 	movweq	r0, #14
    11b4:	0053019f 			; <UNDEFINED> instruction: 0x0053019f
    11b8:	06040000 	streq	r0, [r4], -r0
    11bc:	00230200 	eoreq	r0, r3, r0, lsl #4
    11c0:	03040d00 	movweq	r0, #19712	; 0x4d00
    11c4:	0d530197 	ldfeqe	f0, [r3, #-604]	; 0xfffffda4
    11c8:	c60a0000 	strgt	r0, [sl], -r0
    11cc:	03000002 	movweq	r0, #2
    11d0:	00530199 			; <UNDEFINED> instruction: 0x00530199
    11d4:	250a0000 	strcs	r0, [sl, #-0]
    11d8:	03000009 	movweq	r0, #9
    11dc:	0cdf01a0 	ldfeqe	f0, [pc], {160}	; 0xa0
    11e0:	0b000000 	bleq	11e8 <__resume1_start+0x11e8>
    11e4:	00000a0d 	andeq	r0, r0, sp, lsl #20
    11e8:	3101a103 	tstcc	r1, r3, lsl #2
    11ec:	0c00000d 	stceq	0, cr0, [r0], {13}
    11f0:	01a60304 			; <UNDEFINED> instruction: 0x01a60304
    11f4:	00000db1 			; <UNDEFINED> instruction: 0x00000db1
    11f8:	000a9909 	andeq	r9, sl, r9, lsl #18
    11fc:	01a80300 			; <UNDEFINED> instruction: 0x01a80300
    1200:	00000053 	andeq	r0, r0, r3, asr r0
    1204:	021e0204 	andseq	r0, lr, #1073741824	; 0x40000000
    1208:	46090023 	strmi	r0, [r9], -r3, lsr #32
    120c:	0300000e 	movweq	r0, #14
    1210:	005301a9 	subseq	r0, r3, r9, lsr #3
    1214:	16040000 	strne	r0, [r4], -r0
    1218:	00230208 	eoreq	r0, r3, r8, lsl #4
    121c:	000d8809 	andeq	r8, sp, r9, lsl #16
    1220:	01aa0300 			; <UNDEFINED> instruction: 0x01aa0300
    1224:	00000053 	andeq	r0, r0, r3, asr r0
    1228:	02060204 	andeq	r0, r6, #1073741824	; 0x40000000
    122c:	4b090023 	blmi	2412c0 <__bss_end+0x22e174>
    1230:	0300000e 	movweq	r0, #14
    1234:	005301ab 	subseq	r0, r3, fp, lsr #3
    1238:	06040000 	streq	r0, [r4], -r0
    123c:	00230200 	eoreq	r0, r3, r0, lsl #4
    1240:	03040d00 	movweq	r0, #19712	; 0x4d00
    1244:	0dd301a3 	ldfeqe	f0, [r3, #652]	; 0x28c
    1248:	c60a0000 	strgt	r0, [sl], -r0
    124c:	03000002 	movweq	r0, #2
    1250:	005301a5 	subseq	r0, r3, r5, lsr #3
    1254:	250a0000 	strcs	r0, [sl, #-0]
    1258:	03000009 	movweq	r0, #9
    125c:	0d5f01ac 	ldfeqe	f0, [pc, #-688]	; fb4 <__resume1_start+0xfb4>
    1260:	0b000000 	bleq	1268 <__resume1_start+0x1268>
    1264:	0000067a 	andeq	r0, r0, sl, ror r6
    1268:	b101ad03 	tstlt	r1, r3, lsl #26
    126c:	0c00000d 	stceq	0, cr0, [r0], {13}
    1270:	01b20304 			; <UNDEFINED> instruction: 0x01b20304
    1274:	00000e31 	andeq	r0, r0, r1, lsr lr
    1278:	000c3609 	andeq	r3, ip, r9, lsl #12
    127c:	01b40300 			; <UNDEFINED> instruction: 0x01b40300
    1280:	00000053 	andeq	r0, r0, r3, asr r0
    1284:	021e0204 	andseq	r0, lr, #1073741824	; 0x40000000
    1288:	46090023 	strmi	r0, [r9], -r3, lsr #32
    128c:	0300000e 	movweq	r0, #14
    1290:	005301b5 	ldrheq	r0, [r3], #-21	; 0xffffffeb
    1294:	16040000 	strne	r0, [r4], -r0
    1298:	00230208 	eoreq	r0, r3, r8, lsl #4
    129c:	00071109 	andeq	r1, r7, r9, lsl #2
    12a0:	01b60300 			; <UNDEFINED> instruction: 0x01b60300
    12a4:	00000053 	andeq	r0, r0, r3, asr r0
    12a8:	02070104 	andeq	r0, r7, #1
    12ac:	4b090023 	blmi	241340 <__bss_end+0x22e1f4>
    12b0:	0300000e 	movweq	r0, #14
    12b4:	005301b7 	ldrheq	r0, [r3], #-23	; 0xffffffe9
    12b8:	07040000 	streq	r0, [r4, -r0]
    12bc:	00230200 	eoreq	r0, r3, r0, lsl #4
    12c0:	03040d00 	movweq	r0, #19712	; 0x4d00
    12c4:	0e5301af 	rdfeqdp	f0, f3, #10.0
    12c8:	c60a0000 	strgt	r0, [sl], -r0
    12cc:	03000002 	movweq	r0, #2
    12d0:	005301b1 	ldrheq	r0, [r3], #-17	; 0xffffffef
    12d4:	250a0000 	strcs	r0, [sl, #-0]
    12d8:	03000009 	movweq	r0, #9
    12dc:	0ddf01b8 	ldfeqe	f0, [pc, #736]	; 15c4 <__resume1_start+0x15c4>
    12e0:	0b000000 	bleq	12e8 <__resume1_start+0x12e8>
    12e4:	00000b0f 	andeq	r0, r0, pc, lsl #22
    12e8:	3101b903 	tstcc	r1, r3, lsl #18
    12ec:	0c00000e 	stceq	0, cr0, [r0], {14}
    12f0:	01be0304 			; <UNDEFINED> instruction: 0x01be0304
    12f4:	00000ed5 	ldrdeq	r0, [r0], -r5
    12f8:	0007c909 	andeq	ip, r7, r9, lsl #18
    12fc:	01c00300 	biceq	r0, r0, r0, lsl #6
    1300:	00000053 	andeq	r0, r0, r3, asr r0
    1304:	021b0504 	andseq	r0, fp, #16777216	; 0x1000000
    1308:	46090023 	strmi	r0, [r9], -r3, lsr #32
    130c:	0300000e 	movweq	r0, #14
    1310:	005301c1 	subseq	r0, r3, r1, asr #3
    1314:	0b040000 	bleq	10131c <__bss_end+0xee1d0>
    1318:	00230210 	eoreq	r0, r3, r0, lsl r2
    131c:	0007d309 	andeq	sp, r7, r9, lsl #6
    1320:	01c20300 	biceq	r0, r2, r0, lsl #6
    1324:	00000053 	andeq	r0, r0, r3, asr r0
    1328:	020e0204 	andeq	r0, lr, #1073741824	; 0x40000000
    132c:	4b090023 	blmi	2413c0 <__bss_end+0x22e274>
    1330:	0300000e 	movweq	r0, #14
    1334:	005301c3 	subseq	r0, r3, r3, asr #3
    1338:	06040000 	streq	r0, [r4], -r0
    133c:	00230208 	eoreq	r0, r3, r8, lsl #4
    1340:	00081709 	andeq	r1, r8, r9, lsl #14
    1344:	01c40300 	biceq	r0, r4, r0, lsl #6
    1348:	00000053 	andeq	r0, r0, r3, asr r0
    134c:	02070104 	andeq	r0, r7, #1
    1350:	50090023 	andpl	r0, r9, r3, lsr #32
    1354:	0300000e 	movweq	r0, #14
    1358:	005301c5 	subseq	r0, r3, r5, asr #3
    135c:	07040000 	streq	r0, [r4, -r0]
    1360:	00230200 	eoreq	r0, r3, r0, lsl #4
    1364:	03040d00 	movweq	r0, #19712	; 0x4d00
    1368:	0ef701bb 	mrceq	1, 7, r0, cr7, cr11, {5}
    136c:	c60a0000 	strgt	r0, [sl], -r0
    1370:	03000002 	movweq	r0, #2
    1374:	005301bd 	ldrheq	r0, [r3], #-29	; 0xffffffe3
    1378:	250a0000 	strcs	r0, [sl, #-0]
    137c:	03000009 	movweq	r0, #9
    1380:	0e5f01c6 	rdfeq<illegal precision>m	f0, f7, f6
    1384:	0b000000 	bleq	138c <__resume1_start+0x138c>
    1388:	0000092a 	andeq	r0, r0, sl, lsr #18
    138c:	d501c703 	strle	ip, [r1, #-1795]	; 0x703
    1390:	0c00000e 	stceq	0, cr0, [r0], {14}
    1394:	01cc0304 	biceq	r0, ip, r4, lsl #6
    1398:	00000f55 	andeq	r0, r0, r5, asr pc
    139c:	0002b109 	andeq	fp, r2, r9, lsl #2
    13a0:	01ce0300 	biceq	r0, lr, r0, lsl #6
    13a4:	00000053 	andeq	r0, r0, r3, asr r0
    13a8:	021e0204 	andseq	r0, lr, #1073741824	; 0x40000000
    13ac:	46090023 	strmi	r0, [r9], -r3, lsr #32
    13b0:	0300000e 	movweq	r0, #14
    13b4:	005301cf 	subseq	r0, r3, pc, asr #3
    13b8:	16040000 	strne	r0, [r4], -r0
    13bc:	00230208 	eoreq	r0, r3, r8, lsl #4
    13c0:	000bf309 	andeq	pc, fp, r9, lsl #6
    13c4:	01d00300 	bicseq	r0, r0, r0, lsl #6
    13c8:	00000053 	andeq	r0, r0, r3, asr r0
    13cc:	02060204 	andeq	r0, r6, #1073741824	; 0x40000000
    13d0:	4b090023 	blmi	241464 <__bss_end+0x22e318>
    13d4:	0300000e 	movweq	r0, #14
    13d8:	005301d1 	ldrsbeq	r0, [r3], #-17	; 0xffffffef
    13dc:	06040000 	streq	r0, [r4], -r0
    13e0:	00230200 	eoreq	r0, r3, r0, lsl #4
    13e4:	03040d00 	movweq	r0, #19712	; 0x4d00
    13e8:	0f7701c9 	svceq	0x007701c9
    13ec:	c60a0000 	strgt	r0, [sl], -r0
    13f0:	03000002 	movweq	r0, #2
    13f4:	005301cb 	subseq	r0, r3, fp, asr #3
    13f8:	250a0000 	strcs	r0, [sl, #-0]
    13fc:	03000009 	movweq	r0, #9
    1400:	0f0301d2 	svceq	0x000301d2
    1404:	0b000000 	bleq	140c <__resume1_start+0x140c>
    1408:	00000ddb 	ldrdeq	r0, [r0], -fp
    140c:	5501d303 	strpl	sp, [r1, #-771]	; 0x303
    1410:	0c00000f 	stceq	0, cr0, [r0], {15}
    1414:	01d80304 	bicseq	r0, r8, r4, lsl #6
    1418:	00000fe7 	andeq	r0, r0, r7, ror #31
    141c:	00041909 	andeq	r1, r4, r9, lsl #18
    1420:	01da0300 	bicseq	r0, sl, r0, lsl #6
    1424:	00000053 	andeq	r0, r0, r3, asr r0
    1428:	021d0304 	andseq	r0, sp, #268435456	; 0x10000000
    142c:	46090023 	strmi	r0, [r9], -r3, lsr #32
    1430:	0300000e 	movweq	r0, #14
    1434:	005301db 	ldrsbeq	r0, [r3], #-27	; 0xffffffe5
    1438:	15040000 	strne	r0, [r4, #-0]
    143c:	00230208 	eoreq	r0, r3, r8, lsl #4
    1440:	000bfa09 	andeq	pc, fp, r9, lsl #20
    1444:	01dc0300 	bicseq	r0, ip, r0, lsl #6
    1448:	00000053 	andeq	r0, r0, r3, asr r0
    144c:	02060204 	andeq	r0, r6, #1073741824	; 0x40000000
    1450:	4b090023 	blmi	2414e4 <__bss_end+0x22e398>
    1454:	0300000e 	movweq	r0, #14
    1458:	005301dd 	ldrsbeq	r0, [r3], #-29	; 0xffffffe3
    145c:	05040000 	streq	r0, [r4, #-0]
    1460:	00230201 	eoreq	r0, r3, r1, lsl #4
    1464:	000b6609 	andeq	r6, fp, r9, lsl #12
    1468:	01de0300 	bicseq	r0, lr, r0, lsl #6
    146c:	00000053 	andeq	r0, r0, r3, asr r0
    1470:	02000104 	andeq	r0, r0, #1
    1474:	0d000023 	stceq	0, cr0, [r0, #-140]	; 0xffffff74
    1478:	01d50304 	bicseq	r0, r5, r4, lsl #6
    147c:	00001009 	andeq	r1, r0, r9
    1480:	0002c60a 	andeq	ip, r2, sl, lsl #12
    1484:	01d70300 	bicseq	r0, r7, r0, lsl #6
    1488:	00000053 	andeq	r0, r0, r3, asr r0
    148c:	0009250a 	andeq	r2, r9, sl, lsl #10
    1490:	01df0300 	bicseq	r0, pc, r0, lsl #6
    1494:	00000f83 	andeq	r0, r0, r3, lsl #31
    1498:	03e20b00 	mvneq	r0, #0
    149c:	e0030000 	and	r0, r3, r0
    14a0:	000fe701 	andeq	lr, pc, r1, lsl #14
    14a4:	03040c00 	movweq	r0, #19456	; 0x4c00
    14a8:	107901e5 	rsbsne	r0, r9, r5, ror #3
    14ac:	19090000 	stmdbne	r9, {}	; <UNPREDICTABLE>
    14b0:	03000004 	movweq	r0, #4
    14b4:	005301e7 	subseq	r0, r3, r7, ror #3
    14b8:	03040000 	movweq	r0, #16384	; 0x4000
    14bc:	0023021d 	eoreq	r0, r3, sp, lsl r2
    14c0:	000e4609 	andeq	r4, lr, r9, lsl #12
    14c4:	01e80300 	mvneq	r0, r0, lsl #6
    14c8:	00000053 	andeq	r0, r0, r3, asr r0
    14cc:	02081504 	andeq	r1, r8, #16777216	; 0x1000000
    14d0:	fa090023 	blx	241564 <__bss_end+0x22e418>
    14d4:	0300000b 	movweq	r0, #11
    14d8:	005301e9 	subseq	r0, r3, r9, ror #3
    14dc:	02040000 	andeq	r0, r4, #0
    14e0:	00230206 	eoreq	r0, r3, r6, lsl #4
    14e4:	000e4b09 	andeq	r4, lr, r9, lsl #22
    14e8:	01ea0300 	mvneq	r0, r0, lsl #6
    14ec:	00000053 	andeq	r0, r0, r3, asr r0
    14f0:	02010504 	andeq	r0, r1, #16777216	; 0x1000000
    14f4:	66090023 	strvs	r0, [r9], -r3, lsr #32
    14f8:	0300000b 	movweq	r0, #11
    14fc:	005301eb 	subseq	r0, r3, fp, ror #3
    1500:	01040000 	mrseq	r0, (UNDEF: 4)
    1504:	00230200 	eoreq	r0, r3, r0, lsl #4
    1508:	03040d00 	movweq	r0, #19712	; 0x4d00
    150c:	109b01e2 	addsne	r0, fp, r2, ror #3
    1510:	c60a0000 	strgt	r0, [sl], -r0
    1514:	03000002 	movweq	r0, #2
    1518:	005301e4 	subseq	r0, r3, r4, ror #3
    151c:	250a0000 	strcs	r0, [sl, #-0]
    1520:	03000009 	movweq	r0, #9
    1524:	101501ec 	andsne	r0, r5, ip, ror #3
    1528:	0b000000 	bleq	1530 <__resume1_start+0x1530>
    152c:	00000b56 	andeq	r0, r0, r6, asr fp
    1530:	7901ed03 	stmdbvc	r1, {r0, r1, r8, sl, fp, sp, lr, pc}
    1534:	0c000010 	stceq	0, cr0, [r0], {16}
    1538:	01f20304 	mvnseq	r0, r4, lsl #6
    153c:	000010d5 	ldrdeq	r1, [r0], -r5
    1540:	0007f309 	andeq	pc, r7, r9, lsl #6
    1544:	01f40300 	mvnseq	r0, r0, lsl #6
    1548:	00000053 	andeq	r0, r0, r3, asr r0
    154c:	02101004 	andseq	r1, r0, #4
    1550:	46090023 	strmi	r0, [r9], -r3, lsr #32
    1554:	0300000e 	movweq	r0, #14
    1558:	005301f5 	ldrsheq	r0, [r3], #-21	; 0xffffffeb
    155c:	10040000 	andne	r0, r4, r0
    1560:	00230200 	eoreq	r0, r3, r0, lsl #4
    1564:	03040d00 	movweq	r0, #19712	; 0x4d00
    1568:	10f701ef 	rscsne	r0, r7, pc, ror #3
    156c:	c60a0000 	strgt	r0, [sl], -r0
    1570:	03000002 	movweq	r0, #2
    1574:	005301f1 	ldrsheq	r0, [r3], #-17	; 0xffffffef
    1578:	250a0000 	strcs	r0, [sl, #-0]
    157c:	03000009 	movweq	r0, #9
    1580:	10a701f6 	strdne	r0, [r7], r6	; <UNPREDICTABLE>
    1584:	0b000000 	bleq	158c <__resume1_start+0x158c>
    1588:	000003ce 	andeq	r0, r0, lr, asr #7
    158c:	d501f703 	strle	pc, [r1, #-1795]	; 0x703
    1590:	0c000010 	stceq	0, cr0, [r0], {16}
    1594:	01fc0304 	mvnseq	r0, r4, lsl #6
    1598:	00001131 	andeq	r1, r0, r1, lsr r1
    159c:	0007f309 	andeq	pc, r7, r9, lsl #6
    15a0:	01fe0300 	mvnseq	r0, r0, lsl #6
    15a4:	00000053 	andeq	r0, r0, r3, asr r0
    15a8:	02101004 	andseq	r1, r0, #4
    15ac:	46090023 	strmi	r0, [r9], -r3, lsr #32
    15b0:	0300000e 	movweq	r0, #14
    15b4:	005301ff 	ldrsheq	r0, [r3], #-31	; 0xffffffe1
    15b8:	10040000 	andne	r0, r4, r0
    15bc:	00230200 	eoreq	r0, r3, r0, lsl #4
    15c0:	03040d00 	movweq	r0, #19712	; 0x4d00
    15c4:	115301f9 	ldrshne	r0, [r3, #-25]	; 0xffffffe7
    15c8:	c60a0000 	strgt	r0, [sl], -r0
    15cc:	03000002 	movweq	r0, #2
    15d0:	005301fb 	ldrsheq	r0, [r3], #-27	; 0xffffffe5
    15d4:	250a0000 	strcs	r0, [sl, #-0]
    15d8:	03000009 	movweq	r0, #9
    15dc:	11030200 	mrsne	r0, R11_usr
    15e0:	0b000000 	bleq	15e8 <__resume1_start+0x15e8>
    15e4:	0000097d 	andeq	r0, r0, sp, ror r9
    15e8:	31020103 	tstcc	r2, r3, lsl #2
    15ec:	0d000011 	stceq	0, cr0, [r0, #-68]	; 0xffffffbc
    15f0:	02030304 	andeq	r0, r3, #268435456	; 0x10000000
    15f4:	00001175 	andeq	r1, r0, r5, ror r1
    15f8:	0002c60a 	andeq	ip, r2, sl, lsl #12
    15fc:	02050300 	andeq	r0, r5, #0
    1600:	00000053 	andeq	r0, r0, r3, asr r0
    1604:	0e840b00 	vdiveq.f64	d0, d4, d0
    1608:	06030000 	streq	r0, [r3], -r0
    160c:	00115f02 	andseq	r5, r1, r2, lsl #30
    1610:	03040c00 	movweq	r0, #19456	; 0x4c00
    1614:	11d3020b 	bicsne	r0, r3, fp, lsl #4
    1618:	46090000 	strmi	r0, [r9], -r0
    161c:	0300000e 	movweq	r0, #14
    1620:	0053020d 	subseq	r0, r3, sp, lsl #4
    1624:	10040000 	andne	r0, r4, r0
    1628:	00230210 	eoreq	r0, r3, r0, lsl r2
    162c:	0004c609 	andeq	ip, r4, r9, lsl #12
    1630:	020e0300 	andeq	r0, lr, #0
    1634:	00000053 	andeq	r0, r0, r3, asr r0
    1638:	020b0504 	andeq	r0, fp, #16777216	; 0x1000000
    163c:	4b090023 	blmi	2416d0 <__bss_end+0x22e584>
    1640:	0300000e 	movweq	r0, #14
    1644:	0053020f 	subseq	r0, r3, pc, lsl #4
    1648:	0a040000 	beq	101650 <__bss_end+0xee504>
    164c:	00230201 	eoreq	r0, r3, r1, lsl #4
    1650:	0005d109 	andeq	sp, r5, r9, lsl #2
    1654:	02100300 	andseq	r0, r0, #0
    1658:	00000053 	andeq	r0, r0, r3, asr r0
    165c:	02000104 	andeq	r0, r0, #1
    1660:	0d000023 	stceq	0, cr0, [r0, #-140]	; 0xffffff74
    1664:	02080304 	andeq	r0, r8, #268435456	; 0x10000000
    1668:	000011f5 	strdeq	r1, [r0], -r5
    166c:	0002c60a 	andeq	ip, r2, sl, lsl #12
    1670:	020a0300 	andeq	r0, sl, #0
    1674:	00000053 	andeq	r0, r0, r3, asr r0
    1678:	0009250a 	andeq	r2, r9, sl, lsl #10
    167c:	02110300 	andseq	r0, r1, #0
    1680:	00001181 	andeq	r1, r0, r1, lsl #3
    1684:	0cfd0b00 	vpopeq	{d16-d15}
    1688:	12030000 	andne	r0, r3, #0
    168c:	0011d302 	andseq	sp, r1, r2, lsl #6
    1690:	03040c00 	movweq	r0, #19456	; 0x4c00
    1694:	12530217 	subsne	r0, r3, #1879048193	; 0x70000001
    1698:	46090000 	strmi	r0, [r9], -r0
    169c:	0300000e 	movweq	r0, #14
    16a0:	00530219 	subseq	r0, r3, r9, lsl r2
    16a4:	10040000 	andne	r0, r4, r0
    16a8:	00230210 	eoreq	r0, r3, r0, lsl r2
    16ac:	0004c609 	andeq	ip, r4, r9, lsl #12
    16b0:	021a0300 	andseq	r0, sl, #0
    16b4:	00000053 	andeq	r0, r0, r3, asr r0
    16b8:	020b0504 	andeq	r0, fp, #16777216	; 0x1000000
    16bc:	4b090023 	blmi	241750 <__bss_end+0x22e604>
    16c0:	0300000e 	movweq	r0, #14
    16c4:	0053021b 	subseq	r0, r3, fp, lsl r2
    16c8:	0a040000 	beq	1016d0 <__bss_end+0xee584>
    16cc:	00230201 	eoreq	r0, r3, r1, lsl #4
    16d0:	0005d109 	andeq	sp, r5, r9, lsl #2
    16d4:	021c0300 	andseq	r0, ip, #0
    16d8:	00000053 	andeq	r0, r0, r3, asr r0
    16dc:	02000104 	andeq	r0, r0, #1
    16e0:	0d000023 	stceq	0, cr0, [r0, #-140]	; 0xffffff74
    16e4:	02140304 	andseq	r0, r4, #268435456	; 0x10000000
    16e8:	00001275 	andeq	r1, r0, r5, ror r2
    16ec:	0002c60a 	andeq	ip, r2, sl, lsl #12
    16f0:	02160300 	andseq	r0, r6, #0
    16f4:	00000053 	andeq	r0, r0, r3, asr r0
    16f8:	0009250a 	andeq	r2, r9, sl, lsl #10
    16fc:	021d0300 	andseq	r0, sp, #0
    1700:	00001201 	andeq	r1, r0, r1, lsl #4
    1704:	05b00b00 	ldreq	r0, [r0, #2816]!	; 0xb00
    1708:	1e030000 	cdpne	0, 0, cr0, cr3, cr0, {0}
    170c:	00125302 	andseq	r5, r2, r2, lsl #6
    1710:	03040c00 	movweq	r0, #19456	; 0x4c00
    1714:	12c10223 	sbcne	r0, r1, #805306370	; 0x30000002
    1718:	46090000 	strmi	r0, [r9], -r0
    171c:	0300000e 	movweq	r0, #14
    1720:	00530225 	subseq	r0, r3, r5, lsr #4
    1724:	10040000 	andne	r0, r4, r0
    1728:	00230210 	eoreq	r0, r3, r0, lsl r2
    172c:	000ebb09 	andeq	fp, lr, r9, lsl #22
    1730:	02260300 	eoreq	r0, r6, #0
    1734:	00000053 	andeq	r0, r0, r3, asr r0
    1738:	020b0504 	andeq	r0, fp, #16777216	; 0x1000000
    173c:	4b090023 	blmi	2417d0 <__bss_end+0x22e684>
    1740:	0300000e 	movweq	r0, #14
    1744:	00530227 	subseq	r0, r3, r7, lsr #4
    1748:	0b040000 	bleq	101750 <__bss_end+0xee604>
    174c:	00230200 	eoreq	r0, r3, r0, lsl #4
    1750:	03040d00 	movweq	r0, #19712	; 0x4d00
    1754:	12e30220 	rscne	r0, r3, #2
    1758:	c60a0000 	strgt	r0, [sl], -r0
    175c:	03000002 	movweq	r0, #2
    1760:	00530222 	subseq	r0, r3, r2, lsr #4
    1764:	250a0000 	strcs	r0, [sl, #-0]
    1768:	03000009 	movweq	r0, #9
    176c:	12810228 	addne	r0, r1, #-2147483646	; 0x80000002
    1770:	0b000000 	bleq	1778 <__resume1_start+0x1778>
    1774:	00000ad1 	ldrdeq	r0, [r0], -r1
    1778:	c1022903 	tstgt	r2, r3, lsl #18
    177c:	0c000012 	stceq	0, cr0, [r0], {18}
    1780:	022e0304 	eoreq	r0, lr, #268435456	; 0x10000000
    1784:	0000132f 	andeq	r1, r0, pc, lsr #6
    1788:	000e4609 	andeq	r4, lr, r9, lsl #12
    178c:	02300300 	eorseq	r0, r0, #0
    1790:	00000053 	andeq	r0, r0, r3, asr r0
    1794:	02101004 	andseq	r1, r0, #4
    1798:	bb090023 	bllt	24182c <__bss_end+0x22e6e0>
    179c:	0300000e 	movweq	r0, #14
    17a0:	00530231 	subseq	r0, r3, r1, lsr r2
    17a4:	05040000 	streq	r0, [r4, #-0]
    17a8:	0023020b 	eoreq	r0, r3, fp, lsl #4
    17ac:	000e4b09 	andeq	r4, lr, r9, lsl #22
    17b0:	02320300 	eorseq	r0, r2, #0
    17b4:	00000053 	andeq	r0, r0, r3, asr r0
    17b8:	02000b04 	andeq	r0, r0, #4096	; 0x1000
    17bc:	0d000023 	stceq	0, cr0, [r0, #-140]	; 0xffffff74
    17c0:	022b0304 	eoreq	r0, fp, #268435456	; 0x10000000
    17c4:	00001351 	andeq	r1, r0, r1, asr r3
    17c8:	0002c60a 	andeq	ip, r2, sl, lsl #12
    17cc:	022d0300 	eoreq	r0, sp, #0
    17d0:	00000053 	andeq	r0, r0, r3, asr r0
    17d4:	0009250a 	andeq	r2, r9, sl, lsl #10
    17d8:	02330300 	eorseq	r0, r3, #0
    17dc:	000012ef 	andeq	r1, r0, pc, ror #5
    17e0:	0a820b00 	beq	fe0843e8 <__bss_end+0xfe07129c>
    17e4:	34030000 	strcc	r0, [r3], #-0
    17e8:	00132f02 	andseq	r2, r3, r2, lsl #30
    17ec:	03040c00 	movweq	r0, #19456	; 0x4c00
    17f0:	139d0239 	orrsne	r0, sp, #-1879048189	; 0x90000003
    17f4:	46090000 	strmi	r0, [r9], -r0
    17f8:	0300000e 	movweq	r0, #14
    17fc:	0053023b 	subseq	r0, r3, fp, lsr r2
    1800:	10040000 	andne	r0, r4, r0
    1804:	00230210 	eoreq	r0, r3, r0, lsl r2
    1808:	000ebb09 	andeq	fp, lr, r9, lsl #22
    180c:	023c0300 	eorseq	r0, ip, #0
    1810:	00000053 	andeq	r0, r0, r3, asr r0
    1814:	020b0504 	andeq	r0, fp, #16777216	; 0x1000000
    1818:	4b090023 	blmi	2418ac <__bss_end+0x22e760>
    181c:	0300000e 	movweq	r0, #14
    1820:	0053023d 	subseq	r0, r3, sp, lsr r2
    1824:	0b040000 	bleq	10182c <__bss_end+0xee6e0>
    1828:	00230200 	eoreq	r0, r3, r0, lsl #4
    182c:	03040d00 	movweq	r0, #19712	; 0x4d00
    1830:	13bf0236 			; <UNDEFINED> instruction: 0x13bf0236
    1834:	c60a0000 	strgt	r0, [sl], -r0
    1838:	03000002 	movweq	r0, #2
    183c:	00530238 	subseq	r0, r3, r8, lsr r2
    1840:	250a0000 	strcs	r0, [sl, #-0]
    1844:	03000009 	movweq	r0, #9
    1848:	135d023e 	cmpne	sp, #-536870909	; 0xe0000003
    184c:	0b000000 	bleq	1854 <__resume1_start+0x1854>
    1850:	00000a37 	andeq	r0, r0, r7, lsr sl
    1854:	9d023f03 	stcls	15, cr3, [r2, #-12]
    1858:	0c000013 	stceq	0, cr0, [r0], {19}
    185c:	02440304 	subeq	r0, r4, #268435456	; 0x10000000
    1860:	0000140b 	andeq	r1, r0, fp, lsl #8
    1864:	000e4609 	andeq	r4, lr, r9, lsl #12
    1868:	02460300 	subeq	r0, r6, #0
    186c:	00000053 	andeq	r0, r0, r3, asr r0
    1870:	02101004 	andseq	r1, r0, #4
    1874:	42090023 	andmi	r0, r9, #35	; 0x23
    1878:	03000004 	movweq	r0, #4
    187c:	00530247 	subseq	r0, r3, r7, asr #4
    1880:	05040000 	streq	r0, [r4, #-0]
    1884:	0023020b 	eoreq	r0, r3, fp, lsl #4
    1888:	000e4b09 	andeq	r4, lr, r9, lsl #22
    188c:	02480300 	subeq	r0, r8, #0
    1890:	00000053 	andeq	r0, r0, r3, asr r0
    1894:	02000b04 	andeq	r0, r0, #4096	; 0x1000
    1898:	0d000023 	stceq	0, cr0, [r0, #-140]	; 0xffffff74
    189c:	02410304 	subeq	r0, r1, #268435456	; 0x10000000
    18a0:	0000142d 	andeq	r1, r0, sp, lsr #8
    18a4:	0002c60a 	andeq	ip, r2, sl, lsl #12
    18a8:	02430300 	subeq	r0, r3, #0
    18ac:	00000053 	andeq	r0, r0, r3, asr r0
    18b0:	0009250a 	andeq	r2, r9, sl, lsl #10
    18b4:	02490300 	subeq	r0, r9, #0
    18b8:	000013cb 	andeq	r1, r0, fp, asr #7
    18bc:	03150b00 	tsteq	r5, #0
    18c0:	4a030000 	bmi	c18c8 <__bss_end+0xae77c>
    18c4:	00140b02 	andseq	r0, r4, r2, lsl #22
    18c8:	03040c00 	movweq	r0, #19456	; 0x4c00
    18cc:	1479024f 	ldrbtne	r0, [r9], #-591	; 0x24f
    18d0:	46090000 	strmi	r0, [r9], -r0
    18d4:	0300000e 	movweq	r0, #14
    18d8:	00530251 	subseq	r0, r3, r1, asr r2
    18dc:	10040000 	andne	r0, r4, r0
    18e0:	00230210 	eoreq	r0, r3, r0, lsl r2
    18e4:	000ebb09 	andeq	fp, lr, r9, lsl #22
    18e8:	02520300 	subseq	r0, r2, #0
    18ec:	00000053 	andeq	r0, r0, r3, asr r0
    18f0:	020b0504 	andeq	r0, fp, #16777216	; 0x1000000
    18f4:	4b090023 	blmi	241988 <__bss_end+0x22e83c>
    18f8:	0300000e 	movweq	r0, #14
    18fc:	00530253 	subseq	r0, r3, r3, asr r2
    1900:	0b040000 	bleq	101908 <__bss_end+0xee7bc>
    1904:	00230200 	eoreq	r0, r3, r0, lsl #4
    1908:	03040d00 	movweq	r0, #19712	; 0x4d00
    190c:	149b024c 	ldrne	r0, [fp], #588	; 0x24c
    1910:	c60a0000 	strgt	r0, [sl], -r0
    1914:	03000002 	movweq	r0, #2
    1918:	0053024e 	subseq	r0, r3, lr, asr #4
    191c:	250a0000 	strcs	r0, [sl, #-0]
    1920:	03000009 	movweq	r0, #9
    1924:	14390254 	ldrtne	r0, [r9], #-596	; 0x254
    1928:	0b000000 	bleq	1930 <__resume1_start+0x1930>
    192c:	00000403 	andeq	r0, r0, r3, lsl #8
    1930:	79025503 	stmdbvc	r2, {r0, r1, r8, sl, ip, lr}
    1934:	0c000014 	stceq	0, cr0, [r0], {20}
    1938:	025a0304 	subseq	r0, sl, #268435456	; 0x10000000
    193c:	000014e7 	andeq	r1, r0, r7, ror #9
    1940:	000e4609 	andeq	r4, lr, r9, lsl #12
    1944:	025c0300 	subseq	r0, ip, #0
    1948:	00000053 	andeq	r0, r0, r3, asr r0
    194c:	02101004 	andseq	r1, r0, #4
    1950:	bb090023 	bllt	2419e4 <__bss_end+0x22e898>
    1954:	0300000e 	movweq	r0, #14
    1958:	0053025d 	subseq	r0, r3, sp, asr r2
    195c:	05040000 	streq	r0, [r4, #-0]
    1960:	0023020b 	eoreq	r0, r3, fp, lsl #4
    1964:	000e4b09 	andeq	r4, lr, r9, lsl #22
    1968:	025e0300 	subseq	r0, lr, #0
    196c:	00000053 	andeq	r0, r0, r3, asr r0
    1970:	02000b04 	andeq	r0, r0, #4096	; 0x1000
    1974:	0d000023 	stceq	0, cr0, [r0, #-140]	; 0xffffff74
    1978:	02570304 	subseq	r0, r7, #268435456	; 0x10000000
    197c:	00001509 	andeq	r1, r0, r9, lsl #10
    1980:	0002c60a 	andeq	ip, r2, sl, lsl #12
    1984:	02590300 	subseq	r0, r9, #0
    1988:	00000053 	andeq	r0, r0, r3, asr r0
    198c:	0009250a 	andeq	r2, r9, sl, lsl #10
    1990:	025f0300 	subseq	r0, pc, #0
    1994:	000014a7 	andeq	r1, r0, r7, lsr #9
    1998:	090f0b00 	stmdbeq	pc, {r8, r9, fp}	; <UNPREDICTABLE>
    199c:	60030000 	andvs	r0, r3, r0
    19a0:	0014e702 	andseq	lr, r4, r2, lsl #14
    19a4:	03040c00 	movweq	r0, #19456	; 0x4c00
    19a8:	15550265 	ldrbne	r0, [r5, #-613]	; 0x265
    19ac:	46090000 	strmi	r0, [r9], -r0
    19b0:	0300000e 	movweq	r0, #14
    19b4:	00530267 	subseq	r0, r3, r7, ror #4
    19b8:	10040000 	andne	r0, r4, r0
    19bc:	00230210 	eoreq	r0, r3, r0, lsl r2
    19c0:	000ebb09 	andeq	fp, lr, r9, lsl #22
    19c4:	02680300 	rsbeq	r0, r8, #0
    19c8:	00000053 	andeq	r0, r0, r3, asr r0
    19cc:	020b0504 	andeq	r0, fp, #16777216	; 0x1000000
    19d0:	4b090023 	blmi	241a64 <__bss_end+0x22e918>
    19d4:	0300000e 	movweq	r0, #14
    19d8:	00530269 	subseq	r0, r3, r9, ror #4
    19dc:	0b040000 	bleq	1019e4 <__bss_end+0xee898>
    19e0:	00230200 	eoreq	r0, r3, r0, lsl #4
    19e4:	03040d00 	movweq	r0, #19712	; 0x4d00
    19e8:	15770262 	ldrbne	r0, [r7, #-610]!	; 0x262
    19ec:	c60a0000 	strgt	r0, [sl], -r0
    19f0:	03000002 	movweq	r0, #2
    19f4:	00530264 	subseq	r0, r3, r4, ror #4
    19f8:	250a0000 	strcs	r0, [sl, #-0]
    19fc:	03000009 	movweq	r0, #9
    1a00:	1515026a 	ldrne	r0, [r5, #-618]	; 0x26a
    1a04:	0b000000 	bleq	1a0c <__resume1_start+0x1a0c>
    1a08:	00000f37 	andeq	r0, r0, r7, lsr pc
    1a0c:	55026b03 	strpl	r6, [r2, #-2819]	; 0xb03
    1a10:	0c000015 	stceq	0, cr0, [r0], {21}
    1a14:	02700304 	rsbseq	r0, r0, #268435456	; 0x10000000
    1a18:	000015c3 	andeq	r1, r0, r3, asr #11
    1a1c:	000e4609 	andeq	r4, lr, r9, lsl #12
    1a20:	02720300 	rsbseq	r0, r2, #0
    1a24:	00000053 	andeq	r0, r0, r3, asr r0
    1a28:	02101004 	andseq	r1, r0, #4
    1a2c:	bb090023 	bllt	241ac0 <__bss_end+0x22e974>
    1a30:	0300000e 	movweq	r0, #14
    1a34:	00530273 	subseq	r0, r3, r3, ror r2
    1a38:	05040000 	streq	r0, [r4, #-0]
    1a3c:	0023020b 	eoreq	r0, r3, fp, lsl #4
    1a40:	000e4b09 	andeq	r4, lr, r9, lsl #22
    1a44:	02740300 	rsbseq	r0, r4, #0
    1a48:	00000053 	andeq	r0, r0, r3, asr r0
    1a4c:	02000b04 	andeq	r0, r0, #4096	; 0x1000
    1a50:	0d000023 	stceq	0, cr0, [r0, #-140]	; 0xffffff74
    1a54:	026d0304 	rsbeq	r0, sp, #268435456	; 0x10000000
    1a58:	000015e5 	andeq	r1, r0, r5, ror #11
    1a5c:	0002c60a 	andeq	ip, r2, sl, lsl #12
    1a60:	026f0300 	rsbeq	r0, pc, #0
    1a64:	00000053 	andeq	r0, r0, r3, asr r0
    1a68:	0009250a 	andeq	r2, r9, sl, lsl #10
    1a6c:	02750300 	rsbseq	r0, r5, #0
    1a70:	00001583 	andeq	r1, r0, r3, lsl #11
    1a74:	0b7a0b00 	bleq	1e8467c <__bss_end+0x1e71530>
    1a78:	76030000 	strvc	r0, [r3], -r0
    1a7c:	0015c302 	andseq	ip, r5, r2, lsl #6
    1a80:	03040c00 	movweq	r0, #19456	; 0x4c00
    1a84:	1631027b 			; <UNDEFINED> instruction: 0x1631027b
    1a88:	46090000 	strmi	r0, [r9], -r0
    1a8c:	0300000e 	movweq	r0, #14
    1a90:	0053027d 	subseq	r0, r3, sp, ror r2
    1a94:	10040000 	andne	r0, r4, r0
    1a98:	00230210 	eoreq	r0, r3, r0, lsl r2
    1a9c:	000ebb09 	andeq	fp, lr, r9, lsl #22
    1aa0:	027e0300 	rsbseq	r0, lr, #0
    1aa4:	00000053 	andeq	r0, r0, r3, asr r0
    1aa8:	020b0504 	andeq	r0, fp, #16777216	; 0x1000000
    1aac:	4b090023 	blmi	241b40 <__bss_end+0x22e9f4>
    1ab0:	0300000e 	movweq	r0, #14
    1ab4:	0053027f 	subseq	r0, r3, pc, ror r2
    1ab8:	0b040000 	bleq	101ac0 <__bss_end+0xee974>
    1abc:	00230200 	eoreq	r0, r3, r0, lsl #4
    1ac0:	03040d00 	movweq	r0, #19712	; 0x4d00
    1ac4:	16530278 			; <UNDEFINED> instruction: 0x16530278
    1ac8:	c60a0000 	strgt	r0, [sl], -r0
    1acc:	03000002 	movweq	r0, #2
    1ad0:	0053027a 	subseq	r0, r3, sl, ror r2
    1ad4:	250a0000 	strcs	r0, [sl, #-0]
    1ad8:	03000009 	movweq	r0, #9
    1adc:	15f10280 	ldrbne	r0, [r1, #640]!	; 0x280
    1ae0:	0b000000 	bleq	1ae8 <__resume1_start+0x1ae8>
    1ae4:	00000c10 	andeq	r0, r0, r0, lsl ip
    1ae8:	31028103 	tstcc	r2, r3, lsl #2
    1aec:	0c000016 	stceq	0, cr0, [r0], {22}
    1af0:	02860304 	addeq	r0, r6, #268435456	; 0x10000000
    1af4:	0000169f 	muleq	r0, pc, r6	; <UNPREDICTABLE>
    1af8:	000e4609 	andeq	r4, lr, r9, lsl #12
    1afc:	02880300 	addeq	r0, r8, #0
    1b00:	00000053 	andeq	r0, r0, r3, asr r0
    1b04:	02101004 	andseq	r1, r0, #4
    1b08:	bb090023 	bllt	241b9c <__bss_end+0x22ea50>
    1b0c:	0300000e 	movweq	r0, #14
    1b10:	00530289 	subseq	r0, r3, r9, lsl #5
    1b14:	05040000 	streq	r0, [r4, #-0]
    1b18:	0023020b 	eoreq	r0, r3, fp, lsl #4
    1b1c:	000e4b09 	andeq	r4, lr, r9, lsl #22
    1b20:	028a0300 	addeq	r0, sl, #0
    1b24:	00000053 	andeq	r0, r0, r3, asr r0
    1b28:	02000b04 	andeq	r0, r0, #4096	; 0x1000
    1b2c:	0d000023 	stceq	0, cr0, [r0, #-140]	; 0xffffff74
    1b30:	02830304 	addeq	r0, r3, #268435456	; 0x10000000
    1b34:	000016c1 	andeq	r1, r0, r1, asr #13
    1b38:	0002c60a 	andeq	ip, r2, sl, lsl #12
    1b3c:	02850300 	addeq	r0, r5, #0
    1b40:	00000053 	andeq	r0, r0, r3, asr r0
    1b44:	0009250a 	andeq	r2, r9, sl, lsl #10
    1b48:	028b0300 	addeq	r0, fp, #0
    1b4c:	0000165f 	andeq	r1, r0, pc, asr r6
    1b50:	0e9a0b00 	vfnmseq.f64	d0, d10, d0
    1b54:	8c030000 	stchi	0, cr0, [r3], {-0}
    1b58:	00169f02 	andseq	r9, r6, r2, lsl #30
    1b5c:	03040c00 	movweq	r0, #19456	; 0x4c00
    1b60:	178b0291 			; <UNDEFINED> instruction: 0x178b0291
    1b64:	72090000 	andvc	r0, r9, #0
    1b68:	0300000b 	movweq	r0, #11
    1b6c:	00530293 			; <UNDEFINED> instruction: 0x00530293
    1b70:	07040000 	streq	r0, [r4, -r0]
    1b74:	00230219 	eoreq	r0, r3, r9, lsl r2
    1b78:	000e5a09 	andeq	r5, lr, r9, lsl #20
    1b7c:	02940300 	addseq	r0, r4, #0
    1b80:	00000053 	andeq	r0, r0, r3, asr r0
    1b84:	02180104 	andseq	r0, r8, #1
    1b88:	d6090023 	strle	r0, [r9], -r3, lsr #32
    1b8c:	03000009 	movweq	r0, #9
    1b90:	00530295 			; <UNDEFINED> instruction: 0x00530295
    1b94:	07040000 	streq	r0, [r4, -r0]
    1b98:	00230211 	eoreq	r0, r3, r1, lsl r2
    1b9c:	000c5c09 	andeq	r5, ip, r9, lsl #24
    1ba0:	02960300 	addseq	r0, r6, #0
    1ba4:	00000053 	andeq	r0, r0, r3, asr r0
    1ba8:	02100104 	andseq	r0, r0, #1
    1bac:	60090023 	andvs	r0, r9, r3, lsr #32
    1bb0:	0300000e 	movweq	r0, #14
    1bb4:	00530297 			; <UNDEFINED> instruction: 0x00530297
    1bb8:	07040000 	streq	r0, [r4, -r0]
    1bbc:	00230209 	eoreq	r0, r3, r9, lsl #4
    1bc0:	000e4609 	andeq	r4, lr, r9, lsl #12
    1bc4:	02980300 	addseq	r0, r8, #0
    1bc8:	00000053 	andeq	r0, r0, r3, asr r0
    1bcc:	02080104 	andeq	r0, r8, #1
    1bd0:	6c090023 	stcvs	0, cr0, [r9], {35}	; 0x23
    1bd4:	03000004 	movweq	r0, #4
    1bd8:	00530299 			; <UNDEFINED> instruction: 0x00530299
    1bdc:	03040000 	movweq	r0, #16384	; 0x4000
    1be0:	00230205 	eoreq	r0, r3, r5, lsl #4
    1be4:	000e4b09 	andeq	r4, lr, r9, lsl #22
    1be8:	029a0300 	addseq	r0, sl, #0
    1bec:	00000053 	andeq	r0, r0, r3, asr r0
    1bf0:	02040104 	andeq	r0, r4, #1
    1bf4:	d7090023 	strle	r0, [r9, -r3, lsr #32]
    1bf8:	0300000b 	movweq	r0, #11
    1bfc:	0053029b 			; <UNDEFINED> instruction: 0x0053029b
    1c00:	03040000 	movweq	r0, #16384	; 0x4000
    1c04:	00230201 	eoreq	r0, r3, r1, lsl #4
    1c08:	000e5009 	andeq	r5, lr, r9
    1c0c:	029c0300 	addseq	r0, ip, #0
    1c10:	00000053 	andeq	r0, r0, r3, asr r0
    1c14:	02000104 	andeq	r0, r0, #1
    1c18:	0d000023 	stceq	0, cr0, [r0, #-140]	; 0xffffff74
    1c1c:	028e0304 	addeq	r0, lr, #268435456	; 0x10000000
    1c20:	000017ad 	andeq	r1, r0, sp, lsr #15
    1c24:	0002c60a 	andeq	ip, r2, sl, lsl #12
    1c28:	02900300 	addseq	r0, r0, #0
    1c2c:	00000053 	andeq	r0, r0, r3, asr r0
    1c30:	0009250a 	andeq	r2, r9, sl, lsl #10
    1c34:	029d0300 	addseq	r0, sp, #0
    1c38:	000016cd 	andeq	r1, r0, sp, asr #13
    1c3c:	08cd0b00 	stmiaeq	sp, {r8, r9, fp}^
    1c40:	9e030000 	cdpls	0, 0, cr0, cr3, cr0, {0}
    1c44:	00178b02 	andseq	r8, r7, r2, lsl #22
    1c48:	03040c00 	movweq	r0, #19456	; 0x4c00
    1c4c:	187702a3 	ldmdane	r7!, {r0, r1, r5, r7, r9}^
    1c50:	72090000 	andvc	r0, r9, #0
    1c54:	0300000b 	movweq	r0, #11
    1c58:	005302a5 	subseq	r0, r3, r5, lsr #5
    1c5c:	07040000 	streq	r0, [r4, -r0]
    1c60:	00230219 	eoreq	r0, r3, r9, lsl r2
    1c64:	000e5a09 	andeq	r5, lr, r9, lsl #20
    1c68:	02a60300 	adceq	r0, r6, #0
    1c6c:	00000053 	andeq	r0, r0, r3, asr r0
    1c70:	02180104 	andseq	r0, r8, #1
    1c74:	d6090023 	strle	r0, [r9], -r3, lsr #32
    1c78:	03000009 	movweq	r0, #9
    1c7c:	005302a7 	subseq	r0, r3, r7, lsr #5
    1c80:	07040000 	streq	r0, [r4, -r0]
    1c84:	00230211 	eoreq	r0, r3, r1, lsl r2
    1c88:	000c5c09 	andeq	r5, ip, r9, lsl #24
    1c8c:	02a80300 	adceq	r0, r8, #0
    1c90:	00000053 	andeq	r0, r0, r3, asr r0
    1c94:	02100104 	andseq	r0, r0, #1
    1c98:	60090023 	andvs	r0, r9, r3, lsr #32
    1c9c:	0300000e 	movweq	r0, #14
    1ca0:	005302a9 	subseq	r0, r3, r9, lsr #5
    1ca4:	07040000 	streq	r0, [r4, -r0]
    1ca8:	00230209 	eoreq	r0, r3, r9, lsl #4
    1cac:	000e4609 	andeq	r4, lr, r9, lsl #12
    1cb0:	02aa0300 	adceq	r0, sl, #0
    1cb4:	00000053 	andeq	r0, r0, r3, asr r0
    1cb8:	02080104 	andeq	r0, r8, #1
    1cbc:	6c090023 	stcvs	0, cr0, [r9], {35}	; 0x23
    1cc0:	03000004 	movweq	r0, #4
    1cc4:	005302ab 	subseq	r0, r3, fp, lsr #5
    1cc8:	03040000 	movweq	r0, #16384	; 0x4000
    1ccc:	00230205 	eoreq	r0, r3, r5, lsl #4
    1cd0:	000e4b09 	andeq	r4, lr, r9, lsl #22
    1cd4:	02ac0300 	adceq	r0, ip, #0
    1cd8:	00000053 	andeq	r0, r0, r3, asr r0
    1cdc:	02040104 	andeq	r0, r4, #1
    1ce0:	d7090023 	strle	r0, [r9, -r3, lsr #32]
    1ce4:	0300000b 	movweq	r0, #11
    1ce8:	005302ad 	subseq	r0, r3, sp, lsr #5
    1cec:	03040000 	movweq	r0, #16384	; 0x4000
    1cf0:	00230201 	eoreq	r0, r3, r1, lsl #4
    1cf4:	000e5009 	andeq	r5, lr, r9
    1cf8:	02ae0300 	adceq	r0, lr, #0
    1cfc:	00000053 	andeq	r0, r0, r3, asr r0
    1d00:	02000104 	andeq	r0, r0, #1
    1d04:	0d000023 	stceq	0, cr0, [r0, #-140]	; 0xffffff74
    1d08:	02a00304 	adceq	r0, r0, #268435456	; 0x10000000
    1d0c:	00001899 	muleq	r0, r9, r8
    1d10:	0002c60a 	andeq	ip, r2, sl, lsl #12
    1d14:	02a20300 	adceq	r0, r2, #0
    1d18:	00000053 	andeq	r0, r0, r3, asr r0
    1d1c:	0009250a 	andeq	r2, r9, sl, lsl #10
    1d20:	02af0300 	adceq	r0, pc, #0
    1d24:	000017b9 			; <UNDEFINED> instruction: 0x000017b9
    1d28:	069d0b00 	ldreq	r0, [sp], r0, lsl #22
    1d2c:	b0030000 	andlt	r0, r3, r0
    1d30:	00187702 	andseq	r7, r8, r2, lsl #14
    1d34:	03040c00 	movweq	r0, #19456	; 0x4c00
    1d38:	191b02b5 	ldmdbne	fp, {r0, r2, r4, r5, r7, r9}
    1d3c:	e6090000 	str	r0, [r9], -r0
    1d40:	03000002 	movweq	r0, #2
    1d44:	005302b7 	ldrheq	r0, [r3], #-39	; 0xffffffd9
    1d48:	11040000 	mrsne	r0, (UNDEF: 4)
    1d4c:	0023020f 	eoreq	r0, r3, pc, lsl #4
    1d50:	00173409 	andseq	r3, r7, r9, lsl #8
    1d54:	02b80300 	adcseq	r0, r8, #0
    1d58:	00000053 	andeq	r0, r0, r3, asr r0
    1d5c:	020d0204 	andeq	r0, sp, #1073741824	; 0x40000000
    1d60:	fa090023 	blx	241df4 <__bss_end+0x22eca8>
    1d64:	0300000b 	movweq	r0, #11
    1d68:	005302b9 	ldrheq	r0, [r3], #-41	; 0xffffffd7
    1d6c:	01040000 	mrseq	r0, (UNDEF: 4)
    1d70:	0023020c 	eoreq	r0, r3, ip, lsl #4
    1d74:	00070709 	andeq	r0, r7, r9, lsl #14
    1d78:	02ba0300 	adcseq	r0, sl, #0
    1d7c:	00000053 	andeq	r0, r0, r3, asr r0
    1d80:	02030904 	andeq	r0, r3, #65536	; 0x10000
    1d84:	07090023 	streq	r0, [r9, -r3, lsr #32]
    1d88:	03000003 	movweq	r0, #3
    1d8c:	005302bb 	ldrheq	r0, [r3], #-43	; 0xffffffd5
    1d90:	02040000 	andeq	r0, r4, #0
    1d94:	00230201 	eoreq	r0, r3, r1, lsl #4
    1d98:	0004b609 	andeq	fp, r4, r9, lsl #12
    1d9c:	02bc0300 	adcseq	r0, ip, #0
    1da0:	00000053 	andeq	r0, r0, r3, asr r0
    1da4:	02000104 	andeq	r0, r0, #1
    1da8:	0d000023 	stceq	0, cr0, [r0, #-140]	; 0xffffff74
    1dac:	02b20304 	adcseq	r0, r2, #268435456	; 0x10000000
    1db0:	0000193d 	andeq	r1, r0, sp, lsr r9
    1db4:	0002c60a 	andeq	ip, r2, sl, lsl #12
    1db8:	02b40300 	adcseq	r0, r4, #0
    1dbc:	00000053 	andeq	r0, r0, r3, asr r0
    1dc0:	0009250a 	andeq	r2, r9, sl, lsl #10
    1dc4:	02bd0300 	adcseq	r0, sp, #0
    1dc8:	000018a5 	andeq	r1, r0, r5, lsr #17
    1dcc:	02ef0b00 	rsceq	r0, pc, #0
    1dd0:	be030000 	cdplt	0, 0, cr0, cr3, cr0, {0}
    1dd4:	00191b02 	andseq	r1, r9, r2, lsl #22
    1dd8:	03040c00 	movweq	r0, #19456	; 0x4c00
    1ddc:	19bf02c3 	ldmibne	pc!, {r0, r1, r6, r7, r9}	; <UNPREDICTABLE>
    1de0:	e6090000 	str	r0, [r9], -r0
    1de4:	03000002 	movweq	r0, #2
    1de8:	005302c5 	subseq	r0, r3, r5, asr #5
    1dec:	11040000 	mrsne	r0, (UNDEF: 4)
    1df0:	0023020f 	eoreq	r0, r3, pc, lsl #4
    1df4:	00173409 	andseq	r3, r7, r9, lsl #8
    1df8:	02c60300 	sbceq	r0, r6, #0
    1dfc:	00000053 	andeq	r0, r0, r3, asr r0
    1e00:	020d0204 	andeq	r0, sp, #1073741824	; 0x40000000
    1e04:	fa090023 	blx	241e98 <__bss_end+0x22ed4c>
    1e08:	0300000b 	movweq	r0, #11
    1e0c:	005302c7 	subseq	r0, r3, r7, asr #5
    1e10:	01040000 	mrseq	r0, (UNDEF: 4)
    1e14:	0023020c 	eoreq	r0, r3, ip, lsl #4
    1e18:	00070709 	andeq	r0, r7, r9, lsl #14
    1e1c:	02c80300 	sbceq	r0, r8, #0
    1e20:	00000053 	andeq	r0, r0, r3, asr r0
    1e24:	02030904 	andeq	r0, r3, #65536	; 0x10000
    1e28:	07090023 	streq	r0, [r9, -r3, lsr #32]
    1e2c:	03000003 	movweq	r0, #3
    1e30:	005302c9 	subseq	r0, r3, r9, asr #5
    1e34:	02040000 	andeq	r0, r4, #0
    1e38:	00230201 	eoreq	r0, r3, r1, lsl #4
    1e3c:	0004b609 	andeq	fp, r4, r9, lsl #12
    1e40:	02ca0300 	sbceq	r0, sl, #0
    1e44:	00000053 	andeq	r0, r0, r3, asr r0
    1e48:	02000104 	andeq	r0, r0, #1
    1e4c:	0d000023 	stceq	0, cr0, [r0, #-140]	; 0xffffff74
    1e50:	02c00304 	sbceq	r0, r0, #268435456	; 0x10000000
    1e54:	000019e1 	andeq	r1, r0, r1, ror #19
    1e58:	0002c60a 	andeq	ip, r2, sl, lsl #12
    1e5c:	02c20300 	sbceq	r0, r2, #0
    1e60:	00000053 	andeq	r0, r0, r3, asr r0
    1e64:	0009250a 	andeq	r2, r9, sl, lsl #10
    1e68:	02cb0300 	sbceq	r0, fp, #0
    1e6c:	00001949 	andeq	r1, r0, r9, asr #18
    1e70:	0ab70b00 	beq	fedc4a78 <__bss_end+0xfedb192c>
    1e74:	cc030000 	stcgt	0, cr0, [r3], {-0}
    1e78:	0019bf02 	andseq	fp, r9, r2, lsl #30
    1e7c:	03040c00 	movweq	r0, #19456	; 0x4c00
    1e80:	1a6302d1 	bne	18c29cc <__bss_end+0x18af880>
    1e84:	e6090000 	str	r0, [r9], -r0
    1e88:	03000002 	movweq	r0, #2
    1e8c:	005302d3 	ldrsbeq	r0, [r3], #-35	; 0xffffffdd
    1e90:	11040000 	mrsne	r0, (UNDEF: 4)
    1e94:	0023020f 	eoreq	r0, r3, pc, lsl #4
    1e98:	00173409 	andseq	r3, r7, r9, lsl #8
    1e9c:	02d40300 	sbcseq	r0, r4, #0
    1ea0:	00000053 	andeq	r0, r0, r3, asr r0
    1ea4:	020d0204 	andeq	r0, sp, #1073741824	; 0x40000000
    1ea8:	fa090023 	blx	241f3c <__bss_end+0x22edf0>
    1eac:	0300000b 	movweq	r0, #11
    1eb0:	005302d5 	ldrsbeq	r0, [r3], #-37	; 0xffffffdb
    1eb4:	01040000 	mrseq	r0, (UNDEF: 4)
    1eb8:	0023020c 	eoreq	r0, r3, ip, lsl #4
    1ebc:	00070709 	andeq	r0, r7, r9, lsl #14
    1ec0:	02d60300 	sbcseq	r0, r6, #0
    1ec4:	00000053 	andeq	r0, r0, r3, asr r0
    1ec8:	02030904 	andeq	r0, r3, #65536	; 0x10000
    1ecc:	07090023 	streq	r0, [r9, -r3, lsr #32]
    1ed0:	03000003 	movweq	r0, #3
    1ed4:	005302d7 	ldrsbeq	r0, [r3], #-39	; 0xffffffd9
    1ed8:	02040000 	andeq	r0, r4, #0
    1edc:	00230201 	eoreq	r0, r3, r1, lsl #4
    1ee0:	0004b609 	andeq	fp, r4, r9, lsl #12
    1ee4:	02d80300 	sbcseq	r0, r8, #0
    1ee8:	00000053 	andeq	r0, r0, r3, asr r0
    1eec:	02000104 	andeq	r0, r0, #1
    1ef0:	0d000023 	stceq	0, cr0, [r0, #-140]	; 0xffffff74
    1ef4:	02ce0304 	sbceq	r0, lr, #268435456	; 0x10000000
    1ef8:	00001a85 	andeq	r1, r0, r5, lsl #21
    1efc:	0002c60a 	andeq	ip, r2, sl, lsl #12
    1f00:	02d00300 	sbcseq	r0, r0, #0
    1f04:	00000053 	andeq	r0, r0, r3, asr r0
    1f08:	0009250a 	andeq	r2, r9, sl, lsl #10
    1f0c:	02d90300 	sbcseq	r0, r9, #0
    1f10:	000019ed 	andeq	r1, r0, sp, ror #19
    1f14:	0e0a0b00 	vmlaeq.f64	d0, d10, d0
    1f18:	da030000 	ble	c1f20 <__bss_end+0xaedd4>
    1f1c:	001a6302 	andseq	r6, sl, r2, lsl #6
    1f20:	03040c00 	movweq	r0, #19456	; 0x4c00
    1f24:	1b0702df 	blne	1c2aa8 <__bss_end+0x1af95c>
    1f28:	e6090000 	str	r0, [r9], -r0
    1f2c:	03000002 	movweq	r0, #2
    1f30:	005302e1 	subseq	r0, r3, r1, ror #5
    1f34:	11040000 	mrsne	r0, (UNDEF: 4)
    1f38:	0023020f 	eoreq	r0, r3, pc, lsl #4
    1f3c:	00173409 	andseq	r3, r7, r9, lsl #8
    1f40:	02e20300 	rsceq	r0, r2, #0
    1f44:	00000053 	andeq	r0, r0, r3, asr r0
    1f48:	020d0204 	andeq	r0, sp, #1073741824	; 0x40000000
    1f4c:	fa090023 	blx	241fe0 <__bss_end+0x22ee94>
    1f50:	0300000b 	movweq	r0, #11
    1f54:	005302e3 	subseq	r0, r3, r3, ror #5
    1f58:	01040000 	mrseq	r0, (UNDEF: 4)
    1f5c:	0023020c 	eoreq	r0, r3, ip, lsl #4
    1f60:	00070709 	andeq	r0, r7, r9, lsl #14
    1f64:	02e40300 	rsceq	r0, r4, #0
    1f68:	00000053 	andeq	r0, r0, r3, asr r0
    1f6c:	02030904 	andeq	r0, r3, #65536	; 0x10000
    1f70:	07090023 	streq	r0, [r9, -r3, lsr #32]
    1f74:	03000003 	movweq	r0, #3
    1f78:	005302e5 	subseq	r0, r3, r5, ror #5
    1f7c:	02040000 	andeq	r0, r4, #0
    1f80:	00230201 	eoreq	r0, r3, r1, lsl #4
    1f84:	0004b609 	andeq	fp, r4, r9, lsl #12
    1f88:	02e60300 	rsceq	r0, r6, #0
    1f8c:	00000053 	andeq	r0, r0, r3, asr r0
    1f90:	02000104 	andeq	r0, r0, #1
    1f94:	0d000023 	stceq	0, cr0, [r0, #-140]	; 0xffffff74
    1f98:	02dc0304 	sbcseq	r0, ip, #268435456	; 0x10000000
    1f9c:	00001b29 	andeq	r1, r0, r9, lsr #22
    1fa0:	0002c60a 	andeq	ip, r2, sl, lsl #12
    1fa4:	02de0300 	sbcseq	r0, lr, #0
    1fa8:	00000053 	andeq	r0, r0, r3, asr r0
    1fac:	0009250a 	andeq	r2, r9, sl, lsl #10
    1fb0:	02e70300 	rsceq	r0, r7, #0
    1fb4:	00001a91 	muleq	r0, r1, sl
    1fb8:	095b0b00 	ldmdbeq	fp, {r8, r9, fp}^
    1fbc:	e8030000 	stmda	r3, {}	; <UNPREDICTABLE>
    1fc0:	001b0702 	andseq	r0, fp, r2, lsl #14
    1fc4:	03040c00 	movweq	r0, #19456	; 0x4c00
    1fc8:	1bab02ed 	blne	feac2b84 <__bss_end+0xfeaafa38>
    1fcc:	e6090000 	str	r0, [r9], -r0
    1fd0:	03000002 	movweq	r0, #2
    1fd4:	005302ef 	subseq	r0, r3, pc, ror #5
    1fd8:	11040000 	mrsne	r0, (UNDEF: 4)
    1fdc:	0023020f 	eoreq	r0, r3, pc, lsl #4
    1fe0:	00173409 	andseq	r3, r7, r9, lsl #8
    1fe4:	02f00300 	rscseq	r0, r0, #0
    1fe8:	00000053 	andeq	r0, r0, r3, asr r0
    1fec:	020d0204 	andeq	r0, sp, #1073741824	; 0x40000000
    1ff0:	fa090023 	blx	242084 <__bss_end+0x22ef38>
    1ff4:	0300000b 	movweq	r0, #11
    1ff8:	005302f1 	ldrsheq	r0, [r3], #-33	; 0xffffffdf
    1ffc:	01040000 	mrseq	r0, (UNDEF: 4)
    2000:	0023020c 	eoreq	r0, r3, ip, lsl #4
    2004:	00070709 	andeq	r0, r7, r9, lsl #14
    2008:	02f20300 	rscseq	r0, r2, #0
    200c:	00000053 	andeq	r0, r0, r3, asr r0
    2010:	02030904 	andeq	r0, r3, #65536	; 0x10000
    2014:	07090023 	streq	r0, [r9, -r3, lsr #32]
    2018:	03000003 	movweq	r0, #3
    201c:	005302f3 	ldrsheq	r0, [r3], #-35	; 0xffffffdd
    2020:	02040000 	andeq	r0, r4, #0
    2024:	00230201 	eoreq	r0, r3, r1, lsl #4
    2028:	0004b609 	andeq	fp, r4, r9, lsl #12
    202c:	02f40300 	rscseq	r0, r4, #0
    2030:	00000053 	andeq	r0, r0, r3, asr r0
    2034:	02000104 	andeq	r0, r0, #1
    2038:	0d000023 	stceq	0, cr0, [r0, #-140]	; 0xffffff74
    203c:	02ea0304 	rsceq	r0, sl, #268435456	; 0x10000000
    2040:	00001bcd 	andeq	r1, r0, sp, asr #23
    2044:	0002c60a 	andeq	ip, r2, sl, lsl #12
    2048:	02ec0300 	rsceq	r0, ip, #0
    204c:	00000053 	andeq	r0, r0, r3, asr r0
    2050:	0009250a 	andeq	r2, r9, sl, lsl #10
    2054:	02f50300 	rscseq	r0, r5, #0
    2058:	00001b35 	andeq	r1, r0, r5, lsr fp
    205c:	05fe0b00 	ldrbeq	r0, [lr, #2816]!	; 0xb00
    2060:	f6030000 			; <UNDEFINED> instruction: 0xf6030000
    2064:	001bab02 	andseq	sl, fp, r2, lsl #22
    2068:	03040c00 	movweq	r0, #19456	; 0x4c00
    206c:	1c4f02fb 	sfmne	f0, 2, [pc], {251}	; 0xfb
    2070:	e6090000 	str	r0, [r9], -r0
    2074:	03000002 	movweq	r0, #2
    2078:	005302fd 	ldrsheq	r0, [r3], #-45	; 0xffffffd3
    207c:	11040000 	mrsne	r0, (UNDEF: 4)
    2080:	0023020f 	eoreq	r0, r3, pc, lsl #4
    2084:	00173409 	andseq	r3, r7, r9, lsl #8
    2088:	02fe0300 	rscseq	r0, lr, #0
    208c:	00000053 	andeq	r0, r0, r3, asr r0
    2090:	020d0204 	andeq	r0, sp, #1073741824	; 0x40000000
    2094:	fa090023 	blx	242128 <__bss_end+0x22efdc>
    2098:	0300000b 	movweq	r0, #11
    209c:	005302ff 	ldrsheq	r0, [r3], #-47	; 0xffffffd1
    20a0:	01040000 	mrseq	r0, (UNDEF: 4)
    20a4:	0023020c 	eoreq	r0, r3, ip, lsl #4
    20a8:	00070709 	andeq	r0, r7, r9, lsl #14
    20ac:	03000300 	movweq	r0, #768	; 0x300
    20b0:	00000053 	andeq	r0, r0, r3, asr r0
    20b4:	02030904 	andeq	r0, r3, #65536	; 0x10000
    20b8:	07090023 	streq	r0, [r9, -r3, lsr #32]
    20bc:	03000003 	movweq	r0, #3
    20c0:	00530301 	subseq	r0, r3, r1, lsl #6
    20c4:	02040000 	andeq	r0, r4, #0
    20c8:	00230201 	eoreq	r0, r3, r1, lsl #4
    20cc:	0004b609 	andeq	fp, r4, r9, lsl #12
    20d0:	03020300 	movweq	r0, #8960	; 0x2300
    20d4:	00000053 	andeq	r0, r0, r3, asr r0
    20d8:	02000104 	andeq	r0, r0, #1
    20dc:	0d000023 	stceq	0, cr0, [r0, #-140]	; 0xffffff74
    20e0:	02f80304 	rscseq	r0, r8, #268435456	; 0x10000000
    20e4:	00001c71 	andeq	r1, r0, r1, ror ip
    20e8:	0002c60a 	andeq	ip, r2, sl, lsl #12
    20ec:	02fa0300 	rscseq	r0, sl, #0
    20f0:	00000053 	andeq	r0, r0, r3, asr r0
    20f4:	0009250a 	andeq	r2, r9, sl, lsl #10
    20f8:	03030300 	movweq	r0, #13056	; 0x3300
    20fc:	00001bd9 	ldrdeq	r1, [r0], -r9
    2100:	05e50b00 	strbeq	r0, [r5, #2816]!	; 0xb00
    2104:	04030000 	streq	r0, [r3], #-0
    2108:	001c4f03 	andseq	r4, ip, r3, lsl #30
    210c:	03040c00 	movweq	r0, #19456	; 0x4c00
    2110:	1cf30309 	ldclne	3, cr0, [r3], #36	; 0x24
    2114:	e6090000 	str	r0, [r9], -r0
    2118:	03000002 	movweq	r0, #2
    211c:	0053030b 	subseq	r0, r3, fp, lsl #6
    2120:	11040000 	mrsne	r0, (UNDEF: 4)
    2124:	0023020f 	eoreq	r0, r3, pc, lsl #4
    2128:	00173409 	andseq	r3, r7, r9, lsl #8
    212c:	030c0300 	movweq	r0, #49920	; 0xc300
    2130:	00000053 	andeq	r0, r0, r3, asr r0
    2134:	020d0204 	andeq	r0, sp, #1073741824	; 0x40000000
    2138:	fa090023 	blx	2421cc <__bss_end+0x22f080>
    213c:	0300000b 	movweq	r0, #11
    2140:	0053030d 	subseq	r0, r3, sp, lsl #6
    2144:	01040000 	mrseq	r0, (UNDEF: 4)
    2148:	0023020c 	eoreq	r0, r3, ip, lsl #4
    214c:	00070709 	andeq	r0, r7, r9, lsl #14
    2150:	030e0300 	movweq	r0, #58112	; 0xe300
    2154:	00000053 	andeq	r0, r0, r3, asr r0
    2158:	02030904 	andeq	r0, r3, #65536	; 0x10000
    215c:	07090023 	streq	r0, [r9, -r3, lsr #32]
    2160:	03000003 	movweq	r0, #3
    2164:	0053030f 	subseq	r0, r3, pc, lsl #6
    2168:	02040000 	andeq	r0, r4, #0
    216c:	00230201 	eoreq	r0, r3, r1, lsl #4
    2170:	0004b609 	andeq	fp, r4, r9, lsl #12
    2174:	03100300 	tsteq	r0, #0
    2178:	00000053 	andeq	r0, r0, r3, asr r0
    217c:	02000104 	andeq	r0, r0, #1
    2180:	0d000023 	stceq	0, cr0, [r0, #-140]	; 0xffffff74
    2184:	03060304 	movweq	r0, #25348	; 0x6304
    2188:	00001d15 	andeq	r1, r0, r5, lsl sp
    218c:	0002c60a 	andeq	ip, r2, sl, lsl #12
    2190:	03080300 	movweq	r0, #33536	; 0x8300
    2194:	00000053 	andeq	r0, r0, r3, asr r0
    2198:	0009250a 	andeq	r2, r9, sl, lsl #10
    219c:	03110300 	tsteq	r1, #0
    21a0:	00001c7d 	andeq	r1, r0, sp, ror ip
    21a4:	0ec90b00 	vdiveq.f64	d16, d9, d0
    21a8:	12030000 	andne	r0, r3, #0
    21ac:	001cf303 	andseq	pc, ip, r3, lsl #6
    21b0:	03040c00 	movweq	r0, #19456	; 0x4c00
    21b4:	1d970317 	ldcne	3, cr0, [r7, #92]	; 0x5c
    21b8:	e6090000 	str	r0, [r9], -r0
    21bc:	03000002 	movweq	r0, #2
    21c0:	00530319 	subseq	r0, r3, r9, lsl r3
    21c4:	11040000 	mrsne	r0, (UNDEF: 4)
    21c8:	0023020f 	eoreq	r0, r3, pc, lsl #4
    21cc:	00173409 	andseq	r3, r7, r9, lsl #8
    21d0:	031a0300 	tsteq	sl, #0
    21d4:	00000053 	andeq	r0, r0, r3, asr r0
    21d8:	020d0204 	andeq	r0, sp, #1073741824	; 0x40000000
    21dc:	fa090023 	blx	242270 <__bss_end+0x22f124>
    21e0:	0300000b 	movweq	r0, #11
    21e4:	0053031b 	subseq	r0, r3, fp, lsl r3
    21e8:	01040000 	mrseq	r0, (UNDEF: 4)
    21ec:	0023020c 	eoreq	r0, r3, ip, lsl #4
    21f0:	00070709 	andeq	r0, r7, r9, lsl #14
    21f4:	031c0300 	tsteq	ip, #0
    21f8:	00000053 	andeq	r0, r0, r3, asr r0
    21fc:	02030904 	andeq	r0, r3, #65536	; 0x10000
    2200:	07090023 	streq	r0, [r9, -r3, lsr #32]
    2204:	03000003 	movweq	r0, #3
    2208:	0053031d 	subseq	r0, r3, sp, lsl r3
    220c:	02040000 	andeq	r0, r4, #0
    2210:	00230201 	eoreq	r0, r3, r1, lsl #4
    2214:	0004b609 	andeq	fp, r4, r9, lsl #12
    2218:	031e0300 	tsteq	lr, #0
    221c:	00000053 	andeq	r0, r0, r3, asr r0
    2220:	02000104 	andeq	r0, r0, #1
    2224:	0d000023 	stceq	0, cr0, [r0, #-140]	; 0xffffff74
    2228:	03140304 	tsteq	r4, #268435456	; 0x10000000
    222c:	00001db9 			; <UNDEFINED> instruction: 0x00001db9
    2230:	0002c60a 	andeq	ip, r2, sl, lsl #12
    2234:	03160300 	tsteq	r6, #0
    2238:	00000053 	andeq	r0, r0, r3, asr r0
    223c:	0009250a 	andeq	r2, r9, sl, lsl #10
    2240:	031f0300 	tsteq	pc, #0
    2244:	00001d21 	andeq	r1, r0, r1, lsr #26
    2248:	08fa0b00 	ldmeq	sl!, {r8, r9, fp}^
    224c:	20030000 	andcs	r0, r3, r0
    2250:	001d9703 	andseq	r9, sp, r3, lsl #14
    2254:	03040c00 	movweq	r0, #19456	; 0x4c00
    2258:	1e3b0325 	cdpne	3, 3, cr0, cr11, cr5, {1}
    225c:	e6090000 	str	r0, [r9], -r0
    2260:	03000002 	movweq	r0, #2
    2264:	00530327 	subseq	r0, r3, r7, lsr #6
    2268:	11040000 	mrsne	r0, (UNDEF: 4)
    226c:	0023020f 	eoreq	r0, r3, pc, lsl #4
    2270:	00173409 	andseq	r3, r7, r9, lsl #8
    2274:	03280300 	teqeq	r8, #0
    2278:	00000053 	andeq	r0, r0, r3, asr r0
    227c:	020d0204 	andeq	r0, sp, #1073741824	; 0x40000000
    2280:	fa090023 	blx	242314 <__bss_end+0x22f1c8>
    2284:	0300000b 	movweq	r0, #11
    2288:	00530329 	subseq	r0, r3, r9, lsr #6
    228c:	01040000 	mrseq	r0, (UNDEF: 4)
    2290:	0023020c 	eoreq	r0, r3, ip, lsl #4
    2294:	00070709 	andeq	r0, r7, r9, lsl #14
    2298:	032a0300 	teqeq	sl, #0
    229c:	00000053 	andeq	r0, r0, r3, asr r0
    22a0:	02030904 	andeq	r0, r3, #65536	; 0x10000
    22a4:	07090023 	streq	r0, [r9, -r3, lsr #32]
    22a8:	03000003 	movweq	r0, #3
    22ac:	0053032b 	subseq	r0, r3, fp, lsr #6
    22b0:	02040000 	andeq	r0, r4, #0
    22b4:	00230201 	eoreq	r0, r3, r1, lsl #4
    22b8:	0004b609 	andeq	fp, r4, r9, lsl #12
    22bc:	032c0300 	teqeq	ip, #0
    22c0:	00000053 	andeq	r0, r0, r3, asr r0
    22c4:	02000104 	andeq	r0, r0, #1
    22c8:	0d000023 	stceq	0, cr0, [r0, #-140]	; 0xffffff74
    22cc:	03220304 	teqeq	r2, #268435456	; 0x10000000
    22d0:	00001e5d 	andeq	r1, r0, sp, asr lr
    22d4:	0002c60a 	andeq	ip, r2, sl, lsl #12
    22d8:	03240300 	teqeq	r4, #0
    22dc:	00000053 	andeq	r0, r0, r3, asr r0
    22e0:	0009250a 	andeq	r2, r9, sl, lsl #10
    22e4:	032d0300 	teqeq	sp, #0
    22e8:	00001dc5 	andeq	r1, r0, r5, asr #27
    22ec:	08010b00 	stmdaeq	r1, {r8, r9, fp}
    22f0:	2e030000 	cdpcs	0, 0, cr0, cr3, cr0, {0}
    22f4:	001e3b03 	andseq	r3, lr, r3, lsl #22
    22f8:	03040c00 	movweq	r0, #19456	; 0x4c00
    22fc:	1edf0333 	mrcne	3, 6, r0, cr15, cr3, {1}
    2300:	e6090000 	str	r0, [r9], -r0
    2304:	03000002 	movweq	r0, #2
    2308:	00530335 	subseq	r0, r3, r5, lsr r3
    230c:	11040000 	mrsne	r0, (UNDEF: 4)
    2310:	0023020f 	eoreq	r0, r3, pc, lsl #4
    2314:	00173409 	andseq	r3, r7, r9, lsl #8
    2318:	03360300 	teqeq	r6, #0
    231c:	00000053 	andeq	r0, r0, r3, asr r0
    2320:	020d0204 	andeq	r0, sp, #1073741824	; 0x40000000
    2324:	fa090023 	blx	2423b8 <__bss_end+0x22f26c>
    2328:	0300000b 	movweq	r0, #11
    232c:	00530337 	subseq	r0, r3, r7, lsr r3
    2330:	01040000 	mrseq	r0, (UNDEF: 4)
    2334:	0023020c 	eoreq	r0, r3, ip, lsl #4
    2338:	00070709 	andeq	r0, r7, r9, lsl #14
    233c:	03380300 	teqeq	r8, #0
    2340:	00000053 	andeq	r0, r0, r3, asr r0
    2344:	02030904 	andeq	r0, r3, #65536	; 0x10000
    2348:	07090023 	streq	r0, [r9, -r3, lsr #32]
    234c:	03000003 	movweq	r0, #3
    2350:	00530339 	subseq	r0, r3, r9, lsr r3
    2354:	02040000 	andeq	r0, r4, #0
    2358:	00230201 	eoreq	r0, r3, r1, lsl #4
    235c:	0004b609 	andeq	fp, r4, r9, lsl #12
    2360:	033a0300 	teqeq	sl, #0
    2364:	00000053 	andeq	r0, r0, r3, asr r0
    2368:	02000104 	andeq	r0, r0, #1
    236c:	0d000023 	stceq	0, cr0, [r0, #-140]	; 0xffffff74
    2370:	03300304 	teqeq	r0, #268435456	; 0x10000000
    2374:	00001f01 	andeq	r1, r0, r1, lsl #30
    2378:	0002c60a 	andeq	ip, r2, sl, lsl #12
    237c:	03320300 	teqeq	r2, #0
    2380:	00000053 	andeq	r0, r0, r3, asr r0
    2384:	0009250a 	andeq	r2, r9, sl, lsl #10
    2388:	033b0300 	teqeq	fp, #0
    238c:	00001e69 	andeq	r1, r0, r9, ror #28
    2390:	09390b00 	ldmdbeq	r9!, {r8, r9, fp}
    2394:	3c030000 	stccc	0, cr0, [r3], {-0}
    2398:	001edf03 	andseq	sp, lr, r3, lsl #30
    239c:	03040c00 	movweq	r0, #19456	; 0x4c00
    23a0:	1fa70341 	svcne	0x00a70341
    23a4:	46090000 	strmi	r0, [r9], -r0
    23a8:	0300000e 	movweq	r0, #14
    23ac:	00530343 	subseq	r0, r3, r3, asr #6
    23b0:	08040000 	stmdaeq	r4, {}	; <UNPREDICTABLE>
    23b4:	00230218 	eoreq	r0, r3, r8, lsl r2
    23b8:	00055b09 	andeq	r5, r5, r9, lsl #22
    23bc:	03440300 	movteq	r0, #17152	; 0x4300
    23c0:	00000053 	andeq	r0, r0, r3, asr r0
    23c4:	02130504 	andseq	r0, r3, #16777216	; 0x1000000
    23c8:	4b090023 	blmi	24245c <__bss_end+0x22f310>
    23cc:	0300000e 	movweq	r0, #14
    23d0:	00530345 	subseq	r0, r3, r5, asr #6
    23d4:	07040000 	streq	r0, [r4, -r0]
    23d8:	0023020c 	eoreq	r0, r3, ip, lsl #4
    23dc:	00056509 	andeq	r6, r5, r9, lsl #10
    23e0:	03460300 	movteq	r0, #25344	; 0x6300
    23e4:	00000053 	andeq	r0, r0, r3, asr r0
    23e8:	020a0204 	andeq	r0, sl, #1073741824	; 0x40000000
    23ec:	50090023 	andpl	r0, r9, r3, lsr #32
    23f0:	0300000e 	movweq	r0, #14
    23f4:	00530347 	subseq	r0, r3, r7, asr #6
    23f8:	02040000 	andeq	r0, r4, #0
    23fc:	00230208 	eoreq	r0, r3, r8, lsl #4
    2400:	000d6709 	andeq	r6, sp, r9, lsl #14
    2404:	03480300 	movteq	r0, #33536	; 0x8300
    2408:	00000053 	andeq	r0, r0, r3, asr r0
    240c:	02060204 	andeq	r0, r6, #1073741824	; 0x40000000
    2410:	55090023 	strpl	r0, [r9, #-35]	; 0x23
    2414:	0300000e 	movweq	r0, #14
    2418:	00530349 	subseq	r0, r3, r9, asr #6
    241c:	05040000 	streq	r0, [r4, #-0]
    2420:	00230201 	eoreq	r0, r3, r1, lsl #4
    2424:	00069209 	andeq	r9, r6, r9, lsl #4
    2428:	034a0300 	movteq	r0, #41728	; 0xa300
    242c:	00000053 	andeq	r0, r0, r3, asr r0
    2430:	02000104 	andeq	r0, r0, #1
    2434:	0d000023 	stceq	0, cr0, [r0, #-140]	; 0xffffff74
    2438:	033e0304 	teqeq	lr, #268435456	; 0x10000000
    243c:	00001fc9 	andeq	r1, r0, r9, asr #31
    2440:	0002c60a 	andeq	ip, r2, sl, lsl #12
    2444:	03400300 	movteq	r0, #768	; 0x300
    2448:	00000053 	andeq	r0, r0, r3, asr r0
    244c:	0009250a 	andeq	r2, r9, sl, lsl #10
    2450:	034b0300 	movteq	r0, #45824	; 0xb300
    2454:	00001f0d 	andeq	r1, r0, sp, lsl #30
    2458:	0b9e0b00 	bleq	fe785060 <__bss_end+0xfe771f14>
    245c:	4c030000 	stcmi	0, cr0, [r3], {-0}
    2460:	001fa703 	andseq	sl, pc, r3, lsl #14
    2464:	03040c00 	movweq	r0, #19456	; 0x4c00
    2468:	206f0351 	rsbcs	r0, pc, r1, asr r3	; <UNPREDICTABLE>
    246c:	46090000 	strmi	r0, [r9], -r0
    2470:	0300000e 	movweq	r0, #14
    2474:	00530353 	subseq	r0, r3, r3, asr r3
    2478:	08040000 	stmdaeq	r4, {}	; <UNPREDICTABLE>
    247c:	00230218 	eoreq	r0, r3, r8, lsl r2
    2480:	00055b09 	andeq	r5, r5, r9, lsl #22
    2484:	03540300 	cmpeq	r4, #0
    2488:	00000053 	andeq	r0, r0, r3, asr r0
    248c:	02130504 	andseq	r0, r3, #16777216	; 0x1000000
    2490:	4b090023 	blmi	242524 <__bss_end+0x22f3d8>
    2494:	0300000e 	movweq	r0, #14
    2498:	00530355 	subseq	r0, r3, r5, asr r3
    249c:	07040000 	streq	r0, [r4, -r0]
    24a0:	0023020c 	eoreq	r0, r3, ip, lsl #4
    24a4:	00056509 	andeq	r6, r5, r9, lsl #10
    24a8:	03560300 	cmpeq	r6, #0
    24ac:	00000053 	andeq	r0, r0, r3, asr r0
    24b0:	020a0204 	andeq	r0, sl, #1073741824	; 0x40000000
    24b4:	50090023 	andpl	r0, r9, r3, lsr #32
    24b8:	0300000e 	movweq	r0, #14
    24bc:	00530357 	subseq	r0, r3, r7, asr r3
    24c0:	02040000 	andeq	r0, r4, #0
    24c4:	00230208 	eoreq	r0, r3, r8, lsl #4
    24c8:	000d6709 	andeq	r6, sp, r9, lsl #14
    24cc:	03580300 	cmpeq	r8, #0
    24d0:	00000053 	andeq	r0, r0, r3, asr r0
    24d4:	02060204 	andeq	r0, r6, #1073741824	; 0x40000000
    24d8:	55090023 	strpl	r0, [r9, #-35]	; 0x23
    24dc:	0300000e 	movweq	r0, #14
    24e0:	00530359 	subseq	r0, r3, r9, asr r3
    24e4:	05040000 	streq	r0, [r4, #-0]
    24e8:	00230201 	eoreq	r0, r3, r1, lsl #4
    24ec:	00069209 	andeq	r9, r6, r9, lsl #4
    24f0:	035a0300 	cmpeq	sl, #0
    24f4:	00000053 	andeq	r0, r0, r3, asr r0
    24f8:	02000104 	andeq	r0, r0, #1
    24fc:	0d000023 	stceq	0, cr0, [r0, #-140]	; 0xffffff74
    2500:	034e0304 	movteq	r0, #58116	; 0xe304
    2504:	00002091 	muleq	r0, r1, r0
    2508:	0002c60a 	andeq	ip, r2, sl, lsl #12
    250c:	03500300 	cmpeq	r0, #0
    2510:	00000053 	andeq	r0, r0, r3, asr r0
    2514:	0009250a 	andeq	r2, r9, sl, lsl #10
    2518:	035b0300 	cmpeq	fp, #0
    251c:	00001fd5 	ldrdeq	r1, [r0], -r5
    2520:	05c20b00 	strbeq	r0, [r2, #2816]	; 0xb00
    2524:	5c030000 	stcpl	0, cr0, [r3], {-0}
    2528:	00206f03 	eoreq	r6, r0, r3, lsl #30
    252c:	0f150e00 	svceq	0x00150e00
    2530:	01840000 	orreq	r0, r4, r0
    2534:	63035e03 	movwvs	r5, #15875	; 0x3e03
    2538:	0f000024 	svceq	0x00000024
    253c:	00000888 	andeq	r0, r0, r8, lsl #17
    2540:	63036103 	movwvs	r6, #12547	; 0x3103
    2544:	02000024 	andeq	r0, r0, #36	; 0x24
    2548:	b30f0023 	movwlt	r0, #61475	; 0xf023
    254c:	03000003 	movweq	r0, #3
    2550:	24680362 	strbtcs	r0, [r8], #-866	; 0x362
    2554:	23020000 	movwcs	r0, #8192	; 0x2000
    2558:	0a540f04 	beq	1506170 <__bss_end+0x14f3024>
    255c:	63030000 	movwvs	r0, #12288	; 0x3000
    2560:	00246d03 	eoreq	r6, r4, r3, lsl #26
    2564:	08230200 	stmdaeq	r3!, {r9}
    2568:	0008480f 	andeq	r4, r8, pc, lsl #16
    256c:	03640300 	cmneq	r4, #0
    2570:	00002472 	andeq	r2, r0, r2, ror r4
    2574:	0f0c2302 	svceq	0x000c2302
    2578:	000008de 	ldrdeq	r0, [r0], -lr
    257c:	77036503 	strvc	r6, [r3, -r3, lsl #10]
    2580:	02000024 	andeq	r0, r0, #36	; 0x24
    2584:	f60f1023 			; <UNDEFINED> instruction: 0xf60f1023
    2588:	03000006 	movweq	r0, #6
    258c:	247c0366 	ldrbtcs	r0, [ip], #-870	; 0x366
    2590:	23020000 	movwcs	r0, #8192	; 0x2000
    2594:	048d0f14 	streq	r0, [sp], #3860	; 0xf14
    2598:	67030000 	strvs	r0, [r3, -r0]
    259c:	00248103 	eoreq	r8, r4, r3, lsl #2
    25a0:	18230200 	stmdane	r3!, {r9}
    25a4:	000d4d0f 	andeq	r4, sp, pc, lsl #26
    25a8:	03680300 	cmneq	r8, #0
    25ac:	00002486 	andeq	r2, r0, r6, lsl #9
    25b0:	0f1c2302 	svceq	0x001c2302
    25b4:	000008c1 	andeq	r0, r0, r1, asr #17
    25b8:	8b036903 	blhi	dc9cc <__bss_end+0xc9880>
    25bc:	02000024 	andeq	r0, r0, #36	; 0x24
    25c0:	ac0f2023 	stcge	0, cr2, [pc], {35}	; 0x23
    25c4:	0300000a 	movweq	r0, #10
    25c8:	2490036a 	ldrcs	r0, [r0], #874	; 0x36a
    25cc:	23020000 	movwcs	r0, #8192	; 0x2000
    25d0:	09710f24 	ldmdbeq	r1!, {r2, r5, r8, r9, sl, fp}^
    25d4:	6b030000 	blvs	c25dc <__bss_end+0xaf490>
    25d8:	00249503 	eoreq	r9, r4, r3, lsl #10
    25dc:	28230200 	stmdacs	r3!, {r9}
    25e0:	00037f0f 	andeq	r7, r3, pc, lsl #30
    25e4:	036c0300 	cmneq	ip, #0
    25e8:	0000249a 	muleq	r0, sl, r4
    25ec:	0f2c2302 	svceq	0x002c2302
    25f0:	00000c52 	andeq	r0, r0, r2, asr ip
    25f4:	af036e03 	svcge	0x00036e03
    25f8:	02000024 	andeq	r0, r0, #36	; 0x24
    25fc:	6c0f3023 	stcvs	0, cr3, [pc], {35}	; 0x23
    2600:	0300000a 	movweq	r0, #10
    2604:	24b4036f 	ldrtcs	r0, [r4], #879	; 0x36f
    2608:	23020000 	movwcs	r0, #8192	; 0x2000
    260c:	038f0f50 	orreq	r0, pc, #320	; 0x140
    2610:	70030000 	andvc	r0, r3, r0
    2614:	0024b903 	eoreq	fp, r4, r3, lsl #18
    2618:	54230200 	strtpl	r0, [r3], #-512	; 0x200
    261c:	000c490f 	andeq	r4, ip, pc, lsl #18
    2620:	03710300 	cmneq	r1, #0
    2624:	000024be 			; <UNDEFINED> instruction: 0x000024be
    2628:	0f582302 	svceq	0x00582302
    262c:	00000c06 	andeq	r0, r0, r6, lsl #24
    2630:	c3037203 	movwgt	r7, #12803	; 0x3203
    2634:	02000024 	andeq	r0, r0, #36	; 0x24
    2638:	b20f5c23 	andlt	r5, pc, #8960	; 0x2300
    263c:	0300000d 	movweq	r0, #13
    2640:	24c80373 	strbcs	r0, [r8], #883	; 0x373
    2644:	23020000 	movwcs	r0, #8192	; 0x2000
    2648:	08280f60 	stmdaeq	r8!, {r5, r6, r8, r9, sl, fp}
    264c:	74030000 	strvc	r0, [r3], #-0
    2650:	0024cd03 	eoreq	ip, r4, r3, lsl #26
    2654:	64230200 	strtvs	r0, [r3], #-512	; 0x200
    2658:	0005210f 	andeq	r2, r5, pc, lsl #2
    265c:	03750300 	cmneq	r5, #0
    2660:	000024d2 	ldrdeq	r2, [r0], -r2	; <UNPREDICTABLE>
    2664:	0f682302 	svceq	0x00682302
    2668:	00000458 	andeq	r0, r0, r8, asr r4
    266c:	d7037603 	strle	r7, [r3, -r3, lsl #12]
    2670:	02000024 	andeq	r0, r0, #36	; 0x24
    2674:	890f6c23 	stmdbhi	pc, {r0, r1, r5, sl, fp, sp, lr}	; <UNPREDICTABLE>
    2678:	03000006 	movweq	r0, #6
    267c:	24dc0377 	ldrbcs	r0, [ip], #887	; 0x377
    2680:	23020000 	movwcs	r0, #8192	; 0x2000
    2684:	0f4a0f70 	svceq	0x004a0f70
    2688:	78030000 	stmdavc	r3, {}	; <UNPREDICTABLE>
    268c:	0024e103 	eoreq	lr, r4, r3, lsl #2
    2690:	74230200 	strtvc	r0, [r3], #-512	; 0x200
    2694:	0005a50f 	andeq	sl, r5, pc, lsl #10
    2698:	03790300 	cmneq	r9, #0
    269c:	000024e6 	andeq	r2, r0, r6, ror #9
    26a0:	0f782302 	svceq	0x00782302
    26a4:	00000c61 	andeq	r0, r0, r1, ror #24
    26a8:	d7037a03 	strle	r7, [r3, -r3, lsl #20]
    26ac:	02000024 	andeq	r0, r0, #36	; 0x24
    26b0:	530f7c23 	movwpl	r7, #64547	; 0xfc23
    26b4:	03000009 	movweq	r0, #9
    26b8:	24eb037b 	strbtcs	r0, [fp], #891	; 0x37b
    26bc:	23030000 	movwcs	r0, #12288	; 0x3000
    26c0:	b10f0180 	smlabblt	pc, r0, r1, r0	; <UNPREDICTABLE>
    26c4:	0300000e 	movweq	r0, #14
    26c8:	24f0037c 	ldrbtcs	r0, [r0], #892	; 0x37c
    26cc:	23030000 	movwcs	r0, #12288	; 0x3000
    26d0:	6b0f0184 	blvs	3c2ce8 <__bss_end+0x3afb9c>
    26d4:	0300000c 	movweq	r0, #12
    26d8:	2505037d 	strcs	r0, [r5, #-893]	; 0x37d
    26dc:	23030000 	movwcs	r0, #12288	; 0x3000
    26e0:	750f0188 	strvc	r0, [pc, #-392]	; 2560 <__resume1_start+0x2560>
    26e4:	0300000c 	movweq	r0, #12
    26e8:	250a037e 	strcs	r0, [sl, #-894]	; 0x37e
    26ec:	23030000 	movwcs	r0, #12288	; 0x3000
    26f0:	830f0190 	movwhi	r0, #61840	; 0xf190
    26f4:	03000007 	movweq	r0, #7
    26f8:	250f037f 	strcs	r0, [pc, #-895]	; 2381 <__resume1_start+0x2381>
    26fc:	23030000 	movwcs	r0, #12288	; 0x3000
    2700:	620f0194 	andvs	r0, pc, #37	; 0x25
    2704:	03000004 	movweq	r0, #4
    2708:	24d70380 	ldrbcs	r0, [r7], #896	; 0x380
    270c:	23030000 	movwcs	r0, #12288	; 0x3000
    2710:	7e0f0198 	mcrvc	1, 0, r0, cr15, cr8, {4}
    2714:	0300000f 	movweq	r0, #15
    2718:	25140381 	ldrcs	r0, [r4, #-897]	; 0x381
    271c:	23030000 	movwcs	r0, #12288	; 0x3000
    2720:	030f019c 	movweq	r0, #61852	; 0xf19c
    2724:	0300000b 	movweq	r0, #11
    2728:	25190383 	ldrcs	r0, [r9, #-899]	; 0x383
    272c:	23030000 	movwcs	r0, #12288	; 0x3000
    2730:	360f01a0 	strcc	r0, [pc], -r0, lsr #3
    2734:	03000004 	movweq	r0, #4
    2738:	251e0384 	ldrcs	r0, [lr, #-900]	; 0x384
    273c:	23030000 	movwcs	r0, #12288	; 0x3000
    2740:	370f01a4 	strcc	r0, [pc, -r4, lsr #3]
    2744:	0300000e 	movweq	r0, #14
    2748:	25230385 	strcs	r0, [r3, #-901]!	; 0x385
    274c:	23030000 	movwcs	r0, #12288	; 0x3000
    2750:	770f01a8 	strvc	r0, [pc, -r8, lsr #3]
    2754:	0300000d 	movweq	r0, #13
    2758:	25280386 	strcs	r0, [r8, #-902]!	; 0x386
    275c:	23030000 	movwcs	r0, #12288	; 0x3000
    2760:	310f01ac 	smlatbcc	pc, ip, r1, r0	; <UNPREDICTABLE>
    2764:	03000006 	movweq	r0, #6
    2768:	252d0387 	strcs	r0, [sp, #-903]!	; 0x387
    276c:	23030000 	movwcs	r0, #12288	; 0x3000
    2770:	8e0f01b0 	flthi<illegal precision>p	f7, r0
    2774:	03000002 	movweq	r0, #2
    2778:	25320388 	ldrcs	r0, [r2, #-904]!	; 0x388
    277c:	23030000 	movwcs	r0, #12288	; 0x3000
    2780:	fd0f01b4 	stc2	1, cr0, [pc, #-720]	; 24b8 <__resume1_start+0x24b8>
    2784:	03000009 	movweq	r0, #9
    2788:	25370389 	ldrcs	r0, [r7, #-905]!	; 0x389
    278c:	23030000 	movwcs	r0, #12288	; 0x3000
    2790:	980f01b8 	stmdals	pc, {r3, r4, r5, r7, r8}	; <UNPREDICTABLE>
    2794:	03000003 	movweq	r0, #3
    2798:	253c038a 	ldrcs	r0, [ip, #-906]!	; 0x38a
    279c:	23030000 	movwcs	r0, #12288	; 0x3000
    27a0:	bd0f01bc 	stflts	f0, [pc, #-752]	; 24b8 <__resume1_start+0x24b8>
    27a4:	0300000c 	movweq	r0, #12
    27a8:	2541038b 	strbcs	r0, [r1, #-907]	; 0x38b
    27ac:	23030000 	movwcs	r0, #12288	; 0x3000
    27b0:	880f01c0 	stmdahi	pc, {r6, r7, r8}	; <UNPREDICTABLE>
    27b4:	03000005 	movweq	r0, #5
    27b8:	2546038c 	strbcs	r0, [r6, #-908]	; 0x38c
    27bc:	23030000 	movwcs	r0, #12288	; 0x3000
    27c0:	530f01c4 	movwpl	r0, #61892	; 0xf1c4
    27c4:	0300000f 	movweq	r0, #15
    27c8:	254b038d 	strbcs	r0, [fp, #-909]	; 0x38d
    27cc:	23030000 	movwcs	r0, #12288	; 0x3000
    27d0:	e90f01c8 	stmdb	pc, {r3, r6, r7, r8}	; <UNPREDICTABLE>
    27d4:	03000008 	movweq	r0, #8
    27d8:	2550038e 	ldrbcs	r0, [r0, #-910]	; 0x38e
    27dc:	23030000 	movwcs	r0, #12288	; 0x3000
    27e0:	780f01cc 	stmdavc	pc, {r2, r3, r6, r7, r8}	; <UNPREDICTABLE>
    27e4:	0300000a 	movweq	r0, #10
    27e8:	2565038f 	strbcs	r0, [r5, #-911]!	; 0x38f
    27ec:	23030000 	movwcs	r0, #12288	; 0x3000
    27f0:	9c0f01d0 	stflss	f0, [pc], {208}	; 0xd0
    27f4:	03000004 	movweq	r0, #4
    27f8:	256a0390 	strbcs	r0, [sl, #-912]!	; 0x390
    27fc:	23030000 	movwcs	r0, #12288	; 0x3000
    2800:	5c0f01e0 	stfpls	f0, [pc], {224}	; 0xe0
    2804:	0300000d 	movweq	r0, #13
    2808:	256f0391 	strbcs	r0, [pc, #-913]!	; 247f <__resume1_start+0x247f>
    280c:	23030000 	movwcs	r0, #12288	; 0x3000
    2810:	930f01e4 	movwls	r0, #61924	; 0xf1e4
    2814:	0300000c 	movweq	r0, #12
    2818:	25840392 	strcs	r0, [r4, #914]	; 0x392
    281c:	23030000 	movwcs	r0, #12288	; 0x3000
    2820:	8c0f01e8 	stfhis	f0, [pc], {232}	; 0xe8
    2824:	0300000b 	movweq	r0, #11
    2828:	25890393 	strcs	r0, [r9, #915]	; 0x393
    282c:	23030000 	movwcs	r0, #12288	; 0x3000
    2830:	230f0284 	movwcs	r0, #62084	; 0xf284
    2834:	0300000a 	movweq	r0, #10
    2838:	258e0394 	strcs	r0, [lr, #916]	; 0x394
    283c:	23030000 	movwcs	r0, #12288	; 0x3000
    2840:	1e0f0288 	cdpne	2, 0, cr0, cr15, cr8, {4}
    2844:	0300000b 	movweq	r0, #11
    2848:	25930395 	ldrcs	r0, [r3, #917]	; 0x395
    284c:	23030000 	movwcs	r0, #12288	; 0x3000
    2850:	ef0f028c 	svc	0x000f028c
    2854:	03000004 	movweq	r0, #4
    2858:	25980396 	ldrcs	r0, [r8, #918]	; 0x396
    285c:	23030000 	movwcs	r0, #12288	; 0x3000
    2860:	750f0290 	strvc	r0, [pc, #-656]	; 25d8 <__resume1_start+0x25d8>
    2864:	03000005 	movweq	r0, #5
    2868:	259d0397 	ldrcs	r0, [sp, #919]	; 0x397
    286c:	23030000 	movwcs	r0, #12288	; 0x3000
    2870:	a00f0294 	mulge	pc, r4, r2	; <UNPREDICTABLE>
    2874:	03000009 	movweq	r0, #9
    2878:	25a20398 	strcs	r0, [r2, #920]!	; 0x398
    287c:	23030000 	movwcs	r0, #12288	; 0x3000
    2880:	920f0298 	andls	r0, pc, #-2147483639	; 0x80000009
    2884:	03000007 	movweq	r0, #7
    2888:	25a70399 	strcs	r0, [r7, #921]!	; 0x399
    288c:	23030000 	movwcs	r0, #12288	; 0x3000
    2890:	790f029c 	stmdbvc	pc, {r2, r3, r4, r7, r9}	; <UNPREDICTABLE>
    2894:	03000008 	movweq	r0, #8
    2898:	25ac039a 	strcs	r0, [ip, #922]!	; 0x39a
    289c:	23030000 	movwcs	r0, #12288	; 0x3000
    28a0:	d20f02a0 	andle	r0, pc, #10
    28a4:	03000006 	movweq	r0, #6
    28a8:	25b1039b 	ldrcs	r0, [r1, #923]!	; 0x39b
    28ac:	23030000 	movwcs	r0, #12288	; 0x3000
    28b0:	f60f02a4 			; <UNDEFINED> instruction: 0xf60f02a4
    28b4:	0300000d 	movweq	r0, #13
    28b8:	25b6039c 	ldrcs	r0, [r6, #924]!	; 0x39c
    28bc:	23030000 	movwcs	r0, #12288	; 0x3000
    28c0:	9d0f02a8 	sfmls	f0, 4, [pc, #-672]	; 2628 <__resume1_start+0x2628>
    28c4:	0300000c 	movweq	r0, #12
    28c8:	25cb039d 	strbcs	r0, [fp, #925]	; 0x39d
    28cc:	23030000 	movwcs	r0, #12288	; 0x3000
    28d0:	7a0f02ac 	bvc	3c3388 <__bss_end+0x3b023c>
    28d4:	03000007 	movweq	r0, #7
    28d8:	25d0039e 	ldrbcs	r0, [r0, #926]	; 0x39e
    28dc:	23030000 	movwcs	r0, #12288	; 0x3000
    28e0:	540f02fc 	strpl	r0, [pc], #-764	; 28e8 <__resume1_start+0x28e8>
    28e4:	03000003 	movweq	r0, #3
    28e8:	25d5039f 	ldrbcs	r0, [r5, #927]	; 0x39f
    28ec:	23030000 	movwcs	r0, #12288	; 0x3000
    28f0:	10000380 	andne	r0, r0, r0, lsl #7
    28f4:	00000123 	andeq	r0, r0, r3, lsr #2
    28f8:	0001de10 	andeq	sp, r1, r0, lsl lr
    28fc:	02bb1000 	adcseq	r1, fp, #0
    2900:	87100000 	ldrhi	r0, [r0, -r0]
    2904:	10000003 	andne	r0, r0, r3
    2908:	00000453 	andeq	r0, r0, r3, asr r4
    290c:	00053010 	andeq	r3, r5, r0, lsl r0
    2910:	05ff1000 	ldrbeq	r1, [pc, #0]!	; 2918 <__resume1_start+0x2918>
    2914:	eb100000 	bl	40291c <__bss_end+0x3ef7d0>
    2918:	10000006 	andne	r0, r0, r6
    291c:	000007c5 	andeq	r0, r0, r5, asr #15
    2920:	00089f10 	andeq	r9, r8, r0, lsl pc
    2924:	09791000 	ldmdbeq	r9!, {ip}^
    2928:	53100000 	tstpl	r0, #0
    292c:	1100000a 	tstne	r0, sl
    2930:	00000053 	andeq	r0, r0, r3, asr r0
    2934:	000024af 	andeq	r2, r0, pc, lsr #9
    2938:	00005e12 	andeq	r5, r0, r2, lsl lr
    293c:	10000700 	andne	r0, r0, r0, lsl #14
    2940:	0000249f 	muleq	r0, pc, r4	; <UNPREDICTABLE>
    2944:	000ad310 	andeq	sp, sl, r0, lsl r3
    2948:	0b531000 	bleq	14c6950 <__bss_end+0x14b3804>
    294c:	d3100000 	tstle	r0, #0
    2950:	1000000b 	andne	r0, r0, fp
    2954:	00000c53 	andeq	r0, r0, r3, asr ip
    2958:	000cd310 	andeq	sp, ip, r0, lsl r3
    295c:	0d531000 	ldcleq	0, cr1, [r3, #-0]
    2960:	d3100000 	tstle	r0, #0
    2964:	1000000d 	andne	r0, r0, sp
    2968:	00000053 	andeq	r0, r0, r3, asr r0
    296c:	000e5310 	andeq	r5, lr, r0, lsl r3
    2970:	0ef71000 	cdpeq	0, 15, cr1, cr7, cr0, {0}
    2974:	77100000 	ldrvc	r0, [r0, -r0]
    2978:	1000000f 	andne	r0, r0, pc
    297c:	00001009 	andeq	r1, r0, r9
    2980:	00109b10 	andseq	r9, r0, r0, lsl fp
    2984:	00531100 	subseq	r1, r3, r0, lsl #2
    2988:	25050000 	strcs	r0, [r5, #-0]
    298c:	5e120000 	cdppl	0, 1, cr0, cr2, cr0, {0}
    2990:	01000000 	mrseq	r0, (UNDEF: 0)
    2994:	24f51000 	ldrbtcs	r1, [r5], #0
    2998:	f7100000 			; <UNDEFINED> instruction: 0xf7100000
    299c:	10000010 	andne	r0, r0, r0, lsl r0
    29a0:	00001153 	andeq	r1, r0, r3, asr r1
    29a4:	00117510 	andseq	r7, r1, r0, lsl r5
    29a8:	11f51000 	mvnsne	r1, r0
    29ac:	75100000 	ldrvc	r0, [r0, #-0]
    29b0:	10000012 	andne	r0, r0, r2, lsl r0
    29b4:	000012e3 	andeq	r1, r0, r3, ror #5
    29b8:	00135110 	andseq	r5, r3, r0, lsl r1
    29bc:	13bf1000 			; <UNDEFINED> instruction: 0x13bf1000
    29c0:	2d100000 	ldccs	0, cr0, [r0, #-0]
    29c4:	10000014 	andne	r0, r0, r4, lsl r0
    29c8:	0000149b 	muleq	r0, fp, r4
    29cc:	00150910 	andseq	r0, r5, r0, lsl r9
    29d0:	15771000 	ldrbne	r1, [r7, #-0]!
    29d4:	e5100000 	ldr	r0, [r0, #-0]
    29d8:	10000015 	andne	r0, r0, r5, lsl r0
    29dc:	00001653 	andeq	r1, r0, r3, asr r6
    29e0:	0016c110 	andseq	ip, r6, r0, lsl r1
    29e4:	00531100 	subseq	r1, r3, r0, lsl #2
    29e8:	25650000 	strbcs	r0, [r5, #-0]!
    29ec:	5e120000 	cdppl	0, 1, cr0, cr2, cr0, {0}
    29f0:	03000000 	movweq	r0, #0
    29f4:	25551000 	ldrbcs	r1, [r5, #-0]
    29f8:	ad100000 	ldcge	0, cr0, [r0, #-0]
    29fc:	10000017 	andne	r0, r0, r7, lsl r0
    2a00:	00001899 	muleq	r0, r9, r8
    2a04:	00005311 	andeq	r5, r0, r1, lsl r3
    2a08:	00258400 	eoreq	r8, r5, r0, lsl #8
    2a0c:	005e1200 	subseq	r1, lr, r0, lsl #4
    2a10:	00060000 	andeq	r0, r6, r0
    2a14:	00257410 	eoreq	r7, r5, r0, lsl r4
    2a18:	193d1000 	ldmdbne	sp!, {ip}
    2a1c:	e1100000 	tst	r0, r0
    2a20:	10000019 	andne	r0, r0, r9, lsl r0
    2a24:	00001a85 	andeq	r1, r0, r5, lsl #21
    2a28:	001b2910 	andseq	r2, fp, r0, lsl r9
    2a2c:	1bcd1000 	blne	ff346a34 <__bss_end+0xff3338e8>
    2a30:	71100000 	tstvc	r0, r0
    2a34:	1000001c 	andne	r0, r0, ip, lsl r0
    2a38:	00001d15 	andeq	r1, r0, r5, lsl sp
    2a3c:	001db910 	andseq	fp, sp, r0, lsl r9
    2a40:	1e5d1000 	cdpne	0, 5, cr1, cr13, cr0, {0}
    2a44:	01100000 	tsteq	r0, r0
    2a48:	1100001f 	tstne	r0, pc, lsl r0
    2a4c:	00000053 	andeq	r0, r0, r3, asr r0
    2a50:	000025cb 	andeq	r2, r0, fp, asr #11
    2a54:	00005e12 	andeq	r5, r0, r2, lsl lr
    2a58:	10001300 	andne	r1, r0, r0, lsl #6
    2a5c:	000025bb 			; <UNDEFINED> instruction: 0x000025bb
    2a60:	001fc910 	andseq	ip, pc, r0, lsl r9	; <UNPREDICTABLE>
    2a64:	20911000 	addscs	r1, r1, r0
    2a68:	c90b0000 	stmdbgt	fp, {}	; <UNPREDICTABLE>
    2a6c:	0300000d 	movweq	r0, #13
    2a70:	209d03a0 	addscs	r0, sp, r0, lsr #7
    2a74:	04130000 	ldreq	r0, [r3], #-0
    2a78:	000025da 	ldrdeq	r2, [r0], -sl
    2a7c:	000bad14 	andeq	sl, fp, r4, lsl sp
    2a80:	40040400 	andmi	r0, r4, r0, lsl #8
    2a84:	00002607 	andeq	r2, r0, r7, lsl #12
    2a88:	00038f15 	andeq	r8, r3, r5, lsl pc
    2a8c:	53410400 	movtpl	r0, #5120	; 0x1400
    2a90:	02000000 	andeq	r0, r0, #0
    2a94:	14000023 	strne	r0, [r0], #-35	; 0x23
    2a98:	00000bb7 			; <UNDEFINED> instruction: 0x00000bb7
    2a9c:	ca440434 	bgt	1103b74 <__bss_end+0x10f0a28>
    2aa0:	15000026 	strne	r0, [r0, #-38]	; 0x26
    2aa4:	00000b03 	andeq	r0, r0, r3, lsl #22
    2aa8:	00534504 	subseq	r4, r3, r4, lsl #10
    2aac:	23020000 	movwcs	r0, #8192	; 0x2000
    2ab0:	0d771500 	cfldr64eq	mvdx1, [r7, #-0]
    2ab4:	46040000 	strmi	r0, [r4], -r0
    2ab8:	00000053 	andeq	r0, r0, r3, asr r0
    2abc:	15042302 	strne	r2, [r4, #-770]	; 0x302
    2ac0:	000008e9 	andeq	r0, r0, r9, ror #17
    2ac4:	00534704 	subseq	r4, r3, r4, lsl #14
    2ac8:	23020000 	movwcs	r0, #8192	; 0x2000
    2acc:	049c1508 	ldreq	r1, [ip], #1288	; 0x508
    2ad0:	48040000 	stmdami	r4, {}	; <UNPREDICTABLE>
    2ad4:	00000053 	andeq	r0, r0, r3, asr r0
    2ad8:	150c2302 	strne	r2, [ip, #-770]	; 0x302
    2adc:	00000436 	andeq	r0, r0, r6, lsr r4
    2ae0:	00534904 	subseq	r4, r3, r4, lsl #18
    2ae4:	23020000 	movwcs	r0, #8192	; 0x2000
    2ae8:	09fd1510 	ldmibeq	sp!, {r4, r8, sl, ip}^
    2aec:	4a040000 	bmi	102af4 <__bss_end+0xef9a8>
    2af0:	00000053 	andeq	r0, r0, r3, asr r0
    2af4:	15142302 	ldrne	r2, [r4, #-770]	; 0x302
    2af8:	00000398 	muleq	r0, r8, r3
    2afc:	00534b04 	subseq	r4, r3, r4, lsl #22
    2b00:	23020000 	movwcs	r0, #8192	; 0x2000
    2b04:	0d5c1518 	cfldr64eq	mvdx1, [ip, #-96]	; 0xffffffa0
    2b08:	4c040000 	stcmi	0, cr0, [r4], {-0}
    2b0c:	00000053 	andeq	r0, r0, r3, asr r0
    2b10:	151c2302 	ldrne	r2, [ip, #-770]	; 0x302
    2b14:	00000575 	andeq	r0, r0, r5, ror r5
    2b18:	00534d04 	subseq	r4, r3, r4, lsl #26
    2b1c:	23020000 	movwcs	r0, #8192	; 0x2000
    2b20:	09a01520 	stmibeq	r0!, {r5, r8, sl, ip}
    2b24:	4e040000 	cdpmi	0, 0, cr0, cr4, cr0, {0}
    2b28:	00000053 	andeq	r0, r0, r3, asr r0
    2b2c:	15242302 	strne	r2, [r4, #-770]!	; 0x302
    2b30:	000003b3 			; <UNDEFINED> instruction: 0x000003b3
    2b34:	00534f04 	subseq	r4, r3, r4, lsl #30
    2b38:	23020000 	movwcs	r0, #8192	; 0x2000
    2b3c:	048d1528 	streq	r1, [sp], #1320	; 0x528
    2b40:	50040000 	andpl	r0, r4, r0
    2b44:	00000053 	andeq	r0, r0, r3, asr r0
    2b48:	152c2302 	strne	r2, [ip, #-770]!	; 0x302
    2b4c:	00000d4d 	andeq	r0, r0, sp, asr #26
    2b50:	00535104 	subseq	r5, r3, r4, lsl #2
    2b54:	23020000 	movwcs	r0, #8192	; 0x2000
    2b58:	29140030 	ldmdbcs	r4, {r4, r5}
    2b5c:	08000004 	stmdaeq	r0, {r2}
    2b60:	271d5404 	ldrcs	r5, [sp, -r4, lsl #8]
    2b64:	4b150000 	blmi	542b6c <__bss_end+0x52fa20>
    2b68:	04000005 	streq	r0, [r0], #-5
    2b6c:	00002c55 	andeq	r2, r0, r5, asr ip
    2b70:	00230200 	eoreq	r0, r3, r0, lsl #4
    2b74:	00052a15 	andeq	r2, r5, r5, lsl sl
    2b78:	2c560400 	cfldrdcs	mvd0, [r6], {-0}
    2b7c:	02000000 	andeq	r0, r0, #0
    2b80:	43150123 	tstmi	r5, #-1073741816	; 0xc0000008
    2b84:	04000005 	streq	r0, [r0], #-5
    2b88:	00002c57 	andeq	r2, r0, r7, asr ip
    2b8c:	02230200 	eoreq	r0, r3, #0
    2b90:	00055315 	andeq	r5, r5, r5, lsl r3
    2b94:	2c580400 	cfldrdcs	mvd0, [r8], {-0}
    2b98:	02000000 	andeq	r0, r0, #0
    2b9c:	50160323 	andspl	r0, r6, r3, lsr #6
    2ba0:	04006c6c 	streq	r6, [r0], #-3180	; 0xc6c
    2ba4:	00005359 	andeq	r5, r0, r9, asr r3
    2ba8:	04230200 	strteq	r0, [r3], #-512	; 0x200
    2bac:	07040200 	streq	r0, [r4, -r0, lsl #4]
    2bb0:	00000066 	andeq	r0, r0, r6, rrx
    2bb4:	005e0413 	subseq	r0, lr, r3, lsl r4
    2bb8:	04170000 	ldreq	r0, [r7], #-0
    2bbc:	277a2405 	ldrbcs	r2, [sl, -r5, lsl #8]!
    2bc0:	a2180000 	andsge	r0, r8, #0
    2bc4:	01000007 	tsteq	r0, r7
    2bc8:	00086118 	andeq	r6, r8, r8, lsl r1
    2bcc:	3d180200 	lfmcc	f0, 4, [r8, #-0]
    2bd0:	04000006 	streq	r0, [r0], #-6
    2bd4:	0009dd18 	andeq	sp, r9, r8, lsl sp
    2bd8:	d3180800 	tstle	r8, #0
    2bdc:	10000004 	andne	r0, r0, r4
    2be0:	000ef518 	andeq	pc, lr, r8, lsl r5	; <UNPREDICTABLE>
    2be4:	ff182000 			; <UNDEFINED> instruction: 0xff182000
    2be8:	c0000004 	andgt	r0, r0, r4
    2bec:	0e6d1800 	cdpeq	8, 6, cr1, cr13, cr0, {0}
    2bf0:	01800000 	orreq	r0, r0, r0
    2bf4:	000cca18 	andeq	ip, ip, r8, lsl sl
    2bf8:	18028000 	stmdane	r2, {pc}
    2bfc:	0000075f 	andeq	r0, r0, pc, asr r7
    2c00:	3d180480 	cfldrscc	mvf0, [r8, #-512]	; 0xfffffe00
    2c04:	8000000d 	andhi	r0, r0, sp
    2c08:	c4140008 	ldrgt	r0, [r4], #-8
    2c0c:	24000003 	strcs	r0, [r0], #-3
    2c10:	28043505 	stmdacs	r4, {r0, r2, r8, sl, ip, sp}
    2c14:	f0150000 			; <UNDEFINED> instruction: 0xf0150000
    2c18:	0500000e 	streq	r0, [r0, #-14]
    2c1c:	00005337 	andeq	r5, r0, r7, lsr r3
    2c20:	00230200 	eoreq	r0, r3, r0, lsl #4
    2c24:	00726316 	rsbseq	r6, r2, r6, lsl r3
    2c28:	00533905 	subseq	r3, r3, r5, lsl #18
    2c2c:	23020000 	movwcs	r0, #8192	; 0x2000
    2c30:	0ca71504 	cfstr32eq	mvfx1, [r7], #16
    2c34:	3a050000 	bcc	142c3c <__bss_end+0x12faf0>
    2c38:	00000053 	andeq	r0, r0, r3, asr r0
    2c3c:	15082302 	strne	r2, [r8, #-770]	; 0x302
    2c40:	00000d1a 	andeq	r0, r0, sl, lsl sp
    2c44:	00533c05 	subseq	r3, r3, r5, lsl #24
    2c48:	23020000 	movwcs	r0, #8192	; 0x2000
    2c4c:	0e1f150c 	cfmul32eq	mvfx1, mvfx15, mvfx12
    2c50:	3d050000 	stccc	0, cr0, [r5, #-0]
    2c54:	00000053 	andeq	r0, r0, r3, asr r0
    2c58:	15102302 	ldrne	r2, [r0, #-770]	; 0x302
    2c5c:	00000d30 	andeq	r0, r0, r0, lsr sp
    2c60:	00533e05 	subseq	r3, r3, r5, lsl #28
    2c64:	23020000 	movwcs	r0, #8192	; 0x2000
    2c68:	07021514 	smladeq	r2, r4, r5, r1
    2c6c:	41050000 	mrsmi	r0, (UNDEF: 5)
    2c70:	00000053 	andeq	r0, r0, r3, asr r0
    2c74:	15182302 	ldrne	r2, [r8, #-770]	; 0x302
    2c78:	00000f8e 	andeq	r0, r0, lr, lsl #31
    2c7c:	00534405 	subseq	r4, r3, r5, lsl #8
    2c80:	23020000 	movwcs	r0, #8192	; 0x2000
    2c84:	0d99151c 	cfldr32eq	mvfx1, [r9, #112]	; 0x70
    2c88:	45050000 	strmi	r0, [r5, #-0]
    2c8c:	00000053 	andeq	r0, r0, r3, asr r0
    2c90:	00202302 	eoreq	r2, r0, r2, lsl #6
    2c94:	000f7214 	andeq	r7, pc, r4, lsl r2	; <UNPREDICTABLE>
    2c98:	4b05b400 	blmi	16fca0 <__bss_end+0x15cb54>
    2c9c:	000028ad 	andeq	r2, r0, sp, lsr #17
    2ca0:	00099115 	andeq	r9, r9, r5, lsl r1
    2ca4:	ad4c0500 	cfstr64ge	mvdx0, [ip, #-0]
    2ca8:	02000028 	andeq	r0, r0, #40	; 0x28
    2cac:	2e150023 	cdpcs	0, 1, cr0, cr5, cr3, {1}
    2cb0:	05000011 	streq	r0, [r0, #-17]
    2cb4:	0024d74d 	eoreq	sp, r4, sp, asr #14
    2cb8:	04230200 	strteq	r0, [r3], #-512	; 0x200
    2cbc:	000af915 	andeq	pc, sl, r5, lsl r9	; <UNPREDICTABLE>
    2cc0:	534e0500 	movtpl	r0, #58624	; 0xe500
    2cc4:	02000000 	andeq	r0, r0, #0
    2cc8:	ec150823 	ldc	8, cr0, [r5], {35}	; 0x23
    2ccc:	0500000d 	streq	r0, [r0, #-13]
    2cd0:	0000534f 	andeq	r5, r0, pc, asr #6
    2cd4:	0c230200 	sfmeq	f0, 4, [r3], #-0
    2cd8:	0002a615 	andeq	sl, r2, r5, lsl r6
    2cdc:	53500500 	cmppl	r0, #0
    2ce0:	02000000 	andeq	r0, r0, #0
    2ce4:	94151023 	ldrls	r1, [r5], #-35	; 0x23
    2ce8:	05000005 	streq	r0, [r0, #-5]
    2cec:	00005351 	andeq	r5, r0, r1, asr r3
    2cf0:	14230200 	strtne	r0, [r3], #-512	; 0x200
    2cf4:	0002cc15 	andeq	ip, r2, r5, lsl ip
    2cf8:	b5520500 	ldrblt	r0, [r2, #-1280]	; 0x500
    2cfc:	02000028 	andeq	r0, r0, #40	; 0x28
    2d00:	66151823 	ldrvs	r1, [r5], -r3, lsr #16
    2d04:	05000003 	streq	r0, [r0, #-3]
    2d08:	0025ec53 	eoreq	lr, r5, r3, asr ip
    2d0c:	50230200 	eorpl	r0, r3, r0, lsl #4
    2d10:	00085815 	andeq	r5, r8, r5, lsl r8
    2d14:	07540500 	ldrbeq	r0, [r4, -r0, lsl #10]
    2d18:	02000026 	andeq	r0, r0, #38	; 0x26
    2d1c:	65155423 	ldrvs	r5, [r5, #-1059]	; 0x423
    2d20:	0500001e 	streq	r0, [r0, #-30]
    2d24:	0026ca55 	eoreq	ip, r6, r5, asr sl
    2d28:	88230300 	stmdahi	r3!, {r8, r9}
    2d2c:	03be1501 			; <UNDEFINED> instruction: 0x03be1501
    2d30:	56050000 	strpl	r0, [r5], -r0
    2d34:	0000277a 	andeq	r2, r0, sl, ror r7
    2d38:	01902303 	orrseq	r2, r0, r3, lsl #6
    2d3c:	b3041300 	movwlt	r1, #17152	; 0x4300
    2d40:	19000028 	stmdbne	r0, {r3, r5}
    2d44:	00531104 	subseq	r1, r3, r4, lsl #2
    2d48:	28c50000 	stmiacs	r5, {}^	; <UNPREDICTABLE>
    2d4c:	5e120000 	cdppl	0, 1, cr0, cr2, cr0, {0}
    2d50:	0d000000 	stceq	0, cr0, [r0, #-0]
    2d54:	a7011a00 	strge	r1, [r1, -r0, lsl #20]
    2d58:	01000004 	tsteq	r0, r4
    2d5c:	004c012e 	subeq	r0, ip, lr, lsr #2
    2d60:	00cc0000 	sbceq	r0, ip, r0
    2d64:	01b40001 			; <UNDEFINED> instruction: 0x01b40001
    2d68:	00640001 	rsbeq	r0, r4, r1
    2d6c:	011b0000 	tsteq	fp, r0
    2d70:	00000617 	andeq	r0, r0, r7, lsl r6
    2d74:	b4017601 	strlt	r7, [r1], #-1537	; 0x601
    2d78:	e4000101 	str	r0, [r0], #-257	; 0x101
    2d7c:	84000102 	strhi	r0, [r0], #-258	; 0x102
    2d80:	5e000000 	cdppl	0, 0, cr0, cr0, cr0, {0}
    2d84:	1c000029 	stcne	0, cr0, [r0], {41}	; 0x29
    2d88:	00000d36 	andeq	r0, r0, r6, lsr sp
    2d8c:	25e67801 	strbcs	r7, [r6, #2049]!	; 0x801
    2d90:	00a40000 	adceq	r0, r4, r0
    2d94:	1c1c0000 	ldcne	0, cr0, [ip], {-0}
    2d98:	0100000a 	tsteq	r0, sl
    2d9c:	00005e79 	andeq	r5, r0, r9, ror lr
    2da0:	0000cd00 	andeq	ip, r0, r0, lsl #26
    2da4:	029b1d00 	addseq	r1, fp, #0
    2da8:	7a010000 	bvc	42db0 <__bss_end+0x2fc64>
    2dac:	0000005e 	andeq	r0, r0, lr, asr r0
    2db0:	0a491d00 	beq	124a1b8 <__bss_end+0x123706c>
    2db4:	7b010000 	blvc	42dbc <__bss_end+0x2fc70>
    2db8:	0000005e 	andeq	r0, r0, lr, asr r0
    2dbc:	03f81d00 	mvnseq	r1, #0
    2dc0:	7c010000 	stcvc	0, cr0, [r1], {-0}
    2dc4:	0000005e 	andeq	r0, r0, lr, asr r0
    2dc8:	0cac1d00 	stceq	13, cr1, [ip]
    2dcc:	7d010000 	stcvc	0, cr0, [r1, #-0]
    2dd0:	0000005e 	andeq	r0, r0, lr, asr r0
    2dd4:	0cb41d00 	ldceq	13, cr1, [r4]
    2dd8:	7e010000 	cdpvc	0, 0, cr0, cr1, cr0, {0}
    2ddc:	0000005e 	andeq	r0, r0, lr, asr r0
    2de0:	056f1d00 	strbeq	r1, [pc, #-3328]!	; 20e8 <__resume1_start+0x20e8>
    2de4:	7f010000 	svcvc	0x00010000
    2de8:	0000005e 	andeq	r0, r0, lr, asr r0
    2dec:	3c1e0000 	ldccc	0, cr0, [lr], {-0}
    2df0:	01000008 	tsteq	r0, r8
    2df4:	00004c0a 	andeq	r4, r0, sl, lsl #24
    2df8:	08421e00 	stmdaeq	r2, {r9, sl, fp, ip}^
    2dfc:	0a010000 	beq	42e04 <__bss_end+0x2fcb8>
    2e00:	0000004c 	andeq	r0, r0, ip, asr #32
    2e04:	000a621e 	andeq	r6, sl, lr, lsl r2
    2e08:	5e0b0100 	adfple	f0, f3, f0
    2e0c:	1f000000 	svcne	0x00000000
    2e10:	00000dab 	andeq	r0, r0, fp, lsr #27
    2e14:	27240c01 	strcs	r0, [r4, -r1, lsl #24]!
    2e18:	03050000 	movweq	r0, #20480	; 0x5000
    2e1c:	00012d78 	andeq	r2, r1, r8, ror sp
    2e20:	0010071d 	andseq	r0, r0, sp, lsl r7
    2e24:	5e0d0100 	adfple	f0, f5, f0
    2e28:	00000000 	andeq	r0, r0, r0
    2e2c:	000dbb20 	andeq	fp, sp, r0, lsr #22
    2e30:	04060100 	streq	r0, [r6], #-256	; 0x100
    2e34:	01000028 	tsteq	r0, r8, lsr #32
    2e38:	2f800305 	svccs	0x00800305
    2e3c:	d9210001 	stmdble	r1!, {r0}
    2e40:	01000005 	tsteq	r0, r5
    2e44:	0029bb08 	eoreq	fp, r9, r8, lsl #22
    2e48:	13010100 	movwne	r0, #4352	; 0x1100
    2e4c:	0029c104 	eoreq	ip, r9, r4, lsl #2
    2e50:	08010200 	stmdaeq	r1, {r9}
    2e54:	000000da 	ldrdeq	r0, [r0], -sl
    2e58:	00044e21 	andeq	r4, r4, r1, lsr #28
    2e5c:	bb090100 	bllt	243264 <__bss_end+0x230118>
    2e60:	01000029 	tsteq	r0, r9, lsr #32
    2e64:	03680001 	cmneq	r8, #1
    2e68:	00020000 	andeq	r0, r2, r0
    2e6c:	000003aa 	andeq	r0, r0, sl, lsr #7
    2e70:	010d0104 	tsteq	sp, r4, lsl #2
    2e74:	90010000 	andls	r0, r1, r0
    2e78:	42000010 	andmi	r0, r0, #16
    2e7c:	e4000000 	str	r0, [r0], #-0
    2e80:	28000102 	stmdacs	r0, {r1, r8}
    2e84:	ac000106 	stfges	f0, [r0], {6}
    2e88:	02000003 	andeq	r0, r0, #3
    2e8c:	00d30601 	sbcseq	r0, r3, r1, lsl #12
    2e90:	01020000 	mrseq	r0, (UNDEF: 2)
    2e94:	0000d108 	andeq	sp, r0, r8, lsl #2
    2e98:	05020200 	streq	r0, [r2, #-512]	; 0x200
    2e9c:	00000141 	andeq	r0, r0, r1, asr #2
    2ea0:	fa070202 	blx	1c36b0 <__bss_end+0x1b0564>
    2ea4:	03000000 	movweq	r0, #0
    2ea8:	6e690504 	cdpvs	5, 6, cr0, cr9, cr4, {0}
    2eac:	a8040074 	stmdage	r4, {r2, r4, r5, r6}
    2eb0:	03000008 	movweq	r0, #8
    2eb4:	00005313 	andeq	r5, r0, r3, lsl r3
    2eb8:	07040200 	streq	r0, [r4, -r0, lsl #4]
    2ebc:	0000006b 	andeq	r0, r0, fp, rrx
    2ec0:	00050802 	andeq	r0, r5, r2, lsl #16
    2ec4:	02000000 	andeq	r0, r0, #0
    2ec8:	00610708 	rsbeq	r0, r1, r8, lsl #14
    2ecc:	67050000 	strvs	r0, [r5, -r0]
    2ed0:	04000010 	streq	r0, [r0], #-16
    2ed4:	00ca1d02 	sbceq	r1, sl, r2, lsl #26
    2ed8:	57060000 	strpl	r0, [r6, -r0]
    2edc:	02000010 	andeq	r0, r0, #16
    2ee0:	0000481f 	andeq	r4, r0, pc, lsl r8
    2ee4:	18080400 	stmdane	r8, {sl}
    2ee8:	06002302 	streq	r2, [r0], -r2, lsl #6
    2eec:	00000fbe 			; <UNDEFINED> instruction: 0x00000fbe
    2ef0:	00482002 	subeq	r2, r8, r2
    2ef4:	08040000 	stmdaeq	r4, {}	; <UNPREDICTABLE>
    2ef8:	00230210 	eoreq	r0, r3, r0, lsl r2
    2efc:	00105f06 	andseq	r5, r0, r6, lsl #30
    2f00:	48210200 	stmdami	r1!, {r9}
    2f04:	04000000 	streq	r0, [r0], #-0
    2f08:	23020e02 	movwcs	r0, #11778	; 0x2e02
    2f0c:	0fb50600 	svceq	0x00b50600
    2f10:	22020000 	andcs	r0, r2, #0
    2f14:	00000048 	andeq	r0, r0, r8, asr #32
    2f18:	02010d04 	andeq	r0, r1, #256	; 0x100
    2f1c:	c6060023 	strgt	r0, [r6], -r3, lsr #32
    2f20:	0200000f 	andeq	r0, r0, #15
    2f24:	00004823 	andeq	r4, r0, r3, lsr #16
    2f28:	00010400 	andeq	r0, r1, r0, lsl #8
    2f2c:	00002302 	andeq	r2, r0, r2, lsl #6
    2f30:	1b020407 	blne	83f54 <__bss_end+0x70e08>
    2f34:	000000e9 	andeq	r0, r0, r9, ror #1
    2f38:	0002c608 	andeq	ip, r2, r8, lsl #12
    2f3c:	481c0200 	ldmdami	ip, {r9}
    2f40:	08000000 	stmdaeq	r0, {}	; <UNPREDICTABLE>
    2f44:	00000925 	andeq	r0, r0, r5, lsr #18
    2f48:	00682602 	rsbeq	r2, r8, r2, lsl #12
    2f4c:	04000000 	streq	r0, [r0], #-0
    2f50:	00001041 	andeq	r1, r0, r1, asr #32
    2f54:	00ca2702 	sbceq	r2, sl, r2, lsl #14
    2f58:	48090000 	stmdami	r9, {}	; <UNPREDICTABLE>
    2f5c:	02000000 	andeq	r0, r0, #0
    2f60:	00660704 	rsbeq	r0, r6, r4, lsl #14
    2f64:	010a0000 	mrseq	r0, (UNDEF: 10)
    2f68:	00000fa8 	andeq	r0, r0, r8, lsr #31
    2f6c:	e4010b01 	str	r0, [r1], #-2817	; 0xb01
    2f70:	04000102 	streq	r0, [r0], #-258	; 0x102
    2f74:	12000103 	andne	r0, r0, #-1073741824	; 0xc0000000
    2f78:	28000001 	stmdacs	r0, {r0}
    2f7c:	0b000001 	bleq	2f88 <__resume1_start+0x2f88>
    2f80:	00000f93 	muleq	r0, r3, pc	; <UNPREDICTABLE>
    2f84:	00f40e01 	rscseq	r0, r4, r1, lsl #28
    2f88:	91020000 	mrsls	r0, (UNDEF: 2)
    2f8c:	010c0074 	tsteq	ip, r4, ror r0
    2f90:	00001129 	andeq	r1, r0, r9, lsr #2
    2f94:	04011901 	streq	r1, [r1], #-2305	; 0x901
    2f98:	08000103 	stmdaeq	r0, {r0, r1, r8}
    2f9c:	02000103 	andeq	r0, r0, #-1073741824	; 0xc0000000
    2fa0:	010c007d 	tsteq	ip, sp, ror r0
    2fa4:	00000fe1 	andeq	r0, r0, r1, ror #31
    2fa8:	08012901 	stmdaeq	r1, {r0, r8, fp, sp}
    2fac:	0c000103 	stfeqs	f0, [r0], {3}
    2fb0:	02000103 	andeq	r0, r0, #-1073741824	; 0xc0000000
    2fb4:	010c007d 	tsteq	ip, sp, ror r0
    2fb8:	00001102 	andeq	r1, r0, r2, lsl #2
    2fbc:	0c013801 	stceq	8, cr3, [r1], {1}
    2fc0:	30000103 	andcc	r0, r0, r3, lsl #2
    2fc4:	02000103 	andeq	r0, r0, #-1073741824	; 0xc0000000
    2fc8:	010c007d 	tsteq	ip, sp, ror r0
    2fcc:	00001013 	andeq	r1, r0, r3, lsl r0
    2fd0:	30014101 	andcc	r4, r1, r1, lsl #2
    2fd4:	54000103 	strpl	r0, [r0], #-259	; 0x103
    2fd8:	02000103 	andeq	r0, r0, #-1073741824	; 0xc0000000
    2fdc:	010a007d 	tsteq	sl, sp, ror r0
    2fe0:	000010e2 	andeq	r1, r0, r2, ror #1
    2fe4:	54014a01 	strpl	r4, [r1], #-2561	; 0xa01
    2fe8:	e4000103 	str	r0, [r0], #-259	; 0x103
    2fec:	32000103 	andcc	r0, r0, #-1073741824	; 0xc0000000
    2ff0:	9f000001 	svcls	0x00000001
    2ff4:	0d000001 	stceq	0, cr0, [r0, #-4]
    2ff8:	4c010069 	stcmi	0, cr0, [r1], {105}	; 0x69
    2ffc:	00000041 	andeq	r0, r0, r1, asr #32
    3000:	00000152 	andeq	r0, r0, r2, asr r1
    3004:	78010c00 	stmdavc	r1, {sl, fp}
    3008:	01000010 	tsteq	r0, r0, lsl r0
    300c:	03e4015f 	mvneq	r0, #-1073741801	; 0xc0000017
    3010:	03e80001 	mvneq	r0, #1
    3014:	7d020001 	stcvc	0, cr0, [r2, #-4]
    3018:	fe010a00 	cdp2	10, 0, cr0, cr1, cr0, {0}
    301c:	0100000f 	tsteq	r0, pc
    3020:	03e80164 	mvneq	r0, #25
    3024:	04740001 	ldrbteq	r0, [r4], #-1
    3028:	01660001 	cmneq	r6, r1
    302c:	01dc0000 	bicseq	r0, ip, r0
    3030:	760e0000 	strvc	r0, [lr], -r0
    3034:	01006c61 	tsteq	r0, r1, ror #24
    3038:	0000f464 	andeq	pc, r0, r4, ror #8
    303c:	00019200 	andeq	r9, r1, r0, lsl #4
    3040:	010f0000 	mrseq	r0, CPSR
    3044:	000010d3 	ldrdeq	r1, [r0], -r3
    3048:	48017701 	stmdami	r1, {r0, r8, r9, sl, ip, sp, lr}
    304c:	74000000 	strvc	r0, [r0], #-0
    3050:	c0000104 	andgt	r0, r0, r4, lsl #2
    3054:	b1000104 	tstlt	r0, r4, lsl #2
    3058:	09000001 	stmdbeq	r0, {r0}
    305c:	0d000002 	stceq	0, cr0, [r0, #-8]
    3060:	006c6176 	rsbeq	r6, ip, r6, ror r1
    3064:	00417901 	subeq	r7, r1, r1, lsl #18
    3068:	01d10000 	bicseq	r0, r1, r0
    306c:	0a000000 	beq	3074 <__resume1_start+0x3074>
    3070:	00102901 	andseq	r2, r0, r1, lsl #18
    3074:	01860100 	orreq	r0, r6, r0, lsl #2
    3078:	000104c0 	andeq	r0, r1, r0, asr #9
    307c:	00010528 	andeq	r0, r1, r8, lsr #10
    3080:	000001fb 	strdeq	r0, [r0], -fp
    3084:	0000023f 	andeq	r0, r0, pc, lsr r2
    3088:	0100690d 	tsteq	r0, sp, lsl #18
    308c:	00004188 	andeq	r4, r0, r8, lsl #3
    3090:	00021b00 	andeq	r1, r2, r0, lsl #22
    3094:	61760d00 	cmnvs	r6, r0, lsl #26
    3098:	8901006c 	stmdbhi	r1, {r2, r3, r5, r6}
    309c:	00000041 	andeq	r0, r0, r1, asr #32
    30a0:	0000023a 	andeq	r0, r0, sl, lsr r2
    30a4:	bd010a00 	vstrlt	s0, [r1, #-0]
    30a8:	01000010 	tsteq	r0, r0, lsl r0
    30ac:	0528019b 	streq	r0, [r8, #-411]!	; 0x19b
    30b0:	05ac0001 	streq	r0, [ip, #1]!
    30b4:	02640001 	rsbeq	r0, r4, #1
    30b8:	02680000 	rsbeq	r0, r8, #0
    30bc:	760e0000 	strvc	r0, [lr], -r0
    30c0:	01006c61 	tsteq	r0, r1, ror #24
    30c4:	0000f49b 	muleq	r0, fp, r4
    30c8:	00029000 	andeq	r9, r2, r0
    30cc:	010c0000 	mrseq	r0, (UNDEF: 12)
    30d0:	00001088 	andeq	r1, r0, r8, lsl #1
    30d4:	ac01f201 	sfmge	f7, 1, [r1], {1}
    30d8:	c4000105 	strgt	r0, [r0], #-261	; 0x105
    30dc:	02000105 	andeq	r0, r0, #1073741825	; 0x40000001
    30e0:	0110007d 	tsteq	r0, sp, ror r0
    30e4:	00001137 	andeq	r1, r0, r7, lsr r1
    30e8:	c401fa01 	strgt	pc, [r1], #-2561	; 0xa01
    30ec:	dc000105 	stfles	f0, [r0], {5}
    30f0:	02000105 	andeq	r0, r0, #1073741825	; 0x40000001
    30f4:	02a2007d 	adceq	r0, r2, #125	; 0x7d
    30f8:	0e0b0000 	cdpeq	0, 0, cr0, cr11, cr0, {0}
    30fc:	01000010 	tsteq	r0, r0, lsl r0
    3100:	000048fc 	strdeq	r4, [r0], -ip
    3104:	00520100 	subseq	r0, r2, r0, lsl #2
    3108:	111d0111 	tstne	sp, r1, lsl r1
    310c:	06010000 	streq	r0, [r1], -r0
    3110:	05dc0101 	ldrbeq	r0, [ip, #257]	; 0x101
    3114:	05f40001 	ldrbeq	r0, [r4, #1]!
    3118:	7d020001 	stcvc	0, cr0, [r2, #-4]
    311c:	0002ca00 	andeq	ip, r2, r0, lsl #20
    3120:	100e1200 	andne	r1, lr, r0, lsl #4
    3124:	08010000 	stmdaeq	r1, {}	; <UNPREDICTABLE>
    3128:	00004801 	andeq	r4, r0, r1, lsl #16
    312c:	00520100 	subseq	r0, r2, r0, lsl #2
    3130:	10390113 	eorsne	r0, r9, r3, lsl r1
    3134:	15010000 	strne	r0, [r1, #-0]
    3138:	05f40101 	ldrbeq	r0, [r4, #257]!	; 0x101
    313c:	06280001 	strteq	r0, [r8], -r1
    3140:	02af0001 	adceq	r0, pc, #1
    3144:	03050000 	movweq	r0, #20480	; 0x5000
    3148:	6e140000 	cdpvs	0, 1, cr0, cr4, cr0, {0}
    314c:	01006d75 	tsteq	r0, r5, ror sp
    3150:	00410115 	subeq	r0, r1, r5, lsl r1
    3154:	02cf0000 	sbceq	r0, pc, #0
    3158:	0e150000 	cdpeq	0, 1, cr0, cr5, cr0, {0}
    315c:	01000010 	tsteq	r0, r0, lsl r0
    3160:	00480117 	subeq	r0, r8, r7, lsl r1
    3164:	02e20000 	rsceq	r0, r2, #0
    3168:	0b000000 	bleq	3170 <__resume1_start+0x3170>
    316c:	00000f9d 	muleq	r0, sp, pc	; <UNPREDICTABLE>
    3170:	03163401 	tsteq	r6, #16777216	; 0x1000000
    3174:	03050000 	movweq	r0, #20480	; 0x5000
    3178:	00012d7c 	andeq	r2, r1, ip, ror sp
    317c:	031c0416 	tsteq	ip, #369098752	; 0x16000000
    3180:	e9090000 	stmdb	r9, {}	; <UNPREDICTABLE>
    3184:	0b000000 	bleq	318c <__resume1_start+0x318c>
    3188:	000010f3 	strdeq	r1, [r0], -r3
    318c:	00e93501 	rsceq	r3, r9, r1, lsl #10
    3190:	03050000 	movweq	r0, #20480	; 0x5000
    3194:	00012d84 	andeq	r2, r1, r4, lsl #27
    3198:	000ff00b 	andeq	pc, pc, fp
    319c:	16360100 	ldrtne	r0, [r6], -r0, lsl #2
    31a0:	05000003 	streq	r0, [r0, #-3]
    31a4:	012d8003 	teqeq	sp, r3
    31a8:	0fcf0b00 	svceq	0x00cf0b00
    31ac:	37010000 	strcc	r0, [r1, -r0]
    31b0:	000000e9 	andeq	r0, r0, r9, ror #1
    31b4:	2d880305 	stccs	3, cr0, [r8, #20]
    31b8:	12170001 	andsne	r0, r7, #1
    31bc:	01000011 	tsteq	r0, r1, lsl r0
    31c0:	00036609 	andeq	r6, r3, r9, lsl #12
    31c4:	03050100 	movweq	r0, #20736	; 0x5100
    31c8:	00012d8c 	andeq	r2, r1, ip, lsl #27
    31cc:	00004109 	andeq	r4, r0, r9, lsl #2
    31d0:	046d0000 	strbteq	r0, [sp], #-0
    31d4:	00020000 	andeq	r0, r2, r0
    31d8:	00000524 	andeq	r0, r0, r4, lsr #10
    31dc:	010d0104 	tsteq	sp, r4, lsl #2
    31e0:	44010000 	strmi	r0, [r1], #-0
    31e4:	42000011 	andmi	r0, r0, #17
    31e8:	28000000 	stmdacs	r0, {}	; <UNPREDICTABLE>
    31ec:	e4000106 	str	r0, [r0], #-262	; 0x106
    31f0:	d4000107 	strle	r0, [r0], #-263	; 0x107
    31f4:	02000004 	andeq	r0, r0, #4
    31f8:	00d30601 	sbcseq	r0, r3, r1, lsl #12
    31fc:	01020000 	mrseq	r0, (UNDEF: 2)
    3200:	0000d108 	andeq	sp, r0, r8, lsl #2
    3204:	05020200 	streq	r0, [r2, #-512]	; 0x200
    3208:	00000141 	andeq	r0, r0, r1, asr #2
    320c:	fa070202 	blx	1c3a1c <__bss_end+0x1b08d0>
    3210:	03000000 	movweq	r0, #0
    3214:	000011f4 	strdeq	r1, [r0], -r4
    3218:	004c1202 	subeq	r1, ip, r2, lsl #4
    321c:	04040000 	streq	r0, [r4], #-0
    3220:	746e6905 	strbtvc	r6, [lr], #-2309	; 0x905
    3224:	08a80300 	stmiaeq	r8!, {r8, r9}
    3228:	13020000 	movwne	r0, #8192	; 0x2000
    322c:	0000005e 	andeq	r0, r0, lr, asr r0
    3230:	6b070402 	blvs	1c4240 <__bss_end+0x1b10f4>
    3234:	02000000 	andeq	r0, r0, #0
    3238:	00000508 	andeq	r0, r0, r8, lsl #10
    323c:	08020000 	stmdaeq	r2, {}	; <UNPREDICTABLE>
    3240:	00006107 	andeq	r6, r0, r7, lsl #2
    3244:	12f50500 	rscsne	r0, r5, #0
    3248:	03040000 	movweq	r0, #16384	; 0x4000
    324c:	00009814 	andeq	r9, r0, r4, lsl r8
    3250:	11730600 	cmnne	r3, r0, lsl #12
    3254:	06010000 	streq	r0, [r1], -r0
    3258:	000011a9 	andeq	r1, r0, r9, lsr #3
    325c:	129a0602 	addsne	r0, sl, #2097152	; 0x200000
    3260:	06030000 	streq	r0, [r3], -r0
    3264:	000012a7 	andeq	r1, r0, r7, lsr #5
    3268:	04020005 	streq	r0, [r2], #-5
    326c:	00006607 	andeq	r6, r0, r7, lsl #12
    3270:	51010700 	tstpl	r1, r0, lsl #14
    3274:	01000012 	tsteq	r0, r2, lsl r0
    3278:	0053013e 	subseq	r0, r3, lr, lsr r1
    327c:	bd010000 	stclt	0, cr0, [r1, #-0]
    3280:	08000000 	stmdaeq	r0, {}	; <UNPREDICTABLE>
    3284:	00001548 	andeq	r1, r0, r8, asr #10
    3288:	00534001 	subseq	r4, r3, r1
    328c:	09000000 	stmdbeq	r0, {}	; <UNPREDICTABLE>
    3290:	00120101 	andseq	r0, r2, r1, lsl #2
    3294:	010b0100 	mrseq	r0, (UNDEF: 27)
    3298:	0000ed01 	andeq	lr, r0, r1, lsl #26
    329c:	12650a00 	rsbne	r0, r5, #0
    32a0:	0b010000 	bleq	432a8 <__bss_end+0x3015c>
    32a4:	00000053 	andeq	r0, r0, r3, asr r0
    32a8:	0012260a 	andseq	r2, r2, sl, lsl #12
    32ac:	530b0100 	movwpl	r0, #45312	; 0xb100
    32b0:	08000000 	stmdaeq	r0, {}	; <UNPREDICTABLE>
    32b4:	00001548 	andeq	r1, r0, r8, asr #10
    32b8:	00530e01 	subseq	r0, r3, r1, lsl #28
    32bc:	0b000000 	bleq	32c4 <__resume1_start+0x32c4>
    32c0:	00001286 	andeq	r1, r0, r6, lsl #5
    32c4:	5301a901 	movwpl	sl, #6401	; 0x1901
    32c8:	01000000 	mrseq	r0, (UNDEF: 0)
    32cc:	00000115 	andeq	r0, r0, r5, lsl r1
    32d0:	0012600a 	andseq	r6, r2, sl
    32d4:	73a90100 			; <UNDEFINED> instruction: 0x73a90100
    32d8:	08000000 	stmdaeq	r0, {}	; <UNPREDICTABLE>
    32dc:	0000126e 	andeq	r1, r0, lr, ror #4
    32e0:	004cab01 	subeq	sl, ip, r1, lsl #22
    32e4:	0c000000 	stceq	0, cr0, [r0], {-0}
    32e8:	000000bd 	strheq	r0, [r0], -sp
    32ec:	00010628 	andeq	r0, r1, r8, lsr #12
    32f0:	00010654 	andeq	r0, r1, r4, asr r6
    32f4:	43007d02 	movwmi	r7, #3330	; 0xd02
    32f8:	0d000001 	stceq	0, cr0, [r0, #-4]
    32fc:	000000cb 	andeq	r0, r0, fp, asr #1
    3300:	00000300 	andeq	r0, r0, r0, lsl #6
    3304:	0000d60e 	andeq	sp, r0, lr, lsl #12
    3308:	0f510100 	svceq	0x00510100
    330c:	000000e1 	andeq	r0, r0, r1, ror #1
    3310:	00000313 	andeq	r0, r0, r3, lsl r3
    3314:	d8011000 	stmdale	r1, {ip}
    3318:	01000011 	tsteq	r0, r1, lsl r0
    331c:	06540129 	ldrbeq	r0, [r4], -r9, lsr #2
    3320:	06700001 	ldrbteq	r0, [r0], -r1
    3324:	7d020001 	stcvc	0, cr0, [r2, #-4]
    3328:	cf011000 	svcgt	0x00011000
    332c:	01000012 	tsteq	r0, r2, lsl r0
    3330:	06700133 			; <UNDEFINED> instruction: 0x06700133
    3334:	06940001 	ldreq	r0, [r4], r1
    3338:	7d020001 	stcvc	0, cr0, [r2, #-4]
    333c:	009f0c00 	addseq	r0, pc, r0, lsl #24
    3340:	06940000 	ldreq	r0, [r4], r0
    3344:	069c0001 	ldreq	r0, [ip], r1
    3348:	7d020001 	stcvc	0, cr0, [r2, #-4]
    334c:	00018700 	andeq	r8, r1, r0, lsl #14
    3350:	00b11100 	adcseq	r1, r1, r0, lsl #2
    3354:	50010000 	andpl	r0, r1, r0
    3358:	ca011200 	bgt	47b60 <__bss_end+0x34a14>
    335c:	01000011 	tsteq	r0, r1, lsl r0
    3360:	069c0146 	ldreq	r0, [ip], r6, asr #2
    3364:	06ac0001 	strteq	r0, [ip], r1
    3368:	7d020001 	stcvc	0, cr0, [r2, #-4]
    336c:	0001af00 	andeq	sl, r1, r0, lsl #30
    3370:	15481300 	strbne	r1, [r8, #-768]	; 0x300
    3374:	48010000 	stmdami	r1, {}	; <UNPREDICTABLE>
    3378:	00000053 	andeq	r0, r0, r3, asr r0
    337c:	0000035c 	andeq	r0, r0, ip, asr r3
    3380:	35011400 	strcc	r1, [r1, #-1024]	; 0x400
    3384:	01000012 	tsteq	r0, r2, lsl r0
    3388:	06ac0151 	ssateq	r0, #13, r1, asr #2
    338c:	06d40001 	ldrbeq	r0, [r4], r1
    3390:	038a0001 	orreq	r0, sl, #1
    3394:	02220000 	eoreq	r0, r2, #0
    3398:	df130000 	svcle	0x00130000
    339c:	01000005 	tsteq	r0, r5
    33a0:	00005353 	andeq	r5, r0, r3, asr r3
    33a4:	0003aa00 	andeq	sl, r3, r0, lsl #20
    33a8:	009f1500 	addseq	r1, pc, r0, lsl #10
    33ac:	06b00000 	ldrteq	r0, [r0], r0
    33b0:	06b40001 	ldrteq	r0, [r4], r1
    33b4:	58010001 	stmdapl	r1, {r0}
    33b8:	000001fe 	strdeq	r0, [r0], -lr
    33bc:	0106b016 	tsteq	r6, r6, lsl r0
    33c0:	0106b400 	tsteq	r6, r0, lsl #8
    33c4:	00b10f00 	adcseq	r0, r1, r0, lsl #30
    33c8:	03be0000 			; <UNDEFINED> instruction: 0x03be0000
    33cc:	00000000 	andeq	r0, r0, r0
    33d0:	00009f17 	andeq	r9, r0, r7, lsl pc
    33d4:	0106b400 	tsteq	r6, r0, lsl #8
    33d8:	0106b800 	tsteq	r6, r0, lsl #16
    33dc:	16590100 	ldrbne	r0, [r9], -r0, lsl #2
    33e0:	000106b4 			; <UNDEFINED> instruction: 0x000106b4
    33e4:	000106b8 			; <UNDEFINED> instruction: 0x000106b8
    33e8:	0000b10f 	andeq	fp, r0, pc, lsl #2
    33ec:	0003d100 	andeq	sp, r3, r0, lsl #2
    33f0:	00000000 	andeq	r0, r0, r0
    33f4:	11eb0114 	mvnne	r0, r4, lsl r1
    33f8:	61010000 	mrsvs	r0, (UNDEF: 1)
    33fc:	0106d401 	tsteq	r6, r1, lsl #8
    3400:	01075400 	tsteq	r7, r0, lsl #8
    3404:	0003e400 	andeq	lr, r3, r0, lsl #8
    3408:	00031200 	andeq	r1, r3, r0, lsl #4
    340c:	73751800 	cmnvc	r5, #0
    3410:	53610100 	cmnpl	r1, #0
    3414:	04000000 	streq	r0, [r0], #-0
    3418:	13000004 	movwne	r0, #4
    341c:	000011fa 	strdeq	r1, [r0], -sl
    3420:	00536301 	subseq	r6, r3, r1, lsl #6
    3424:	042d0000 	strteq	r0, [sp], #-0
    3428:	63190000 	tstvs	r9, #0
    342c:	01007275 	tsteq	r0, r5, ror r2
    3430:	00005364 	andeq	r5, r0, r4, ror #6
    3434:	00045d00 	andeq	r5, r4, r0, lsl #26
    3438:	11c31300 	bicne	r1, r3, r0, lsl #6
    343c:	65010000 	strvs	r0, [r1, #-0]
    3440:	00000053 	andeq	r0, r0, r3, asr r0
    3444:	00000493 	muleq	r0, r3, r4
    3448:	0011b413 	andseq	fp, r1, r3, lsl r4
    344c:	53660100 	cmnpl	r6, #0
    3450:	be000000 	cdplt	0, 0, cr0, cr0, cr0, {0}
    3454:	1a000004 	bne	346c <__resume1_start+0x346c>
    3458:	0074756f 	rsbseq	r7, r4, pc, ror #10
    345c:	06ec9a01 	strbteq	r9, [ip], r1, lsl #20
    3460:	9f150001 	svcls	0x00150001
    3464:	00000000 	andeq	r0, r0, r0
    3468:	04000107 	streq	r0, [r0], #-263	; 0x107
    346c:	01000107 	tsteq	r0, r7, lsl #2
    3470:	0002b571 	andeq	fp, r2, r1, ror r5
    3474:	07001600 	streq	r1, [r0, -r0, lsl #12]
    3478:	07040001 	streq	r0, [r4, -r1]
    347c:	b1110001 	tstlt	r1, r1
    3480:	01000000 	mrseq	r0, (UNDEF: 0)
    3484:	15000053 	strne	r0, [r0, #-83]	; 0x53
    3488:	000000bd 	strheq	r0, [r0], -sp
    348c:	00010724 	andeq	r0, r1, r4, lsr #14
    3490:	0001073c 	andeq	r0, r1, ip, lsr r7
    3494:	02ee7701 	rsceq	r7, lr, #262144	; 0x40000
    3498:	d60d0000 	strle	r0, [sp], -r0
    349c:	e9000000 	stmdb	r0, {}	; <UNPREDICTABLE>
    34a0:	0d000004 	stceq	0, cr0, [r0, #-16]
    34a4:	000000cb 	andeq	r0, r0, fp, asr #1
    34a8:	000004fd 	strdeq	r0, [r0], -sp
    34ac:	01072416 	tsteq	r7, r6, lsl r4
    34b0:	01073c00 	tsteq	r7, r0, lsl #24
    34b4:	00e10f00 	rsceq	r0, r1, r0, lsl #30
    34b8:	05110000 	ldreq	r0, [r1, #-0]
    34bc:	00000000 	andeq	r0, r0, r0
    34c0:	00009f17 	andeq	r9, r0, r7, lsl pc
    34c4:	01073c00 	tsteq	r7, r0, lsl #24
    34c8:	01074000 	mrseq	r4, (UNDEF: 7)
    34cc:	167b0100 	ldrbtne	r0, [fp], -r0, lsl #2
    34d0:	0001073c 	andeq	r0, r1, ip, lsr r7
    34d4:	00010740 	andeq	r0, r1, r0, asr #14
    34d8:	0000b10f 	andeq	fp, r0, pc, lsl #2
    34dc:	00053500 	andeq	r3, r5, r0, lsl #10
    34e0:	00000000 	andeq	r0, r0, r0
    34e4:	059c0112 	ldreq	r0, [ip, #274]	; 0x112
    34e8:	a1010000 	mrsge	r0, (UNDEF: 1)
    34ec:	01075401 	tsteq	r7, r1, lsl #8
    34f0:	01076000 	mrseq	r6, (UNDEF: 7)
    34f4:	007d0200 	rsbseq	r0, sp, r0, lsl #4
    34f8:	00000339 	andeq	r0, r0, r9, lsr r3
    34fc:	00736d18 	rsbseq	r6, r3, r8, lsl sp
    3500:	0053a101 	subseq	sl, r3, r1, lsl #2
    3504:	05480000 	strbeq	r0, [r8, #-0]
    3508:	12000000 	andne	r0, r0, #0
    350c:	00121301 	andseq	r1, r2, r1, lsl #6
    3510:	01c30100 	biceq	r0, r3, r0, lsl #2
    3514:	00010760 	andeq	r0, r1, r0, ror #14
    3518:	0001078c 	andeq	r0, r1, ip, lsl #15
    351c:	7d007d02 	stcvc	13, cr7, [r0, #-8]
    3520:	1b000003 	blne	3534 <__resume1_start+0x3534>
    3524:	00001265 	andeq	r1, r0, r5, ror #4
    3528:	0053c301 	subseq	ip, r3, r1, lsl #6
    352c:	055b0000 	ldrbeq	r0, [fp, #-0]
    3530:	261c0000 	ldrcs	r0, [ip], -r0
    3534:	01000012 	tsteq	r0, r2, lsl r0
    3538:	000053c3 	andeq	r5, r0, r3, asr #7
    353c:	13510100 	cmpne	r1, #0
    3540:	00001548 	andeq	r1, r0, r8, asr #10
    3544:	0053c601 	subseq	ip, r3, r1, lsl #12
    3548:	056e0000 	strbeq	r0, [lr, #-0]!
    354c:	12000000 	andne	r0, r0, #0
    3550:	00127401 	andseq	r7, r2, r1, lsl #8
    3554:	01e10100 	mvneq	r0, r0, lsl #2
    3558:	0001078c 	andeq	r0, r1, ip, lsl #15
    355c:	000107b8 			; <UNDEFINED> instruction: 0x000107b8
    3560:	c9007d02 	stmdbgt	r0, {r1, r8, sl, fp, ip, sp, lr}
    3564:	1c000003 	stcne	0, cr0, [r0], {3}
    3568:	00001260 	andeq	r1, r0, r0, ror #4
    356c:	0073e101 	rsbseq	lr, r3, r1, lsl #2
    3570:	50010000 	andpl	r0, r1, r0
    3574:	00126e13 	andseq	r6, r2, r3, lsl lr
    3578:	53e40100 	mvnpl	r0, #0
    357c:	b7000000 	strlt	r0, [r0, -r0]
    3580:	17000005 	strne	r0, [r0, -r5]
    3584:	000000ed 	andeq	r0, r0, sp, ror #1
    3588:	0001078c 	andeq	r0, r1, ip, lsl #15
    358c:	000107a0 	andeq	r0, r1, r0, lsr #15
    3590:	fe0ee501 	cdp2	5, 0, cr14, cr14, cr1, {0}
    3594:	01000000 	mrseq	r0, (UNDEF: 0)
    3598:	1d000050 	stcne	0, cr0, [r0, #-320]	; 0xfffffec0
    359c:	0012e301 	andseq	lr, r2, r1, lsl #6
    35a0:	01f40100 	mvnseq	r0, r0, lsl #2
    35a4:	0000004c 	andeq	r0, r0, ip, asr #32
    35a8:	000107b8 			; <UNDEFINED> instruction: 0x000107b8
    35ac:	000107e4 	andeq	r0, r1, r4, ror #15
    35b0:	2c007d02 	stccs	13, cr7, [r0], {2}
    35b4:	1b000004 	blne	35cc <__resume1_start+0x35cc>
    35b8:	00001260 	andeq	r1, r0, r0, ror #4
    35bc:	0073f401 	rsbseq	pc, r3, r1, lsl #8
    35c0:	05cb0000 	strbeq	r0, [fp]
    35c4:	6e130000 	cdpvs	0, 1, cr0, cr3, cr0, {0}
    35c8:	01000012 	tsteq	r0, r2, lsl r0
    35cc:	00004cf6 	strdeq	r4, [r0], -r6
    35d0:	0005eb00 	andeq	lr, r5, r0, lsl #22
    35d4:	11801300 	orrne	r1, r0, r0, lsl #6
    35d8:	f7010000 			; <UNDEFINED> instruction: 0xf7010000
    35dc:	0000004c 	andeq	r0, r0, ip, asr #32
    35e0:	0000060a 	andeq	r0, r0, sl, lsl #12
    35e4:	0000ed17 	andeq	lr, r0, r7, lsl sp
    35e8:	0107b800 	tsteq	r7, r0, lsl #16
    35ec:	0107cc00 	tsteq	r7, r0, lsl #24
    35f0:	0df80100 	ldfeqe	f0, [r8]
    35f4:	000000fe 	strdeq	r0, [r0], -lr
    35f8:	00000629 	andeq	r0, r0, r9, lsr #12
    35fc:	0f1e0000 	svceq	0x001e0000
    3600:	0100001e 	tsteq	r0, lr, lsl r0
    3604:	00005304 	andeq	r5, r0, r4, lsl #6
    3608:	9c030500 	cfstr32ls	mvfx0, [r3], {-0}
    360c:	1e00012d 	adfnesp	f0, f0, #5.0
    3610:	00001248 	andeq	r1, r0, r8, asr #4
    3614:	00530501 	subseq	r0, r3, r1, lsl #10
    3618:	03050000 	movweq	r0, #20480	; 0x5000
    361c:	00012d98 	muleq	r1, r8, sp
    3620:	0012b21e 	andseq	fp, r2, lr, lsl r2
    3624:	53060100 	movwpl	r0, #24832	; 0x6100
    3628:	05000000 	streq	r0, [r0, #-0]
    362c:	012d9003 	teqeq	sp, r3
    3630:	118a1e00 	orrne	r1, sl, r0, lsl #28
    3634:	07010000 	streq	r0, [r1, -r0]
    3638:	00000053 	andeq	r0, r0, r3, asr r0
    363c:	2d940305 	ldccs	3, cr0, [r4, #20]
    3640:	44000001 	strmi	r0, [r0], #-1
    3644:	02000001 	andeq	r0, r0, #1
    3648:	0006e700 	andeq	lr, r6, r0, lsl #14
    364c:	0d010400 	cfstrseq	mvf0, [r1, #-0]
    3650:	01000001 	tsteq	r0, r1
    3654:	00001304 	andeq	r1, r0, r4, lsl #6
    3658:	00000042 	andeq	r0, r0, r2, asr #32
    365c:	00010800 	andeq	r0, r1, r0, lsl #16
    3660:	000108a0 	andeq	r0, r1, r0, lsr #17
    3664:	000005d7 	ldrdeq	r0, [r0], -r7
    3668:	69050402 	stmdbvs	r5, {r1, sl}
    366c:	0300746e 	movweq	r7, #1134	; 0x46e
    3670:	00660704 	rsbeq	r0, r6, r4, lsl #14
    3674:	04030000 	streq	r0, [r3], #-0
    3678:	00006b07 	andeq	r6, r0, r7, lsl #22
    367c:	08010300 	stmdaeq	r1, {r8, r9}
    3680:	000000d1 	ldrdeq	r0, [r0], -r1
    3684:	d3060103 	movwle	r0, #24835	; 0x6103
    3688:	03000000 	movweq	r0, #0
    368c:	01410502 	cmpeq	r1, r2, lsl #10
    3690:	02030000 	andeq	r0, r3, #0
    3694:	0000fa07 	andeq	pc, r0, r7, lsl #20
    3698:	08a80400 	stmiaeq	r8!, {sl}
    369c:	13030000 	movwne	r0, #12288	; 0x3000
    36a0:	00000033 	andeq	r0, r0, r3, lsr r0
    36a4:	00050803 	andeq	r0, r5, r3, lsl #16
    36a8:	03000000 	movweq	r0, #0
    36ac:	00610708 	rsbeq	r0, r1, r8, lsl #14
    36b0:	c4050000 	strgt	r0, [r5], #-0
    36b4:	24000003 	strcs	r0, [r0], #-3
    36b8:	00f93502 	rscseq	r3, r9, r2, lsl #10
    36bc:	f0060000 			; <UNDEFINED> instruction: 0xf0060000
    36c0:	0200000e 	andeq	r0, r0, #14
    36c4:	00005637 	andeq	r5, r0, r7, lsr r6
    36c8:	00230200 	eoreq	r0, r3, r0, lsl #4
    36cc:	00726307 	rsbseq	r6, r2, r7, lsl #6
    36d0:	00563902 	subseq	r3, r6, r2, lsl #18
    36d4:	23020000 	movwcs	r0, #8192	; 0x2000
    36d8:	0ca70604 	stceq	6, cr0, [r7], #16
    36dc:	3a020000 	bcc	836e4 <__bss_end+0x70598>
    36e0:	00000056 	andeq	r0, r0, r6, asr r0
    36e4:	06082302 	streq	r2, [r8], -r2, lsl #6
    36e8:	00000d1a 	andeq	r0, r0, sl, lsl sp
    36ec:	00563c02 	subseq	r3, r6, r2, lsl #24
    36f0:	23020000 	movwcs	r0, #8192	; 0x2000
    36f4:	0e1f060c 	cfmsub32eq	mvax0, mvfx0, mvfx15, mvfx12
    36f8:	3d020000 	stccc	0, cr0, [r2, #-0]
    36fc:	00000056 	andeq	r0, r0, r6, asr r0
    3700:	06102302 	ldreq	r2, [r0], -r2, lsl #6
    3704:	00000d30 	andeq	r0, r0, r0, lsr sp
    3708:	00563e02 	subseq	r3, r6, r2, lsl #28
    370c:	23020000 	movwcs	r0, #8192	; 0x2000
    3710:	07020614 	smladeq	r2, r4, r6, r0
    3714:	41020000 	mrsmi	r0, (UNDEF: 2)
    3718:	00000056 	andeq	r0, r0, r6, asr r0
    371c:	06182302 	ldreq	r2, [r8], -r2, lsl #6
    3720:	00000f8e 	andeq	r0, r0, lr, lsl #31
    3724:	00564402 	subseq	r4, r6, r2, lsl #8
    3728:	23020000 	movwcs	r0, #8192	; 0x2000
    372c:	0d99061c 	ldceq	6, cr0, [r9, #112]	; 0x70
    3730:	45020000 	strmi	r0, [r2, #-0]
    3734:	00000056 	andeq	r0, r0, r6, asr r0
    3738:	00202302 	eoreq	r2, r0, r2, lsl #6
    373c:	13450108 	movtne	r0, #20744	; 0x5108
    3740:	07010000 	streq	r0, [r1, -r0]
    3744:	01080001 	tsteq	r8, r1
    3748:	01083c00 	tsteq	r8, r0, lsl #24
    374c:	007d0200 	rsbseq	r0, sp, r0, lsl #4
    3750:	0000011f 	andeq	r0, r0, pc, lsl r1
    3754:	0003be09 	andeq	fp, r3, r9, lsl #28
    3758:	1f070100 	svcne	0x00070100
    375c:	01000001 	tsteq	r0, r1
    3760:	040a0050 	streq	r0, [sl], #-80	; 0x50
    3764:	0000006f 	andeq	r0, r0, pc, rrx
    3768:	1333010b 	teqne	r3, #-1073741822	; 0xc0000002
    376c:	1e010000 	cdpne	0, 0, cr0, cr1, cr0, {0}
    3770:	01083c01 	tsteq	r8, r1, lsl #24
    3774:	0108a000 	mrseq	sl, (UNDEF: 8)
    3778:	007d0200 	rsbseq	r0, sp, r0, lsl #4
    377c:	0003be09 	andeq	fp, r3, r9, lsl #28
    3780:	1f1e0100 	svcne	0x001e0100
    3784:	01000001 	tsteq	r0, r1
    3788:	74000050 	strvc	r0, [r0], #-80	; 0x50
    378c:	02000000 	andeq	r0, r0, #0
    3790:	00078f00 	andeq	r8, r7, r0, lsl #30
    3794:	87010400 	strhi	r0, [r1, -r0, lsl #8]
    3798:	a0000006 	andge	r0, r0, r6
    379c:	c8000108 	stmdagt	r0, {r3, r8}
    37a0:	6100010d 	tstvs	r0, sp, lsl #2
    37a4:	2f686372 	svccs	0x00686372
    37a8:	2f6d7261 	svccs	0x006d7261
    37ac:	6863616d 	stmdavs	r3!, {r0, r2, r3, r5, r6, r8, sp, lr}^
    37b0:	6e75732d 	cdpvs	3, 7, cr7, cr5, cr13, {1}
    37b4:	702f6978 	eorvc	r6, pc, r8, ror r9	; <UNPREDICTABLE>
    37b8:	74732f6d 	ldrbtvc	r2, [r3], #-3949	; 0xf6d
    37bc:	62646e61 	rsbvs	r6, r4, #1552	; 0x610
    37c0:	2e2e2f79 	mcrcs	15, 1, r2, cr14, cr9, {3}
    37c4:	6d656d2f 	stclvs	13, cr6, [r5, #-188]!	; 0xffffff44
    37c8:	756d6d5f 	strbvc	r6, [sp, #-3423]!	; 0xd5f
    37cc:	5f63705f 	svcpl	0x0063705f
    37d0:	2e6d7361 	cdpcs	3, 6, cr7, cr13, cr1, {3}
    37d4:	772f0053 			; <UNDEFINED> instruction: 0x772f0053
    37d8:	2f6b726f 	svccs	0x006b726f
    37dc:	2f6b6473 	svccs	0x006b6473
    37e0:	2f303861 	svccs	0x00303861
    37e4:	68746967 	ldmdavs	r4!, {r0, r1, r2, r5, r6, r8, fp, sp, lr}^
    37e8:	6c2f6275 	sfmvs	f6, 4, [pc], #-468	; 361c <__resume1_start+0x361c>
    37ec:	78756e69 	ldmdavc	r5!, {r0, r3, r5, r6, r9, sl, fp, sp, lr}^
    37f0:	342e332d 	strtcc	r3, [lr], #-813	; 0x32d
    37f4:	554e4700 	strbpl	r4, [lr, #-1792]	; 0x700
    37f8:	20534120 	subscs	r4, r3, r0, lsr #2
    37fc:	32322e32 	eorscc	r2, r2, #800	; 0x320
    3800:	1c800100 	stfnes	f0, [r0], {0}
    3804:	02000005 	andeq	r0, r0, #5
    3808:	0007a300 	andeq	sl, r7, r0, lsl #6
    380c:	0d010400 	cfstrseq	mvf0, [r1, #-0]
    3810:	01000001 	tsteq	r0, r1
    3814:	000014a2 	andeq	r1, r0, r2, lsr #9
    3818:	00000042 	andeq	r0, r0, r2, asr #32
    381c:	00010de0 	andeq	r0, r1, r0, ror #27
    3820:	000110bc 	strheq	r1, [r1], -ip
    3824:	00000836 	andeq	r0, r0, r6, lsr r8
    3828:	d3060102 	movwle	r0, #24834	; 0x6102
    382c:	02000000 	andeq	r0, r0, #0
    3830:	00d10801 	sbcseq	r0, r1, r1, lsl #16
    3834:	02020000 	andeq	r0, r2, #0
    3838:	00014105 	andeq	r4, r1, r5, lsl #2
    383c:	07020200 	streq	r0, [r2, -r0, lsl #4]
    3840:	000000fa 	strdeq	r0, [r0], -sl
    3844:	69050403 	stmdbvs	r5, {r0, r1, sl}
    3848:	0400746e 	streq	r7, [r0], #-1134	; 0x46e
    384c:	000008a8 	andeq	r0, r0, r8, lsr #17
    3850:	00531303 	subseq	r1, r3, r3, lsl #6
    3854:	04020000 	streq	r0, [r2], #-0
    3858:	00006b07 	andeq	r6, r0, r7, lsl #22
    385c:	05080200 	streq	r0, [r8, #-512]	; 0x200
    3860:	00000000 	andeq	r0, r0, r0
    3864:	61070802 	tstvs	r7, r2, lsl #16
    3868:	05000000 	streq	r0, [r0, #-0]
    386c:	00001468 	andeq	r1, r0, r8, ror #8
    3870:	ac1202a0 	lfmge	f0, 4, [r2], {160}	; 0xa0
    3874:	06000002 	streq	r0, [r0], -r2
    3878:	00000ef0 	strdeq	r0, [r0], -r0	; <UNPREDICTABLE>
    387c:	00481702 	subeq	r1, r8, r2, lsl #14
    3880:	23020000 	movwcs	r0, #8192	; 0x2000
    3884:	72630700 	rsbvc	r0, r3, #0
    3888:	48270200 	stmdami	r7!, {r9}
    388c:	02000000 	andeq	r0, r0, #0
    3890:	61070423 	tstvs	r7, r3, lsr #8
    3894:	02007263 	andeq	r7, r0, #805306374	; 0x30000006
    3898:	00004828 	andeq	r4, r0, r8, lsr #16
    389c:	08230200 	stmdaeq	r3!, {r9}
    38a0:	000ca706 	andeq	sl, ip, r6, lsl #14
    38a4:	48290200 	stmdami	r9!, {r9}
    38a8:	02000000 	andeq	r0, r0, #0
    38ac:	61060c23 	tstvs	r6, r3, lsr #24
    38b0:	02000013 	andeq	r0, r0, #19
    38b4:	0000482a 	andeq	r4, r0, sl, lsr #16
    38b8:	10230200 	eorne	r0, r3, r0, lsl #4
    38bc:	0013a306 	andseq	sl, r3, r6, lsl #6
    38c0:	482b0200 	stmdami	fp!, {r9}
    38c4:	02000000 	andeq	r0, r0, #0
    38c8:	7e061423 	cdpvc	4, 0, cr1, cr6, cr3, {1}
    38cc:	02000014 	andeq	r0, r0, #20
    38d0:	0000482c 	andeq	r4, r0, ip, lsr #16
    38d4:	18230200 	stmdane	r3!, {r9}
    38d8:	000d1a06 	andeq	r1, sp, r6, lsl #20
    38dc:	48300200 	ldmdami	r0!, {r9}
    38e0:	02000000 	andeq	r0, r0, #0
    38e4:	1f061c23 	svcne	0x00061c23
    38e8:	0200000e 	andeq	r0, r0, #14
    38ec:	00004831 	andeq	r4, r0, r1, lsr r8
    38f0:	20230200 	eorcs	r0, r3, r0, lsl #4
    38f4:	000d3006 	andeq	r3, sp, r6
    38f8:	48320200 	ldmdami	r2!, {r9}
    38fc:	02000000 	andeq	r0, r0, #0
    3900:	02062423 	andeq	r2, r6, #587202560	; 0x23000000
    3904:	02000007 	andeq	r0, r0, #7
    3908:	00004834 	andeq	r4, r0, r4, lsr r8
    390c:	28230200 	stmdacs	r3!, {r9}
    3910:	00137f06 	andseq	r7, r3, r6, lsl #30
    3914:	48360200 	ldmdami	r6!, {r9}
    3918:	02000000 	andeq	r0, r0, #0
    391c:	4e062c23 	cdpmi	12, 0, cr2, cr6, cr3, {1}
    3920:	02000015 	andeq	r0, r0, #21
    3924:	00004837 	andeq	r4, r0, r7, lsr r8
    3928:	30230200 	eorcc	r0, r3, r0, lsl #4
    392c:	00146106 	andseq	r6, r4, r6, lsl #2
    3930:	48380200 	ldmdami	r8!, {r9}
    3934:	02000000 	andeq	r0, r0, #0
    3938:	69063423 	stmdbvs	r6, {r0, r1, r5, sl, ip, sp}
    393c:	02000015 	andeq	r0, r0, #21
    3940:	00004839 	andeq	r4, r0, r9, lsr r8
    3944:	38230200 	stmdacc	r3!, {r9}
    3948:	00155406 	andseq	r5, r5, r6, lsl #8
    394c:	483b0200 	ldmdami	fp!, {r9}
    3950:	02000000 	andeq	r0, r0, #0
    3954:	5b063c23 	blpl	1929e8 <__bss_end+0x17f89c>
    3958:	02000013 	andeq	r0, r0, #19
    395c:	0000483c 	andeq	r4, r0, ip, lsr r8
    3960:	40230200 	eormi	r0, r3, r0, lsl #4
    3964:	72617007 	rsbvc	r7, r1, #7
    3968:	483e0200 	ldmdami	lr!, {r9}
    396c:	02000000 	andeq	r0, r0, #0
    3970:	2a064423 	bcs	194a04 <__bss_end+0x1818b8>
    3974:	02000015 	andeq	r0, r0, #21
    3978:	00004840 	andeq	r4, r0, r0, asr #16
    397c:	48230200 	stmdami	r3!, {r9}
    3980:	00153506 	andseq	r3, r5, r6, lsl #10
    3984:	48410200 	stmdami	r1, {r9}^
    3988:	02000000 	andeq	r0, r0, #0
    398c:	8b064c23 	blhi	196a20 <__bss_end+0x1838d4>
    3990:	02000014 	andeq	r0, r0, #20
    3994:	00004842 	andeq	r4, r0, r2, asr #16
    3998:	50230200 	eorpl	r0, r3, r0, lsl #4
    399c:	00152506 	andseq	r2, r5, r6, lsl #10
    39a0:	48430200 	stmdami	r3, {r9}^
    39a4:	02000000 	andeq	r0, r0, #0
    39a8:	73075423 	movwvc	r5, #29731	; 0x7423
    39ac:	02007269 	andeq	r7, r0, #-1879048186	; 0x90000006
    39b0:	00004847 	andeq	r4, r0, r7, asr #16
    39b4:	58230200 	stmdapl	r3!, {r9}
    39b8:	00144806 	andseq	r4, r4, r6, lsl #16
    39bc:	48490200 	stmdami	r9, {r9}^
    39c0:	02000000 	andeq	r0, r0, #0
    39c4:	63075c23 	movwvs	r5, #31779	; 0x7c23
    39c8:	02007263 	andeq	r7, r0, #805306374	; 0x30000006
    39cc:	0000484a 	andeq	r4, r0, sl, asr #16
    39d0:	60230200 	eorvs	r0, r3, r0, lsl #4
    39d4:	72736507 	rsbsvc	r6, r3, #29360128	; 0x1c00000
    39d8:	484b0200 	stmdami	fp, {r9}^
    39dc:	02000000 	andeq	r0, r0, #0
    39e0:	60066423 	andvs	r6, r6, r3, lsr #8
    39e4:	02000015 	andeq	r0, r0, #21
    39e8:	0000484c 	andeq	r4, r0, ip, asr #16
    39ec:	68230200 	stmdavs	r3!, {r9}
    39f0:	72657507 	rsbvc	r7, r5, #29360128	; 0x1c00000
    39f4:	484d0200 	stmdami	sp, {r9}^
    39f8:	02000000 	andeq	r0, r0, #0
    39fc:	34066c23 	strcc	r6, [r6], #-3107	; 0xc23
    3a00:	02000014 	andeq	r0, r0, #20
    3a04:	0000484e 	andeq	r4, r0, lr, asr #16
    3a08:	70230200 	eorvc	r0, r3, r0, lsl #4
    3a0c:	00137a06 	andseq	r7, r3, r6, lsl #20
    3a10:	484f0200 	stmdami	pc, {r9}^	; <UNPREDICTABLE>
    3a14:	02000000 	andeq	r0, r0, #0
    3a18:	8e067423 	cdphi	4, 0, cr7, cr6, cr3, {1}
    3a1c:	0200000f 	andeq	r0, r0, #15
    3a20:	0000485d 	andeq	r4, r0, sp, asr r8
    3a24:	78230200 	stmdavc	r3!, {r9}
    3a28:	000d9906 	andeq	r9, sp, r6, lsl #18
    3a2c:	485e0200 	ldmdami	lr, {r9}^
    3a30:	02000000 	andeq	r0, r0, #0
    3a34:	5b067c23 	blpl	1a2ac8 <__bss_end+0x18f97c>
    3a38:	02000015 	andeq	r0, r0, #21
    3a3c:	00004874 	andeq	r4, r0, r4, ror r8
    3a40:	80230300 	eorhi	r0, r3, r0, lsl #6
    3a44:	155a0601 	ldrbne	r0, [sl, #-1537]	; 0x601
    3a48:	75020000 	strvc	r0, [r2, #-0]
    3a4c:	00000048 	andeq	r0, r0, r8, asr #32
    3a50:	01842303 	orreq	r2, r4, r3, lsl #6
    3a54:	72736907 	rsbsvc	r6, r3, #114688	; 0x1c000
    3a58:	48760200 	ldmdami	r6!, {r9}^
    3a5c:	03000000 	movweq	r0, #0
    3a60:	06018823 	streq	r8, [r1], -r3, lsr #16
    3a64:	000014e5 	andeq	r1, r0, r5, ror #9
    3a68:	00487a02 	subeq	r7, r8, r2, lsl #20
    3a6c:	23030000 	movwcs	r0, #12288	; 0x3000
    3a70:	6307018c 	movwvs	r0, #29068	; 0x718c
    3a74:	02006469 	andeq	r6, r0, #1761607680	; 0x69000000
    3a78:	0000487b 	andeq	r4, r0, fp, ror r8
    3a7c:	90230300 	eorls	r0, r3, r0, lsl #6
    3a80:	14760601 	ldrbtne	r0, [r6], #-1537	; 0x601
    3a84:	7c020000 	stcvc	0, cr0, [r2], {-0}
    3a88:	00000048 	andeq	r0, r0, r8, asr #32
    3a8c:	01942303 	orrseq	r2, r4, r3, lsl #6
    3a90:	00149a06 	andseq	r9, r4, r6, lsl #20
    3a94:	487d0200 	ldmdami	sp!, {r9}^
    3a98:	03000000 	movweq	r0, #0
    3a9c:	06019823 	streq	r9, [r1], -r3, lsr #16
    3aa0:	00001354 	andeq	r1, r0, r4, asr r3
    3aa4:	00487e02 	subeq	r7, r8, r2, lsl #28
    3aa8:	23030000 	movwcs	r0, #12288	; 0x3000
    3aac:	0200019c 	andeq	r0, r0, #39	; 0x27
    3ab0:	00660704 	rsbeq	r0, r6, r4, lsl #14
    3ab4:	01080000 	mrseq	r0, (UNDEF: 8)
    3ab8:	000014ce 	andeq	r1, r0, lr, asr #9
    3abc:	e0018901 	and	r8, r1, r1, lsl #18
    3ac0:	ec00010d 	stfs	f0, [r0], {13}
    3ac4:	0200010e 	andeq	r0, r0, #-2147483645	; 0x80000003
    3ac8:	02d9007d 	sbcseq	r0, r9, #125	; 0x7d
    3acc:	4d090000 	stcmi	0, cr0, [r9, #-0]
    3ad0:	01000014 	tsteq	r0, r4, lsl r0
    3ad4:	0002d989 	andeq	sp, r2, r9, lsl #19
    3ad8:	00500100 	subseq	r0, r0, r0, lsl #2
    3adc:	0068040a 	rsbeq	r0, r8, sl, lsl #8
    3ae0:	010b0000 	mrseq	r0, (UNDEF: 11)
    3ae4:	0000141a 	andeq	r1, r0, sl, lsl r4
    3ae8:	01011601 	tsteq	r1, r1, lsl #12
    3aec:	00010eec 	andeq	r0, r1, ip, ror #29
    3af0:	00010fc0 	andeq	r0, r1, r0, asr #31
    3af4:	07007d02 	streq	r7, [r0, -r2, lsl #26]
    3af8:	0c000003 	stceq	0, cr0, [r0], {3}
    3afc:	0000144d 	andeq	r1, r0, sp, asr #8
    3b00:	d9011601 	stmdble	r1, {r0, r9, sl, ip}
    3b04:	01000002 	tsteq	r0, r2
    3b08:	010b0050 	qaddeq	r0, r0, fp
    3b0c:	00001401 	andeq	r1, r0, r1, lsl #8
    3b10:	01017801 	tsteq	r1, r1, lsl #16
    3b14:	00010fc0 	andeq	r0, r1, r0, asr #31
    3b18:	00010fd8 	ldrdeq	r0, [r1], -r8
    3b1c:	31007d02 	tstcc	r0, r2, lsl #26
    3b20:	0d000003 	stceq	0, cr0, [r0, #-12]
    3b24:	006c6176 	rsbeq	r6, ip, r6, ror r1
    3b28:	48017b01 	stmdami	r1, {r0, r8, r9, fp, ip, sp, lr}
    3b2c:	49000000 	stmdbmi	r0, {}	; <UNPREDICTABLE>
    3b30:	00000006 	andeq	r0, r0, r6
    3b34:	1368010b 	cmnne	r8, #-1073741822	; 0xc0000002
    3b38:	86010000 	strhi	r0, [r1], -r0
    3b3c:	0fd80101 	svceq	0x00d80101
    3b40:	10800001 	addne	r0, r0, r1
    3b44:	7d020001 	stcvc	0, cr0, [r2, #-4]
    3b48:	00035700 	andeq	r5, r3, r0, lsl #14
    3b4c:	144d0e00 	strbne	r0, [sp], #-3584	; 0xe00
    3b50:	88010000 	stmdahi	r1, {}	; <UNPREDICTABLE>
    3b54:	0002d901 	andeq	sp, r2, r1, lsl #18
    3b58:	010f0000 	mrseq	r0, CPSR
    3b5c:	000014d0 	ldrdeq	r1, [r0], -r0
    3b60:	0101e501 	tsteq	r1, r1, lsl #10
    3b64:	00011080 	andeq	r1, r1, r0, lsl #1
    3b68:	0001108c 	andeq	r1, r1, ip, lsl #1
    3b6c:	0f007d02 	svceq	0x00007d02
    3b70:	00141c01 	andseq	r1, r4, r1, lsl #24
    3b74:	01eb0100 	mvneq	r0, r0, lsl #2
    3b78:	01108c01 	tsteq	r0, r1, lsl #24
    3b7c:	01109800 	tsteq	r0, r0, lsl #16
    3b80:	007d0200 	rsbseq	r0, sp, r0, lsl #4
    3b84:	13da010f 	bicsne	r0, sl, #-1073741821	; 0xc0000003
    3b88:	f0010000 			; <UNDEFINED> instruction: 0xf0010000
    3b8c:	10980101 	addsne	r0, r8, r1, lsl #2
    3b90:	10ac0001 	adcne	r0, ip, r1
    3b94:	7d020001 	stcvc	0, cr0, [r2, #-4]
    3b98:	90010b00 	andls	r0, r1, r0, lsl #22
    3b9c:	01000014 	tsteq	r0, r4, lsl r0
    3ba0:	ac0101f6 	stfges	f0, [r1], {246}	; 0xf6
    3ba4:	bc000110 	stflts	f0, [r0], {16}
    3ba8:	02000110 	andeq	r0, r0, #4
    3bac:	03c0007d 	biceq	r0, r0, #125	; 0x7d
    3bb0:	740d0000 	strvc	r0, [sp], #-0
    3bb4:	01006274 	tsteq	r0, r4, ror r2
    3bb8:	004801f8 	strdeq	r0, [r8], #-24	; 0xffffffe8
    3bbc:	066c0000 	strbteq	r0, [ip], -r0
    3bc0:	10000000 	andne	r0, r0, r0
    3bc4:	00001468 	andeq	r1, r0, r8, ror #8
    3bc8:	00681f01 	rsbeq	r1, r8, r1, lsl #30
    3bcc:	03050000 	movweq	r0, #20480	; 0x5000
    3bd0:	00012da0 	andeq	r2, r1, r0, lsr #27
    3bd4:	00153a11 	andseq	r3, r5, r1, lsl sl
    3bd8:	dc210100 	stfles	f0, [r1], #-0
    3bdc:	12000003 	andne	r0, r0, #3
    3be0:	00000068 	andeq	r0, r0, r8, rrx
    3be4:	0002ac13 	andeq	sl, r2, r3, lsl ip
    3be8:	0003f100 	andeq	pc, r3, r0, lsl #2
    3bec:	00531400 	subseq	r1, r3, r0, lsl #8
    3bf0:	00010000 	andeq	r0, r1, r0
    3bf4:	0015ad15 	andseq	sl, r5, r5, lsl sp
    3bf8:	e10f0100 	mrs	r0, (UNDEF: 31)
    3bfc:	01000003 	tsteq	r0, r3
    3c00:	312c0305 	teqcc	ip, r5, lsl #6
    3c04:	16150001 	ldrne	r0, [r5], -r1
    3c08:	01000015 	tsteq	r0, r5, lsl r0
    3c0c:	0002ac10 	andeq	sl, r2, r0, lsl ip
    3c10:	03050100 	movweq	r0, #20736	; 0x5100
    3c14:	00013128 	andeq	r3, r1, r8, lsr #2
    3c18:	00150015 	andseq	r0, r5, r5, lsl r0
    3c1c:	e1110100 	tst	r1, r0, lsl #2
    3c20:	01000003 	tsteq	r0, r3
    3c24:	303c0305 	eorscc	r0, ip, r5, lsl #6
    3c28:	f2150001 	vhadd.s16	d0, d5, d1
    3c2c:	01000013 	tsteq	r0, r3, lsl r0
    3c30:	0002ac12 	andeq	sl, r2, r2, lsl ip
    3c34:	03050100 	movweq	r0, #20736	; 0x5100
    3c38:	00013140 	andeq	r3, r1, r0, asr #2
    3c3c:	0002ac13 	andeq	sl, r2, r3, lsl ip
    3c40:	00044900 	andeq	r4, r4, r0, lsl #18
    3c44:	00531400 	subseq	r1, r3, r0, lsl #8
    3c48:	00060000 	andeq	r0, r6, r0
    3c4c:	0013ae15 	andseq	sl, r3, r5, lsl lr
    3c50:	39130100 	ldmdbcc	r3, {r8}
    3c54:	01000004 	tsteq	r0, r4
    3c58:	310c0305 	tstcc	ip, r5, lsl #6
    3c5c:	39150001 	ldmdbcc	r5, {r0}
    3c60:	01000014 	tsteq	r0, r4, lsl r0
    3c64:	0002ac14 	andeq	sl, r2, r4, lsl ip
    3c68:	03050100 	movweq	r0, #20736	; 0x5100
    3c6c:	00013044 	andeq	r3, r1, r4, asr #32
    3c70:	00157f15 	andseq	r7, r5, r5, lsl pc
    3c74:	e1150100 	tst	r5, r0, lsl #2
    3c78:	01000003 	tsteq	r0, r3
    3c7c:	30500305 	subscc	r0, r0, r5, lsl #6
    3c80:	85150001 	ldrhi	r0, [r5, #-1]
    3c84:	01000013 	tsteq	r0, r3, lsl r0
    3c88:	0002ac16 	andeq	sl, r2, r6, lsl ip
    3c8c:	03050100 	movweq	r0, #20736	; 0x5100
    3c90:	00013134 	andeq	r3, r1, r4, lsr r1
    3c94:	0013c415 	andseq	ip, r3, r5, lsl r4
    3c98:	e1170100 	tst	r7, r0, lsl #2
    3c9c:	01000003 	tsteq	r0, r3
    3ca0:	30340305 	eorscc	r0, r4, r5, lsl #6
    3ca4:	52150001 	andspl	r0, r5, #1
    3ca8:	01000014 	tsteq	r0, r4, lsl r0
    3cac:	0002ac18 	andeq	sl, r2, r8, lsl ip
    3cb0:	03050100 	movweq	r0, #20736	; 0x5100
    3cb4:	0001304c 	andeq	r3, r1, ip, asr #32
    3cb8:	0014ea15 	andseq	lr, r4, r5, lsl sl
    3cbc:	e1190100 	tst	r9, r0, lsl #2
    3cc0:	01000003 	tsteq	r0, r3
    3cc4:	31440305 	cmpcc	r4, r5, lsl #6
    3cc8:	70150001 	andsvc	r0, r5, r1
    3ccc:	01000015 	tsteq	r0, r5, lsl r0
    3cd0:	0002ac1a 	andeq	sl, r2, sl, lsl ip
    3cd4:	03050100 	movweq	r0, #20736	; 0x5100
    3cd8:	00013048 	andeq	r3, r1, r8, asr #32
    3cdc:	0015c315 	andseq	ip, r5, r5, lsl r3
    3ce0:	e11b0100 	tst	fp, r0, lsl #2
    3ce4:	01000003 	tsteq	r0, r3
    3ce8:	31380305 	teqcc	r8, r5, lsl #6
    3cec:	94150001 	ldrls	r0, [r5], #-1
    3cf0:	01000013 	tsteq	r0, r3, lsl r0
    3cf4:	0002ac1c 	andeq	sl, r2, ip, lsl ip
    3cf8:	03050100 	movweq	r0, #20736	; 0x5100
    3cfc:	00013058 	andeq	r3, r1, r8, asr r0
    3d00:	0002ac13 	andeq	sl, r2, r3, lsl ip
    3d04:	00050d00 	andeq	r0, r5, r0, lsl #26
    3d08:	00531400 	subseq	r1, r3, r0, lsl #8
    3d0c:	002b0000 	eoreq	r0, fp, r0
    3d10:	00159515 	andseq	r9, r5, r5, lsl r5
    3d14:	fd1d0100 	ldc2	1, cr0, [sp, #-0]
    3d18:	01000004 	tsteq	r0, r4
    3d1c:	305c0305 	subscc	r0, ip, r5, lsl #6
    3d20:	aa000001 	bge	3d2c <__resume1_start+0x3d2c>
    3d24:	0200002a 	andeq	r0, r0, #42	; 0x2a
    3d28:	0008d300 	andeq	sp, r8, r0, lsl #6
    3d2c:	0d010400 	cfstrseq	mvf0, [r1, #-0]
    3d30:	01000001 	tsteq	r0, r1
    3d34:	000016da 	ldrdeq	r1, [r0], -sl
    3d38:	00000042 	andeq	r0, r0, r2, asr #32
    3d3c:	000110bc 	strheq	r1, [r1], -ip
    3d40:	000114f8 	strdeq	r1, [r1], -r8
    3d44:	0000095b 	andeq	r0, r0, fp, asr r9
    3d48:	d3060102 	movwle	r0, #24834	; 0x6102
    3d4c:	02000000 	andeq	r0, r0, #0
    3d50:	00d10801 	sbcseq	r0, r1, r1, lsl #16
    3d54:	02020000 	andeq	r0, r2, #0
    3d58:	00014105 	andeq	r4, r1, r5, lsl #2
    3d5c:	07020200 	streq	r0, [r2, -r0, lsl #4]
    3d60:	000000fa 	strdeq	r0, [r0], -sl
    3d64:	0011f403 	andseq	pc, r1, r3, lsl #8
    3d68:	4c120200 	lfmmi	f0, 4, [r2], {-0}
    3d6c:	04000000 	streq	r0, [r0], #-0
    3d70:	6e690504 	cdpvs	5, 6, cr0, cr9, cr4, {0}
    3d74:	a8030074 	stmdage	r3, {r2, r4, r5, r6}
    3d78:	02000008 	andeq	r0, r0, #8
    3d7c:	00005e13 	andeq	r5, r0, r3, lsl lr
    3d80:	07040200 	streq	r0, [r4, -r0, lsl #4]
    3d84:	0000006b 	andeq	r0, r0, fp, rrx
    3d88:	00050802 	andeq	r0, r5, r2, lsl #16
    3d8c:	02000000 	andeq	r0, r0, #0
    3d90:	00610708 	rsbeq	r0, r1, r8, lsl #14
    3d94:	04050000 	streq	r0, [r5], #-0
    3d98:	01049103 	tsteq	r4, r3, lsl #2
    3d9c:	38060000 	stmdacc	r6, {}	; <UNPREDICTABLE>
    3da0:	03000003 	movweq	r0, #3
    3da4:	00005393 	muleq	r0, r3, r3
    3da8:	1e020400 	cfcpysne	mvf0, mvf2
    3dac:	06002302 	streq	r2, [r0], -r2, lsl #6
    3db0:	00000e46 	andeq	r0, r0, r6, asr #28
    3db4:	00539403 	subseq	r9, r3, r3, lsl #8
    3db8:	06040000 	streq	r0, [r4], -r0
    3dbc:	00230218 	eoreq	r0, r3, r8, lsl r2
    3dc0:	000d9e06 	andeq	r9, sp, r6, lsl #28
    3dc4:	53950300 	orrspl	r0, r5, #0
    3dc8:	04000000 	streq	r0, [r0], #-0
    3dcc:	23021008 	movwcs	r1, #8200	; 0x2008
    3dd0:	0c820600 	stceq	6, cr0, [r2], {0}
    3dd4:	96030000 	strls	r0, [r3], -r0
    3dd8:	00000053 	andeq	r0, r0, r3, asr r0
    3ddc:	020f0104 	andeq	r0, pc, #1
    3de0:	4b060023 	blmi	183e74 <__bss_end+0x170d28>
    3de4:	0300000e 	movweq	r0, #14
    3de8:	00005397 	muleq	r0, r7, r3
    3dec:	08070400 	stmdaeq	r7, {sl}
    3df0:	06002302 	streq	r2, [r0], -r2, lsl #6
    3df4:	000007f3 	strdeq	r0, [r0], -r3
    3df8:	00539803 	subseq	r9, r3, r3, lsl #16
    3dfc:	03040000 	movweq	r0, #16384	; 0x4000
    3e00:	00230205 	eoreq	r0, r3, r5, lsl #4
    3e04:	000e5006 	andeq	r5, lr, r6
    3e08:	53990300 	orrspl	r0, r9, #0
    3e0c:	04000000 	streq	r0, [r0], #-0
    3e10:	23020104 	movwcs	r0, #8452	; 0x2104
    3e14:	0d0f0600 	stceq	6, cr0, [pc, #-0]	; 3e1c <__resume1_start+0x3e1c>
    3e18:	9a030000 	bls	c3e20 <__bss_end+0xb0cd4>
    3e1c:	00000053 	andeq	r0, r0, r3, asr r0
    3e20:	02000104 	andeq	r0, r0, #1
    3e24:	07000023 	streq	r0, [r0, -r3, lsr #32]
    3e28:	238e0304 	orrcs	r0, lr, #268435456	; 0x10000000
    3e2c:	08000001 	stmdaeq	r0, {r0}
    3e30:	000002c6 	andeq	r0, r0, r6, asr #5
    3e34:	00539003 	subseq	r9, r3, r3
    3e38:	25080000 	strcs	r0, [r8, #-0]
    3e3c:	03000009 	movweq	r0, #9
    3e40:	0000739b 	muleq	r0, fp, r3
    3e44:	32030000 	andcc	r0, r3, #0
    3e48:	03000005 	movweq	r0, #5
    3e4c:	0001049c 	muleq	r1, ip, r4
    3e50:	03040500 	movweq	r0, #17664	; 0x4500
    3e54:	0001bfa1 	andeq	fp, r1, r1, lsr #31
    3e58:	03380600 	teqeq	r8, #0
    3e5c:	a3030000 	movwge	r0, #12288	; 0x3000
    3e60:	00000053 	andeq	r0, r0, r3, asr r0
    3e64:	021e0204 	andseq	r0, lr, #1073741824	; 0x40000000
    3e68:	46060023 	strmi	r0, [r6], -r3, lsr #32
    3e6c:	0300000e 	movweq	r0, #14
    3e70:	000053a4 	andeq	r5, r0, r4, lsr #7
    3e74:	18060400 	stmdane	r6, {sl}
    3e78:	06002302 	streq	r2, [r0], -r2, lsl #6
    3e7c:	00000d9e 	muleq	r0, lr, sp
    3e80:	0053a503 	subseq	sl, r3, r3, lsl #10
    3e84:	08040000 	stmdaeq	r4, {}	; <UNPREDICTABLE>
    3e88:	00230210 	eoreq	r0, r3, r0, lsl r2
    3e8c:	000c8206 	andeq	r8, ip, r6, lsl #4
    3e90:	53a60300 			; <UNDEFINED> instruction: 0x53a60300
    3e94:	04000000 	streq	r0, [r0], #-0
    3e98:	23020f01 	movwcs	r0, #12033	; 0x2f01
    3e9c:	0e4b0600 	cdpeq	6, 4, cr0, cr11, cr0, {0}
    3ea0:	a7030000 	strge	r0, [r3, -r0]
    3ea4:	00000053 	andeq	r0, r0, r3, asr r0
    3ea8:	02080704 	andeq	r0, r8, #1048576	; 0x100000
    3eac:	f3060023 	vhadd.u8	d0, d6, d19
    3eb0:	03000007 	movweq	r0, #7
    3eb4:	000053a8 	andeq	r5, r0, r8, lsr #7
    3eb8:	05030400 	streq	r0, [r3, #-1024]	; 0x400
    3ebc:	06002302 	streq	r2, [r0], -r2, lsl #6
    3ec0:	00000e50 	andeq	r0, r0, r0, asr lr
    3ec4:	0053a903 	subseq	sl, r3, r3, lsl #18
    3ec8:	04040000 	streq	r0, [r4], #-0
    3ecc:	00230201 	eoreq	r0, r3, r1, lsl #4
    3ed0:	000d0f06 	andeq	r0, sp, r6, lsl #30
    3ed4:	53aa0300 			; <UNDEFINED> instruction: 0x53aa0300
    3ed8:	04000000 	streq	r0, [r0], #-0
    3edc:	23020001 	movwcs	r0, #8193	; 0x2001
    3ee0:	04070000 	streq	r0, [r7], #-0
    3ee4:	01de9e03 	bicseq	r9, lr, r3, lsl #28
    3ee8:	c6080000 	strgt	r0, [r8], -r0
    3eec:	03000002 	movweq	r0, #2
    3ef0:	000053a0 	andeq	r5, r0, r0, lsr #7
    3ef4:	09250800 	stmdbeq	r5!, {fp}
    3ef8:	ab030000 	blge	c3f00 <__bss_end+0xb0db4>
    3efc:	0000012e 	andeq	r0, r0, lr, lsr #2
    3f00:	036e0300 	cmneq	lr, #0
    3f04:	ac030000 	stcge	0, cr0, [r3], {-0}
    3f08:	000001bf 			; <UNDEFINED> instruction: 0x000001bf
    3f0c:	b1030405 	tstlt	r3, r5, lsl #8
    3f10:	0000029c 	muleq	r0, ip, r2
    3f14:	00034606 	andeq	r4, r3, r6, lsl #12
    3f18:	53b30300 			; <UNDEFINED> instruction: 0x53b30300
    3f1c:	04000000 	streq	r0, [r0], #-0
    3f20:	23021a06 	movwcs	r1, #10758	; 0x2a06
    3f24:	0e460600 	cdpeq	6, 4, cr0, cr6, cr0, {0}
    3f28:	b4030000 	strlt	r0, [r3], #-0
    3f2c:	00000053 	andeq	r0, r0, r3, asr r0
    3f30:	02180204 	andseq	r0, r8, #1073741824	; 0x40000000
    3f34:	9e060023 	cdpls	0, 0, cr0, cr6, cr3, {1}
    3f38:	0300000d 	movweq	r0, #13
    3f3c:	000053b5 			; <UNDEFINED> instruction: 0x000053b5
    3f40:	10080400 	andne	r0, r8, r0, lsl #8
    3f44:	06002302 	streq	r2, [r0], -r2, lsl #6
    3f48:	00000ceb 	andeq	r0, r0, fp, ror #25
    3f4c:	0053b603 	subseq	fp, r3, r3, lsl #12
    3f50:	01040000 	mrseq	r0, (UNDEF: 4)
    3f54:	0023020f 	eoreq	r0, r3, pc, lsl #4
    3f58:	000e4b06 	andeq	r4, lr, r6, lsl #22
    3f5c:	53b70300 			; <UNDEFINED> instruction: 0x53b70300
    3f60:	04000000 	streq	r0, [r0], #-0
    3f64:	23020e01 	movwcs	r0, #11777	; 0x2e01
    3f68:	0cf40600 	ldcleq	6, cr0, [r4]
    3f6c:	b8030000 	stmdalt	r3, {}	; <UNPREDICTABLE>
    3f70:	00000053 	andeq	r0, r0, r3, asr r0
    3f74:	020d0104 	andeq	r0, sp, #1
    3f78:	50060023 	andpl	r0, r6, r3, lsr #32
    3f7c:	0300000e 	movweq	r0, #14
    3f80:	000053b9 			; <UNDEFINED> instruction: 0x000053b9
    3f84:	08050400 	stmdaeq	r5, {sl}
    3f88:	06002302 	streq	r2, [r0], -r2, lsl #6
    3f8c:	000003a8 	andeq	r0, r0, r8, lsr #7
    3f90:	0053ba03 	subseq	fp, r3, r3, lsl #20
    3f94:	01040000 	mrseq	r0, (UNDEF: 4)
    3f98:	00230207 	eoreq	r0, r3, r7, lsl #4
    3f9c:	000e5506 	andeq	r5, lr, r6, lsl #10
    3fa0:	53bb0300 			; <UNDEFINED> instruction: 0x53bb0300
    3fa4:	04000000 	streq	r0, [r0], #-0
    3fa8:	23020106 	movwcs	r0, #8454	; 0x2106
    3fac:	0d0f0600 	stceq	6, cr0, [pc, #-0]	; 3fb4 <__resume1_start+0x3fb4>
    3fb0:	bc030000 	stclt	0, cr0, [r3], {-0}
    3fb4:	00000053 	andeq	r0, r0, r3, asr r0
    3fb8:	02000104 	andeq	r0, r0, #1
    3fbc:	07000023 	streq	r0, [r0, -r3, lsr #32]
    3fc0:	bbae0304 	bllt	feb84bd8 <__bss_end+0xfeb71a8c>
    3fc4:	08000002 	stmdaeq	r0, {r1}
    3fc8:	000002c6 	andeq	r0, r0, r6, asr #5
    3fcc:	0053b003 	subseq	fp, r3, r3
    3fd0:	25080000 	strcs	r0, [r8, #-0]
    3fd4:	03000009 	movweq	r0, #9
    3fd8:	0001e9bd 			; <UNDEFINED> instruction: 0x0001e9bd
    3fdc:	c2030000 	andgt	r0, r3, #0
    3fe0:	03000009 	movweq	r0, #9
    3fe4:	00029cbe 			; <UNDEFINED> instruction: 0x00029cbe
    3fe8:	03040500 	movweq	r0, #17664	; 0x4500
    3fec:	000368c3 	andeq	r6, r3, r3, asr #17
    3ff0:	0e460600 	cdpeq	6, 4, cr0, cr6, cr0, {0}
    3ff4:	c5030000 	strgt	r0, [r3, #-0]
    3ff8:	00000053 	andeq	r0, r0, r3, asr r0
    3ffc:	02180804 	andseq	r0, r8, #262144	; 0x40000
    4000:	9e060023 	cdpls	0, 0, cr0, cr6, cr3, {1}
    4004:	0300000d 	movweq	r0, #13
    4008:	000053c6 	andeq	r5, r0, r6, asr #7
    400c:	10080400 	andne	r0, r8, r0, lsl #8
    4010:	06002302 	streq	r2, [r0], -r2, lsl #6
    4014:	00000ceb 	andeq	r0, r0, fp, ror #25
    4018:	0053c703 	subseq	ip, r3, r3, lsl #14
    401c:	01040000 	mrseq	r0, (UNDEF: 4)
    4020:	0023020f 	eoreq	r0, r3, pc, lsl #4
    4024:	000e4b06 	andeq	r4, lr, r6, lsl #22
    4028:	53c80300 	bicpl	r0, r8, #0
    402c:	04000000 	streq	r0, [r0], #-0
    4030:	23020e01 	movwcs	r0, #11777	; 0x2e01
    4034:	0cf40600 	ldcleq	6, cr0, [r4]
    4038:	c9030000 	stmdbgt	r3, {}	; <UNPREDICTABLE>
    403c:	00000053 	andeq	r0, r0, r3, asr r0
    4040:	020d0104 	andeq	r0, sp, #1
    4044:	50060023 	andpl	r0, r6, r3, lsr #32
    4048:	0300000e 	movweq	r0, #14
    404c:	000053ca 	andeq	r5, r0, sl, asr #7
    4050:	08050400 	stmdaeq	r5, {sl}
    4054:	06002302 	streq	r2, [r0], -r2, lsl #6
    4058:	000003a8 	andeq	r0, r0, r8, lsr #7
    405c:	0053cb03 	subseq	ip, r3, r3, lsl #22
    4060:	01040000 	mrseq	r0, (UNDEF: 4)
    4064:	00230207 	eoreq	r0, r3, r7, lsl #4
    4068:	000e5506 	andeq	r5, lr, r6, lsl #10
    406c:	53cc0300 	bicpl	r0, ip, #0
    4070:	04000000 	streq	r0, [r0], #-0
    4074:	23020106 	movwcs	r0, #8454	; 0x2106
    4078:	0d0f0600 	stceq	6, cr0, [pc, #-0]	; 4080 <__resume1_start+0x4080>
    407c:	cd030000 	stcgt	0, cr0, [r3, #-0]
    4080:	00000053 	andeq	r0, r0, r3, asr r0
    4084:	02000104 	andeq	r0, r0, #1
    4088:	07000023 	streq	r0, [r0, -r3, lsr #32]
    408c:	87c00304 	strbhi	r0, [r0, r4, lsl #6]
    4090:	08000003 	stmdaeq	r0, {r0, r1}
    4094:	000002c6 	andeq	r0, r0, r6, asr #5
    4098:	0053c203 	subseq	ip, r3, r3, lsl #4
    409c:	25080000 	strcs	r0, [r8, #-0]
    40a0:	03000009 	movweq	r0, #9
    40a4:	0002c6ce 	andeq	ip, r2, lr, asr #13
    40a8:	40030000 	andmi	r0, r3, r0
    40ac:	0300000b 	movweq	r0, #11
    40b0:	000368cf 	andeq	r6, r3, pc, asr #17
    40b4:	03040500 	movweq	r0, #17664	; 0x4500
    40b8:	000434d4 	ldrdeq	r3, [r4], -r4
    40bc:	0e460600 	cdpeq	6, 4, cr0, cr6, cr0, {0}
    40c0:	d6030000 	strle	r0, [r3], -r0
    40c4:	00000053 	andeq	r0, r0, r3, asr r0
    40c8:	02180804 	andseq	r0, r8, #262144	; 0x40000
    40cc:	9e060023 	cdpls	0, 0, cr0, cr6, cr3, {1}
    40d0:	0300000d 	movweq	r0, #13
    40d4:	000053d7 	ldrdeq	r5, [r0], -r7
    40d8:	10080400 	andne	r0, r8, r0, lsl #8
    40dc:	06002302 	streq	r2, [r0], -r2, lsl #6
    40e0:	00000ceb 	andeq	r0, r0, fp, ror #25
    40e4:	0053d803 	subseq	sp, r3, r3, lsl #16
    40e8:	01040000 	mrseq	r0, (UNDEF: 4)
    40ec:	0023020f 	eoreq	r0, r3, pc, lsl #4
    40f0:	000e4b06 	andeq	r4, lr, r6, lsl #22
    40f4:	53d90300 	bicspl	r0, r9, #0
    40f8:	04000000 	streq	r0, [r0], #-0
    40fc:	23020e01 	movwcs	r0, #11777	; 0x2e01
    4100:	0cf40600 	ldcleq	6, cr0, [r4]
    4104:	da030000 	ble	c410c <__bss_end+0xb0fc0>
    4108:	00000053 	andeq	r0, r0, r3, asr r0
    410c:	020d0104 	andeq	r0, sp, #1
    4110:	50060023 	andpl	r0, r6, r3, lsr #32
    4114:	0300000e 	movweq	r0, #14
    4118:	000053db 	ldrdeq	r5, [r0], -fp
    411c:	08050400 	stmdaeq	r5, {sl}
    4120:	06002302 	streq	r2, [r0], -r2, lsl #6
    4124:	000003a8 	andeq	r0, r0, r8, lsr #7
    4128:	0053dc03 	subseq	sp, r3, r3, lsl #24
    412c:	01040000 	mrseq	r0, (UNDEF: 4)
    4130:	00230207 	eoreq	r0, r3, r7, lsl #4
    4134:	000e5506 	andeq	r5, lr, r6, lsl #10
    4138:	53dd0300 	bicspl	r0, sp, #0
    413c:	04000000 	streq	r0, [r0], #-0
    4140:	23020106 	movwcs	r0, #8454	; 0x2106
    4144:	0d0f0600 	stceq	6, cr0, [pc, #-0]	; 414c <__resume1_start+0x414c>
    4148:	de030000 	cdple	0, 0, cr0, cr3, cr0, {0}
    414c:	00000053 	andeq	r0, r0, r3, asr r0
    4150:	02000104 	andeq	r0, r0, #1
    4154:	07000023 	streq	r0, [r0, -r3, lsr #32]
    4158:	53d10304 	bicspl	r0, r1, #268435456	; 0x10000000
    415c:	08000004 	stmdaeq	r0, {r2}
    4160:	000002c6 	andeq	r0, r0, r6, asr #5
    4164:	0053d303 	subseq	sp, r3, r3, lsl #6
    4168:	25080000 	strcs	r0, [r8, #-0]
    416c:	03000009 	movweq	r0, #9
    4170:	000392df 	ldrdeq	r9, [r3], -pc	; <UNPREDICTABLE>
    4174:	58030000 	stmdapl	r3, {}	; <UNPREDICTABLE>
    4178:	03000006 	movweq	r0, #6
    417c:	000434e0 	andeq	r3, r4, r0, ror #9
    4180:	03040500 	movweq	r0, #17664	; 0x4500
    4184:	000511e5 	andeq	r1, r5, r5, ror #3
    4188:	0e460600 	cdpeq	6, 4, cr0, cr6, cr0, {0}
    418c:	e7030000 	str	r0, [r3, -r0]
    4190:	00000053 	andeq	r0, r0, r3, asr r0
    4194:	02180804 	andseq	r0, r8, #262144	; 0x40000
    4198:	9e060023 	cdpls	0, 0, cr0, cr6, cr3, {1}
    419c:	0300000d 	movweq	r0, #13
    41a0:	000053e8 	andeq	r5, r0, r8, ror #7
    41a4:	10080400 	andne	r0, r8, r0, lsl #8
    41a8:	06002302 	streq	r2, [r0], -r2, lsl #6
    41ac:	00000ceb 	andeq	r0, r0, fp, ror #25
    41b0:	0053e903 	subseq	lr, r3, r3, lsl #18
    41b4:	01040000 	mrseq	r0, (UNDEF: 4)
    41b8:	0023020f 	eoreq	r0, r3, pc, lsl #4
    41bc:	000e4b06 	andeq	r4, lr, r6, lsl #22
    41c0:	53ea0300 	mvnpl	r0, #0
    41c4:	04000000 	streq	r0, [r0], #-0
    41c8:	23020e01 	movwcs	r0, #11777	; 0x2e01
    41cc:	0cf40600 	ldcleq	6, cr0, [r4]
    41d0:	eb030000 	bl	c41d8 <__bss_end+0xb108c>
    41d4:	00000053 	andeq	r0, r0, r3, asr r0
    41d8:	020d0104 	andeq	r0, sp, #1
    41dc:	50060023 	andpl	r0, r6, r3, lsr #32
    41e0:	0300000e 	movweq	r0, #14
    41e4:	000053ec 	andeq	r5, r0, ip, ror #7
    41e8:	08050400 	stmdaeq	r5, {sl}
    41ec:	06002302 	streq	r2, [r0], -r2, lsl #6
    41f0:	000003a8 	andeq	r0, r0, r8, lsr #7
    41f4:	0053ed03 	subseq	lr, r3, r3, lsl #26
    41f8:	01040000 	mrseq	r0, (UNDEF: 4)
    41fc:	00230207 	eoreq	r0, r3, r7, lsl #4
    4200:	000e5506 	andeq	r5, lr, r6, lsl #10
    4204:	53ee0300 	mvnpl	r0, #0
    4208:	04000000 	streq	r0, [r0], #-0
    420c:	23020205 	movwcs	r0, #8709	; 0x2205
    4210:	08310600 	ldmdaeq	r1!, {r9, sl}
    4214:	ef030000 	svc	0x00030000
    4218:	00000053 	andeq	r0, r0, r3, asr r0
    421c:	02010104 	andeq	r0, r1, #1
    4220:	0f060023 	svceq	0x00060023
    4224:	0300000d 	movweq	r0, #13
    4228:	000053f0 	strdeq	r5, [r0], -r0
    422c:	00010400 	andeq	r0, r1, r0, lsl #8
    4230:	00002302 	andeq	r2, r0, r2, lsl #6
    4234:	e2030407 	and	r0, r3, #117440512	; 0x7000000
    4238:	00000530 	andeq	r0, r0, r0, lsr r5
    423c:	0002c608 	andeq	ip, r2, r8, lsl #12
    4240:	53e40300 	mvnpl	r0, #0
    4244:	08000000 	stmdaeq	r0, {}	; <UNPREDICTABLE>
    4248:	00000925 	andeq	r0, r0, r5, lsr #18
    424c:	045ef103 	ldrbeq	pc, [lr], #-259	; 0x103	; <UNPREDICTABLE>
    4250:	03000000 	movweq	r0, #0
    4254:	00000f60 	andeq	r0, r0, r0, ror #30
    4258:	0511f203 	ldreq	pc, [r1, #-515]	; 0x203
    425c:	04050000 	streq	r0, [r5], #-0
    4260:	05dff703 	ldrbeq	pc, [pc, #1795]	; 496b <__resume1_start+0x496b>	; <UNPREDICTABLE>
    4264:	46060000 	strmi	r0, [r6], -r0
    4268:	0300000e 	movweq	r0, #14
    426c:	000053f9 	strdeq	r5, [r0], -r9
    4270:	18080400 	stmdane	r8, {sl}
    4274:	06002302 	streq	r2, [r0], -r2, lsl #6
    4278:	00000d9e 	muleq	r0, lr, sp
    427c:	0053fa03 	subseq	pc, r3, r3, lsl #20
    4280:	08040000 	stmdaeq	r4, {}	; <UNPREDICTABLE>
    4284:	00230210 	eoreq	r0, r3, r0, lsl r2
    4288:	0003f006 	andeq	pc, r3, r6
    428c:	53fb0300 	mvnspl	r0, #0
    4290:	04000000 	streq	r0, [r0], #-0
    4294:	23020f01 	movwcs	r0, #12033	; 0x2f01
    4298:	0e4b0600 	cdpeq	6, 4, cr0, cr11, cr0, {0}
    429c:	fc030000 	stc2	0, cr0, [r3], {-0}
    42a0:	00000053 	andeq	r0, r0, r3, asr r0
    42a4:	020e0104 	andeq	r0, lr, #1
    42a8:	f4060023 	vst4.8	{d0-d3}, [r6 :128], r3
    42ac:	0300000c 	movweq	r0, #12
    42b0:	000053fd 	strdeq	r5, [r0], -sp
    42b4:	0d010400 	cfstrseq	mvf0, [r1, #-0]
    42b8:	06002302 	streq	r2, [r0], -r2, lsl #6
    42bc:	00000e50 	andeq	r0, r0, r0, asr lr
    42c0:	0053fe03 	subseq	pc, r3, r3, lsl #28
    42c4:	05040000 	streq	r0, [r4, #-0]
    42c8:	00230208 	eoreq	r0, r3, r8, lsl #4
    42cc:	0003a806 	andeq	sl, r3, r6, lsl #16
    42d0:	53ff0300 	mvnspl	r0, #0
    42d4:	04000000 	streq	r0, [r0], #-0
    42d8:	23020701 	movwcs	r0, #9985	; 0x2701
    42dc:	0e550900 	cdpeq	9, 5, cr0, cr5, cr0, {0}
    42e0:	00030000 	andeq	r0, r3, r0
    42e4:	00005301 	andeq	r5, r0, r1, lsl #6
    42e8:	01060400 	tsteq	r6, r0, lsl #8
    42ec:	09002302 	stmdbeq	r0, {r1, r8, r9, sp}
    42f0:	00000d0f 	andeq	r0, r0, pc, lsl #26
    42f4:	53010103 	movwpl	r0, #4355	; 0x1103
    42f8:	04000000 	streq	r0, [r0], #-0
    42fc:	23020001 	movwcs	r0, #8193	; 0x2001
    4300:	04070000 	streq	r0, [r7], #-0
    4304:	05fff403 	ldrbeq	pc, [pc, #1027]!	; 470f <__resume1_start+0x470f>	; <UNPREDICTABLE>
    4308:	c6080000 	strgt	r0, [r8], -r0
    430c:	03000002 	movweq	r0, #2
    4310:	000053f6 	strdeq	r5, [r0], -r6
    4314:	09250a00 	stmdbeq	r5!, {r9, fp}
    4318:	02030000 	andeq	r0, r3, #0
    431c:	00053b01 	andeq	r3, r5, r1, lsl #22
    4320:	c20b0000 	andgt	r0, fp, #0
    4324:	0300000b 	movweq	r0, #11
    4328:	05df0103 	ldrbeq	r0, [pc, #259]	; 4433 <__resume1_start+0x4433>
    432c:	040c0000 	streq	r0, [ip], #-0
    4330:	c9010803 	stmdbgt	r1, {r0, r1, fp}
    4334:	09000006 	stmdbeq	r0, {r1, r2}
    4338:	00000c82 	andeq	r0, r0, r2, lsl #25
    433c:	53010a03 	movwpl	r0, #6659	; 0x1a03
    4340:	04000000 	streq	r0, [r0], #-0
    4344:	23021e02 	movwcs	r1, #11778	; 0x2e02
    4348:	0e460900 	cdpeq	9, 4, cr0, cr6, cr0, {0}
    434c:	0b030000 	bleq	c4354 <__bss_end+0xb1208>
    4350:	00005301 	andeq	r5, r0, r1, lsl #6
    4354:	18060400 	stmdane	r6, {sl}
    4358:	09002302 	stmdbeq	r0, {r1, r8, r9, sp}
    435c:	00000d9e 	muleq	r0, lr, sp
    4360:	53010c03 	movwpl	r0, #7171	; 0x1c03
    4364:	04000000 	streq	r0, [r0], #-0
    4368:	23021008 	movwcs	r1, #8200	; 0x2008
    436c:	03f00900 	mvnseq	r0, #0
    4370:	0d030000 	stceq	0, cr0, [r3, #-0]
    4374:	00005301 	andeq	r5, r0, r1, lsl #6
    4378:	0f010400 	svceq	0x00010400
    437c:	09002302 	stmdbeq	r0, {r1, r8, r9, sp}
    4380:	00000e4b 	andeq	r0, r0, fp, asr #28
    4384:	53010e03 	movwpl	r0, #7683	; 0x1e03
    4388:	04000000 	streq	r0, [r0], #-0
    438c:	23020e01 	movwcs	r0, #11777	; 0x2e01
    4390:	0cf40900 	ldcleq	9, cr0, [r4]
    4394:	0f030000 	svceq	0x00030000
    4398:	00005301 	andeq	r5, r0, r1, lsl #6
    439c:	0d010400 	cfstrseq	mvf0, [r1, #-0]
    43a0:	09002302 	stmdbeq	r0, {r1, r8, r9, sp}
    43a4:	00000e50 	andeq	r0, r0, r0, asr lr
    43a8:	53011003 	movwpl	r1, #4099	; 0x1003
    43ac:	04000000 	streq	r0, [r0], #-0
    43b0:	23020805 	movwcs	r0, #10245	; 0x2805
    43b4:	03a80900 			; <UNDEFINED> instruction: 0x03a80900
    43b8:	11030000 	mrsne	r0, (UNDEF: 3)
    43bc:	00005301 	andeq	r5, r0, r1, lsl #6
    43c0:	07010400 	streq	r0, [r1, -r0, lsl #8]
    43c4:	09002302 	stmdbeq	r0, {r1, r8, r9, sp}
    43c8:	00000e55 	andeq	r0, r0, r5, asr lr
    43cc:	53011203 	movwpl	r1, #4611	; 0x1203
    43d0:	04000000 	streq	r0, [r0], #-0
    43d4:	23020106 	movwcs	r0, #8454	; 0x2106
    43d8:	0d0f0900 	stceq	9, cr0, [pc, #-0]	; 43e0 <__resume1_start+0x43e0>
    43dc:	13030000 	movwne	r0, #12288	; 0x3000
    43e0:	00005301 	andeq	r5, r0, r1, lsl #6
    43e4:	00010400 	andeq	r0, r1, r0, lsl #8
    43e8:	00002302 	andeq	r2, r0, r2, lsl #6
    43ec:	0503040d 	streq	r0, [r3, #-1037]	; 0x40d
    43f0:	0006eb01 	andeq	lr, r6, r1, lsl #22
    43f4:	02c60a00 	sbceq	r0, r6, #0
    43f8:	07030000 	streq	r0, [r3, -r0]
    43fc:	00005301 	andeq	r5, r0, r1, lsl #6
    4400:	09250a00 	stmdbeq	r5!, {r9, fp}
    4404:	14030000 	strne	r0, [r3], #-0
    4408:	00060b01 	andeq	r0, r6, r1, lsl #22
    440c:	930b0000 	movwls	r0, #45056	; 0xb000
    4410:	03000008 	movweq	r0, #8
    4414:	06c90115 			; <UNDEFINED> instruction: 0x06c90115
    4418:	040c0000 	streq	r0, [ip], #-0
    441c:	a3011a03 	movwge	r1, #6659	; 0x1a03
    4420:	09000007 	stmdbeq	r0, {r0, r1, r2}
    4424:	00000e46 	andeq	r0, r0, r6, asr #28
    4428:	53011c03 	movwpl	r1, #7171	; 0x1c03
    442c:	04000000 	streq	r0, [r0], #-0
    4430:	23021808 	movwcs	r1, #10248	; 0x2808
    4434:	0d9e0900 	ldceq	9, cr0, [lr]
    4438:	1d030000 	stcne	0, cr0, [r3, #-0]
    443c:	00005301 	andeq	r5, r0, r1, lsl #6
    4440:	10080400 	andne	r0, r8, r0, lsl #8
    4444:	09002302 	stmdbeq	r0, {r1, r8, r9, sp}
    4448:	00000ceb 	andeq	r0, r0, fp, ror #25
    444c:	53011e03 	movwpl	r1, #7683	; 0x1e03
    4450:	04000000 	streq	r0, [r0], #-0
    4454:	23020f01 	movwcs	r0, #12033	; 0x2f01
    4458:	0e4b0900 	cdpeq	9, 4, cr0, cr11, cr0, {0}
    445c:	1f030000 	svcne	0x00030000
    4460:	00005301 	andeq	r5, r0, r1, lsl #6
    4464:	0e010400 	cfcpyseq	mvf0, mvf1
    4468:	09002302 	stmdbeq	r0, {r1, r8, r9, sp}
    446c:	00000cf4 	strdeq	r0, [r0], -r4
    4470:	53012003 	movwpl	r2, #4099	; 0x1003
    4474:	04000000 	streq	r0, [r0], #-0
    4478:	23020d01 	movwcs	r0, #11521	; 0x2d01
    447c:	0e500900 	cdpeq	9, 5, cr0, cr0, cr0, {0}
    4480:	21030000 	mrscs	r0, (UNDEF: 3)
    4484:	00005301 	andeq	r5, r0, r1, lsl #6
    4488:	08050400 	stmdaeq	r5, {sl}
    448c:	09002302 	stmdbeq	r0, {r1, r8, r9, sp}
    4490:	000003a8 	andeq	r0, r0, r8, lsr #7
    4494:	53012203 	movwpl	r2, #4611	; 0x1203
    4498:	04000000 	streq	r0, [r0], #-0
    449c:	23020701 	movwcs	r0, #9985	; 0x2701
    44a0:	0e550900 	cdpeq	9, 5, cr0, cr5, cr0, {0}
    44a4:	23030000 	movwcs	r0, #12288	; 0x3000
    44a8:	00005301 	andeq	r5, r0, r1, lsl #6
    44ac:	01060400 	tsteq	r6, r0, lsl #8
    44b0:	09002302 	stmdbeq	r0, {r1, r8, r9, sp}
    44b4:	00000d0f 	andeq	r0, r0, pc, lsl #26
    44b8:	53012403 	movwpl	r2, #5123	; 0x1403
    44bc:	04000000 	streq	r0, [r0], #-0
    44c0:	23020001 	movwcs	r0, #8193	; 0x2001
    44c4:	040d0000 	streq	r0, [sp], #-0
    44c8:	c5011703 	strgt	r1, [r1, #-1795]	; 0x703
    44cc:	0a000007 	beq	44f0 <__resume1_start+0x44f0>
    44d0:	000002c6 	andeq	r0, r0, r6, asr #5
    44d4:	53011903 	movwpl	r1, #6403	; 0x1903
    44d8:	0a000000 	beq	44e0 <__resume1_start+0x44e0>
    44dc:	00000925 	andeq	r0, r0, r5, lsr #18
    44e0:	f7012503 			; <UNDEFINED> instruction: 0xf7012503
    44e4:	00000006 	andeq	r0, r0, r6
    44e8:	00027c0b 	andeq	r7, r2, fp, lsl #24
    44ec:	01260300 	teqeq	r6, r0, lsl #6
    44f0:	000007a3 	andeq	r0, r0, r3, lsr #15
    44f4:	2b03040c 	blcs	c552c <__bss_end+0xb23e0>
    44f8:	00087d01 	andeq	r7, r8, r1, lsl #26
    44fc:	0e460900 	cdpeq	9, 4, cr0, cr6, cr0, {0}
    4500:	2d030000 	stccs	0, cr0, [r3, #-0]
    4504:	00005301 	andeq	r5, r0, r1, lsl #6
    4508:	18080400 	stmdane	r8, {sl}
    450c:	09002302 	stmdbeq	r0, {r1, r8, r9, sp}
    4510:	00000d9e 	muleq	r0, lr, sp
    4514:	53012e03 	movwpl	r2, #7683	; 0x1e03
    4518:	04000000 	streq	r0, [r0], #-0
    451c:	23021008 	movwcs	r1, #8200	; 0x2008
    4520:	0ceb0900 	stcleq	9, cr0, [fp]
    4524:	2f030000 	svccs	0x00030000
    4528:	00005301 	andeq	r5, r0, r1, lsl #6
    452c:	0f010400 	svceq	0x00010400
    4530:	09002302 	stmdbeq	r0, {r1, r8, r9, sp}
    4534:	00000e4b 	andeq	r0, r0, fp, asr #28
    4538:	53013003 	movwpl	r3, #4099	; 0x1003
    453c:	04000000 	streq	r0, [r0], #-0
    4540:	23020e01 	movwcs	r0, #11777	; 0x2e01
    4544:	0cf40900 	ldcleq	9, cr0, [r4]
    4548:	31030000 	mrscc	r0, (UNDEF: 3)
    454c:	00005301 	andeq	r5, r0, r1, lsl #6
    4550:	0d010400 	cfstrseq	mvf0, [r1, #-0]
    4554:	09002302 	stmdbeq	r0, {r1, r8, r9, sp}
    4558:	00000e50 	andeq	r0, r0, r0, asr lr
    455c:	53013203 	movwpl	r3, #4611	; 0x1203
    4560:	04000000 	streq	r0, [r0], #-0
    4564:	23020805 	movwcs	r0, #10245	; 0x2805
    4568:	03a80900 			; <UNDEFINED> instruction: 0x03a80900
    456c:	33030000 	movwcc	r0, #12288	; 0x3000
    4570:	00005301 	andeq	r5, r0, r1, lsl #6
    4574:	07010400 	streq	r0, [r1, -r0, lsl #8]
    4578:	09002302 	stmdbeq	r0, {r1, r8, r9, sp}
    457c:	00000e55 	andeq	r0, r0, r5, asr lr
    4580:	53013403 	movwpl	r3, #5123	; 0x1403
    4584:	04000000 	streq	r0, [r0], #-0
    4588:	23020106 	movwcs	r0, #8454	; 0x2106
    458c:	0d0f0900 	stceq	9, cr0, [pc, #-0]	; 4594 <__resume1_start+0x4594>
    4590:	35030000 	strcc	r0, [r3, #-0]
    4594:	00005301 	andeq	r5, r0, r1, lsl #6
    4598:	00010400 	andeq	r0, r1, r0, lsl #8
    459c:	00002302 	andeq	r2, r0, r2, lsl #6
    45a0:	2803040d 	stmdacs	r3, {r0, r2, r3, sl}
    45a4:	00089f01 	andeq	r9, r8, r1, lsl #30
    45a8:	02c60a00 	sbceq	r0, r6, #0
    45ac:	2a030000 	bcs	c45b4 <__bss_end+0xb1468>
    45b0:	00005301 	andeq	r5, r0, r1, lsl #6
    45b4:	09250a00 	stmdbeq	r5!, {r9, fp}
    45b8:	36030000 	strcc	r0, [r3], -r0
    45bc:	0007d101 	andeq	sp, r7, r1, lsl #2
    45c0:	df0b0000 	svcle	0x000b0000
    45c4:	0300000e 	movweq	r0, #14
    45c8:	087d0137 	ldmdaeq	sp!, {r0, r1, r2, r4, r5, r8}^
    45cc:	040c0000 	streq	r0, [ip], #-0
    45d0:	57013c03 	strpl	r3, [r1, -r3, lsl #24]
    45d4:	09000009 	stmdbeq	r0, {r0, r3}
    45d8:	00000e46 	andeq	r0, r0, r6, asr #28
    45dc:	53013e03 	movwpl	r3, #7683	; 0x1e03
    45e0:	04000000 	streq	r0, [r0], #-0
    45e4:	23021808 	movwcs	r1, #10248	; 0x2808
    45e8:	0d9e0900 	ldceq	9, cr0, [lr]
    45ec:	3f030000 	svccc	0x00030000
    45f0:	00005301 	andeq	r5, r0, r1, lsl #6
    45f4:	10080400 	andne	r0, r8, r0, lsl #8
    45f8:	09002302 	stmdbeq	r0, {r1, r8, r9, sp}
    45fc:	00000ceb 	andeq	r0, r0, fp, ror #25
    4600:	53014003 	movwpl	r4, #4099	; 0x1003
    4604:	04000000 	streq	r0, [r0], #-0
    4608:	23020f01 	movwcs	r0, #12033	; 0x2f01
    460c:	0e4b0900 	cdpeq	9, 4, cr0, cr11, cr0, {0}
    4610:	41030000 	mrsmi	r0, (UNDEF: 3)
    4614:	00005301 	andeq	r5, r0, r1, lsl #6
    4618:	0e010400 	cfcpyseq	mvf0, mvf1
    461c:	09002302 	stmdbeq	r0, {r1, r8, r9, sp}
    4620:	00000cf4 	strdeq	r0, [r0], -r4
    4624:	53014203 	movwpl	r4, #4611	; 0x1203
    4628:	04000000 	streq	r0, [r0], #-0
    462c:	23020d01 	movwcs	r0, #11521	; 0x2d01
    4630:	0e500900 	cdpeq	9, 5, cr0, cr0, cr0, {0}
    4634:	43030000 	movwmi	r0, #12288	; 0x3000
    4638:	00005301 	andeq	r5, r0, r1, lsl #6
    463c:	08050400 	stmdaeq	r5, {sl}
    4640:	09002302 	stmdbeq	r0, {r1, r8, r9, sp}
    4644:	000003a8 	andeq	r0, r0, r8, lsr #7
    4648:	53014403 	movwpl	r4, #5123	; 0x1403
    464c:	04000000 	streq	r0, [r0], #-0
    4650:	23020701 	movwcs	r0, #9985	; 0x2701
    4654:	0e550900 	cdpeq	9, 5, cr0, cr5, cr0, {0}
    4658:	45030000 	strmi	r0, [r3, #-0]
    465c:	00005301 	andeq	r5, r0, r1, lsl #6
    4660:	01060400 	tsteq	r6, r0, lsl #8
    4664:	09002302 	stmdbeq	r0, {r1, r8, r9, sp}
    4668:	00000d0f 	andeq	r0, r0, pc, lsl #26
    466c:	53014603 	movwpl	r4, #5635	; 0x1603
    4670:	04000000 	streq	r0, [r0], #-0
    4674:	23020001 	movwcs	r0, #8193	; 0x2001
    4678:	040d0000 	streq	r0, [sp], #-0
    467c:	79013903 	stmdbvc	r1, {r0, r1, r8, fp, ip, sp}
    4680:	0a000009 	beq	46ac <__resume1_start+0x46ac>
    4684:	000002c6 	andeq	r0, r0, r6, asr #5
    4688:	53013b03 	movwpl	r3, #6915	; 0x1b03
    468c:	0a000000 	beq	4694 <__resume1_start+0x4694>
    4690:	00000925 	andeq	r0, r0, r5, lsr #18
    4694:	ab014703 	blge	562a8 <__bss_end+0x4315c>
    4698:	00000008 	andeq	r0, r0, r8
    469c:	000f250b 	andeq	r2, pc, fp, lsl #10
    46a0:	01480300 	mrseq	r0, (UNDEF: 120)
    46a4:	00000957 	andeq	r0, r0, r7, asr r9
    46a8:	4d03040c 	cfstrsmi	mvf0, [r3, #-48]	; 0xffffffd0
    46ac:	000a3101 	andeq	r3, sl, r1, lsl #2
    46b0:	0e460900 	cdpeq	9, 4, cr0, cr6, cr0, {0}
    46b4:	4f030000 	svcmi	0x00030000
    46b8:	00005301 	andeq	r5, r0, r1, lsl #6
    46bc:	18080400 	stmdane	r8, {sl}
    46c0:	09002302 	stmdbeq	r0, {r1, r8, r9, sp}
    46c4:	00000d9e 	muleq	r0, lr, sp
    46c8:	53015003 	movwpl	r5, #4099	; 0x1003
    46cc:	04000000 	streq	r0, [r0], #-0
    46d0:	23021008 	movwcs	r1, #8200	; 0x2008
    46d4:	0ceb0900 	stcleq	9, cr0, [fp]
    46d8:	51030000 	mrspl	r0, (UNDEF: 3)
    46dc:	00005301 	andeq	r5, r0, r1, lsl #6
    46e0:	0f010400 	svceq	0x00010400
    46e4:	09002302 	stmdbeq	r0, {r1, r8, r9, sp}
    46e8:	00000e4b 	andeq	r0, r0, fp, asr #28
    46ec:	53015203 	movwpl	r5, #4611	; 0x1203
    46f0:	04000000 	streq	r0, [r0], #-0
    46f4:	23020e01 	movwcs	r0, #11777	; 0x2e01
    46f8:	0cf40900 	ldcleq	9, cr0, [r4]
    46fc:	53030000 	movwpl	r0, #12288	; 0x3000
    4700:	00005301 	andeq	r5, r0, r1, lsl #6
    4704:	0d010400 	cfstrseq	mvf0, [r1, #-0]
    4708:	09002302 	stmdbeq	r0, {r1, r8, r9, sp}
    470c:	00000e50 	andeq	r0, r0, r0, asr lr
    4710:	53015403 	movwpl	r5, #5123	; 0x1403
    4714:	04000000 	streq	r0, [r0], #-0
    4718:	23020805 	movwcs	r0, #10245	; 0x2805
    471c:	03a80900 			; <UNDEFINED> instruction: 0x03a80900
    4720:	55030000 	strpl	r0, [r3, #-0]
    4724:	00005301 	andeq	r5, r0, r1, lsl #6
    4728:	07010400 	streq	r0, [r1, -r0, lsl #8]
    472c:	09002302 	stmdbeq	r0, {r1, r8, r9, sp}
    4730:	00000e55 	andeq	r0, r0, r5, asr lr
    4734:	53015603 	movwpl	r5, #5635	; 0x1603
    4738:	04000000 	streq	r0, [r0], #-0
    473c:	23020106 	movwcs	r0, #8454	; 0x2106
    4740:	0d0f0900 	stceq	9, cr0, [pc, #-0]	; 4748 <__resume1_start+0x4748>
    4744:	57030000 	strpl	r0, [r3, -r0]
    4748:	00005301 	andeq	r5, r0, r1, lsl #6
    474c:	00010400 	andeq	r0, r1, r0, lsl #8
    4750:	00002302 	andeq	r2, r0, r2, lsl #6
    4754:	4a03040d 	bmi	c5790 <__bss_end+0xb2644>
    4758:	000a5301 	andeq	r5, sl, r1, lsl #6
    475c:	02c60a00 	sbceq	r0, r6, #0
    4760:	4c030000 	stcmi	0, cr0, [r3], {-0}
    4764:	00005301 	andeq	r5, r0, r1, lsl #6
    4768:	09250a00 	stmdbeq	r5!, {r9, fp}
    476c:	58030000 	stmdapl	r3, {}	; <UNPREDICTABLE>
    4770:	00098501 	andeq	r8, r9, r1, lsl #10
    4774:	dd0b0000 	stcle	0, cr0, [fp, #-0]
    4778:	03000007 	movweq	r0, #7
    477c:	0a310159 	beq	c44ce8 <__bss_end+0xc31b9c>
    4780:	040c0000 	streq	r0, [ip], #-0
    4784:	b1015e03 	tstlt	r1, r3, lsl #28
    4788:	0900000a 	stmdbeq	r0, {r1, r3}
    478c:	00000b2d 	andeq	r0, r0, sp, lsr #22
    4790:	53016003 	movwpl	r6, #4099	; 0x1003
    4794:	04000000 	streq	r0, [r0], #-0
    4798:	23021f01 	movwcs	r1, #12033	; 0x2f01
    479c:	0e460900 	cdpeq	9, 4, cr0, cr6, cr0, {0}
    47a0:	61030000 	mrsvs	r0, (UNDEF: 3)
    47a4:	00005301 	andeq	r5, r0, r1, lsl #6
    47a8:	18070400 	stmdane	r7, {sl}
    47ac:	09002302 	stmdbeq	r0, {r1, r8, r9, sp}
    47b0:	0000047a 	andeq	r0, r0, sl, ror r4
    47b4:	53016203 	movwpl	r6, #4611	; 0x1203
    47b8:	04000000 	streq	r0, [r0], #-0
    47bc:	23021701 	movwcs	r1, #9985	; 0x2701
    47c0:	0e4b0900 	cdpeq	9, 4, cr0, cr11, cr0, {0}
    47c4:	63030000 	movwvs	r0, #12288	; 0x3000
    47c8:	00005301 	andeq	r5, r0, r1, lsl #6
    47cc:	00170400 	andseq	r0, r7, r0, lsl #8
    47d0:	00002302 	andeq	r2, r0, r2, lsl #6
    47d4:	5b03040d 	blpl	c5810 <__bss_end+0xb26c4>
    47d8:	000ad301 	andeq	sp, sl, r1, lsl #6
    47dc:	02c60a00 	sbceq	r0, r6, #0
    47e0:	5d030000 	stcpl	0, cr0, [r3, #-0]
    47e4:	00005301 	andeq	r5, r0, r1, lsl #6
    47e8:	09250a00 	stmdbeq	r5!, {r9, fp}
    47ec:	64030000 	strvs	r0, [r3], #-0
    47f0:	000a5f01 	andeq	r5, sl, r1, lsl #30
    47f4:	1f0b0000 	svcne	0x000b0000
    47f8:	03000006 	movweq	r0, #6
    47fc:	0ab10165 	beq	fec44d98 <__bss_end+0xfec31c4c>
    4800:	040c0000 	streq	r0, [ip], #-0
    4804:	31016a03 	tstcc	r1, r3, lsl #20
    4808:	0900000b 	stmdbeq	r0, {r0, r1, r3}
    480c:	000008ae 	andeq	r0, r0, lr, lsr #17
    4810:	53016c03 	movwpl	r6, #7171	; 0x1c03
    4814:	04000000 	streq	r0, [r0], #-0
    4818:	23021d03 	movwcs	r1, #11523	; 0x2d03
    481c:	0e460900 	cdpeq	9, 4, cr0, cr6, cr0, {0}
    4820:	6d030000 	stcvs	0, cr0, [r3, #-0]
    4824:	00005301 	andeq	r5, r0, r1, lsl #6
    4828:	18050400 	stmdane	r5, {sl}
    482c:	09002302 	stmdbeq	r0, {r1, r8, r9, sp}
    4830:	0000035d 	andeq	r0, r0, sp, asr r3
    4834:	53016e03 	movwpl	r6, #7683	; 0x1e03
    4838:	04000000 	streq	r0, [r0], #-0
    483c:	23021602 	movwcs	r1, #9730	; 0x2602
    4840:	0e4b0900 	cdpeq	9, 4, cr0, cr11, cr0, {0}
    4844:	6f030000 	svcvs	0x00030000
    4848:	00005301 	andeq	r5, r0, r1, lsl #6
    484c:	10060400 	andne	r0, r6, r0, lsl #8
    4850:	00002302 	andeq	r2, r0, r2, lsl #6
    4854:	6703040d 	strvs	r0, [r3, -sp, lsl #8]
    4858:	000b5301 	andeq	r5, fp, r1, lsl #6
    485c:	02c60a00 	sbceq	r0, r6, #0
    4860:	69030000 	stmdbvs	r3, {}	; <UNPREDICTABLE>
    4864:	00005301 	andeq	r5, r0, r1, lsl #6
    4868:	09250a00 	stmdbeq	r5!, {r9, fp}
    486c:	70030000 	andvc	r0, r3, r0
    4870:	000adf01 	andeq	sp, sl, r1, lsl #30
    4874:	b30b0000 	movwlt	r0, #45056	; 0xb000
    4878:	03000009 	movweq	r0, #9
    487c:	0b310171 	bleq	c44e48 <__bss_end+0xc31cfc>
    4880:	040c0000 	streq	r0, [ip], #-0
    4884:	b1017603 	tstlt	r1, r3, lsl #12
    4888:	0900000b 	stmdbeq	r0, {r0, r1, r3}
    488c:	000006bf 			; <UNDEFINED> instruction: 0x000006bf
    4890:	53017803 	movwpl	r7, #6147	; 0x1803
    4894:	04000000 	streq	r0, [r0], #-0
    4898:	23021d03 	movwcs	r1, #11523	; 0x2d03
    489c:	0e460900 	cdpeq	9, 4, cr0, cr6, cr0, {0}
    48a0:	79030000 	stmdbvc	r3, {}	; <UNPREDICTABLE>
    48a4:	00005301 	andeq	r5, r0, r1, lsl #6
    48a8:	18050400 	stmdane	r5, {sl}
    48ac:	09002302 	stmdbeq	r0, {r1, r8, r9, sp}
    48b0:	000006ae 	andeq	r0, r0, lr, lsr #13
    48b4:	53017a03 	movwpl	r7, #6659	; 0x1a03
    48b8:	04000000 	streq	r0, [r0], #-0
    48bc:	23021602 	movwcs	r1, #9730	; 0x2602
    48c0:	0e4b0900 	cdpeq	9, 4, cr0, cr11, cr0, {0}
    48c4:	7b030000 	blvc	c48cc <__bss_end+0xb1780>
    48c8:	00005301 	andeq	r5, r0, r1, lsl #6
    48cc:	10060400 	andne	r0, r6, r0, lsl #8
    48d0:	00002302 	andeq	r2, r0, r2, lsl #6
    48d4:	7303040d 	movwvc	r0, #13325	; 0x340d
    48d8:	000bd301 	andeq	sp, fp, r1, lsl #6
    48dc:	02c60a00 	sbceq	r0, r6, #0
    48e0:	75030000 	strvc	r0, [r3, #-0]
    48e4:	00005301 	andeq	r5, r0, r1, lsl #6
    48e8:	09250a00 	stmdbeq	r5!, {r9, fp}
    48ec:	7c030000 	stcvc	0, cr0, [r3], {-0}
    48f0:	000b5f01 	andeq	r5, fp, r1, lsl #30
    48f4:	210b0000 	mrscs	r0, (UNDEF: 11)
    48f8:	0300000d 	movweq	r0, #13
    48fc:	0bb1017d 	bleq	fec44ef8 <__bss_end+0xfec31dac>
    4900:	040c0000 	streq	r0, [ip], #-0
    4904:	31018203 	tstcc	r1, r3, lsl #4
    4908:	0900000c 	stmdbeq	r0, {r2, r3}
    490c:	000006e2 	andeq	r0, r0, r2, ror #13
    4910:	53018403 	movwpl	r8, #5123	; 0x1403
    4914:	04000000 	streq	r0, [r0], #-0
    4918:	23021e02 	movwcs	r1, #11778	; 0x2e02
    491c:	0e460900 	cdpeq	9, 4, cr0, cr6, cr0, {0}
    4920:	85030000 	strhi	r0, [r3, #-0]
    4924:	00005301 	andeq	r5, r0, r1, lsl #6
    4928:	08160400 	ldmdaeq	r6, {sl}
    492c:	09002302 	stmdbeq	r0, {r1, r8, r9, sp}
    4930:	000007bb 			; <UNDEFINED> instruction: 0x000007bb
    4934:	53018603 	movwpl	r8, #5635	; 0x1603
    4938:	04000000 	streq	r0, [r0], #-0
    493c:	23020602 	movwcs	r0, #9730	; 0x2602
    4940:	0e4b0900 	cdpeq	9, 4, cr0, cr11, cr0, {0}
    4944:	87030000 	strhi	r0, [r3, -r0]
    4948:	00005301 	andeq	r5, r0, r1, lsl #6
    494c:	00060400 	andeq	r0, r6, r0, lsl #8
    4950:	00002302 	andeq	r2, r0, r2, lsl #6
    4954:	7f03040d 	svcvc	0x0003040d
    4958:	000c5301 	andeq	r5, ip, r1, lsl #6
    495c:	02c60a00 	sbceq	r0, r6, #0
    4960:	81030000 	mrshi	r0, (UNDEF: 3)
    4964:	00005301 	andeq	r5, r0, r1, lsl #6
    4968:	09250a00 	stmdbeq	r5!, {r9, fp}
    496c:	88030000 	stmdahi	r3, {}	; <UNPREDICTABLE>
    4970:	000bdf01 	andeq	sp, fp, r1, lsl #30
    4974:	280b0000 	stmdacs	fp, {}	; <UNPREDICTABLE>
    4978:	03000003 	movweq	r0, #3
    497c:	0c310189 	ldfeqs	f0, [r1], #-548	; 0xfffffddc
    4980:	040c0000 	streq	r0, [ip], #-0
    4984:	b1018e03 	tstlt	r1, r3, lsl #28
    4988:	0900000c 	stmdbeq	r0, {r2, r3}
    498c:	00000c23 	andeq	r0, r0, r3, lsr #24
    4990:	53019003 	movwpl	r9, #4099	; 0x1003
    4994:	04000000 	streq	r0, [r0], #-0
    4998:	23021e02 	movwcs	r1, #11778	; 0x2e02
    499c:	0e460900 	cdpeq	9, 4, cr0, cr6, cr0, {0}
    49a0:	91030000 	mrsls	r0, (UNDEF: 3)
    49a4:	00005301 	andeq	r5, r0, r1, lsl #6
    49a8:	08160400 	ldmdaeq	r6, {sl}
    49ac:	09002302 	stmdbeq	r0, {r1, r8, r9, sp}
    49b0:	00000e26 	andeq	r0, r0, r6, lsr #28
    49b4:	53019203 	movwpl	r9, #4611	; 0x1203
    49b8:	04000000 	streq	r0, [r0], #-0
    49bc:	23020602 	movwcs	r0, #9730	; 0x2602
    49c0:	0e4b0900 	cdpeq	9, 4, cr0, cr11, cr0, {0}
    49c4:	93030000 	movwls	r0, #12288	; 0x3000
    49c8:	00005301 	andeq	r5, r0, r1, lsl #6
    49cc:	00060400 	andeq	r0, r6, r0, lsl #8
    49d0:	00002302 	andeq	r2, r0, r2, lsl #6
    49d4:	8b03040d 	blhi	c5a10 <__bss_end+0xb28c4>
    49d8:	000cd301 	andeq	sp, ip, r1, lsl #6
    49dc:	02c60a00 	sbceq	r0, r6, #0
    49e0:	8d030000 	stchi	0, cr0, [r3, #-0]
    49e4:	00005301 	andeq	r5, r0, r1, lsl #6
    49e8:	09250a00 	stmdbeq	r5!, {r9, fp}
    49ec:	94030000 	strls	r0, [r3], #-0
    49f0:	000c5f01 	andeq	r5, ip, r1, lsl #30
    49f4:	e40b0000 	str	r0, [fp], #-0
    49f8:	0300000b 	movweq	r0, #11
    49fc:	0cb10195 	ldfeqs	f0, [r1], #596	; 0x254
    4a00:	040c0000 	streq	r0, [ip], #-0
    4a04:	31019a03 	tstcc	r1, r3, lsl #20
    4a08:	0900000d 	stmdbeq	r0, {r0, r2, r3}
    4a0c:	00000ae6 	andeq	r0, r0, r6, ror #21
    4a10:	53019c03 	movwpl	r9, #7171	; 0x1c03
    4a14:	04000000 	streq	r0, [r0], #-0
    4a18:	23021e02 	movwcs	r1, #11778	; 0x2e02
    4a1c:	0e460900 	cdpeq	9, 4, cr0, cr6, cr0, {0}
    4a20:	9d030000 	stcls	0, cr0, [r3, #-0]
    4a24:	00005301 	andeq	r5, r0, r1, lsl #6
    4a28:	08160400 	ldmdaeq	r6, {sl}
    4a2c:	09002302 	stmdbeq	r0, {r1, r8, r9, sp}
    4a30:	00000669 	andeq	r0, r0, r9, ror #12
    4a34:	53019e03 	movwpl	r9, #7683	; 0x1e03
    4a38:	04000000 	streq	r0, [r0], #-0
    4a3c:	23020602 	movwcs	r0, #9730	; 0x2602
    4a40:	0e4b0900 	cdpeq	9, 4, cr0, cr11, cr0, {0}
    4a44:	9f030000 	svcls	0x00030000
    4a48:	00005301 	andeq	r5, r0, r1, lsl #6
    4a4c:	00060400 	andeq	r0, r6, r0, lsl #8
    4a50:	00002302 	andeq	r2, r0, r2, lsl #6
    4a54:	9703040d 	strls	r0, [r3, -sp, lsl #8]
    4a58:	000d5301 	andeq	r5, sp, r1, lsl #6
    4a5c:	02c60a00 	sbceq	r0, r6, #0
    4a60:	99030000 	stmdbls	r3, {}	; <UNPREDICTABLE>
    4a64:	00005301 	andeq	r5, r0, r1, lsl #6
    4a68:	09250a00 	stmdbeq	r5!, {r9, fp}
    4a6c:	a0030000 	andge	r0, r3, r0
    4a70:	000cdf01 	andeq	sp, ip, r1, lsl #30
    4a74:	0d0b0000 	stceq	0, cr0, [fp, #-0]
    4a78:	0300000a 	movweq	r0, #10
    4a7c:	0d3101a1 	ldfeqs	f0, [r1, #-644]!	; 0xfffffd7c
    4a80:	040c0000 	streq	r0, [ip], #-0
    4a84:	b101a603 	tstlt	r1, r3, lsl #12
    4a88:	0900000d 	stmdbeq	r0, {r0, r2, r3}
    4a8c:	00000a99 	muleq	r0, r9, sl
    4a90:	5301a803 	movwpl	sl, #6147	; 0x1803
    4a94:	04000000 	streq	r0, [r0], #-0
    4a98:	23021e02 	movwcs	r1, #11778	; 0x2e02
    4a9c:	0e460900 	cdpeq	9, 4, cr0, cr6, cr0, {0}
    4aa0:	a9030000 	stmdbge	r3, {}	; <UNPREDICTABLE>
    4aa4:	00005301 	andeq	r5, r0, r1, lsl #6
    4aa8:	08160400 	ldmdaeq	r6, {sl}
    4aac:	09002302 	stmdbeq	r0, {r1, r8, r9, sp}
    4ab0:	00000d88 	andeq	r0, r0, r8, lsl #27
    4ab4:	5301aa03 	movwpl	sl, #6659	; 0x1a03
    4ab8:	04000000 	streq	r0, [r0], #-0
    4abc:	23020602 	movwcs	r0, #9730	; 0x2602
    4ac0:	0e4b0900 	cdpeq	9, 4, cr0, cr11, cr0, {0}
    4ac4:	ab030000 	blge	c4acc <__bss_end+0xb1980>
    4ac8:	00005301 	andeq	r5, r0, r1, lsl #6
    4acc:	00060400 	andeq	r0, r6, r0, lsl #8
    4ad0:	00002302 	andeq	r2, r0, r2, lsl #6
    4ad4:	a303040d 	movwge	r0, #13325	; 0x340d
    4ad8:	000dd301 	andeq	sp, sp, r1, lsl #6
    4adc:	02c60a00 	sbceq	r0, r6, #0
    4ae0:	a5030000 	strge	r0, [r3, #-0]
    4ae4:	00005301 	andeq	r5, r0, r1, lsl #6
    4ae8:	09250a00 	stmdbeq	r5!, {r9, fp}
    4aec:	ac030000 	stcge	0, cr0, [r3], {-0}
    4af0:	000d5f01 	andeq	r5, sp, r1, lsl #30
    4af4:	7a0b0000 	bvc	2c4afc <__bss_end+0x2b19b0>
    4af8:	03000006 	movweq	r0, #6
    4afc:	0db101ad 	ldfeqs	f0, [r1, #692]!	; 0x2b4
    4b00:	040c0000 	streq	r0, [ip], #-0
    4b04:	3101b203 	tstcc	r1, r3, lsl #4
    4b08:	0900000e 	stmdbeq	r0, {r1, r2, r3}
    4b0c:	00000c36 	andeq	r0, r0, r6, lsr ip
    4b10:	5301b403 	movwpl	fp, #5123	; 0x1403
    4b14:	04000000 	streq	r0, [r0], #-0
    4b18:	23021e02 	movwcs	r1, #11778	; 0x2e02
    4b1c:	0e460900 	cdpeq	9, 4, cr0, cr6, cr0, {0}
    4b20:	b5030000 	strlt	r0, [r3, #-0]
    4b24:	00005301 	andeq	r5, r0, r1, lsl #6
    4b28:	08160400 	ldmdaeq	r6, {sl}
    4b2c:	09002302 	stmdbeq	r0, {r1, r8, r9, sp}
    4b30:	00000711 	andeq	r0, r0, r1, lsl r7
    4b34:	5301b603 	movwpl	fp, #5635	; 0x1603
    4b38:	04000000 	streq	r0, [r0], #-0
    4b3c:	23020701 	movwcs	r0, #9985	; 0x2701
    4b40:	0e4b0900 	cdpeq	9, 4, cr0, cr11, cr0, {0}
    4b44:	b7030000 	strlt	r0, [r3, -r0]
    4b48:	00005301 	andeq	r5, r0, r1, lsl #6
    4b4c:	00070400 	andeq	r0, r7, r0, lsl #8
    4b50:	00002302 	andeq	r2, r0, r2, lsl #6
    4b54:	af03040d 	svcge	0x0003040d
    4b58:	000e5301 	andeq	r5, lr, r1, lsl #6
    4b5c:	02c60a00 	sbceq	r0, r6, #0
    4b60:	b1030000 	mrslt	r0, (UNDEF: 3)
    4b64:	00005301 	andeq	r5, r0, r1, lsl #6
    4b68:	09250a00 	stmdbeq	r5!, {r9, fp}
    4b6c:	b8030000 	stmdalt	r3, {}	; <UNPREDICTABLE>
    4b70:	000ddf01 	andeq	sp, sp, r1, lsl #30
    4b74:	0f0b0000 	svceq	0x000b0000
    4b78:	0300000b 	movweq	r0, #11
    4b7c:	0e3101b9 	mrceq	1, 1, r0, cr1, cr9, {5}
    4b80:	040c0000 	streq	r0, [ip], #-0
    4b84:	d501be03 	strle	fp, [r1, #-3587]	; 0xe03
    4b88:	0900000e 	stmdbeq	r0, {r1, r2, r3}
    4b8c:	000007c9 	andeq	r0, r0, r9, asr #15
    4b90:	5301c003 	movwpl	ip, #4099	; 0x1003
    4b94:	04000000 	streq	r0, [r0], #-0
    4b98:	23021b05 	movwcs	r1, #11013	; 0x2b05
    4b9c:	0e460900 	cdpeq	9, 4, cr0, cr6, cr0, {0}
    4ba0:	c1030000 	mrsgt	r0, (UNDEF: 3)
    4ba4:	00005301 	andeq	r5, r0, r1, lsl #6
    4ba8:	100b0400 	andne	r0, fp, r0, lsl #8
    4bac:	09002302 	stmdbeq	r0, {r1, r8, r9, sp}
    4bb0:	000007d3 	ldrdeq	r0, [r0], -r3
    4bb4:	5301c203 	movwpl	ip, #4611	; 0x1203
    4bb8:	04000000 	streq	r0, [r0], #-0
    4bbc:	23020e02 	movwcs	r0, #11778	; 0x2e02
    4bc0:	0e4b0900 	cdpeq	9, 4, cr0, cr11, cr0, {0}
    4bc4:	c3030000 	movwgt	r0, #12288	; 0x3000
    4bc8:	00005301 	andeq	r5, r0, r1, lsl #6
    4bcc:	08060400 	stmdaeq	r6, {sl}
    4bd0:	09002302 	stmdbeq	r0, {r1, r8, r9, sp}
    4bd4:	00000817 	andeq	r0, r0, r7, lsl r8
    4bd8:	5301c403 	movwpl	ip, #5123	; 0x1403
    4bdc:	04000000 	streq	r0, [r0], #-0
    4be0:	23020701 	movwcs	r0, #9985	; 0x2701
    4be4:	0e500900 	cdpeq	9, 5, cr0, cr0, cr0, {0}
    4be8:	c5030000 	strgt	r0, [r3, #-0]
    4bec:	00005301 	andeq	r5, r0, r1, lsl #6
    4bf0:	00070400 	andeq	r0, r7, r0, lsl #8
    4bf4:	00002302 	andeq	r2, r0, r2, lsl #6
    4bf8:	bb03040d 	bllt	c5c34 <__bss_end+0xb2ae8>
    4bfc:	000ef701 	andeq	pc, lr, r1, lsl #14
    4c00:	02c60a00 	sbceq	r0, r6, #0
    4c04:	bd030000 	stclt	0, cr0, [r3, #-0]
    4c08:	00005301 	andeq	r5, r0, r1, lsl #6
    4c0c:	09250a00 	stmdbeq	r5!, {r9, fp}
    4c10:	c6030000 	strgt	r0, [r3], -r0
    4c14:	000e5f01 	andeq	r5, lr, r1, lsl #30
    4c18:	2a0b0000 	bcs	2c4c20 <__bss_end+0x2b1ad4>
    4c1c:	03000009 	movweq	r0, #9
    4c20:	0ed501c7 	cdpeq	1, 13, cr0, cr5, cr7, {6}
    4c24:	040c0000 	streq	r0, [ip], #-0
    4c28:	5501cc03 	strpl	ip, [r1, #-3075]	; 0xc03
    4c2c:	0900000f 	stmdbeq	r0, {r0, r1, r2, r3}
    4c30:	000002b1 			; <UNDEFINED> instruction: 0x000002b1
    4c34:	5301ce03 	movwpl	ip, #7683	; 0x1e03
    4c38:	04000000 	streq	r0, [r0], #-0
    4c3c:	23021e02 	movwcs	r1, #11778	; 0x2e02
    4c40:	0e460900 	cdpeq	9, 4, cr0, cr6, cr0, {0}
    4c44:	cf030000 	svcgt	0x00030000
    4c48:	00005301 	andeq	r5, r0, r1, lsl #6
    4c4c:	08160400 	ldmdaeq	r6, {sl}
    4c50:	09002302 	stmdbeq	r0, {r1, r8, r9, sp}
    4c54:	00000bf3 	strdeq	r0, [r0], -r3
    4c58:	5301d003 	movwpl	sp, #4099	; 0x1003
    4c5c:	04000000 	streq	r0, [r0], #-0
    4c60:	23020602 	movwcs	r0, #9730	; 0x2602
    4c64:	0e4b0900 	cdpeq	9, 4, cr0, cr11, cr0, {0}
    4c68:	d1030000 	mrsle	r0, (UNDEF: 3)
    4c6c:	00005301 	andeq	r5, r0, r1, lsl #6
    4c70:	00060400 	andeq	r0, r6, r0, lsl #8
    4c74:	00002302 	andeq	r2, r0, r2, lsl #6
    4c78:	c903040d 	stmdbgt	r3, {r0, r2, r3, sl}
    4c7c:	000f7701 	andeq	r7, pc, r1, lsl #14
    4c80:	02c60a00 	sbceq	r0, r6, #0
    4c84:	cb030000 	blgt	c4c8c <__bss_end+0xb1b40>
    4c88:	00005301 	andeq	r5, r0, r1, lsl #6
    4c8c:	09250a00 	stmdbeq	r5!, {r9, fp}
    4c90:	d2030000 	andle	r0, r3, #0
    4c94:	000f0301 	andeq	r0, pc, r1, lsl #6
    4c98:	db0b0000 	blle	2c4ca0 <__bss_end+0x2b1b54>
    4c9c:	0300000d 	movweq	r0, #13
    4ca0:	0f5501d3 	svceq	0x005501d3
    4ca4:	040c0000 	streq	r0, [ip], #-0
    4ca8:	e701d803 	str	sp, [r1, -r3, lsl #16]
    4cac:	0900000f 	stmdbeq	r0, {r0, r1, r2, r3}
    4cb0:	00000419 	andeq	r0, r0, r9, lsl r4
    4cb4:	5301da03 	movwpl	sp, #6659	; 0x1a03
    4cb8:	04000000 	streq	r0, [r0], #-0
    4cbc:	23021d03 	movwcs	r1, #11523	; 0x2d03
    4cc0:	0e460900 	cdpeq	9, 4, cr0, cr6, cr0, {0}
    4cc4:	db030000 	blle	c4ccc <__bss_end+0xb1b80>
    4cc8:	00005301 	andeq	r5, r0, r1, lsl #6
    4ccc:	08150400 	ldmdaeq	r5, {sl}
    4cd0:	09002302 	stmdbeq	r0, {r1, r8, r9, sp}
    4cd4:	00000bfa 	strdeq	r0, [r0], -sl
    4cd8:	5301dc03 	movwpl	sp, #7171	; 0x1c03
    4cdc:	04000000 	streq	r0, [r0], #-0
    4ce0:	23020602 	movwcs	r0, #9730	; 0x2602
    4ce4:	0e4b0900 	cdpeq	9, 4, cr0, cr11, cr0, {0}
    4ce8:	dd030000 	stcle	0, cr0, [r3, #-0]
    4cec:	00005301 	andeq	r5, r0, r1, lsl #6
    4cf0:	01050400 	tsteq	r5, r0, lsl #8
    4cf4:	09002302 	stmdbeq	r0, {r1, r8, r9, sp}
    4cf8:	00000b66 	andeq	r0, r0, r6, ror #22
    4cfc:	5301de03 	movwpl	sp, #7683	; 0x1e03
    4d00:	04000000 	streq	r0, [r0], #-0
    4d04:	23020001 	movwcs	r0, #8193	; 0x2001
    4d08:	040d0000 	streq	r0, [sp], #-0
    4d0c:	0901d503 	stmdbeq	r1, {r0, r1, r8, sl, ip, lr, pc}
    4d10:	0a000010 	beq	4d58 <__resume1_start+0x4d58>
    4d14:	000002c6 	andeq	r0, r0, r6, asr #5
    4d18:	5301d703 	movwpl	sp, #5891	; 0x1703
    4d1c:	0a000000 	beq	4d24 <__resume1_start+0x4d24>
    4d20:	00000925 	andeq	r0, r0, r5, lsr #18
    4d24:	8301df03 	movwhi	sp, #7939	; 0x1f03
    4d28:	0000000f 	andeq	r0, r0, pc
    4d2c:	0003e20b 	andeq	lr, r3, fp, lsl #4
    4d30:	01e00300 	mvneq	r0, r0, lsl #6
    4d34:	00000fe7 	andeq	r0, r0, r7, ror #31
    4d38:	e503040c 	str	r0, [r3, #-1036]	; 0x40c
    4d3c:	00107901 	andseq	r7, r0, r1, lsl #18
    4d40:	04190900 	ldreq	r0, [r9], #-2304	; 0x900
    4d44:	e7030000 	str	r0, [r3, -r0]
    4d48:	00005301 	andeq	r5, r0, r1, lsl #6
    4d4c:	1d030400 	cfstrsne	mvf0, [r3, #-0]
    4d50:	09002302 	stmdbeq	r0, {r1, r8, r9, sp}
    4d54:	00000e46 	andeq	r0, r0, r6, asr #28
    4d58:	5301e803 	movwpl	lr, #6147	; 0x1803
    4d5c:	04000000 	streq	r0, [r0], #-0
    4d60:	23020815 	movwcs	r0, #10261	; 0x2815
    4d64:	0bfa0900 	bleq	ffe8716c <__bss_end+0xffe74020>
    4d68:	e9030000 	stmdb	r3, {}	; <UNPREDICTABLE>
    4d6c:	00005301 	andeq	r5, r0, r1, lsl #6
    4d70:	06020400 	streq	r0, [r2], -r0, lsl #8
    4d74:	09002302 	stmdbeq	r0, {r1, r8, r9, sp}
    4d78:	00000e4b 	andeq	r0, r0, fp, asr #28
    4d7c:	5301ea03 	movwpl	lr, #6659	; 0x1a03
    4d80:	04000000 	streq	r0, [r0], #-0
    4d84:	23020105 	movwcs	r0, #8453	; 0x2105
    4d88:	0b660900 	bleq	1987190 <__bss_end+0x1974044>
    4d8c:	eb030000 	bl	c4d94 <__bss_end+0xb1c48>
    4d90:	00005301 	andeq	r5, r0, r1, lsl #6
    4d94:	00010400 	andeq	r0, r1, r0, lsl #8
    4d98:	00002302 	andeq	r2, r0, r2, lsl #6
    4d9c:	e203040d 	and	r0, r3, #218103808	; 0xd000000
    4da0:	00109b01 	andseq	r9, r0, r1, lsl #22
    4da4:	02c60a00 	sbceq	r0, r6, #0
    4da8:	e4030000 	str	r0, [r3], #-0
    4dac:	00005301 	andeq	r5, r0, r1, lsl #6
    4db0:	09250a00 	stmdbeq	r5!, {r9, fp}
    4db4:	ec030000 	stc	0, cr0, [r3], {-0}
    4db8:	00101501 	andseq	r1, r0, r1, lsl #10
    4dbc:	560b0000 	strpl	r0, [fp], -r0
    4dc0:	0300000b 	movweq	r0, #11
    4dc4:	107901ed 	rsbsne	r0, r9, sp, ror #3
    4dc8:	040c0000 	streq	r0, [ip], #-0
    4dcc:	d501f203 	strle	pc, [r1, #-515]	; 0x203
    4dd0:	09000010 	stmdbeq	r0, {r4}
    4dd4:	000007f3 	strdeq	r0, [r0], -r3
    4dd8:	5301f403 	movwpl	pc, #5123	; 0x1403	; <UNPREDICTABLE>
    4ddc:	04000000 	streq	r0, [r0], #-0
    4de0:	23021010 	movwcs	r1, #8208	; 0x2010
    4de4:	0e460900 	cdpeq	9, 4, cr0, cr6, cr0, {0}
    4de8:	f5030000 			; <UNDEFINED> instruction: 0xf5030000
    4dec:	00005301 	andeq	r5, r0, r1, lsl #6
    4df0:	00100400 	andseq	r0, r0, r0, lsl #8
    4df4:	00002302 	andeq	r2, r0, r2, lsl #6
    4df8:	ef03040d 	svc	0x0003040d
    4dfc:	0010f701 	andseq	pc, r0, r1, lsl #14
    4e00:	02c60a00 	sbceq	r0, r6, #0
    4e04:	f1030000 			; <UNDEFINED> instruction: 0xf1030000
    4e08:	00005301 	andeq	r5, r0, r1, lsl #6
    4e0c:	09250a00 	stmdbeq	r5!, {r9, fp}
    4e10:	f6030000 			; <UNDEFINED> instruction: 0xf6030000
    4e14:	0010a701 	andseq	sl, r0, r1, lsl #14
    4e18:	ce0b0000 	cdpgt	0, 0, cr0, cr11, cr0, {0}
    4e1c:	03000003 	movweq	r0, #3
    4e20:	10d501f7 	ldrshne	r0, [r5], #23
    4e24:	040c0000 	streq	r0, [ip], #-0
    4e28:	3101fc03 	tstcc	r1, r3, lsl #24
    4e2c:	09000011 	stmdbeq	r0, {r0, r4}
    4e30:	000007f3 	strdeq	r0, [r0], -r3
    4e34:	5301fe03 	movwpl	pc, #7683	; 0x1e03	; <UNPREDICTABLE>
    4e38:	04000000 	streq	r0, [r0], #-0
    4e3c:	23021010 	movwcs	r1, #8208	; 0x2010
    4e40:	0e460900 	cdpeq	9, 4, cr0, cr6, cr0, {0}
    4e44:	ff030000 			; <UNDEFINED> instruction: 0xff030000
    4e48:	00005301 	andeq	r5, r0, r1, lsl #6
    4e4c:	00100400 	andseq	r0, r0, r0, lsl #8
    4e50:	00002302 	andeq	r2, r0, r2, lsl #6
    4e54:	f903040d 			; <UNDEFINED> instruction: 0xf903040d
    4e58:	00115301 	andseq	r5, r1, r1, lsl #6
    4e5c:	02c60a00 	sbceq	r0, r6, #0
    4e60:	fb030000 	blx	c4e6a <__bss_end+0xb1d1e>
    4e64:	00005301 	andeq	r5, r0, r1, lsl #6
    4e68:	09250a00 	stmdbeq	r5!, {r9, fp}
    4e6c:	00030000 	andeq	r0, r3, r0
    4e70:	00110302 	andseq	r0, r1, r2, lsl #6
    4e74:	7d0b0000 	stcvc	0, cr0, [fp, #-0]
    4e78:	03000009 	movweq	r0, #9
    4e7c:	11310201 	teqne	r1, r1, lsl #4
    4e80:	040d0000 	streq	r0, [sp], #-0
    4e84:	75020303 	strvc	r0, [r2, #-771]	; 0x303
    4e88:	0a000011 	beq	4ed4 <__resume1_start+0x4ed4>
    4e8c:	000002c6 	andeq	r0, r0, r6, asr #5
    4e90:	53020503 	movwpl	r0, #9475	; 0x2503
    4e94:	00000000 	andeq	r0, r0, r0
    4e98:	000e840b 	andeq	r8, lr, fp, lsl #8
    4e9c:	02060300 	andeq	r0, r6, #0
    4ea0:	0000115f 	andeq	r1, r0, pc, asr r1
    4ea4:	0b03040c 	bleq	c5edc <__bss_end+0xb2d90>
    4ea8:	0011d302 	andseq	sp, r1, r2, lsl #6
    4eac:	0e460900 	cdpeq	9, 4, cr0, cr6, cr0, {0}
    4eb0:	0d030000 	stceq	0, cr0, [r3, #-0]
    4eb4:	00005302 	andeq	r5, r0, r2, lsl #6
    4eb8:	10100400 	andsne	r0, r0, r0, lsl #8
    4ebc:	09002302 	stmdbeq	r0, {r1, r8, r9, sp}
    4ec0:	000004c6 	andeq	r0, r0, r6, asr #9
    4ec4:	53020e03 	movwpl	r0, #11779	; 0x2e03
    4ec8:	04000000 	streq	r0, [r0], #-0
    4ecc:	23020b05 	movwcs	r0, #11013	; 0x2b05
    4ed0:	0e4b0900 	cdpeq	9, 4, cr0, cr11, cr0, {0}
    4ed4:	0f030000 	svceq	0x00030000
    4ed8:	00005302 	andeq	r5, r0, r2, lsl #6
    4edc:	010a0400 	tsteq	sl, r0, lsl #8
    4ee0:	09002302 	stmdbeq	r0, {r1, r8, r9, sp}
    4ee4:	000005d1 	ldrdeq	r0, [r0], -r1
    4ee8:	53021003 	movwpl	r1, #8195	; 0x2003
    4eec:	04000000 	streq	r0, [r0], #-0
    4ef0:	23020001 	movwcs	r0, #8193	; 0x2001
    4ef4:	040d0000 	streq	r0, [sp], #-0
    4ef8:	f5020803 			; <UNDEFINED> instruction: 0xf5020803
    4efc:	0a000011 	beq	4f48 <__resume1_start+0x4f48>
    4f00:	000002c6 	andeq	r0, r0, r6, asr #5
    4f04:	53020a03 	movwpl	r0, #10755	; 0x2a03
    4f08:	0a000000 	beq	4f10 <__resume1_start+0x4f10>
    4f0c:	00000925 	andeq	r0, r0, r5, lsr #18
    4f10:	81021103 	tsthi	r2, r3, lsl #2
    4f14:	00000011 	andeq	r0, r0, r1, lsl r0
    4f18:	000cfd0b 	andeq	pc, ip, fp, lsl #26
    4f1c:	02120300 	andseq	r0, r2, #0
    4f20:	000011d3 	ldrdeq	r1, [r0], -r3
    4f24:	1703040c 	strne	r0, [r3, -ip, lsl #8]
    4f28:	00125302 	andseq	r5, r2, r2, lsl #6
    4f2c:	0e460900 	cdpeq	9, 4, cr0, cr6, cr0, {0}
    4f30:	19030000 	stmdbne	r3, {}	; <UNPREDICTABLE>
    4f34:	00005302 	andeq	r5, r0, r2, lsl #6
    4f38:	10100400 	andsne	r0, r0, r0, lsl #8
    4f3c:	09002302 	stmdbeq	r0, {r1, r8, r9, sp}
    4f40:	000004c6 	andeq	r0, r0, r6, asr #9
    4f44:	53021a03 	movwpl	r1, #10755	; 0x2a03
    4f48:	04000000 	streq	r0, [r0], #-0
    4f4c:	23020b05 	movwcs	r0, #11013	; 0x2b05
    4f50:	0e4b0900 	cdpeq	9, 4, cr0, cr11, cr0, {0}
    4f54:	1b030000 	blne	c4f5c <__bss_end+0xb1e10>
    4f58:	00005302 	andeq	r5, r0, r2, lsl #6
    4f5c:	010a0400 	tsteq	sl, r0, lsl #8
    4f60:	09002302 	stmdbeq	r0, {r1, r8, r9, sp}
    4f64:	000005d1 	ldrdeq	r0, [r0], -r1
    4f68:	53021c03 	movwpl	r1, #11267	; 0x2c03
    4f6c:	04000000 	streq	r0, [r0], #-0
    4f70:	23020001 	movwcs	r0, #8193	; 0x2001
    4f74:	040d0000 	streq	r0, [sp], #-0
    4f78:	75021403 	strvc	r1, [r2, #-1027]	; 0x403
    4f7c:	0a000012 	beq	4fcc <__resume1_start+0x4fcc>
    4f80:	000002c6 	andeq	r0, r0, r6, asr #5
    4f84:	53021603 	movwpl	r1, #9731	; 0x2603
    4f88:	0a000000 	beq	4f90 <__resume1_start+0x4f90>
    4f8c:	00000925 	andeq	r0, r0, r5, lsr #18
    4f90:	01021d03 	tsteq	r2, r3, lsl #26
    4f94:	00000012 	andeq	r0, r0, r2, lsl r0
    4f98:	0005b00b 	andeq	fp, r5, fp
    4f9c:	021e0300 	andseq	r0, lr, #0
    4fa0:	00001253 	andeq	r1, r0, r3, asr r2
    4fa4:	2303040c 	movwcs	r0, #13324	; 0x340c
    4fa8:	0012c102 	andseq	ip, r2, r2, lsl #2
    4fac:	0e460900 	cdpeq	9, 4, cr0, cr6, cr0, {0}
    4fb0:	25030000 	strcs	r0, [r3, #-0]
    4fb4:	00005302 	andeq	r5, r0, r2, lsl #6
    4fb8:	10100400 	andsne	r0, r0, r0, lsl #8
    4fbc:	09002302 	stmdbeq	r0, {r1, r8, r9, sp}
    4fc0:	00000ebb 			; <UNDEFINED> instruction: 0x00000ebb
    4fc4:	53022603 	movwpl	r2, #9731	; 0x2603
    4fc8:	04000000 	streq	r0, [r0], #-0
    4fcc:	23020b05 	movwcs	r0, #11013	; 0x2b05
    4fd0:	0e4b0900 	cdpeq	9, 4, cr0, cr11, cr0, {0}
    4fd4:	27030000 	strcs	r0, [r3, -r0]
    4fd8:	00005302 	andeq	r5, r0, r2, lsl #6
    4fdc:	000b0400 	andeq	r0, fp, r0, lsl #8
    4fe0:	00002302 	andeq	r2, r0, r2, lsl #6
    4fe4:	2003040d 	andcs	r0, r3, sp, lsl #8
    4fe8:	0012e302 	andseq	lr, r2, r2, lsl #6
    4fec:	02c60a00 	sbceq	r0, r6, #0
    4ff0:	22030000 	andcs	r0, r3, #0
    4ff4:	00005302 	andeq	r5, r0, r2, lsl #6
    4ff8:	09250a00 	stmdbeq	r5!, {r9, fp}
    4ffc:	28030000 	stmdacs	r3, {}	; <UNPREDICTABLE>
    5000:	00128102 	andseq	r8, r2, r2, lsl #2
    5004:	d10b0000 	mrsle	r0, (UNDEF: 11)
    5008:	0300000a 	movweq	r0, #10
    500c:	12c10229 	sbcne	r0, r1, #-1879048190	; 0x90000002
    5010:	040c0000 	streq	r0, [ip], #-0
    5014:	2f022e03 	svccs	0x00022e03
    5018:	09000013 	stmdbeq	r0, {r0, r1, r4}
    501c:	00000e46 	andeq	r0, r0, r6, asr #28
    5020:	53023003 	movwpl	r3, #8195	; 0x2003
    5024:	04000000 	streq	r0, [r0], #-0
    5028:	23021010 	movwcs	r1, #8208	; 0x2010
    502c:	0ebb0900 	cdpeq	9, 11, cr0, cr11, cr0, {0}
    5030:	31030000 	mrscc	r0, (UNDEF: 3)
    5034:	00005302 	andeq	r5, r0, r2, lsl #6
    5038:	0b050400 	bleq	146040 <__bss_end+0x132ef4>
    503c:	09002302 	stmdbeq	r0, {r1, r8, r9, sp}
    5040:	00000e4b 	andeq	r0, r0, fp, asr #28
    5044:	53023203 	movwpl	r3, #8707	; 0x2203
    5048:	04000000 	streq	r0, [r0], #-0
    504c:	2302000b 	movwcs	r0, #8203	; 0x200b
    5050:	040d0000 	streq	r0, [sp], #-0
    5054:	51022b03 	tstpl	r2, r3, lsl #22
    5058:	0a000013 	beq	50ac <__resume1_start+0x50ac>
    505c:	000002c6 	andeq	r0, r0, r6, asr #5
    5060:	53022d03 	movwpl	r2, #11523	; 0x2d03
    5064:	0a000000 	beq	506c <__resume1_start+0x506c>
    5068:	00000925 	andeq	r0, r0, r5, lsr #18
    506c:	ef023303 	svc	0x00023303
    5070:	00000012 	andeq	r0, r0, r2, lsl r0
    5074:	000a820b 	andeq	r8, sl, fp, lsl #4
    5078:	02340300 	eorseq	r0, r4, #0
    507c:	0000132f 	andeq	r1, r0, pc, lsr #6
    5080:	3903040c 	stmdbcc	r3, {r2, r3, sl}
    5084:	00139d02 	andseq	r9, r3, r2, lsl #26
    5088:	0e460900 	cdpeq	9, 4, cr0, cr6, cr0, {0}
    508c:	3b030000 	blcc	c5094 <__bss_end+0xb1f48>
    5090:	00005302 	andeq	r5, r0, r2, lsl #6
    5094:	10100400 	andsne	r0, r0, r0, lsl #8
    5098:	09002302 	stmdbeq	r0, {r1, r8, r9, sp}
    509c:	00000ebb 			; <UNDEFINED> instruction: 0x00000ebb
    50a0:	53023c03 	movwpl	r3, #11267	; 0x2c03
    50a4:	04000000 	streq	r0, [r0], #-0
    50a8:	23020b05 	movwcs	r0, #11013	; 0x2b05
    50ac:	0e4b0900 	cdpeq	9, 4, cr0, cr11, cr0, {0}
    50b0:	3d030000 	stccc	0, cr0, [r3, #-0]
    50b4:	00005302 	andeq	r5, r0, r2, lsl #6
    50b8:	000b0400 	andeq	r0, fp, r0, lsl #8
    50bc:	00002302 	andeq	r2, r0, r2, lsl #6
    50c0:	3603040d 	strcc	r0, [r3], -sp, lsl #8
    50c4:	0013bf02 	andseq	fp, r3, r2, lsl #30
    50c8:	02c60a00 	sbceq	r0, r6, #0
    50cc:	38030000 	stmdacc	r3, {}	; <UNPREDICTABLE>
    50d0:	00005302 	andeq	r5, r0, r2, lsl #6
    50d4:	09250a00 	stmdbeq	r5!, {r9, fp}
    50d8:	3e030000 	cdpcc	0, 0, cr0, cr3, cr0, {0}
    50dc:	00135d02 	andseq	r5, r3, r2, lsl #26
    50e0:	370b0000 	strcc	r0, [fp, -r0]
    50e4:	0300000a 	movweq	r0, #10
    50e8:	139d023f 	orrsne	r0, sp, #-268435453	; 0xf0000003
    50ec:	040c0000 	streq	r0, [ip], #-0
    50f0:	0b024403 	bleq	96104 <__bss_end+0x82fb8>
    50f4:	09000014 	stmdbeq	r0, {r2, r4}
    50f8:	00000e46 	andeq	r0, r0, r6, asr #28
    50fc:	53024603 	movwpl	r4, #9731	; 0x2603
    5100:	04000000 	streq	r0, [r0], #-0
    5104:	23021010 	movwcs	r1, #8208	; 0x2010
    5108:	04420900 	strbeq	r0, [r2], #-2304	; 0x900
    510c:	47030000 	strmi	r0, [r3, -r0]
    5110:	00005302 	andeq	r5, r0, r2, lsl #6
    5114:	0b050400 	bleq	14611c <__bss_end+0x132fd0>
    5118:	09002302 	stmdbeq	r0, {r1, r8, r9, sp}
    511c:	00000e4b 	andeq	r0, r0, fp, asr #28
    5120:	53024803 	movwpl	r4, #10243	; 0x2803
    5124:	04000000 	streq	r0, [r0], #-0
    5128:	2302000b 	movwcs	r0, #8203	; 0x200b
    512c:	040d0000 	streq	r0, [sp], #-0
    5130:	2d024103 	stfcss	f4, [r2, #-12]
    5134:	0a000014 	beq	518c <__resume1_start+0x518c>
    5138:	000002c6 	andeq	r0, r0, r6, asr #5
    513c:	53024303 	movwpl	r4, #8963	; 0x2303
    5140:	0a000000 	beq	5148 <__resume1_start+0x5148>
    5144:	00000925 	andeq	r0, r0, r5, lsr #18
    5148:	cb024903 	blgt	9755c <__bss_end+0x84410>
    514c:	00000013 	andeq	r0, r0, r3, lsl r0
    5150:	0003150b 	andeq	r1, r3, fp, lsl #10
    5154:	024a0300 	subeq	r0, sl, #0
    5158:	0000140b 	andeq	r1, r0, fp, lsl #8
    515c:	4f03040c 	svcmi	0x0003040c
    5160:	00147902 	andseq	r7, r4, r2, lsl #18
    5164:	0e460900 	cdpeq	9, 4, cr0, cr6, cr0, {0}
    5168:	51030000 	mrspl	r0, (UNDEF: 3)
    516c:	00005302 	andeq	r5, r0, r2, lsl #6
    5170:	10100400 	andsne	r0, r0, r0, lsl #8
    5174:	09002302 	stmdbeq	r0, {r1, r8, r9, sp}
    5178:	00000ebb 			; <UNDEFINED> instruction: 0x00000ebb
    517c:	53025203 	movwpl	r5, #8707	; 0x2203
    5180:	04000000 	streq	r0, [r0], #-0
    5184:	23020b05 	movwcs	r0, #11013	; 0x2b05
    5188:	0e4b0900 	cdpeq	9, 4, cr0, cr11, cr0, {0}
    518c:	53030000 	movwpl	r0, #12288	; 0x3000
    5190:	00005302 	andeq	r5, r0, r2, lsl #6
    5194:	000b0400 	andeq	r0, fp, r0, lsl #8
    5198:	00002302 	andeq	r2, r0, r2, lsl #6
    519c:	4c03040d 	cfstrsmi	mvf0, [r3], {13}
    51a0:	00149b02 	andseq	r9, r4, r2, lsl #22
    51a4:	02c60a00 	sbceq	r0, r6, #0
    51a8:	4e030000 	cdpmi	0, 0, cr0, cr3, cr0, {0}
    51ac:	00005302 	andeq	r5, r0, r2, lsl #6
    51b0:	09250a00 	stmdbeq	r5!, {r9, fp}
    51b4:	54030000 	strpl	r0, [r3], #-0
    51b8:	00143902 	andseq	r3, r4, r2, lsl #18
    51bc:	030b0000 	movweq	r0, #45056	; 0xb000
    51c0:	03000004 	movweq	r0, #4
    51c4:	14790255 	ldrbtne	r0, [r9], #-597	; 0x255
    51c8:	040c0000 	streq	r0, [ip], #-0
    51cc:	e7025a03 	str	r5, [r2, -r3, lsl #20]
    51d0:	09000014 	stmdbeq	r0, {r2, r4}
    51d4:	00000e46 	andeq	r0, r0, r6, asr #28
    51d8:	53025c03 	movwpl	r5, #11267	; 0x2c03
    51dc:	04000000 	streq	r0, [r0], #-0
    51e0:	23021010 	movwcs	r1, #8208	; 0x2010
    51e4:	0ebb0900 	cdpeq	9, 11, cr0, cr11, cr0, {0}
    51e8:	5d030000 	stcpl	0, cr0, [r3, #-0]
    51ec:	00005302 	andeq	r5, r0, r2, lsl #6
    51f0:	0b050400 	bleq	1461f8 <__bss_end+0x1330ac>
    51f4:	09002302 	stmdbeq	r0, {r1, r8, r9, sp}
    51f8:	00000e4b 	andeq	r0, r0, fp, asr #28
    51fc:	53025e03 	movwpl	r5, #11779	; 0x2e03
    5200:	04000000 	streq	r0, [r0], #-0
    5204:	2302000b 	movwcs	r0, #8203	; 0x200b
    5208:	040d0000 	streq	r0, [sp], #-0
    520c:	09025703 	stmdbeq	r2, {r0, r1, r8, r9, sl, ip, lr}
    5210:	0a000015 	beq	526c <__resume1_start+0x526c>
    5214:	000002c6 	andeq	r0, r0, r6, asr #5
    5218:	53025903 	movwpl	r5, #10499	; 0x2903
    521c:	0a000000 	beq	5224 <__resume1_start+0x5224>
    5220:	00000925 	andeq	r0, r0, r5, lsr #18
    5224:	a7025f03 	strge	r5, [r2, -r3, lsl #30]
    5228:	00000014 	andeq	r0, r0, r4, lsl r0
    522c:	00090f0b 	andeq	r0, r9, fp, lsl #30
    5230:	02600300 	rsbeq	r0, r0, #0
    5234:	000014e7 	andeq	r1, r0, r7, ror #9
    5238:	6503040c 	strvs	r0, [r3, #-1036]	; 0x40c
    523c:	00155502 	andseq	r5, r5, r2, lsl #10
    5240:	0e460900 	cdpeq	9, 4, cr0, cr6, cr0, {0}
    5244:	67030000 	strvs	r0, [r3, -r0]
    5248:	00005302 	andeq	r5, r0, r2, lsl #6
    524c:	10100400 	andsne	r0, r0, r0, lsl #8
    5250:	09002302 	stmdbeq	r0, {r1, r8, r9, sp}
    5254:	00000ebb 			; <UNDEFINED> instruction: 0x00000ebb
    5258:	53026803 	movwpl	r6, #10243	; 0x2803
    525c:	04000000 	streq	r0, [r0], #-0
    5260:	23020b05 	movwcs	r0, #11013	; 0x2b05
    5264:	0e4b0900 	cdpeq	9, 4, cr0, cr11, cr0, {0}
    5268:	69030000 	stmdbvs	r3, {}	; <UNPREDICTABLE>
    526c:	00005302 	andeq	r5, r0, r2, lsl #6
    5270:	000b0400 	andeq	r0, fp, r0, lsl #8
    5274:	00002302 	andeq	r2, r0, r2, lsl #6
    5278:	6203040d 	andvs	r0, r3, #218103808	; 0xd000000
    527c:	00157702 	andseq	r7, r5, r2, lsl #14
    5280:	02c60a00 	sbceq	r0, r6, #0
    5284:	64030000 	strvs	r0, [r3], #-0
    5288:	00005302 	andeq	r5, r0, r2, lsl #6
    528c:	09250a00 	stmdbeq	r5!, {r9, fp}
    5290:	6a030000 	bvs	c5298 <__bss_end+0xb214c>
    5294:	00151502 	andseq	r1, r5, r2, lsl #10
    5298:	370b0000 	strcc	r0, [fp, -r0]
    529c:	0300000f 	movweq	r0, #15
    52a0:	1555026b 	ldrbne	r0, [r5, #-619]	; 0x26b
    52a4:	040c0000 	streq	r0, [ip], #-0
    52a8:	c3027003 	movwgt	r7, #8195	; 0x2003
    52ac:	09000015 	stmdbeq	r0, {r0, r2, r4}
    52b0:	00000e46 	andeq	r0, r0, r6, asr #28
    52b4:	53027203 	movwpl	r7, #8707	; 0x2203
    52b8:	04000000 	streq	r0, [r0], #-0
    52bc:	23021010 	movwcs	r1, #8208	; 0x2010
    52c0:	0ebb0900 	cdpeq	9, 11, cr0, cr11, cr0, {0}
    52c4:	73030000 	movwvc	r0, #12288	; 0x3000
    52c8:	00005302 	andeq	r5, r0, r2, lsl #6
    52cc:	0b050400 	bleq	1462d4 <__bss_end+0x133188>
    52d0:	09002302 	stmdbeq	r0, {r1, r8, r9, sp}
    52d4:	00000e4b 	andeq	r0, r0, fp, asr #28
    52d8:	53027403 	movwpl	r7, #9219	; 0x2403
    52dc:	04000000 	streq	r0, [r0], #-0
    52e0:	2302000b 	movwcs	r0, #8203	; 0x200b
    52e4:	040d0000 	streq	r0, [sp], #-0
    52e8:	e5026d03 	str	r6, [r2, #-3331]	; 0xd03
    52ec:	0a000015 	beq	5348 <__resume1_start+0x5348>
    52f0:	000002c6 	andeq	r0, r0, r6, asr #5
    52f4:	53026f03 	movwpl	r6, #12035	; 0x2f03
    52f8:	0a000000 	beq	5300 <__resume1_start+0x5300>
    52fc:	00000925 	andeq	r0, r0, r5, lsr #18
    5300:	83027503 	movwhi	r7, #9475	; 0x2503
    5304:	00000015 	andeq	r0, r0, r5, lsl r0
    5308:	000b7a0b 	andeq	r7, fp, fp, lsl #20
    530c:	02760300 	rsbseq	r0, r6, #0
    5310:	000015c3 	andeq	r1, r0, r3, asr #11
    5314:	7b03040c 	blvc	c634c <__bss_end+0xb3200>
    5318:	00163102 	andseq	r3, r6, r2, lsl #2
    531c:	0e460900 	cdpeq	9, 4, cr0, cr6, cr0, {0}
    5320:	7d030000 	stcvc	0, cr0, [r3, #-0]
    5324:	00005302 	andeq	r5, r0, r2, lsl #6
    5328:	10100400 	andsne	r0, r0, r0, lsl #8
    532c:	09002302 	stmdbeq	r0, {r1, r8, r9, sp}
    5330:	00000ebb 			; <UNDEFINED> instruction: 0x00000ebb
    5334:	53027e03 	movwpl	r7, #11779	; 0x2e03
    5338:	04000000 	streq	r0, [r0], #-0
    533c:	23020b05 	movwcs	r0, #11013	; 0x2b05
    5340:	0e4b0900 	cdpeq	9, 4, cr0, cr11, cr0, {0}
    5344:	7f030000 	svcvc	0x00030000
    5348:	00005302 	andeq	r5, r0, r2, lsl #6
    534c:	000b0400 	andeq	r0, fp, r0, lsl #8
    5350:	00002302 	andeq	r2, r0, r2, lsl #6
    5354:	7803040d 	stmdavc	r3, {r0, r2, r3, sl}
    5358:	00165302 	andseq	r5, r6, r2, lsl #6
    535c:	02c60a00 	sbceq	r0, r6, #0
    5360:	7a030000 	bvc	c5368 <__bss_end+0xb221c>
    5364:	00005302 	andeq	r5, r0, r2, lsl #6
    5368:	09250a00 	stmdbeq	r5!, {r9, fp}
    536c:	80030000 	andhi	r0, r3, r0
    5370:	0015f102 	andseq	pc, r5, r2, lsl #2
    5374:	100b0000 	andne	r0, fp, r0
    5378:	0300000c 	movweq	r0, #12
    537c:	16310281 	ldrtne	r0, [r1], -r1, lsl #5
    5380:	040c0000 	streq	r0, [ip], #-0
    5384:	9f028603 	svcls	0x00028603
    5388:	09000016 	stmdbeq	r0, {r1, r2, r4}
    538c:	00000e46 	andeq	r0, r0, r6, asr #28
    5390:	53028803 	movwpl	r8, #10243	; 0x2803
    5394:	04000000 	streq	r0, [r0], #-0
    5398:	23021010 	movwcs	r1, #8208	; 0x2010
    539c:	0ebb0900 	cdpeq	9, 11, cr0, cr11, cr0, {0}
    53a0:	89030000 	stmdbhi	r3, {}	; <UNPREDICTABLE>
    53a4:	00005302 	andeq	r5, r0, r2, lsl #6
    53a8:	0b050400 	bleq	1463b0 <__bss_end+0x133264>
    53ac:	09002302 	stmdbeq	r0, {r1, r8, r9, sp}
    53b0:	00000e4b 	andeq	r0, r0, fp, asr #28
    53b4:	53028a03 	movwpl	r8, #10755	; 0x2a03
    53b8:	04000000 	streq	r0, [r0], #-0
    53bc:	2302000b 	movwcs	r0, #8203	; 0x200b
    53c0:	040d0000 	streq	r0, [sp], #-0
    53c4:	c1028303 	tstgt	r2, r3, lsl #6
    53c8:	0a000016 	beq	5428 <__resume1_start+0x5428>
    53cc:	000002c6 	andeq	r0, r0, r6, asr #5
    53d0:	53028503 	movwpl	r8, #9475	; 0x2503
    53d4:	0a000000 	beq	53dc <__resume1_start+0x53dc>
    53d8:	00000925 	andeq	r0, r0, r5, lsr #18
    53dc:	5f028b03 	svcpl	0x00028b03
    53e0:	00000016 	andeq	r0, r0, r6, lsl r0
    53e4:	000e9a0b 	andeq	r9, lr, fp, lsl #20
    53e8:	028c0300 	addeq	r0, ip, #0
    53ec:	0000169f 	muleq	r0, pc, r6	; <UNPREDICTABLE>
    53f0:	9103040c 	tstls	r3, ip, lsl #8
    53f4:	00178b02 	andseq	r8, r7, r2, lsl #22
    53f8:	0b720900 	bleq	1c87800 <__bss_end+0x1c746b4>
    53fc:	93030000 	movwls	r0, #12288	; 0x3000
    5400:	00005302 	andeq	r5, r0, r2, lsl #6
    5404:	19070400 	stmdbne	r7, {sl}
    5408:	09002302 	stmdbeq	r0, {r1, r8, r9, sp}
    540c:	00000e5a 	andeq	r0, r0, sl, asr lr
    5410:	53029403 	movwpl	r9, #9219	; 0x2403
    5414:	04000000 	streq	r0, [r0], #-0
    5418:	23021801 	movwcs	r1, #10241	; 0x2801
    541c:	09d60900 	ldmibeq	r6, {r8, fp}^
    5420:	95030000 	strls	r0, [r3, #-0]
    5424:	00005302 	andeq	r5, r0, r2, lsl #6
    5428:	11070400 	tstne	r7, r0, lsl #8
    542c:	09002302 	stmdbeq	r0, {r1, r8, r9, sp}
    5430:	00000c5c 	andeq	r0, r0, ip, asr ip
    5434:	53029603 	movwpl	r9, #9731	; 0x2603
    5438:	04000000 	streq	r0, [r0], #-0
    543c:	23021001 	movwcs	r1, #8193	; 0x2001
    5440:	0e600900 	cdpeq	9, 6, cr0, cr0, cr0, {0}
    5444:	97030000 	strls	r0, [r3, -r0]
    5448:	00005302 	andeq	r5, r0, r2, lsl #6
    544c:	09070400 	stmdbeq	r7, {sl}
    5450:	09002302 	stmdbeq	r0, {r1, r8, r9, sp}
    5454:	00000e46 	andeq	r0, r0, r6, asr #28
    5458:	53029803 	movwpl	r9, #10243	; 0x2803
    545c:	04000000 	streq	r0, [r0], #-0
    5460:	23020801 	movwcs	r0, #10241	; 0x2801
    5464:	046c0900 	strbteq	r0, [ip], #-2304	; 0x900
    5468:	99030000 	stmdbls	r3, {}	; <UNPREDICTABLE>
    546c:	00005302 	andeq	r5, r0, r2, lsl #6
    5470:	05030400 	streq	r0, [r3, #-1024]	; 0x400
    5474:	09002302 	stmdbeq	r0, {r1, r8, r9, sp}
    5478:	00000e4b 	andeq	r0, r0, fp, asr #28
    547c:	53029a03 	movwpl	r9, #10755	; 0x2a03
    5480:	04000000 	streq	r0, [r0], #-0
    5484:	23020401 	movwcs	r0, #9217	; 0x2401
    5488:	0bd70900 	bleq	ff5c7890 <__bss_end+0xff5b4744>
    548c:	9b030000 	blls	c5494 <__bss_end+0xb2348>
    5490:	00005302 	andeq	r5, r0, r2, lsl #6
    5494:	01030400 	tsteq	r3, r0, lsl #8
    5498:	09002302 	stmdbeq	r0, {r1, r8, r9, sp}
    549c:	00000e50 	andeq	r0, r0, r0, asr lr
    54a0:	53029c03 	movwpl	r9, #11267	; 0x2c03
    54a4:	04000000 	streq	r0, [r0], #-0
    54a8:	23020001 	movwcs	r0, #8193	; 0x2001
    54ac:	040d0000 	streq	r0, [sp], #-0
    54b0:	ad028e03 	stcge	14, cr8, [r2, #-12]
    54b4:	0a000017 	beq	5518 <__resume1_start+0x5518>
    54b8:	000002c6 	andeq	r0, r0, r6, asr #5
    54bc:	53029003 	movwpl	r9, #8195	; 0x2003
    54c0:	0a000000 	beq	54c8 <__resume1_start+0x54c8>
    54c4:	00000925 	andeq	r0, r0, r5, lsr #18
    54c8:	cd029d03 	stcgt	13, cr9, [r2, #-12]
    54cc:	00000016 	andeq	r0, r0, r6, lsl r0
    54d0:	0008cd0b 	andeq	ip, r8, fp, lsl #26
    54d4:	029e0300 	addseq	r0, lr, #0
    54d8:	0000178b 	andeq	r1, r0, fp, lsl #15
    54dc:	a303040c 	movwge	r0, #13324	; 0x340c
    54e0:	00187702 	andseq	r7, r8, r2, lsl #14
    54e4:	0b720900 	bleq	1c878ec <__bss_end+0x1c747a0>
    54e8:	a5030000 	strge	r0, [r3, #-0]
    54ec:	00005302 	andeq	r5, r0, r2, lsl #6
    54f0:	19070400 	stmdbne	r7, {sl}
    54f4:	09002302 	stmdbeq	r0, {r1, r8, r9, sp}
    54f8:	00000e5a 	andeq	r0, r0, sl, asr lr
    54fc:	5302a603 	movwpl	sl, #9731	; 0x2603
    5500:	04000000 	streq	r0, [r0], #-0
    5504:	23021801 	movwcs	r1, #10241	; 0x2801
    5508:	09d60900 	ldmibeq	r6, {r8, fp}^
    550c:	a7030000 	strge	r0, [r3, -r0]
    5510:	00005302 	andeq	r5, r0, r2, lsl #6
    5514:	11070400 	tstne	r7, r0, lsl #8
    5518:	09002302 	stmdbeq	r0, {r1, r8, r9, sp}
    551c:	00000c5c 	andeq	r0, r0, ip, asr ip
    5520:	5302a803 	movwpl	sl, #10243	; 0x2803
    5524:	04000000 	streq	r0, [r0], #-0
    5528:	23021001 	movwcs	r1, #8193	; 0x2001
    552c:	0e600900 	cdpeq	9, 6, cr0, cr0, cr0, {0}
    5530:	a9030000 	stmdbge	r3, {}	; <UNPREDICTABLE>
    5534:	00005302 	andeq	r5, r0, r2, lsl #6
    5538:	09070400 	stmdbeq	r7, {sl}
    553c:	09002302 	stmdbeq	r0, {r1, r8, r9, sp}
    5540:	00000e46 	andeq	r0, r0, r6, asr #28
    5544:	5302aa03 	movwpl	sl, #10755	; 0x2a03
    5548:	04000000 	streq	r0, [r0], #-0
    554c:	23020801 	movwcs	r0, #10241	; 0x2801
    5550:	046c0900 	strbteq	r0, [ip], #-2304	; 0x900
    5554:	ab030000 	blge	c555c <__bss_end+0xb2410>
    5558:	00005302 	andeq	r5, r0, r2, lsl #6
    555c:	05030400 	streq	r0, [r3, #-1024]	; 0x400
    5560:	09002302 	stmdbeq	r0, {r1, r8, r9, sp}
    5564:	00000e4b 	andeq	r0, r0, fp, asr #28
    5568:	5302ac03 	movwpl	sl, #11267	; 0x2c03
    556c:	04000000 	streq	r0, [r0], #-0
    5570:	23020401 	movwcs	r0, #9217	; 0x2401
    5574:	0bd70900 	bleq	ff5c797c <__bss_end+0xff5b4830>
    5578:	ad030000 	stcge	0, cr0, [r3, #-0]
    557c:	00005302 	andeq	r5, r0, r2, lsl #6
    5580:	01030400 	tsteq	r3, r0, lsl #8
    5584:	09002302 	stmdbeq	r0, {r1, r8, r9, sp}
    5588:	00000e50 	andeq	r0, r0, r0, asr lr
    558c:	5302ae03 	movwpl	sl, #11779	; 0x2e03
    5590:	04000000 	streq	r0, [r0], #-0
    5594:	23020001 	movwcs	r0, #8193	; 0x2001
    5598:	040d0000 	streq	r0, [sp], #-0
    559c:	9902a003 	stmdbls	r2, {r0, r1, sp, pc}
    55a0:	0a000018 	beq	5608 <__resume1_start+0x5608>
    55a4:	000002c6 	andeq	r0, r0, r6, asr #5
    55a8:	5302a203 	movwpl	sl, #8707	; 0x2203
    55ac:	0a000000 	beq	55b4 <__resume1_start+0x55b4>
    55b0:	00000925 	andeq	r0, r0, r5, lsr #18
    55b4:	b902af03 	stmdblt	r2, {r0, r1, r8, r9, sl, fp, sp, pc}
    55b8:	00000017 	andeq	r0, r0, r7, lsl r0
    55bc:	00069d0b 	andeq	r9, r6, fp, lsl #26
    55c0:	02b00300 	adcseq	r0, r0, #0
    55c4:	00001877 	andeq	r1, r0, r7, ror r8
    55c8:	b503040c 	strlt	r0, [r3, #-1036]	; 0x40c
    55cc:	00191b02 	andseq	r1, r9, r2, lsl #22
    55d0:	02e60900 	rsceq	r0, r6, #0
    55d4:	b7030000 	strlt	r0, [r3, -r0]
    55d8:	00005302 	andeq	r5, r0, r2, lsl #6
    55dc:	0f110400 	svceq	0x00110400
    55e0:	09002302 	stmdbeq	r0, {r1, r8, r9, sp}
    55e4:	00001734 	andeq	r1, r0, r4, lsr r7
    55e8:	5302b803 	movwpl	fp, #10243	; 0x2803
    55ec:	04000000 	streq	r0, [r0], #-0
    55f0:	23020d02 	movwcs	r0, #11522	; 0x2d02
    55f4:	0bfa0900 	bleq	ffe879fc <__bss_end+0xffe748b0>
    55f8:	b9030000 	stmdblt	r3, {}	; <UNPREDICTABLE>
    55fc:	00005302 	andeq	r5, r0, r2, lsl #6
    5600:	0c010400 	cfstrseq	mvf0, [r1], {-0}
    5604:	09002302 	stmdbeq	r0, {r1, r8, r9, sp}
    5608:	00000707 	andeq	r0, r0, r7, lsl #14
    560c:	5302ba03 	movwpl	fp, #10755	; 0x2a03
    5610:	04000000 	streq	r0, [r0], #-0
    5614:	23020309 	movwcs	r0, #8969	; 0x2309
    5618:	03070900 	movweq	r0, #30976	; 0x7900
    561c:	bb030000 	bllt	c5624 <__bss_end+0xb24d8>
    5620:	00005302 	andeq	r5, r0, r2, lsl #6
    5624:	01020400 	tsteq	r2, r0, lsl #8
    5628:	09002302 	stmdbeq	r0, {r1, r8, r9, sp}
    562c:	000004b6 			; <UNDEFINED> instruction: 0x000004b6
    5630:	5302bc03 	movwpl	fp, #11267	; 0x2c03
    5634:	04000000 	streq	r0, [r0], #-0
    5638:	23020001 	movwcs	r0, #8193	; 0x2001
    563c:	040d0000 	streq	r0, [sp], #-0
    5640:	3d02b203 	sfmcc	f3, 1, [r2, #-12]
    5644:	0a000019 	beq	56b0 <__resume1_start+0x56b0>
    5648:	000002c6 	andeq	r0, r0, r6, asr #5
    564c:	5302b403 	movwpl	fp, #9219	; 0x2403
    5650:	0a000000 	beq	5658 <__resume1_start+0x5658>
    5654:	00000925 	andeq	r0, r0, r5, lsr #18
    5658:	a502bd03 	strge	fp, [r2, #-3331]	; 0xd03
    565c:	00000018 	andeq	r0, r0, r8, lsl r0
    5660:	0002ef0b 	andeq	lr, r2, fp, lsl #30
    5664:	02be0300 	adcseq	r0, lr, #0
    5668:	0000191b 	andeq	r1, r0, fp, lsl r9
    566c:	c303040c 	movwgt	r0, #13324	; 0x340c
    5670:	0019bf02 	andseq	fp, r9, r2, lsl #30
    5674:	02e60900 	rsceq	r0, r6, #0
    5678:	c5030000 	strgt	r0, [r3, #-0]
    567c:	00005302 	andeq	r5, r0, r2, lsl #6
    5680:	0f110400 	svceq	0x00110400
    5684:	09002302 	stmdbeq	r0, {r1, r8, r9, sp}
    5688:	00001734 	andeq	r1, r0, r4, lsr r7
    568c:	5302c603 	movwpl	ip, #9731	; 0x2603
    5690:	04000000 	streq	r0, [r0], #-0
    5694:	23020d02 	movwcs	r0, #11522	; 0x2d02
    5698:	0bfa0900 	bleq	ffe87aa0 <__bss_end+0xffe74954>
    569c:	c7030000 	strgt	r0, [r3, -r0]
    56a0:	00005302 	andeq	r5, r0, r2, lsl #6
    56a4:	0c010400 	cfstrseq	mvf0, [r1], {-0}
    56a8:	09002302 	stmdbeq	r0, {r1, r8, r9, sp}
    56ac:	00000707 	andeq	r0, r0, r7, lsl #14
    56b0:	5302c803 	movwpl	ip, #10243	; 0x2803
    56b4:	04000000 	streq	r0, [r0], #-0
    56b8:	23020309 	movwcs	r0, #8969	; 0x2309
    56bc:	03070900 	movweq	r0, #30976	; 0x7900
    56c0:	c9030000 	stmdbgt	r3, {}	; <UNPREDICTABLE>
    56c4:	00005302 	andeq	r5, r0, r2, lsl #6
    56c8:	01020400 	tsteq	r2, r0, lsl #8
    56cc:	09002302 	stmdbeq	r0, {r1, r8, r9, sp}
    56d0:	000004b6 			; <UNDEFINED> instruction: 0x000004b6
    56d4:	5302ca03 	movwpl	ip, #10755	; 0x2a03
    56d8:	04000000 	streq	r0, [r0], #-0
    56dc:	23020001 	movwcs	r0, #8193	; 0x2001
    56e0:	040d0000 	streq	r0, [sp], #-0
    56e4:	e102c003 	tst	r2, r3
    56e8:	0a000019 	beq	5754 <__resume1_start+0x5754>
    56ec:	000002c6 	andeq	r0, r0, r6, asr #5
    56f0:	5302c203 	movwpl	ip, #8707	; 0x2203
    56f4:	0a000000 	beq	56fc <__resume1_start+0x56fc>
    56f8:	00000925 	andeq	r0, r0, r5, lsr #18
    56fc:	4902cb03 	stmdbmi	r2, {r0, r1, r8, r9, fp, lr, pc}
    5700:	00000019 	andeq	r0, r0, r9, lsl r0
    5704:	000ab70b 	andeq	fp, sl, fp, lsl #14
    5708:	02cc0300 	sbceq	r0, ip, #0
    570c:	000019bf 			; <UNDEFINED> instruction: 0x000019bf
    5710:	d103040c 	tstle	r3, ip, lsl #8
    5714:	001a6302 	andseq	r6, sl, r2, lsl #6
    5718:	02e60900 	rsceq	r0, r6, #0
    571c:	d3030000 	movwle	r0, #12288	; 0x3000
    5720:	00005302 	andeq	r5, r0, r2, lsl #6
    5724:	0f110400 	svceq	0x00110400
    5728:	09002302 	stmdbeq	r0, {r1, r8, r9, sp}
    572c:	00001734 	andeq	r1, r0, r4, lsr r7
    5730:	5302d403 	movwpl	sp, #9219	; 0x2403
    5734:	04000000 	streq	r0, [r0], #-0
    5738:	23020d02 	movwcs	r0, #11522	; 0x2d02
    573c:	0bfa0900 	bleq	ffe87b44 <__bss_end+0xffe749f8>
    5740:	d5030000 	strle	r0, [r3, #-0]
    5744:	00005302 	andeq	r5, r0, r2, lsl #6
    5748:	0c010400 	cfstrseq	mvf0, [r1], {-0}
    574c:	09002302 	stmdbeq	r0, {r1, r8, r9, sp}
    5750:	00000707 	andeq	r0, r0, r7, lsl #14
    5754:	5302d603 	movwpl	sp, #9731	; 0x2603
    5758:	04000000 	streq	r0, [r0], #-0
    575c:	23020309 	movwcs	r0, #8969	; 0x2309
    5760:	03070900 	movweq	r0, #30976	; 0x7900
    5764:	d7030000 	strle	r0, [r3, -r0]
    5768:	00005302 	andeq	r5, r0, r2, lsl #6
    576c:	01020400 	tsteq	r2, r0, lsl #8
    5770:	09002302 	stmdbeq	r0, {r1, r8, r9, sp}
    5774:	000004b6 			; <UNDEFINED> instruction: 0x000004b6
    5778:	5302d803 	movwpl	sp, #10243	; 0x2803
    577c:	04000000 	streq	r0, [r0], #-0
    5780:	23020001 	movwcs	r0, #8193	; 0x2001
    5784:	040d0000 	streq	r0, [sp], #-0
    5788:	8502ce03 	strhi	ip, [r2, #-3587]	; 0xe03
    578c:	0a00001a 	beq	57fc <__resume1_start+0x57fc>
    5790:	000002c6 	andeq	r0, r0, r6, asr #5
    5794:	5302d003 	movwpl	sp, #8195	; 0x2003
    5798:	0a000000 	beq	57a0 <__resume1_start+0x57a0>
    579c:	00000925 	andeq	r0, r0, r5, lsr #18
    57a0:	ed02d903 	stc	9, cr13, [r2, #-12]
    57a4:	00000019 	andeq	r0, r0, r9, lsl r0
    57a8:	000e0a0b 	andeq	r0, lr, fp, lsl #20
    57ac:	02da0300 	sbcseq	r0, sl, #0
    57b0:	00001a63 	andeq	r1, r0, r3, ror #20
    57b4:	df03040c 	svcle	0x0003040c
    57b8:	001b0702 	andseq	r0, fp, r2, lsl #14
    57bc:	02e60900 	rsceq	r0, r6, #0
    57c0:	e1030000 	mrs	r0, (UNDEF: 3)
    57c4:	00005302 	andeq	r5, r0, r2, lsl #6
    57c8:	0f110400 	svceq	0x00110400
    57cc:	09002302 	stmdbeq	r0, {r1, r8, r9, sp}
    57d0:	00001734 	andeq	r1, r0, r4, lsr r7
    57d4:	5302e203 	movwpl	lr, #8707	; 0x2203
    57d8:	04000000 	streq	r0, [r0], #-0
    57dc:	23020d02 	movwcs	r0, #11522	; 0x2d02
    57e0:	0bfa0900 	bleq	ffe87be8 <__bss_end+0xffe74a9c>
    57e4:	e3030000 	movw	r0, #12288	; 0x3000
    57e8:	00005302 	andeq	r5, r0, r2, lsl #6
    57ec:	0c010400 	cfstrseq	mvf0, [r1], {-0}
    57f0:	09002302 	stmdbeq	r0, {r1, r8, r9, sp}
    57f4:	00000707 	andeq	r0, r0, r7, lsl #14
    57f8:	5302e403 	movwpl	lr, #9219	; 0x2403
    57fc:	04000000 	streq	r0, [r0], #-0
    5800:	23020309 	movwcs	r0, #8969	; 0x2309
    5804:	03070900 	movweq	r0, #30976	; 0x7900
    5808:	e5030000 	str	r0, [r3, #-0]
    580c:	00005302 	andeq	r5, r0, r2, lsl #6
    5810:	01020400 	tsteq	r2, r0, lsl #8
    5814:	09002302 	stmdbeq	r0, {r1, r8, r9, sp}
    5818:	000004b6 			; <UNDEFINED> instruction: 0x000004b6
    581c:	5302e603 	movwpl	lr, #9731	; 0x2603
    5820:	04000000 	streq	r0, [r0], #-0
    5824:	23020001 	movwcs	r0, #8193	; 0x2001
    5828:	040d0000 	streq	r0, [sp], #-0
    582c:	2902dc03 	stmdbcs	r2, {r0, r1, sl, fp, ip, lr, pc}
    5830:	0a00001b 	beq	58a4 <__resume1_start+0x58a4>
    5834:	000002c6 	andeq	r0, r0, r6, asr #5
    5838:	5302de03 	movwpl	sp, #11779	; 0x2e03
    583c:	0a000000 	beq	5844 <__resume1_start+0x5844>
    5840:	00000925 	andeq	r0, r0, r5, lsr #18
    5844:	9102e703 	tstls	r2, r3, lsl #14
    5848:	0000001a 	andeq	r0, r0, sl, lsl r0
    584c:	00095b0b 	andeq	r5, r9, fp, lsl #22
    5850:	02e80300 	rsceq	r0, r8, #0
    5854:	00001b07 	andeq	r1, r0, r7, lsl #22
    5858:	ed03040c 	cfstrs	mvf0, [r3, #-48]	; 0xffffffd0
    585c:	001bab02 	andseq	sl, fp, r2, lsl #22
    5860:	02e60900 	rsceq	r0, r6, #0
    5864:	ef030000 	svc	0x00030000
    5868:	00005302 	andeq	r5, r0, r2, lsl #6
    586c:	0f110400 	svceq	0x00110400
    5870:	09002302 	stmdbeq	r0, {r1, r8, r9, sp}
    5874:	00001734 	andeq	r1, r0, r4, lsr r7
    5878:	5302f003 	movwpl	pc, #8195	; 0x2003	; <UNPREDICTABLE>
    587c:	04000000 	streq	r0, [r0], #-0
    5880:	23020d02 	movwcs	r0, #11522	; 0x2d02
    5884:	0bfa0900 	bleq	ffe87c8c <__bss_end+0xffe74b40>
    5888:	f1030000 			; <UNDEFINED> instruction: 0xf1030000
    588c:	00005302 	andeq	r5, r0, r2, lsl #6
    5890:	0c010400 	cfstrseq	mvf0, [r1], {-0}
    5894:	09002302 	stmdbeq	r0, {r1, r8, r9, sp}
    5898:	00000707 	andeq	r0, r0, r7, lsl #14
    589c:	5302f203 	movwpl	pc, #8707	; 0x2203	; <UNPREDICTABLE>
    58a0:	04000000 	streq	r0, [r0], #-0
    58a4:	23020309 	movwcs	r0, #8969	; 0x2309
    58a8:	03070900 	movweq	r0, #30976	; 0x7900
    58ac:	f3030000 	vhadd.u8	d0, d3, d0
    58b0:	00005302 	andeq	r5, r0, r2, lsl #6
    58b4:	01020400 	tsteq	r2, r0, lsl #8
    58b8:	09002302 	stmdbeq	r0, {r1, r8, r9, sp}
    58bc:	000004b6 			; <UNDEFINED> instruction: 0x000004b6
    58c0:	5302f403 	movwpl	pc, #9219	; 0x2403	; <UNPREDICTABLE>
    58c4:	04000000 	streq	r0, [r0], #-0
    58c8:	23020001 	movwcs	r0, #8193	; 0x2001
    58cc:	040d0000 	streq	r0, [sp], #-0
    58d0:	cd02ea03 	vstrgt	s28, [r2, #-12]
    58d4:	0a00001b 	beq	5948 <__resume1_start+0x5948>
    58d8:	000002c6 	andeq	r0, r0, r6, asr #5
    58dc:	5302ec03 	movwpl	lr, #11267	; 0x2c03
    58e0:	0a000000 	beq	58e8 <__resume1_start+0x58e8>
    58e4:	00000925 	andeq	r0, r0, r5, lsr #18
    58e8:	3502f503 	strcc	pc, [r2, #-1283]	; 0x503
    58ec:	0000001b 	andeq	r0, r0, fp, lsl r0
    58f0:	0005fe0b 	andeq	pc, r5, fp, lsl #28
    58f4:	02f60300 	rscseq	r0, r6, #0
    58f8:	00001bab 	andeq	r1, r0, fp, lsr #23
    58fc:	fb03040c 	blx	c6936 <__bss_end+0xb37ea>
    5900:	001c4f02 	andseq	r4, ip, r2, lsl #30
    5904:	02e60900 	rsceq	r0, r6, #0
    5908:	fd030000 	stc2	0, cr0, [r3, #-0]
    590c:	00005302 	andeq	r5, r0, r2, lsl #6
    5910:	0f110400 	svceq	0x00110400
    5914:	09002302 	stmdbeq	r0, {r1, r8, r9, sp}
    5918:	00001734 	andeq	r1, r0, r4, lsr r7
    591c:	5302fe03 	movwpl	pc, #11779	; 0x2e03	; <UNPREDICTABLE>
    5920:	04000000 	streq	r0, [r0], #-0
    5924:	23020d02 	movwcs	r0, #11522	; 0x2d02
    5928:	0bfa0900 	bleq	ffe87d30 <__bss_end+0xffe74be4>
    592c:	ff030000 			; <UNDEFINED> instruction: 0xff030000
    5930:	00005302 	andeq	r5, r0, r2, lsl #6
    5934:	0c010400 	cfstrseq	mvf0, [r1], {-0}
    5938:	09002302 	stmdbeq	r0, {r1, r8, r9, sp}
    593c:	00000707 	andeq	r0, r0, r7, lsl #14
    5940:	53030003 	movwpl	r0, #12291	; 0x3003
    5944:	04000000 	streq	r0, [r0], #-0
    5948:	23020309 	movwcs	r0, #8969	; 0x2309
    594c:	03070900 	movweq	r0, #30976	; 0x7900
    5950:	01030000 	mrseq	r0, (UNDEF: 3)
    5954:	00005303 	andeq	r5, r0, r3, lsl #6
    5958:	01020400 	tsteq	r2, r0, lsl #8
    595c:	09002302 	stmdbeq	r0, {r1, r8, r9, sp}
    5960:	000004b6 			; <UNDEFINED> instruction: 0x000004b6
    5964:	53030203 	movwpl	r0, #12803	; 0x3203
    5968:	04000000 	streq	r0, [r0], #-0
    596c:	23020001 	movwcs	r0, #8193	; 0x2001
    5970:	040d0000 	streq	r0, [sp], #-0
    5974:	7102f803 	tstvc	r2, r3, lsl #16
    5978:	0a00001c 	beq	59f0 <__resume1_start+0x59f0>
    597c:	000002c6 	andeq	r0, r0, r6, asr #5
    5980:	5302fa03 	movwpl	pc, #10755	; 0x2a03	; <UNPREDICTABLE>
    5984:	0a000000 	beq	598c <__resume1_start+0x598c>
    5988:	00000925 	andeq	r0, r0, r5, lsr #18
    598c:	d9030303 	stmdble	r3, {r0, r1, r8, r9}
    5990:	0000001b 	andeq	r0, r0, fp, lsl r0
    5994:	0005e50b 	andeq	lr, r5, fp, lsl #10
    5998:	03040300 	movweq	r0, #17152	; 0x4300
    599c:	00001c4f 	andeq	r1, r0, pc, asr #24
    59a0:	0903040c 	stmdbeq	r3, {r2, r3, sl}
    59a4:	001cf303 	andseq	pc, ip, r3, lsl #6
    59a8:	02e60900 	rsceq	r0, r6, #0
    59ac:	0b030000 	bleq	c59b4 <__bss_end+0xb2868>
    59b0:	00005303 	andeq	r5, r0, r3, lsl #6
    59b4:	0f110400 	svceq	0x00110400
    59b8:	09002302 	stmdbeq	r0, {r1, r8, r9, sp}
    59bc:	00001734 	andeq	r1, r0, r4, lsr r7
    59c0:	53030c03 	movwpl	r0, #15363	; 0x3c03
    59c4:	04000000 	streq	r0, [r0], #-0
    59c8:	23020d02 	movwcs	r0, #11522	; 0x2d02
    59cc:	0bfa0900 	bleq	ffe87dd4 <__bss_end+0xffe74c88>
    59d0:	0d030000 	stceq	0, cr0, [r3, #-0]
    59d4:	00005303 	andeq	r5, r0, r3, lsl #6
    59d8:	0c010400 	cfstrseq	mvf0, [r1], {-0}
    59dc:	09002302 	stmdbeq	r0, {r1, r8, r9, sp}
    59e0:	00000707 	andeq	r0, r0, r7, lsl #14
    59e4:	53030e03 	movwpl	r0, #15875	; 0x3e03
    59e8:	04000000 	streq	r0, [r0], #-0
    59ec:	23020309 	movwcs	r0, #8969	; 0x2309
    59f0:	03070900 	movweq	r0, #30976	; 0x7900
    59f4:	0f030000 	svceq	0x00030000
    59f8:	00005303 	andeq	r5, r0, r3, lsl #6
    59fc:	01020400 	tsteq	r2, r0, lsl #8
    5a00:	09002302 	stmdbeq	r0, {r1, r8, r9, sp}
    5a04:	000004b6 			; <UNDEFINED> instruction: 0x000004b6
    5a08:	53031003 	movwpl	r1, #12291	; 0x3003
    5a0c:	04000000 	streq	r0, [r0], #-0
    5a10:	23020001 	movwcs	r0, #8193	; 0x2001
    5a14:	040d0000 	streq	r0, [sp], #-0
    5a18:	15030603 	strne	r0, [r3, #-1539]	; 0x603
    5a1c:	0a00001d 	beq	5a98 <__resume1_start+0x5a98>
    5a20:	000002c6 	andeq	r0, r0, r6, asr #5
    5a24:	53030803 	movwpl	r0, #14339	; 0x3803
    5a28:	0a000000 	beq	5a30 <__resume1_start+0x5a30>
    5a2c:	00000925 	andeq	r0, r0, r5, lsr #18
    5a30:	7d031103 	stfvcs	f1, [r3, #-12]
    5a34:	0000001c 	andeq	r0, r0, ip, lsl r0
    5a38:	000ec90b 	andeq	ip, lr, fp, lsl #18
    5a3c:	03120300 	tsteq	r2, #0
    5a40:	00001cf3 	strdeq	r1, [r0], -r3
    5a44:	1703040c 	strne	r0, [r3, -ip, lsl #8]
    5a48:	001d9703 	andseq	r9, sp, r3, lsl #14
    5a4c:	02e60900 	rsceq	r0, r6, #0
    5a50:	19030000 	stmdbne	r3, {}	; <UNPREDICTABLE>
    5a54:	00005303 	andeq	r5, r0, r3, lsl #6
    5a58:	0f110400 	svceq	0x00110400
    5a5c:	09002302 	stmdbeq	r0, {r1, r8, r9, sp}
    5a60:	00001734 	andeq	r1, r0, r4, lsr r7
    5a64:	53031a03 	movwpl	r1, #14851	; 0x3a03
    5a68:	04000000 	streq	r0, [r0], #-0
    5a6c:	23020d02 	movwcs	r0, #11522	; 0x2d02
    5a70:	0bfa0900 	bleq	ffe87e78 <__bss_end+0xffe74d2c>
    5a74:	1b030000 	blne	c5a7c <__bss_end+0xb2930>
    5a78:	00005303 	andeq	r5, r0, r3, lsl #6
    5a7c:	0c010400 	cfstrseq	mvf0, [r1], {-0}
    5a80:	09002302 	stmdbeq	r0, {r1, r8, r9, sp}
    5a84:	00000707 	andeq	r0, r0, r7, lsl #14
    5a88:	53031c03 	movwpl	r1, #15363	; 0x3c03
    5a8c:	04000000 	streq	r0, [r0], #-0
    5a90:	23020309 	movwcs	r0, #8969	; 0x2309
    5a94:	03070900 	movweq	r0, #30976	; 0x7900
    5a98:	1d030000 	stcne	0, cr0, [r3, #-0]
    5a9c:	00005303 	andeq	r5, r0, r3, lsl #6
    5aa0:	01020400 	tsteq	r2, r0, lsl #8
    5aa4:	09002302 	stmdbeq	r0, {r1, r8, r9, sp}
    5aa8:	000004b6 			; <UNDEFINED> instruction: 0x000004b6
    5aac:	53031e03 	movwpl	r1, #15875	; 0x3e03
    5ab0:	04000000 	streq	r0, [r0], #-0
    5ab4:	23020001 	movwcs	r0, #8193	; 0x2001
    5ab8:	040d0000 	streq	r0, [sp], #-0
    5abc:	b9031403 	stmdblt	r3, {r0, r1, sl, ip}
    5ac0:	0a00001d 	beq	5b3c <__resume1_start+0x5b3c>
    5ac4:	000002c6 	andeq	r0, r0, r6, asr #5
    5ac8:	53031603 	movwpl	r1, #13827	; 0x3603
    5acc:	0a000000 	beq	5ad4 <__resume1_start+0x5ad4>
    5ad0:	00000925 	andeq	r0, r0, r5, lsr #18
    5ad4:	21031f03 	tstcs	r3, r3, lsl #30
    5ad8:	0000001d 	andeq	r0, r0, sp, lsl r0
    5adc:	0008fa0b 	andeq	pc, r8, fp, lsl #20
    5ae0:	03200300 	teqeq	r0, #0
    5ae4:	00001d97 	muleq	r0, r7, sp
    5ae8:	2503040c 	strcs	r0, [r3, #-1036]	; 0x40c
    5aec:	001e3b03 	andseq	r3, lr, r3, lsl #22
    5af0:	02e60900 	rsceq	r0, r6, #0
    5af4:	27030000 	strcs	r0, [r3, -r0]
    5af8:	00005303 	andeq	r5, r0, r3, lsl #6
    5afc:	0f110400 	svceq	0x00110400
    5b00:	09002302 	stmdbeq	r0, {r1, r8, r9, sp}
    5b04:	00001734 	andeq	r1, r0, r4, lsr r7
    5b08:	53032803 	movwpl	r2, #14339	; 0x3803
    5b0c:	04000000 	streq	r0, [r0], #-0
    5b10:	23020d02 	movwcs	r0, #11522	; 0x2d02
    5b14:	0bfa0900 	bleq	ffe87f1c <__bss_end+0xffe74dd0>
    5b18:	29030000 	stmdbcs	r3, {}	; <UNPREDICTABLE>
    5b1c:	00005303 	andeq	r5, r0, r3, lsl #6
    5b20:	0c010400 	cfstrseq	mvf0, [r1], {-0}
    5b24:	09002302 	stmdbeq	r0, {r1, r8, r9, sp}
    5b28:	00000707 	andeq	r0, r0, r7, lsl #14
    5b2c:	53032a03 	movwpl	r2, #14851	; 0x3a03
    5b30:	04000000 	streq	r0, [r0], #-0
    5b34:	23020309 	movwcs	r0, #8969	; 0x2309
    5b38:	03070900 	movweq	r0, #30976	; 0x7900
    5b3c:	2b030000 	blcs	c5b44 <__bss_end+0xb29f8>
    5b40:	00005303 	andeq	r5, r0, r3, lsl #6
    5b44:	01020400 	tsteq	r2, r0, lsl #8
    5b48:	09002302 	stmdbeq	r0, {r1, r8, r9, sp}
    5b4c:	000004b6 			; <UNDEFINED> instruction: 0x000004b6
    5b50:	53032c03 	movwpl	r2, #15363	; 0x3c03
    5b54:	04000000 	streq	r0, [r0], #-0
    5b58:	23020001 	movwcs	r0, #8193	; 0x2001
    5b5c:	040d0000 	streq	r0, [sp], #-0
    5b60:	5d032203 	sfmpl	f2, 4, [r3, #-12]
    5b64:	0a00001e 	beq	5be4 <__resume1_start+0x5be4>
    5b68:	000002c6 	andeq	r0, r0, r6, asr #5
    5b6c:	53032403 	movwpl	r2, #13315	; 0x3403
    5b70:	0a000000 	beq	5b78 <__resume1_start+0x5b78>
    5b74:	00000925 	andeq	r0, r0, r5, lsr #18
    5b78:	c5032d03 	strgt	r2, [r3, #-3331]	; 0xd03
    5b7c:	0000001d 	andeq	r0, r0, sp, lsl r0
    5b80:	0008010b 	andeq	r0, r8, fp, lsl #2
    5b84:	032e0300 	teqeq	lr, #0
    5b88:	00001e3b 	andeq	r1, r0, fp, lsr lr
    5b8c:	3303040c 	movwcc	r0, #13324	; 0x340c
    5b90:	001edf03 	andseq	sp, lr, r3, lsl #30
    5b94:	02e60900 	rsceq	r0, r6, #0
    5b98:	35030000 	strcc	r0, [r3, #-0]
    5b9c:	00005303 	andeq	r5, r0, r3, lsl #6
    5ba0:	0f110400 	svceq	0x00110400
    5ba4:	09002302 	stmdbeq	r0, {r1, r8, r9, sp}
    5ba8:	00001734 	andeq	r1, r0, r4, lsr r7
    5bac:	53033603 	movwpl	r3, #13827	; 0x3603
    5bb0:	04000000 	streq	r0, [r0], #-0
    5bb4:	23020d02 	movwcs	r0, #11522	; 0x2d02
    5bb8:	0bfa0900 	bleq	ffe87fc0 <__bss_end+0xffe74e74>
    5bbc:	37030000 	strcc	r0, [r3, -r0]
    5bc0:	00005303 	andeq	r5, r0, r3, lsl #6
    5bc4:	0c010400 	cfstrseq	mvf0, [r1], {-0}
    5bc8:	09002302 	stmdbeq	r0, {r1, r8, r9, sp}
    5bcc:	00000707 	andeq	r0, r0, r7, lsl #14
    5bd0:	53033803 	movwpl	r3, #14339	; 0x3803
    5bd4:	04000000 	streq	r0, [r0], #-0
    5bd8:	23020309 	movwcs	r0, #8969	; 0x2309
    5bdc:	03070900 	movweq	r0, #30976	; 0x7900
    5be0:	39030000 	stmdbcc	r3, {}	; <UNPREDICTABLE>
    5be4:	00005303 	andeq	r5, r0, r3, lsl #6
    5be8:	01020400 	tsteq	r2, r0, lsl #8
    5bec:	09002302 	stmdbeq	r0, {r1, r8, r9, sp}
    5bf0:	000004b6 			; <UNDEFINED> instruction: 0x000004b6
    5bf4:	53033a03 	movwpl	r3, #14851	; 0x3a03
    5bf8:	04000000 	streq	r0, [r0], #-0
    5bfc:	23020001 	movwcs	r0, #8193	; 0x2001
    5c00:	040d0000 	streq	r0, [sp], #-0
    5c04:	01033003 	tsteq	r3, r3
    5c08:	0a00001f 	beq	5c8c <__resume1_start+0x5c8c>
    5c0c:	000002c6 	andeq	r0, r0, r6, asr #5
    5c10:	53033203 	movwpl	r3, #12803	; 0x3203
    5c14:	0a000000 	beq	5c1c <__resume1_start+0x5c1c>
    5c18:	00000925 	andeq	r0, r0, r5, lsr #18
    5c1c:	69033b03 	stmdbvs	r3, {r0, r1, r8, r9, fp, ip, sp}
    5c20:	0000001e 	andeq	r0, r0, lr, lsl r0
    5c24:	0009390b 	andeq	r3, r9, fp, lsl #18
    5c28:	033c0300 	teqeq	ip, #0
    5c2c:	00001edf 	ldrdeq	r1, [r0], -pc	; <UNPREDICTABLE>
    5c30:	4103040c 	tstmi	r3, ip, lsl #8
    5c34:	001fa703 	andseq	sl, pc, r3, lsl #14
    5c38:	0e460900 	cdpeq	9, 4, cr0, cr6, cr0, {0}
    5c3c:	43030000 	movwmi	r0, #12288	; 0x3000
    5c40:	00005303 	andeq	r5, r0, r3, lsl #6
    5c44:	18080400 	stmdane	r8, {sl}
    5c48:	09002302 	stmdbeq	r0, {r1, r8, r9, sp}
    5c4c:	0000055b 	andeq	r0, r0, fp, asr r5
    5c50:	53034403 	movwpl	r4, #13315	; 0x3403
    5c54:	04000000 	streq	r0, [r0], #-0
    5c58:	23021305 	movwcs	r1, #8965	; 0x2305
    5c5c:	0e4b0900 	cdpeq	9, 4, cr0, cr11, cr0, {0}
    5c60:	45030000 	strmi	r0, [r3, #-0]
    5c64:	00005303 	andeq	r5, r0, r3, lsl #6
    5c68:	0c070400 	cfstrseq	mvf0, [r7], {-0}
    5c6c:	09002302 	stmdbeq	r0, {r1, r8, r9, sp}
    5c70:	00000565 	andeq	r0, r0, r5, ror #10
    5c74:	53034603 	movwpl	r4, #13827	; 0x3603
    5c78:	04000000 	streq	r0, [r0], #-0
    5c7c:	23020a02 	movwcs	r0, #10754	; 0x2a02
    5c80:	0e500900 	cdpeq	9, 5, cr0, cr0, cr0, {0}
    5c84:	47030000 	strmi	r0, [r3, -r0]
    5c88:	00005303 	andeq	r5, r0, r3, lsl #6
    5c8c:	08020400 	stmdaeq	r2, {sl}
    5c90:	09002302 	stmdbeq	r0, {r1, r8, r9, sp}
    5c94:	00000d67 	andeq	r0, r0, r7, ror #26
    5c98:	53034803 	movwpl	r4, #14339	; 0x3803
    5c9c:	04000000 	streq	r0, [r0], #-0
    5ca0:	23020602 	movwcs	r0, #9730	; 0x2602
    5ca4:	0e550900 	cdpeq	9, 5, cr0, cr5, cr0, {0}
    5ca8:	49030000 	stmdbmi	r3, {}	; <UNPREDICTABLE>
    5cac:	00005303 	andeq	r5, r0, r3, lsl #6
    5cb0:	01050400 	tsteq	r5, r0, lsl #8
    5cb4:	09002302 	stmdbeq	r0, {r1, r8, r9, sp}
    5cb8:	00000692 	muleq	r0, r2, r6
    5cbc:	53034a03 	movwpl	r4, #14851	; 0x3a03
    5cc0:	04000000 	streq	r0, [r0], #-0
    5cc4:	23020001 	movwcs	r0, #8193	; 0x2001
    5cc8:	040d0000 	streq	r0, [sp], #-0
    5ccc:	c9033e03 	stmdbgt	r3, {r0, r1, r9, sl, fp, ip, sp}
    5cd0:	0a00001f 	beq	5d54 <__resume1_start+0x5d54>
    5cd4:	000002c6 	andeq	r0, r0, r6, asr #5
    5cd8:	53034003 	movwpl	r4, #12291	; 0x3003
    5cdc:	0a000000 	beq	5ce4 <__resume1_start+0x5ce4>
    5ce0:	00000925 	andeq	r0, r0, r5, lsr #18
    5ce4:	0d034b03 	vstreq	d4, [r3, #-12]
    5ce8:	0000001f 	andeq	r0, r0, pc, lsl r0
    5cec:	000b9e0b 	andeq	r9, fp, fp, lsl #28
    5cf0:	034c0300 	movteq	r0, #49920	; 0xc300
    5cf4:	00001fa7 	andeq	r1, r0, r7, lsr #31
    5cf8:	5103040c 	tstpl	r3, ip, lsl #8
    5cfc:	00206f03 	eoreq	r6, r0, r3, lsl #30
    5d00:	0e460900 	cdpeq	9, 4, cr0, cr6, cr0, {0}
    5d04:	53030000 	movwpl	r0, #12288	; 0x3000
    5d08:	00005303 	andeq	r5, r0, r3, lsl #6
    5d0c:	18080400 	stmdane	r8, {sl}
    5d10:	09002302 	stmdbeq	r0, {r1, r8, r9, sp}
    5d14:	0000055b 	andeq	r0, r0, fp, asr r5
    5d18:	53035403 	movwpl	r5, #13315	; 0x3403
    5d1c:	04000000 	streq	r0, [r0], #-0
    5d20:	23021305 	movwcs	r1, #8965	; 0x2305
    5d24:	0e4b0900 	cdpeq	9, 4, cr0, cr11, cr0, {0}
    5d28:	55030000 	strpl	r0, [r3, #-0]
    5d2c:	00005303 	andeq	r5, r0, r3, lsl #6
    5d30:	0c070400 	cfstrseq	mvf0, [r7], {-0}
    5d34:	09002302 	stmdbeq	r0, {r1, r8, r9, sp}
    5d38:	00000565 	andeq	r0, r0, r5, ror #10
    5d3c:	53035603 	movwpl	r5, #13827	; 0x3603
    5d40:	04000000 	streq	r0, [r0], #-0
    5d44:	23020a02 	movwcs	r0, #10754	; 0x2a02
    5d48:	0e500900 	cdpeq	9, 5, cr0, cr0, cr0, {0}
    5d4c:	57030000 	strpl	r0, [r3, -r0]
    5d50:	00005303 	andeq	r5, r0, r3, lsl #6
    5d54:	08020400 	stmdaeq	r2, {sl}
    5d58:	09002302 	stmdbeq	r0, {r1, r8, r9, sp}
    5d5c:	00000d67 	andeq	r0, r0, r7, ror #26
    5d60:	53035803 	movwpl	r5, #14339	; 0x3803
    5d64:	04000000 	streq	r0, [r0], #-0
    5d68:	23020602 	movwcs	r0, #9730	; 0x2602
    5d6c:	0e550900 	cdpeq	9, 5, cr0, cr5, cr0, {0}
    5d70:	59030000 	stmdbpl	r3, {}	; <UNPREDICTABLE>
    5d74:	00005303 	andeq	r5, r0, r3, lsl #6
    5d78:	01050400 	tsteq	r5, r0, lsl #8
    5d7c:	09002302 	stmdbeq	r0, {r1, r8, r9, sp}
    5d80:	00000692 	muleq	r0, r2, r6
    5d84:	53035a03 	movwpl	r5, #14851	; 0x3a03
    5d88:	04000000 	streq	r0, [r0], #-0
    5d8c:	23020001 	movwcs	r0, #8193	; 0x2001
    5d90:	040d0000 	streq	r0, [sp], #-0
    5d94:	91034e03 	tstls	r3, r3, lsl #28
    5d98:	0a000020 	beq	5e20 <__resume1_start+0x5e20>
    5d9c:	000002c6 	andeq	r0, r0, r6, asr #5
    5da0:	53035003 	movwpl	r5, #12291	; 0x3003
    5da4:	0a000000 	beq	5dac <__resume1_start+0x5dac>
    5da8:	00000925 	andeq	r0, r0, r5, lsr #18
    5dac:	d5035b03 	strle	r5, [r3, #-2819]	; 0xb03
    5db0:	0000001f 	andeq	r0, r0, pc, lsl r0
    5db4:	0005c20b 	andeq	ip, r5, fp, lsl #4
    5db8:	035c0300 	cmpeq	ip, #0
    5dbc:	0000206f 	andeq	r2, r0, pc, rrx
    5dc0:	000f150e 	andeq	r1, pc, lr, lsl #10
    5dc4:	03018400 	movweq	r8, #5120	; 0x1400
    5dc8:	2463035e 	strbtcs	r0, [r3], #-862	; 0x35e
    5dcc:	880f0000 	stmdahi	pc, {}	; <UNPREDICTABLE>
    5dd0:	03000008 	movweq	r0, #8
    5dd4:	24630361 	strbtcs	r0, [r3], #-865	; 0x361
    5dd8:	23020000 	movwcs	r0, #8192	; 0x2000
    5ddc:	03b30f00 			; <UNDEFINED> instruction: 0x03b30f00
    5de0:	62030000 	andvs	r0, r3, #0
    5de4:	00246803 	eoreq	r6, r4, r3, lsl #16
    5de8:	04230200 	strteq	r0, [r3], #-512	; 0x200
    5dec:	000a540f 	andeq	r5, sl, pc, lsl #8
    5df0:	03630300 	cmneq	r3, #0
    5df4:	0000246d 	andeq	r2, r0, sp, ror #8
    5df8:	0f082302 	svceq	0x00082302
    5dfc:	00000848 	andeq	r0, r0, r8, asr #16
    5e00:	72036403 	andvc	r6, r3, #50331648	; 0x3000000
    5e04:	02000024 	andeq	r0, r0, #36	; 0x24
    5e08:	de0f0c23 	cdple	12, 0, cr0, cr15, cr3, {1}
    5e0c:	03000008 	movweq	r0, #8
    5e10:	24770365 	ldrbtcs	r0, [r7], #-869	; 0x365
    5e14:	23020000 	movwcs	r0, #8192	; 0x2000
    5e18:	06f60f10 	usateq	r0, #22, r0, lsl #30
    5e1c:	66030000 	strvs	r0, [r3], -r0
    5e20:	00247c03 	eoreq	r7, r4, r3, lsl #24
    5e24:	14230200 	strtne	r0, [r3], #-512	; 0x200
    5e28:	00048d0f 	andeq	r8, r4, pc, lsl #26
    5e2c:	03670300 	cmneq	r7, #0
    5e30:	00002481 	andeq	r2, r0, r1, lsl #9
    5e34:	0f182302 	svceq	0x00182302
    5e38:	00000d4d 	andeq	r0, r0, sp, asr #26
    5e3c:	86036803 	strhi	r6, [r3], -r3, lsl #16
    5e40:	02000024 	andeq	r0, r0, #36	; 0x24
    5e44:	c10f1c23 	tstgt	pc, r3, lsr #24
    5e48:	03000008 	movweq	r0, #8
    5e4c:	248b0369 	strcs	r0, [fp], #873	; 0x369
    5e50:	23020000 	movwcs	r0, #8192	; 0x2000
    5e54:	0aac0f20 	beq	feb09adc <__bss_end+0xfeaf6990>
    5e58:	6a030000 	bvs	c5e60 <__bss_end+0xb2d14>
    5e5c:	00249003 	eoreq	r9, r4, r3
    5e60:	24230200 	strtcs	r0, [r3], #-512	; 0x200
    5e64:	0009710f 	andeq	r7, r9, pc, lsl #2
    5e68:	036b0300 	cmneq	fp, #0
    5e6c:	00002495 	muleq	r0, r5, r4
    5e70:	0f282302 	svceq	0x00282302
    5e74:	0000037f 	andeq	r0, r0, pc, ror r3
    5e78:	9a036c03 	bls	e0e8c <__bss_end+0xcdd40>
    5e7c:	02000024 	andeq	r0, r0, #36	; 0x24
    5e80:	520f2c23 	andpl	r2, pc, #8960	; 0x2300
    5e84:	0300000c 	movweq	r0, #12
    5e88:	24af036e 	strtcs	r0, [pc], #878	; 5e90 <__resume1_start+0x5e90>
    5e8c:	23020000 	movwcs	r0, #8192	; 0x2000
    5e90:	0a6c0f30 	beq	1b09b58 <__bss_end+0x1af6a0c>
    5e94:	6f030000 	svcvs	0x00030000
    5e98:	0024b403 	eoreq	fp, r4, r3, lsl #8
    5e9c:	50230200 	eorpl	r0, r3, r0, lsl #4
    5ea0:	00038f0f 	andeq	r8, r3, pc, lsl #30
    5ea4:	03700300 	cmneq	r0, #0
    5ea8:	000024b9 			; <UNDEFINED> instruction: 0x000024b9
    5eac:	0f542302 	svceq	0x00542302
    5eb0:	00000c49 	andeq	r0, r0, r9, asr #24
    5eb4:	be037103 	adflts	f7, f3, f3
    5eb8:	02000024 	andeq	r0, r0, #36	; 0x24
    5ebc:	060f5823 	streq	r5, [pc], -r3, lsr #16
    5ec0:	0300000c 	movweq	r0, #12
    5ec4:	24c30372 	strbcs	r0, [r3], #882	; 0x372
    5ec8:	23020000 	movwcs	r0, #8192	; 0x2000
    5ecc:	0db20f5c 	ldceq	15, cr0, [r2, #368]!	; 0x170
    5ed0:	73030000 	movwvc	r0, #12288	; 0x3000
    5ed4:	0024c803 	eoreq	ip, r4, r3, lsl #16
    5ed8:	60230200 	eorvs	r0, r3, r0, lsl #4
    5edc:	0008280f 	andeq	r2, r8, pc, lsl #16
    5ee0:	03740300 	cmneq	r4, #0
    5ee4:	000024cd 	andeq	r2, r0, sp, asr #9
    5ee8:	0f642302 	svceq	0x00642302
    5eec:	00000521 	andeq	r0, r0, r1, lsr #10
    5ef0:	d2037503 	andle	r7, r3, #12582912	; 0xc00000
    5ef4:	02000024 	andeq	r0, r0, #36	; 0x24
    5ef8:	580f6823 	stmdapl	pc, {r0, r1, r5, fp, sp, lr}	; <UNPREDICTABLE>
    5efc:	03000004 	movweq	r0, #4
    5f00:	24d70376 	ldrbcs	r0, [r7], #886	; 0x376
    5f04:	23020000 	movwcs	r0, #8192	; 0x2000
    5f08:	06890f6c 	streq	r0, [r9], ip, ror #30
    5f0c:	77030000 	strvc	r0, [r3, -r0]
    5f10:	0024dc03 	eoreq	sp, r4, r3, lsl #24
    5f14:	70230200 	eorvc	r0, r3, r0, lsl #4
    5f18:	000f4a0f 	andeq	r4, pc, pc, lsl #20
    5f1c:	03780300 	cmneq	r8, #0
    5f20:	000024e1 	andeq	r2, r0, r1, ror #9
    5f24:	0f742302 	svceq	0x00742302
    5f28:	000005a5 	andeq	r0, r0, r5, lsr #11
    5f2c:	e6037903 	str	r7, [r3], -r3, lsl #18
    5f30:	02000024 	andeq	r0, r0, #36	; 0x24
    5f34:	610f7823 	tstvs	pc, r3, lsr #16
    5f38:	0300000c 	movweq	r0, #12
    5f3c:	24d7037a 	ldrbcs	r0, [r7], #890	; 0x37a
    5f40:	23020000 	movwcs	r0, #8192	; 0x2000
    5f44:	09530f7c 	ldmdbeq	r3, {r2, r3, r4, r5, r6, r8, r9, sl, fp}^
    5f48:	7b030000 	blvc	c5f50 <__bss_end+0xb2e04>
    5f4c:	0024eb03 	eoreq	lr, r4, r3, lsl #22
    5f50:	80230300 	eorhi	r0, r3, r0, lsl #6
    5f54:	0eb10f01 	cdpeq	15, 11, cr0, cr1, cr1, {0}
    5f58:	7c030000 	stcvc	0, cr0, [r3], {-0}
    5f5c:	0024f003 	eoreq	pc, r4, r3
    5f60:	84230300 	strthi	r0, [r3], #-768	; 0x300
    5f64:	0c6b0f01 	stcleq	15, cr0, [fp], #-4
    5f68:	7d030000 	stcvc	0, cr0, [r3, #-0]
    5f6c:	00250503 	eoreq	r0, r5, r3, lsl #10
    5f70:	88230300 	stmdahi	r3!, {r8, r9}
    5f74:	0c750f01 	ldcleq	15, cr0, [r5], #-4
    5f78:	7e030000 	cdpvc	0, 0, cr0, cr3, cr0, {0}
    5f7c:	00250a03 	eoreq	r0, r5, r3, lsl #20
    5f80:	90230300 	eorls	r0, r3, r0, lsl #6
    5f84:	07830f01 	streq	r0, [r3, r1, lsl #30]
    5f88:	7f030000 	svcvc	0x00030000
    5f8c:	00250f03 	eoreq	r0, r5, r3, lsl #30
    5f90:	94230300 	strtls	r0, [r3], #-768	; 0x300
    5f94:	04620f01 	strbteq	r0, [r2], #-3841	; 0xf01
    5f98:	80030000 	andhi	r0, r3, r0
    5f9c:	0024d703 	eoreq	sp, r4, r3, lsl #14
    5fa0:	98230300 	stmdals	r3!, {r8, r9}
    5fa4:	0f7e0f01 	svceq	0x007e0f01
    5fa8:	81030000 	mrshi	r0, (UNDEF: 3)
    5fac:	00251403 	eoreq	r1, r5, r3, lsl #8
    5fb0:	9c230300 	stcls	3, cr0, [r3], #-0
    5fb4:	0b030f01 	bleq	c9bc0 <__bss_end+0xb6a74>
    5fb8:	83030000 	movwhi	r0, #12288	; 0x3000
    5fbc:	00251903 	eoreq	r1, r5, r3, lsl #18
    5fc0:	a0230300 	eorge	r0, r3, r0, lsl #6
    5fc4:	04360f01 	ldrteq	r0, [r6], #-3841	; 0xf01
    5fc8:	84030000 	strhi	r0, [r3], #-0
    5fcc:	00251e03 	eoreq	r1, r5, r3, lsl #28
    5fd0:	a4230300 	strtge	r0, [r3], #-768	; 0x300
    5fd4:	0e370f01 	cdpeq	15, 3, cr0, cr7, cr1, {0}
    5fd8:	85030000 	strhi	r0, [r3, #-0]
    5fdc:	00252303 	eoreq	r2, r5, r3, lsl #6
    5fe0:	a8230300 	stmdage	r3!, {r8, r9}
    5fe4:	0d770f01 	ldcleq	15, cr0, [r7, #-4]!
    5fe8:	86030000 	strhi	r0, [r3], -r0
    5fec:	00252803 	eoreq	r2, r5, r3, lsl #16
    5ff0:	ac230300 	stcge	3, cr0, [r3], #-0
    5ff4:	06310f01 	ldrteq	r0, [r1], -r1, lsl #30
    5ff8:	87030000 	strhi	r0, [r3, -r0]
    5ffc:	00252d03 	eoreq	r2, r5, r3, lsl #26
    6000:	b0230300 	eorlt	r0, r3, r0, lsl #6
    6004:	028e0f01 	addeq	r0, lr, #4
    6008:	88030000 	stmdahi	r3, {}	; <UNPREDICTABLE>
    600c:	00253203 	eoreq	r3, r5, r3, lsl #4
    6010:	b4230300 	strtlt	r0, [r3], #-768	; 0x300
    6014:	09fd0f01 	ldmibeq	sp!, {r0, r8, r9, sl, fp}^
    6018:	89030000 	stmdbhi	r3, {}	; <UNPREDICTABLE>
    601c:	00253703 	eoreq	r3, r5, r3, lsl #14
    6020:	b8230300 	stmdalt	r3!, {r8, r9}
    6024:	03980f01 	orrseq	r0, r8, #4
    6028:	8a030000 	bhi	c6030 <__bss_end+0xb2ee4>
    602c:	00253c03 	eoreq	r3, r5, r3, lsl #24
    6030:	bc230300 	stclt	3, cr0, [r3], #-0
    6034:	0cbd0f01 	ldceq	15, cr0, [sp], #4
    6038:	8b030000 	blhi	c6040 <__bss_end+0xb2ef4>
    603c:	00254103 	eoreq	r4, r5, r3, lsl #2
    6040:	c0230300 	eorgt	r0, r3, r0, lsl #6
    6044:	05880f01 	streq	r0, [r8, #3841]	; 0xf01
    6048:	8c030000 	stchi	0, cr0, [r3], {-0}
    604c:	00254603 	eoreq	r4, r5, r3, lsl #12
    6050:	c4230300 	strtgt	r0, [r3], #-768	; 0x300
    6054:	0f530f01 	svceq	0x00530f01
    6058:	8d030000 	stchi	0, cr0, [r3, #-0]
    605c:	00254b03 	eoreq	r4, r5, r3, lsl #22
    6060:	c8230300 	stmdagt	r3!, {r8, r9}
    6064:	08e90f01 	stmiaeq	r9!, {r0, r8, r9, sl, fp}^
    6068:	8e030000 	cdphi	0, 0, cr0, cr3, cr0, {0}
    606c:	00255003 	eoreq	r5, r5, r3
    6070:	cc230300 	stcgt	3, cr0, [r3], #-0
    6074:	0a780f01 	beq	1e09c80 <__bss_end+0x1df6b34>
    6078:	8f030000 	svchi	0x00030000
    607c:	00256503 	eoreq	r6, r5, r3, lsl #10
    6080:	d0230300 	eorle	r0, r3, r0, lsl #6
    6084:	049c0f01 	ldreq	r0, [ip], #3841	; 0xf01
    6088:	90030000 	andls	r0, r3, r0
    608c:	00256a03 	eoreq	r6, r5, r3, lsl #20
    6090:	e0230300 	eor	r0, r3, r0, lsl #6
    6094:	0d5c0f01 	ldcleq	15, cr0, [ip, #-4]
    6098:	91030000 	mrsls	r0, (UNDEF: 3)
    609c:	00256f03 	eoreq	r6, r5, r3, lsl #30
    60a0:	e4230300 	strt	r0, [r3], #-768	; 0x300
    60a4:	0c930f01 	ldceq	15, cr0, [r3], {1}
    60a8:	92030000 	andls	r0, r3, #0
    60ac:	00258403 	eoreq	r8, r5, r3, lsl #8
    60b0:	e8230300 	stmda	r3!, {r8, r9}
    60b4:	0b8c0f01 	bleq	fe309cc0 <__bss_end+0xfe2f6b74>
    60b8:	93030000 	movwls	r0, #12288	; 0x3000
    60bc:	00258903 	eoreq	r8, r5, r3, lsl #18
    60c0:	84230300 	strthi	r0, [r3], #-768	; 0x300
    60c4:	0a230f02 	beq	8c9cd4 <__bss_end+0x8b6b88>
    60c8:	94030000 	strls	r0, [r3], #-0
    60cc:	00258e03 	eoreq	r8, r5, r3, lsl #28
    60d0:	88230300 	stmdahi	r3!, {r8, r9}
    60d4:	0b1e0f02 	bleq	789ce4 <__bss_end+0x776b98>
    60d8:	95030000 	strls	r0, [r3, #-0]
    60dc:	00259303 	eoreq	r9, r5, r3, lsl #6
    60e0:	8c230300 	stchi	3, cr0, [r3], #-0
    60e4:	04ef0f02 	strbteq	r0, [pc], #3842	; 60ec <__resume1_start+0x60ec>
    60e8:	96030000 	strls	r0, [r3], -r0
    60ec:	00259803 	eoreq	r9, r5, r3, lsl #16
    60f0:	90230300 	eorls	r0, r3, r0, lsl #6
    60f4:	05750f02 	ldrbeq	r0, [r5, #-3842]!	; 0xf02
    60f8:	97030000 	strls	r0, [r3, -r0]
    60fc:	00259d03 	eoreq	r9, r5, r3, lsl #26
    6100:	94230300 	strtls	r0, [r3], #-768	; 0x300
    6104:	09a00f02 	stmibeq	r0!, {r1, r8, r9, sl, fp}
    6108:	98030000 	stmdals	r3, {}	; <UNPREDICTABLE>
    610c:	0025a203 	eoreq	sl, r5, r3, lsl #4
    6110:	98230300 	stmdals	r3!, {r8, r9}
    6114:	07920f02 	ldreq	r0, [r2, r2, lsl #30]
    6118:	99030000 	stmdbls	r3, {}	; <UNPREDICTABLE>
    611c:	0025a703 	eoreq	sl, r5, r3, lsl #14
    6120:	9c230300 	stcls	3, cr0, [r3], #-0
    6124:	08790f02 	ldmdaeq	r9!, {r1, r8, r9, sl, fp}^
    6128:	9a030000 	bls	c6130 <__bss_end+0xb2fe4>
    612c:	0025ac03 	eoreq	sl, r5, r3, lsl #24
    6130:	a0230300 	eorge	r0, r3, r0, lsl #6
    6134:	06d20f02 	ldrbeq	r0, [r2], r2, lsl #30
    6138:	9b030000 	blls	c6140 <__bss_end+0xb2ff4>
    613c:	0025b103 	eoreq	fp, r5, r3, lsl #2
    6140:	a4230300 	strtge	r0, [r3], #-768	; 0x300
    6144:	0df60f02 	ldcleq	15, cr0, [r6, #8]!
    6148:	9c030000 	stcls	0, cr0, [r3], {-0}
    614c:	0025b603 	eoreq	fp, r5, r3, lsl #12
    6150:	a8230300 	stmdage	r3!, {r8, r9}
    6154:	0c9d0f02 	ldceq	15, cr0, [sp], {2}
    6158:	9d030000 	stcls	0, cr0, [r3, #-0]
    615c:	0025cb03 	eoreq	ip, r5, r3, lsl #22
    6160:	ac230300 	stcge	3, cr0, [r3], #-0
    6164:	077a0f02 	ldrbeq	r0, [sl, -r2, lsl #30]!
    6168:	9e030000 	cdpls	0, 0, cr0, cr3, cr0, {0}
    616c:	0025d003 	eoreq	sp, r5, r3
    6170:	fc230300 	stc2	3, cr0, [r3], #-0
    6174:	03540f02 	cmpeq	r4, #8
    6178:	9f030000 	svcls	0x00030000
    617c:	0025d503 	eoreq	sp, r5, r3, lsl #10
    6180:	80230300 	eorhi	r0, r3, r0, lsl #6
    6184:	23100003 	tstcs	r0, #3
    6188:	10000001 	andne	r0, r0, r1
    618c:	000001de 	ldrdeq	r0, [r0], -lr
    6190:	0002bb10 	andeq	fp, r2, r0, lsl fp
    6194:	03871000 	orreq	r1, r7, #0
    6198:	53100000 	tstpl	r0, #0
    619c:	10000004 	andne	r0, r0, r4
    61a0:	00000530 	andeq	r0, r0, r0, lsr r5
    61a4:	0005ff10 	andeq	pc, r5, r0, lsl pc	; <UNPREDICTABLE>
    61a8:	06eb1000 	strbteq	r1, [fp], r0
    61ac:	c5100000 	ldrgt	r0, [r0, #-0]
    61b0:	10000007 	andne	r0, r0, r7
    61b4:	0000089f 	muleq	r0, pc, r8	; <UNPREDICTABLE>
    61b8:	00097910 	andeq	r7, r9, r0, lsl r9
    61bc:	0a531000 	beq	14ca1c4 <__bss_end+0x14b7078>
    61c0:	53110000 	tstpl	r1, #0
    61c4:	af000000 	svcge	0x00000000
    61c8:	12000024 	andne	r0, r0, #36	; 0x24
    61cc:	0000005e 	andeq	r0, r0, lr, asr r0
    61d0:	9f100007 	svcls	0x00100007
    61d4:	10000024 	andne	r0, r0, r4, lsr #32
    61d8:	00000ad3 	ldrdeq	r0, [r0], -r3
    61dc:	000b5310 	andeq	r5, fp, r0, lsl r3
    61e0:	0bd31000 	bleq	ff4ca1e8 <__bss_end+0xff4b709c>
    61e4:	53100000 	tstpl	r0, #0
    61e8:	1000000c 	andne	r0, r0, ip
    61ec:	00000cd3 	ldrdeq	r0, [r0], -r3
    61f0:	000d5310 	andeq	r5, sp, r0, lsl r3
    61f4:	0dd31000 	ldcleq	0, cr1, [r3]
    61f8:	53100000 	tstpl	r0, #0
    61fc:	10000000 	andne	r0, r0, r0
    6200:	00000e53 	andeq	r0, r0, r3, asr lr
    6204:	000ef710 	andeq	pc, lr, r0, lsl r7	; <UNPREDICTABLE>
    6208:	0f771000 	svceq	0x00771000
    620c:	09100000 	ldmdbeq	r0, {}	; <UNPREDICTABLE>
    6210:	10000010 	andne	r0, r0, r0, lsl r0
    6214:	0000109b 	muleq	r0, fp, r0
    6218:	00005311 	andeq	r5, r0, r1, lsl r3
    621c:	00250500 	eoreq	r0, r5, r0, lsl #10
    6220:	005e1200 	subseq	r1, lr, r0, lsl #4
    6224:	00010000 	andeq	r0, r1, r0
    6228:	0024f510 	eoreq	pc, r4, r0, lsl r5	; <UNPREDICTABLE>
    622c:	10f71000 	rscsne	r1, r7, r0
    6230:	53100000 	tstpl	r0, #0
    6234:	10000011 	andne	r0, r0, r1, lsl r0
    6238:	00001175 	andeq	r1, r0, r5, ror r1
    623c:	0011f510 	andseq	pc, r1, r0, lsl r5	; <UNPREDICTABLE>
    6240:	12751000 	rsbsne	r1, r5, #0
    6244:	e3100000 	tst	r0, #0
    6248:	10000012 	andne	r0, r0, r2, lsl r0
    624c:	00001351 	andeq	r1, r0, r1, asr r3
    6250:	0013bf10 	andseq	fp, r3, r0, lsl pc
    6254:	142d1000 	strtne	r1, [sp], #-0
    6258:	9b100000 	blls	406260 <__bss_end+0x3f3114>
    625c:	10000014 	andne	r0, r0, r4, lsl r0
    6260:	00001509 	andeq	r1, r0, r9, lsl #10
    6264:	00157710 	andseq	r7, r5, r0, lsl r7
    6268:	15e51000 	strbne	r1, [r5, #0]!
    626c:	53100000 	tstpl	r0, #0
    6270:	10000016 	andne	r0, r0, r6, lsl r0
    6274:	000016c1 	andeq	r1, r0, r1, asr #13
    6278:	00005311 	andeq	r5, r0, r1, lsl r3
    627c:	00256500 	eoreq	r6, r5, r0, lsl #10
    6280:	005e1200 	subseq	r1, lr, r0, lsl #4
    6284:	00030000 	andeq	r0, r3, r0
    6288:	00255510 	eoreq	r5, r5, r0, lsl r5
    628c:	17ad1000 	strne	r1, [sp, r0]!
    6290:	99100000 	ldmdbls	r0, {}	; <UNPREDICTABLE>
    6294:	11000018 	tstne	r0, r8, lsl r0
    6298:	00000053 	andeq	r0, r0, r3, asr r0
    629c:	00002584 	andeq	r2, r0, r4, lsl #11
    62a0:	00005e12 	andeq	r5, r0, r2, lsl lr
    62a4:	10000600 	andne	r0, r0, r0, lsl #12
    62a8:	00002574 	andeq	r2, r0, r4, ror r5
    62ac:	00193d10 	andseq	r3, r9, r0, lsl sp
    62b0:	19e11000 	stmibne	r1!, {ip}^
    62b4:	85100000 	ldrhi	r0, [r0, #-0]
    62b8:	1000001a 	andne	r0, r0, sl, lsl r0
    62bc:	00001b29 	andeq	r1, r0, r9, lsr #22
    62c0:	001bcd10 	andseq	ip, fp, r0, lsl sp
    62c4:	1c711000 	ldclne	0, cr1, [r1], #-0
    62c8:	15100000 	ldrne	r0, [r0, #-0]
    62cc:	1000001d 	andne	r0, r0, sp, lsl r0
    62d0:	00001db9 			; <UNDEFINED> instruction: 0x00001db9
    62d4:	001e5d10 	andseq	r5, lr, r0, lsl sp
    62d8:	1f011000 	svcne	0x00011000
    62dc:	53110000 	tstpl	r1, #0
    62e0:	cb000000 	blgt	62e8 <__resume1_start+0x62e8>
    62e4:	12000025 	andne	r0, r0, #37	; 0x25
    62e8:	0000005e 	andeq	r0, r0, lr, asr r0
    62ec:	bb100013 	bllt	406340 <__bss_end+0x3f31f4>
    62f0:	10000025 	andne	r0, r0, r5, lsr #32
    62f4:	00001fc9 	andeq	r1, r0, r9, asr #31
    62f8:	00209110 	eoreq	r9, r0, r0, lsl r1
    62fc:	0dc90b00 	vstreq	d16, [r9]
    6300:	a0030000 	andge	r0, r3, r0
    6304:	00209d03 	eoreq	r9, r0, r3, lsl #26
    6308:	da041300 	ble	10af10 <__bss_end+0xf7dc4>
    630c:	02000025 	andeq	r0, r0, #37	; 0x25
    6310:	00660704 	rsbeq	r0, r6, r4, lsl #14
    6314:	39140000 	ldmdbcc	r4, {}	; <UNPREDICTABLE>
    6318:	01000017 	tsteq	r0, r7, lsl r0
    631c:	0053016d 	subseq	r0, r3, sp, ror #2
    6320:	50010000 	andpl	r0, r1, r0
    6324:	15000026 	strne	r0, [r0, #-38]	; 0x26
    6328:	0000169d 	muleq	r0, sp, r6
    632c:	00536d01 	subseq	r6, r3, r1, lsl #26
    6330:	30160000 	andscc	r0, r6, r0
    6334:	01000017 	tsteq	r0, r7, lsl r0
    6338:	0000536f 	andeq	r5, r0, pc, ror #6
    633c:	16051600 	strne	r1, [r5], -r0, lsl #12
    6340:	70010000 	andvc	r0, r1, r0
    6344:	00000053 	andeq	r0, r0, r3, asr r0
    6348:	67657217 			; <UNDEFINED> instruction: 0x67657217
    634c:	50710100 	rsbspl	r0, r1, r0, lsl #2
    6350:	16000026 	strne	r0, [r0], -r6, lsr #32
    6354:	00001695 	muleq	r0, r5, r6
    6358:	25e67201 	strbcs	r7, [r6, #513]!	; 0x201
    635c:	1f160000 	svcne	0x00160000
    6360:	01000017 	tsteq	r0, r7, lsl r0
    6364:	00005373 	andeq	r5, r0, r3, ror r3
    6368:	00691700 	rsbeq	r1, r9, r0, lsl #14
    636c:	00537401 	subseq	r7, r3, r1, lsl #8
    6370:	13000000 	movwne	r0, #0
    6374:	00265604 	eoreq	r5, r6, r4, lsl #12
    6378:	005e1000 	subseq	r1, lr, r0
    637c:	d9180000 	ldmdble	r8, {}	; <UNPREDICTABLE>
    6380:	01000015 	tsteq	r0, r5, lsl r0
    6384:	930101cf 	movwls	r0, #4559	; 0x11cf
    6388:	15000026 	strne	r0, [r0, #-38]	; 0x26
    638c:	0000169d 	muleq	r0, sp, r6
    6390:	0053cf01 	subseq	ip, r3, r1, lsl #30
    6394:	1f160000 	svcne	0x00160000
    6398:	01000017 	tsteq	r0, r7, lsl r0
    639c:	000053d1 	ldrdeq	r5, [r0], -r1
    63a0:	00691700 	rsbeq	r1, r9, r0, lsl #14
    63a4:	0053d201 	subseq	sp, r3, r1, lsl #4
    63a8:	72170000 	andsvc	r0, r7, #0
    63ac:	01006765 	tsteq	r0, r5, ror #14
    63b0:	002650d3 	ldrdeq	r5, [r6], -r3	; <UNPREDICTABLE>
    63b4:	4c190000 	ldcmi	0, cr0, [r9], {-0}
    63b8:	01000016 	tsteq	r0, r6, lsl r0
    63bc:	0101011c 	tsteq	r1, ip, lsl r1
    63c0:	000026ac 	andeq	r2, r0, ip, lsr #13
    63c4:	0100631a 	tsteq	r0, sl, lsl r3
    63c8:	26ac011c 	ssatcs	r0, #13, ip, lsl #2
    63cc:	02000000 	andeq	r0, r0, #0
    63d0:	00da0801 	sbcseq	r0, sl, r1, lsl #16
    63d4:	091b0000 	ldmdbeq	fp, {}	; <UNPREDICTABLE>
    63d8:	01000017 	tsteq	r0, r7, lsl r0
    63dc:	ac010124 	stfges	f0, [r1], {36}	; 0x24
    63e0:	01000026 	tsteq	r0, r6, lsr #32
    63e4:	000026d2 	ldrdeq	r2, [r0], -r2	; <UNPREDICTABLE>
    63e8:	0007fc1c 	andeq	pc, r7, ip, lsl ip	; <UNPREDICTABLE>
    63ec:	01260100 	teqeq	r6, r0, lsl #2
    63f0:	00000053 	andeq	r0, r0, r3, asr r0
    63f4:	16621900 	strbtne	r1, [r2], -r0, lsl #18
    63f8:	82010000 	andhi	r0, r1, #0
    63fc:	eb010101 	bl	46808 <__bss_end+0x336bc>
    6400:	1a000026 	bne	64a0 <__resume1_start+0x64a0>
    6404:	82010063 	andhi	r0, r1, #99	; 0x63
    6408:	0026ac01 	eoreq	sl, r6, r1, lsl #24
    640c:	721b0000 	andsvc	r0, fp, #0
    6410:	01000016 	tsteq	r0, r6, lsl r0
    6414:	ac01018a 	stfges	f0, [r1], {138}	; 0x8a
    6418:	01000026 	tsteq	r0, r6, lsr #32
    641c:	0000270a 	andeq	r2, r0, sl, lsl #14
    6420:	0007fc1c 	andeq	pc, r7, ip, lsl ip	; <UNPREDICTABLE>
    6424:	018c0100 	orreq	r0, ip, r0, lsl #2
    6428:	00000053 	andeq	r0, r0, r3, asr r0
    642c:	25f31d00 	ldrbcs	r1, [r3, #3328]!	; 0xd00
    6430:	10bc0000 	adcsne	r0, ip, r0
    6434:	11900001 	orrsne	r0, r0, r1
    6438:	068b0001 	streq	r0, [fp], r1
    643c:	279d0000 	ldrcs	r0, [sp, r0]
    6440:	041e0000 	ldreq	r0, [lr], #-0
    6444:	ab000026 	blge	64e4 <__resume1_start+0x64e4>
    6448:	1f000006 	svcne	0x00000006
    644c:	0000260f 	andeq	r2, r0, pc, lsl #12
    6450:	000006d4 	ldrdeq	r0, [r0], -r4
    6454:	00261a1f 	eoreq	r1, r6, pc, lsl sl
    6458:	0006e800 	andeq	lr, r6, r0, lsl #16
    645c:	26251f00 	strtcs	r1, [r5], -r0, lsl #30
    6460:	07060000 	streq	r0, [r6, -r0]
    6464:	301f0000 	andscc	r0, pc, r0
    6468:	2e000026 	cdpcs	0, 0, cr0, cr0, cr6, {1}
    646c:	20000007 	andcs	r0, r0, r7
    6470:	0000263b 	andeq	r2, r0, fp, lsr r6
    6474:	26462000 	strbcs	r2, [r6], -r0
    6478:	21000000 	mrscs	r0, (UNDEF: 0)
    647c:	000025f3 	strdeq	r2, [r0], -r3
    6480:	00011148 	andeq	r1, r1, r8, asr #2
    6484:	00011190 	muleq	r1, r0, r1
    6488:	48226d01 	stmdami	r2!, {r0, r8, sl, fp, sp, lr}
    648c:	90000111 	andls	r0, r0, r1, lsl r1
    6490:	23000111 	movwcs	r0, #273	; 0x111
    6494:	0000260f 	andeq	r2, r0, pc, lsl #12
    6498:	00261a23 	eoreq	r1, r6, r3, lsr #20
    649c:	26252400 	strtcs	r2, [r5], -r0, lsl #8
    64a0:	8b940000 	blhi	fe5064a8 <__bss_end+0xfe4f335c>
    64a4:	237fb080 	cmncs	pc, #128	; 0x80
    64a8:	00002630 	andeq	r2, r0, r0, lsr r6
    64ac:	00260425 	eoreq	r0, r6, r5, lsr #8
    64b0:	263b2000 	ldrtcs	r2, [fp], -r0
    64b4:	20000000 	andcs	r0, r0, r0
    64b8:	00002646 	andeq	r2, r0, r6, asr #12
    64bc:	00000000 	andeq	r0, r0, r0
    64c0:	16280126 	strtne	r0, [r8], -r6, lsr #2
    64c4:	fe010000 	cdp2	0, 0, cr0, cr1, cr0, {0}
    64c8:	01119001 	tsteq	r1, r1
    64cc:	01122000 	tsteq	r2, r0
    64d0:	00074100 	andeq	r4, r7, r0, lsl #2
    64d4:	00281800 	eoreq	r1, r8, r0, lsl #16
    64d8:	66642700 	strbtvs	r2, [r4], -r0, lsl #14
    64dc:	01000100 	mrseq	r0, (UNDEF: 16)
    64e0:	00000053 	andeq	r0, r0, r3, asr r0
    64e4:	00000761 	andeq	r0, r0, r1, ror #14
    64e8:	72636c27 	rsbvc	r6, r3, #9984	; 0x2700
    64ec:	01010100 	mrseq	r0, (UNDEF: 17)
    64f0:	00000053 	andeq	r0, r0, r3, asr r0
    64f4:	00000778 	andeq	r0, r0, r8, ror r7
    64f8:	00160528 	andseq	r0, r6, r8, lsr #10
    64fc:	01020100 	mrseq	r0, (UNDEF: 18)
    6500:	00000053 	andeq	r0, r0, r3, asr r0
    6504:	0000078b 	andeq	r0, r0, fp, lsl #15
    6508:	00265b29 	eoreq	r5, r6, r9, lsr #22
    650c:	01119400 	tsteq	r1, r0, lsl #8
    6510:	00000000 	andeq	r0, r0, r0
    6514:	01040100 	mrseq	r0, (UNDEF: 20)
    6518:	0026682a 	eoreq	r6, r6, sl, lsr #16
    651c:	182b0000 	stmdane	fp!, {}	; <UNPREDICTABLE>
    6520:	2c000000 	stccs	0, cr0, [r0], {-0}
    6524:	00002687 	andeq	r2, r0, r7, lsl #13
    6528:	06000900 	streq	r0, [r0], -r0, lsl #18
    652c:	00267320 	eoreq	r7, r6, r0, lsr #6
    6530:	7e200000 	cdpvc	0, 2, cr0, cr0, cr0, {0}
    6534:	00000026 	andeq	r0, r0, r6, lsr #32
    6538:	2d000000 	stccs	0, cr0, [r0, #-0]
    653c:	00163a01 	andseq	r3, r6, r1, lsl #20
    6540:	012d0100 	teqeq	sp, r0, lsl #2
    6544:	00004101 	andeq	r4, r0, r1, lsl #2
    6548:	01122000 	tsteq	r2, r0
    654c:	0112a400 	tsteq	r2, r0, lsl #8
    6550:	007d0200 	rsbseq	r0, sp, r0, lsl #4
    6554:	0000287a 	andeq	r2, r0, sl, ror r8
    6558:	00175f2e 	andseq	r5, r7, lr, lsr #30
    655c:	012d0100 	teqeq	sp, r0, lsl #2
    6560:	0000287a 	andeq	r2, r0, sl, ror r8
    6564:	000007ad 	andeq	r0, r0, sp, lsr #15
    6568:	0026932f 	eoreq	r9, r6, pc, lsr #6
    656c:	01124400 	tsteq	r2, r0, lsl #8
    6570:	00003000 	andeq	r3, r0, r0
    6574:	013b0100 	teqeq	fp, r0, lsl #2
    6578:	0000285f 	andeq	r2, r0, pc, asr r8
    657c:	0026a125 	eoreq	sl, r6, r5, lsr #2
    6580:	93300000 	teqls	r0, #0
    6584:	58000026 	stmdapl	r0, {r1, r2, r5}
    6588:	6c000112 	stfvss	f0, [r0], {18}
    658c:	01000112 	tsteq	r0, r2, lsl r1
    6590:	a11e013d 	tstge	lr, sp, lsr r1
    6594:	d6000026 	strle	r0, [r0], -r6, lsr #32
    6598:	00000007 	andeq	r0, r0, r7
    659c:	80041300 	andhi	r1, r4, r0, lsl #6
    65a0:	31000028 	tstcc	r0, r8, lsr #32
    65a4:	000026ac 	andeq	r2, r0, ip, lsr #13
    65a8:	16a60132 			; <UNDEFINED> instruction: 0x16a60132
    65ac:	43010000 	movwmi	r0, #4096	; 0x1000
    65b0:	00530101 	subseq	r0, r3, r1, lsl #2
    65b4:	12a40000 	adcne	r0, r4, #0
    65b8:	132c0001 	teqne	ip, #1
    65bc:	07f50001 	ldrbeq	r0, [r5, r1]!
    65c0:	28fa0000 	ldmcs	sl!, {}^	; <UNPREDICTABLE>
    65c4:	62330000 	eorsvs	r0, r3, #0
    65c8:	01006675 	tsteq	r0, r5, ror r6
    65cc:	28fa0143 	ldmcs	sl!, {r0, r1, r6, r8}^
    65d0:	08150000 	ldmdaeq	r5, {}	; <UNPREDICTABLE>
    65d4:	6e340000 	cdpvs	0, 3, cr0, cr4, cr0, {0}
    65d8:	01430100 	mrseq	r0, (UNDEF: 83)
    65dc:	00000053 	andeq	r0, r0, r3, asr r0
    65e0:	69275101 	stmdbvs	r7!, {r0, r8, ip, lr}
    65e4:	01450100 	mrseq	r0, (UNDEF: 85)
    65e8:	00000053 	andeq	r0, r0, r3, asr r0
    65ec:	00000828 	andeq	r0, r0, r8, lsr #16
    65f0:	01006335 	tsteq	r0, r5, lsr r3
    65f4:	26ac0146 	strtcs	r0, [ip], r6, asr #2
    65f8:	53010000 	movwpl	r0, #4096	; 0x1000
    65fc:	0026b329 	eoreq	fp, r6, r9, lsr #6
    6600:	0112d400 	tsteq	r2, r0, lsl #8
    6604:	00004800 	andeq	r4, r0, r0, lsl #16
    6608:	014d0100 	mrseq	r0, (UNDEF: 93)
    660c:	0000682b 	andeq	r6, r0, fp, lsr #16
    6610:	26c51f00 	strbcs	r1, [r5], r0, lsl #30
    6614:	08470000 	stmdaeq	r7, {}^	; <UNPREDICTABLE>
    6618:	00000000 	andeq	r0, r0, r0
    661c:	ac041300 	stcge	3, cr1, [r4], {-0}
    6620:	36000026 	strcc	r0, [r0], -r6, lsr #32
    6624:	00160b01 	andseq	r0, r6, r1, lsl #22
    6628:	01550100 	cmpeq	r5, r0, lsl #2
    662c:	01132c01 	tsteq	r3, r1, lsl #24
    6630:	0113bc00 	tsteq	r3, r0, lsl #24
    6634:	00087200 	andeq	r7, r8, r0, lsl #4
    6638:	00297d00 	eoreq	r7, r9, r0, lsl #26
    663c:	16052800 	strne	r2, [r5], -r0, lsl #16
    6640:	58010000 	stmdapl	r1, {}	; <UNPREDICTABLE>
    6644:	00005301 	andeq	r5, r0, r1, lsl #6
    6648:	00089200 	andeq	r9, r8, r0, lsl #4
    664c:	66642700 	strbtvs	r2, [r4], -r0, lsl #14
    6650:	01590100 	cmpeq	r9, r0, lsl #2
    6654:	00000053 	andeq	r0, r0, r3, asr r0
    6658:	000008b4 			; <UNDEFINED> instruction: 0x000008b4
    665c:	72636c27 	rsbvc	r6, r3, #9984	; 0x2700
    6660:	015a0100 	cmpeq	sl, r0, lsl #2
    6664:	00000053 	andeq	r0, r0, r3, asr r0
    6668:	000008cb 	andeq	r0, r0, fp, asr #17
    666c:	00265b29 	eoreq	r5, r6, r9, lsr #22
    6670:	01133000 	tsteq	r3, r0
    6674:	00008800 	andeq	r8, r0, r0, lsl #16
    6678:	015c0100 	cmpeq	ip, r0, lsl #2
    667c:	0026682a 	eoreq	r6, r6, sl, lsr #16
    6680:	a02b0100 	eorge	r0, fp, r0, lsl #2
    6684:	24000000 	strcs	r0, [r0], #-0
    6688:	00002687 	andeq	r2, r0, r7, lsl #13
    668c:	b0809280 	addlt	r9, r0, r0, lsl #5
    6690:	2673207f 			; <UNDEFINED> instruction: 0x2673207f
    6694:	20000000 	andcs	r0, r0, r0
    6698:	0000267e 	andeq	r2, r0, lr, ror r6
    669c:	00000000 	andeq	r0, r0, r0
    66a0:	17240137 			; <UNDEFINED> instruction: 0x17240137
    66a4:	73010000 	movwvc	r0, #4096	; 0x1000
    66a8:	13bc0101 			; <UNDEFINED> instruction: 0x13bc0101
    66ac:	13ec0001 	mvnne	r0, #1
    66b0:	7d020001 	stcvc	0, cr0, [r2, #-4]
    66b4:	ce012d00 	cdpgt	13, 0, cr2, cr1, cr0, {0}
    66b8:	01000016 	tsteq	r0, r6, lsl r0
    66bc:	4101019f 			; <UNDEFINED> instruction: 0x4101019f
    66c0:	ec000000 	stc	0, cr0, [r0], {-0}
    66c4:	70000113 	andvc	r0, r0, r3, lsl r1
    66c8:	02000114 	andeq	r0, r0, #5
    66cc:	29f4007d 	ldmibcs	r4!, {r0, r2, r3, r4, r5, r6}^
    66d0:	5f2e0000 	svcpl	0x002e0000
    66d4:	01000017 	tsteq	r0, r7, lsl r0
    66d8:	287a019f 	ldmdacs	sl!, {r0, r1, r2, r3, r4, r7, r8}^
    66dc:	08de0000 	ldmeq	lr, {}^	; <UNPREDICTABLE>
    66e0:	d22f0000 	eorle	r0, pc, #0
    66e4:	10000026 	andne	r0, r0, r6, lsr #32
    66e8:	b8000114 	stmdalt	r0, {r2, r4, r8}
    66ec:	01000000 	mrseq	r0, (UNDEF: 0)
    66f0:	29d901ad 	ldmibcs	r9, {r0, r2, r3, r5, r7, r8}^
    66f4:	e0250000 	eor	r0, r5, r0
    66f8:	00000026 	andeq	r0, r0, r6, lsr #32
    66fc:	0026d230 	eoreq	sp, r6, r0, lsr r2
    6700:	01142400 	tsteq	r4, r0, lsl #8
    6704:	01143800 	tsteq	r4, r0, lsl #16
    6708:	01af0100 			; <UNDEFINED> instruction: 0x01af0100
    670c:	0026e01e 	eoreq	lr, r6, lr, lsl r0
    6710:	00090700 	andeq	r0, r9, r0, lsl #14
    6714:	32000000 	andcc	r0, r0, #0
    6718:	0015f901 	andseq	pc, r5, r1, lsl #18
    671c:	01b60100 			; <UNDEFINED> instruction: 0x01b60100
    6720:	00005301 	andeq	r5, r0, r1, lsl #6
    6724:	01147000 	tsteq	r4, r0
    6728:	0114f800 	tsteq	r4, r0, lsl #16
    672c:	00092600 	andeq	r2, r9, r0, lsl #12
    6730:	002a6900 	eoreq	r6, sl, r0, lsl #18
    6734:	75623300 	strbvc	r3, [r2, #-768]!	; 0x300
    6738:	b6010066 	strlt	r0, [r1], -r6, rrx
    673c:	0028fa01 	eoreq	pc, r8, r1, lsl #20
    6740:	00094600 	andeq	r4, r9, r0, lsl #12
    6744:	006e3400 	rsbeq	r3, lr, r0, lsl #8
    6748:	5301b601 	movwpl	fp, #5633	; 0x1601
    674c:	01000000 	mrseq	r0, (UNDEF: 0)
    6750:	00692751 	rsbeq	r2, r9, r1, asr r7
    6754:	5301b801 	movwpl	fp, #6145	; 0x1801
    6758:	59000000 	stmdbpl	r0, {}	; <UNPREDICTABLE>
    675c:	35000009 	strcc	r0, [r0, #-9]
    6760:	b9010063 	stmdblt	r1, {r0, r1, r5, r6}
    6764:	0026ac01 	eoreq	sl, r6, r1, lsl #24
    6768:	29530100 	ldmdbcs	r3, {r8}^
    676c:	000026eb 	andeq	r2, r0, fp, ror #13
    6770:	000114a0 	andeq	r1, r1, r0, lsr #9
    6774:	000000d0 	ldrdeq	r0, [r0], -r0	; <UNPREDICTABLE>
    6778:	2b01c001 	blcs	76784 <__bss_end+0x63638>
    677c:	000000f0 	strdeq	r0, [r0], -r0	; <UNPREDICTABLE>
    6780:	0026fd1f 	eoreq	pc, r6, pc, lsl sp	; <UNPREDICTABLE>
    6784:	00097800 	andeq	r7, r9, r0, lsl #16
    6788:	00000000 	andeq	r0, r0, r0
    678c:	0015e938 	andseq	lr, r5, r8, lsr r9
    6790:	531a0100 	tstpl	sl, #0
    6794:	05000000 	streq	r0, [r0, #-0]
    6798:	012e4003 	teqeq	lr, r3
    679c:	16b83800 	ldrtne	r3, [r8], r0, lsl #16
    67a0:	1b010000 	blne	467a8 <__bss_end+0x3365c>
    67a4:	00000053 	andeq	r0, r0, r3, asr r0
    67a8:	2e440305 	cdpcs	3, 4, cr0, cr4, cr5, {0}
    67ac:	17380001 	ldrne	r0, [r8, -r1]!
    67b0:	01000016 	tsteq	r0, r6, lsl r0
    67b4:	0000531c 	andeq	r5, r0, ip, lsl r3
    67b8:	48030500 	stmdami	r3, {r8, sl}
    67bc:	3800012e 	stmdacc	r0, {r1, r2, r3, r5, r8}
    67c0:	00001682 	andeq	r1, r0, r2, lsl #13
    67c4:	00531d01 	subseq	r1, r3, r1, lsl #26
    67c8:	03050000 	movweq	r0, #20480	; 0x5000
    67cc:	00012e4c 	andeq	r2, r1, ip, asr #28
    67d0:	0007d300 	andeq	sp, r7, r0, lsl #6
    67d4:	de000200 	cdple	2, 0, cr0, cr0, cr0, {0}
    67d8:	0400000b 	streq	r0, [r0], #-11
    67dc:	00010d01 	andeq	r0, r1, r1, lsl #26
    67e0:	17660100 	strbne	r0, [r6, -r0, lsl #2]!
    67e4:	00420000 	subeq	r0, r2, r0
    67e8:	14f80000 	ldrbtne	r0, [r8], #0
    67ec:	1ce40001 	stclne	0, cr0, [r4], #4
    67f0:	0b190001 	bleq	6467fc <__bss_end+0x6336b0>
    67f4:	01020000 	mrseq	r0, (UNDEF: 2)
    67f8:	0000d306 	andeq	sp, r0, r6, lsl #6
    67fc:	08010200 	stmdaeq	r1, {r9}
    6800:	000000d1 	ldrdeq	r0, [r0], -r1
    6804:	41050202 	tstmi	r5, r2, lsl #4
    6808:	02000001 	andeq	r0, r0, #1
    680c:	00fa0702 	rscseq	r0, sl, r2, lsl #14
    6810:	f4030000 	vst4.8	{d0-d3}, [r3], r0
    6814:	02000011 	andeq	r0, r0, #17
    6818:	00004c12 	andeq	r4, r0, r2, lsl ip
    681c:	05040400 	streq	r0, [r4, #-1024]	; 0x400
    6820:	00746e69 	rsbseq	r6, r4, r9, ror #28
    6824:	6b070402 	blvs	1c7834 <__bss_end+0x1b46e8>
    6828:	02000000 	andeq	r0, r0, #0
    682c:	00000508 	andeq	r0, r0, r8, lsl #10
    6830:	08020000 	stmdaeq	r2, {}	; <UNPREDICTABLE>
    6834:	00006107 	andeq	r6, r0, r7, lsl #2
    6838:	174d0300 	strbne	r0, [sp, -r0, lsl #6]
    683c:	18020000 	stmdane	r2, {}	; <UNPREDICTABLE>
    6840:	00000053 	andeq	r0, r0, r3, asr r0
    6844:	66070402 	strvs	r0, [r7], -r2, lsl #8
    6848:	05000000 	streq	r0, [r0, #-0]
    684c:	17b10304 	ldrne	r0, [r1, r4, lsl #6]!
    6850:	28030000 	stmdacs	r3, {}	; <UNPREDICTABLE>
    6854:	00000087 	andeq	r0, r0, r7, lsl #1
    6858:	0017c006 	andseq	ip, r7, r6
    685c:	00040400 	andeq	r0, r4, r0, lsl #8
    6860:	000000a1 	andeq	r0, r0, r1, lsr #1
    6864:	0017f807 	andseq	pc, r7, r7, lsl #16
    6868:	00007a00 	andeq	r7, r0, r0, lsl #20
    686c:	00230200 	eoreq	r0, r3, r0, lsl #4
    6870:	c2030001 	andgt	r0, r3, #1
    6874:	03000017 	movweq	r0, #23
    6878:	00007c66 	andeq	r7, r0, r6, ror #24
    687c:	17e20800 	strbne	r0, [r2, r0, lsl #16]!
    6880:	5b010000 	blpl	46888 <__bss_end+0x3373c>
    6884:	0000ea01 	andeq	lr, r0, r1, lsl #20
    6888:	00ea0100 	rsceq	r0, sl, r0, lsl #2
    688c:	a6090000 	strge	r0, [r9], -r0
    6890:	01000017 	tsteq	r0, r7, lsl r0
    6894:	0000ea5b 	andeq	lr, r0, fp, asr sl
    6898:	72730a00 	rsbsvc	r0, r3, #0
    689c:	5b010063 	blpl	46a30 <__bss_end+0x338e4>
    68a0:	000000f7 	strdeq	r0, [r0], -r7
    68a4:	00125a09 	andseq	r5, r2, r9, lsl #20
    68a8:	685b0100 	ldmdavs	fp, {r8}^
    68ac:	0b000000 	bleq	68b4 <__resume1_start+0x68b4>
    68b0:	00706d74 	rsbseq	r6, r0, r4, ror sp
    68b4:	00ea5d01 	rsceq	r5, sl, r1, lsl #26
    68b8:	0c000000 	stceq	0, cr0, [r0], {-0}
    68bc:	0000f004 	andeq	pc, r0, r4
    68c0:	08010200 	stmdaeq	r1, {r9}
    68c4:	000000da 	ldrdeq	r0, [r0], -sl
    68c8:	00fd040c 	rscseq	r0, sp, ip, lsl #8
    68cc:	f00d0000 			; <UNDEFINED> instruction: 0xf00d0000
    68d0:	08000000 	stmdaeq	r0, {}	; <UNPREDICTABLE>
    68d4:	000017f1 	strdeq	r1, [r0], -r1	; <UNPREDICTABLE>
    68d8:	68011d01 	stmdavs	r1, {r0, r8, sl, fp, ip}
    68dc:	01000000 	mrseq	r0, (UNDEF: 0)
    68e0:	00000127 	andeq	r0, r0, r7, lsr #2
    68e4:	0100730a 	tsteq	r0, sl, lsl #6
    68e8:	0000f71d 	andeq	pc, r0, sp, lsl r7	; <UNPREDICTABLE>
    68ec:	63730b00 	cmnvs	r3, #0
    68f0:	f71f0100 			; <UNDEFINED> instruction: 0xf71f0100
    68f4:	00000000 	andeq	r0, r0, r0
    68f8:	0017d608 	andseq	sp, r7, r8, lsl #12
    68fc:	012e0100 	teqeq	lr, r0, lsl #2
    6900:	000000ea 	andeq	r0, r0, sl, ror #1
    6904:	00015a01 	andeq	r5, r1, r1, lsl #20
    6908:	17a60900 	strne	r0, [r6, r0, lsl #18]!
    690c:	2e010000 	cdpcs	0, 0, cr0, cr1, cr0, {0}
    6910:	000000ea 	andeq	r0, r0, sl, ror #1
    6914:	6372730a 	cmnvs	r2, #671088640	; 0x28000000
    6918:	f72e0100 			; <UNDEFINED> instruction: 0xf72e0100
    691c:	0b000000 	bleq	6924 <__resume1_start+0x6924>
    6920:	00706d74 	rsbseq	r6, r0, r4, ror sp
    6924:	00ea3001 	rsceq	r3, sl, r1
    6928:	08000000 	stmdaeq	r0, {}	; <UNPREDICTABLE>
    692c:	000017dd 	ldrdeq	r1, [r0], -sp
    6930:	ea019f01 	b	6e53c <__bss_end+0x5b3f0>
    6934:	01000000 	mrseq	r0, (UNDEF: 0)
    6938:	000001c0 	andeq	r0, r0, r0, asr #3
    693c:	00154809 	andseq	r4, r5, r9, lsl #16
    6940:	4c9f0100 	ldfmis	f0, [pc], {0}
    6944:	09000000 	stmdbeq	r0, {}	; <UNPREDICTABLE>
    6948:	0000175f 	andeq	r1, r0, pc, asr r7
    694c:	00ea9f01 	rsceq	r9, sl, r1, lsl #30
    6950:	11090000 	mrsne	r0, (UNDEF: 9)
    6954:	01000018 	tsteq	r0, r8, lsl r0
    6958:	00004c9f 	muleq	r0, pc, ip	; <UNPREDICTABLE>
    695c:	17ab0e00 	strne	r0, [fp, r0, lsl #28]!
    6960:	a1010000 	mrsge	r0, (UNDEF: 1)
    6964:	000001c0 	andeq	r0, r0, r0, asr #3
    6968:	0018240e 	andseq	r2, r8, lr, lsl #8
    696c:	4ca20100 	stfmis	f0, [r2]
    6970:	0b000000 	bleq	6978 <__resume1_start+0x6978>
    6974:	a3010069 	movwge	r0, #4201	; 0x1069
    6978:	0000004c 	andeq	r0, r0, ip, asr #32
    697c:	01006a0b 	tsteq	r0, fp, lsl #20
    6980:	00004ca4 	andeq	r4, r0, r4, lsr #25
    6984:	17590e00 	ldrbne	r0, [r9, -r0, lsl #28]
    6988:	a5010000 	strge	r0, [r1, #-0]
    698c:	000001d0 	ldrdeq	r0, [r0], -r0	; <UNPREDICTABLE>
    6990:	00f00f00 	rscseq	r0, r0, r0, lsl #30
    6994:	01d00000 	bicseq	r0, r0, r0
    6998:	53100000 	tstpl	r0, #0
    699c:	0f000000 	svceq	0x00000000
    69a0:	00f00f00 	rscseq	r0, r0, r0, lsl #30
    69a4:	01e00000 	mvneq	r0, r0
    69a8:	53100000 	tstpl	r0, #0
    69ac:	10000000 	andne	r0, r0, r0
    69b0:	18051100 	stmdane	r5, {r8, ip}
    69b4:	ce010000 	cdpgt	0, 0, cr0, cr1, cr0, {0}
    69b8:	0000ea01 	andeq	lr, r0, r1, lsl #20
    69bc:	0114f800 	tsteq	r4, r0, lsl #16
    69c0:	0115b400 	tsteq	r5, r0, lsl #8
    69c4:	0009a300 	andeq	sl, r9, r0, lsl #6
    69c8:	00026100 	andeq	r6, r2, r0, lsl #2
    69cc:	15481200 	strbne	r1, [r8, #-512]	; 0x200
    69d0:	ce010000 	cdpgt	0, 0, cr0, cr1, cr0, {0}
    69d4:	00000053 	andeq	r0, r0, r3, asr r0
    69d8:	000009d0 	ldrdeq	r0, [r0], -r0	; <UNPREDICTABLE>
    69dc:	00175f12 	andseq	r5, r7, r2, lsl pc
    69e0:	eace0100 	b	ff386de8 <__bss_end+0xff373c9c>
    69e4:	04000000 	streq	r0, [r0], #-0
    69e8:	1200000a 	andne	r0, r0, #10
    69ec:	00001811 	andeq	r1, r0, r1, lsl r8
    69f0:	004cce01 	subeq	ip, ip, r1, lsl #28
    69f4:	0a220000 	beq	8869fc <__bss_end+0x8738b0>
    69f8:	ab130000 	blge	4c6a00 <__bss_end+0x4b38b4>
    69fc:	01000017 	tsteq	r0, r7, lsl r0
    6a00:	0001c0d0 	ldrdeq	ip, [r1], -r0
    6a04:	50910200 	addspl	r0, r1, r0, lsl #4
    6a08:	01006914 	tsteq	r0, r4, lsl r9
    6a0c:	00004cd1 	ldrdeq	r4, [r0], -r1
    6a10:	000a4000 	andeq	r4, sl, r0
    6a14:	006a1400 	rsbeq	r1, sl, r0, lsl #8
    6a18:	004cd201 	subeq	sp, ip, r1, lsl #4
    6a1c:	0a690000 	beq	1a46a24 <__bss_end+0x1a338d8>
    6a20:	59130000 	ldmdbpl	r3, {}	; <UNPREDICTABLE>
    6a24:	01000017 	tsteq	r0, r7, lsl r0
    6a28:	0001d0d3 	ldrdeq	sp, [r1], -r3
    6a2c:	bc910300 	ldclt	3, cr0, [r1], {0}
    6a30:	ca15007f 	bgt	546c34 <__bss_end+0x533ae8>
    6a34:	01000017 	tsteq	r0, r7, lsl r0
    6a38:	4101016a 	tstmi	r1, sl, ror #2
    6a3c:	b4000000 	strlt	r0, [r0], #-0
    6a40:	5c000115 	stfpls	f0, [r0], {21}
    6a44:	7d000116 	stfvcs	f0, [r0, #-88]	; 0xffffffa8
    6a48:	f900000a 			; <UNDEFINED> instruction: 0xf900000a
    6a4c:	16000002 	strne	r0, [r0], -r2
    6a50:	0000175f 	andeq	r1, r0, pc, asr r7
    6a54:	ea016a01 	b	61260 <__bss_end+0x4e114>
    6a58:	a9000000 	stmdbge	r0, {}	; <UNPREDICTABLE>
    6a5c:	1700000a 	strne	r0, [r0, -sl]
    6a60:	006e656c 	rsbeq	r6, lr, ip, ror #10
    6a64:	41016a01 	tstmi	r1, r1, lsl #20
    6a68:	c7000000 	strgt	r0, [r0, -r0]
    6a6c:	1600000a 	strne	r0, [r0], -sl
    6a70:	000017d0 	ldrdeq	r1, [r0], -r0
    6a74:	41016a01 	tstmi	r1, r1, lsl #20
    6a78:	e5000000 	str	r0, [r0, #-0]
    6a7c:	1800000a 	stmdane	r0, {r1, r3}
    6a80:	000017fd 	strdeq	r1, [r0], -sp
    6a84:	d0016e01 	andle	r6, r1, r1, lsl #28
    6a88:	02000001 	andeq	r0, r0, #1
    6a8c:	ac195c91 	ldcge	12, cr5, [r9], {145}	; 0x91
    6a90:	f0000000 			; <UNDEFINED> instruction: 0xf0000000
    6a94:	10000115 	andne	r0, r0, r5, lsl r1
    6a98:	01000001 	tsteq	r0, r1
    6a9c:	d31a0172 	tstle	sl, #-2147483620	; 0x8000001c
    6aa0:	03000000 	movweq	r0, #0
    6aa4:	1a00000b 	bne	6ad8 <__resume1_start+0x6ad8>
    6aa8:	000000c8 	andeq	r0, r0, r8, asr #1
    6aac:	00000b39 	andeq	r0, r0, r9, lsr fp
    6ab0:	0000bd1a 	andeq	fp, r0, sl, lsl sp
    6ab4:	000b5b00 	andeq	r5, fp, r0, lsl #22
    6ab8:	01281b00 	teqeq	r8, r0, lsl #22
    6abc:	de1c0000 	cdple	0, 1, cr0, cr12, cr0, {0}
    6ac0:	bb000000 	bllt	6ac8 <__resume1_start+0x6ac8>
    6ac4:	0000000b 	andeq	r0, r0, fp
    6ac8:	5a1d0000 	bpl	746ad0 <__bss_end+0x733984>
    6acc:	5c000001 	stcpl	0, cr0, [r0], {1}
    6ad0:	44000116 	strmi	r0, [r0], #-278	; 0x116
    6ad4:	ce000117 	mcrgt	1, 0, r0, cr0, cr7, {0}
    6ad8:	5200000b 	andpl	r0, r0, #11
    6adc:	1a000003 	bne	6af0 <__resume1_start+0x6af0>
    6ae0:	0000016b 	andeq	r0, r0, fp, ror #2
    6ae4:	00000bfb 	strdeq	r0, [r0], -fp
    6ae8:	0001761a 	andeq	r7, r1, sl, lsl r6
    6aec:	000c2f00 	andeq	r2, ip, r0, lsl #30
    6af0:	018c1e00 	orreq	r1, ip, r0, lsl #28
    6af4:	91020000 	mrsls	r0, (UNDEF: 2)
    6af8:	01971c58 	orrseq	r1, r7, r8, asr ip
    6afc:	0c4d0000 	mareq	acc0, r0, sp
    6b00:	a21c0000 	andsge	r0, ip, #0
    6b04:	78000001 	stmdavc	r0, {r0}
    6b08:	1c00000c 	stcne	0, cr0, [r0], {12}
    6b0c:	000001ab 	andeq	r0, r0, fp, lsr #3
    6b10:	00000cad 	andeq	r0, r0, sp, lsr #25
    6b14:	0001b41e 	andeq	fp, r1, lr, lsl r4
    6b18:	44910200 	ldrmi	r0, [r1], #512	; 0x200
    6b1c:	0001811f 	andeq	r8, r1, pc, lsl r1
    6b20:	20000a00 	andcs	r0, r0, r0, lsl #20
    6b24:	00180a01 	andseq	r0, r8, r1, lsl #20
    6b28:	01040100 	mrseq	r0, (UNDEF: 20)
    6b2c:	00004101 	andeq	r4, r0, r1, lsl #2
    6b30:	01174400 	tsteq	r7, r0, lsl #8
    6b34:	011a1400 	tsteq	sl, r0, lsl #8
    6b38:	000ccc00 	andeq	ip, ip, r0, lsl #24
    6b3c:	00058300 	andeq	r8, r5, r0, lsl #6
    6b40:	17ea1600 	strbne	r1, [sl, r0, lsl #12]!
    6b44:	04010000 	streq	r0, [r1], #-0
    6b48:	0000f701 	andeq	pc, r0, r1, lsl #14
    6b4c:	000d0500 	andeq	r0, sp, r0, lsl #10
    6b50:	54182100 	ldrpl	r2, [r8], #-256	; 0x100
    6b54:	01000017 	tsteq	r0, r7, lsl r0
    6b58:	00a10106 	adceq	r0, r1, r6, lsl #2
    6b5c:	91020000 	mrsls	r0, (UNDEF: 2)
    6b60:	175f184c 	ldrbne	r1, [pc, -ip, asr #16]
    6b64:	07010000 	streq	r0, [r1, -r0]
    6b68:	0001c001 	andeq	ip, r1, r1
    6b6c:	bc910300 	ldclt	3, cr0, [r1], {0}
    6b70:	17a5227f 			; <UNDEFINED> instruction: 0x17a5227f
    6b74:	08010000 	stmdaeq	r1, {}	; <UNPREDICTABLE>
    6b78:	0000ea01 	andeq	lr, r0, r1, lsl #20
    6b7c:	000d4800 	andeq	r4, sp, r0, lsl #16
    6b80:	17482200 	strbne	r2, [r8, -r0, lsl #4]
    6b84:	09010000 	stmdbeq	r1, {}	; <UNPREDICTABLE>
    6b88:	0000ea01 	andeq	lr, r0, r1, lsl #20
    6b8c:	000dba00 	andeq	fp, sp, r0, lsl #20
    6b90:	17d02200 	ldrbne	r2, [r0, r0, lsl #4]
    6b94:	0a010000 	beq	46b9c <__bss_end+0x33a50>
    6b98:	00004101 	andeq	r4, r0, r1, lsl #2
    6b9c:	000dd000 	andeq	sp, sp, r0
    6ba0:	656c2300 	strbvs	r2, [ip, #-768]!	; 0x300
    6ba4:	0b01006e 	bleq	46d64 <__bss_end+0x33c18>
    6ba8:	00004101 	andeq	r4, r0, r1, lsl #2
    6bac:	000dee00 	andeq	lr, sp, r0, lsl #28
    6bb0:	01022400 	tsteq	r2, r0, lsl #8
    6bb4:	18640000 	stmdane	r4!, {}^	; <UNPREDICTABLE>
    6bb8:	18840001 	stmne	r4, {r0}
    6bbc:	3c010001 	stccc	0, cr0, [r1], {1}
    6bc0:	00041101 	andeq	r1, r4, r1, lsl #2
    6bc4:	01131a00 	tsteq	r3, r0, lsl #20
    6bc8:	0e440000 	cdpeq	0, 4, cr0, cr4, cr0, {0}
    6bcc:	64250000 	strtvs	r0, [r5], #-0
    6bd0:	84000118 	strhi	r0, [r0], #-280	; 0x118
    6bd4:	1c000118 	stfnes	f0, [r0], {24}
    6bd8:	0000011c 	andeq	r0, r0, ip, lsl r1
    6bdc:	00000e57 	andeq	r0, r0, r7, asr lr
    6be0:	27240000 	strcs	r0, [r4, -r0]!
    6be4:	a0000001 	andge	r0, r0, r1
    6be8:	b0000118 	andlt	r0, r0, r8, lsl r1
    6bec:	01000118 	tsteq	r0, r8, lsl r1
    6bf0:	044b013e 	strbeq	r0, [fp], #-318	; 0x13e
    6bf4:	431a0000 	tstmi	sl, #0
    6bf8:	82000001 	andhi	r0, r0, #1
    6bfc:	1a00000e 	bne	6c3c <__resume1_start+0x6c3c>
    6c00:	00000138 	andeq	r0, r0, r8, lsr r1
    6c04:	00000e95 	muleq	r0, r5, lr
    6c08:	0118a025 	tsteq	r8, r5, lsr #32
    6c0c:	0118b000 	tsteq	r8, r0
    6c10:	014e1c00 	cmpeq	lr, r0, lsl #24
    6c14:	0eb30000 	cdpeq	0, 11, cr0, cr3, cr0, {0}
    6c18:	00000000 	andeq	r0, r0, r0
    6c1c:	00012724 	andeq	r2, r1, r4, lsr #14
    6c20:	0118d000 	tsteq	r8, r0
    6c24:	0118e000 	tsteq	r8, r0
    6c28:	014c0100 	mrseq	r0, (UNDEF: 92)
    6c2c:	00000485 	andeq	r0, r0, r5, lsl #9
    6c30:	0001431a 	andeq	r4, r1, sl, lsl r3
    6c34:	000ec600 	andeq	ip, lr, r0, lsl #12
    6c38:	01381a00 	teqeq	r8, r0, lsl #20
    6c3c:	0edc0000 	cdpeq	0, 13, cr0, cr12, cr0, {0}
    6c40:	d0250000 	eorle	r0, r5, r0
    6c44:	e0000118 	and	r0, r0, r8, lsl r1
    6c48:	1c000118 	stfnes	f0, [r0], {24}
    6c4c:	0000014e 	andeq	r0, r0, lr, asr #2
    6c50:	00000efa 	strdeq	r0, [r0], -sl
    6c54:	02240000 	eoreq	r0, r4, #0
    6c58:	e0000001 	and	r0, r0, r1
    6c5c:	00000118 	andeq	r0, r0, r8, lsl r1
    6c60:	01000119 	tsteq	r0, r9, lsl r1
    6c64:	04b2014d 	ldrteq	r0, [r2], #333	; 0x14d
    6c68:	13260000 	teqne	r6, #0
    6c6c:	25000001 	strcs	r0, [r0, #-1]
    6c70:	000118e0 	andeq	r1, r1, r0, ror #17
    6c74:	00011900 	andeq	r1, r1, r0, lsl #18
    6c78:	00011c1c 	andeq	r1, r1, ip, lsl ip
    6c7c:	000f0d00 	andeq	r0, pc, r0, lsl #26
    6c80:	24000000 	strcs	r0, [r0], #-0
    6c84:	00000102 	andeq	r0, r0, r2, lsl #2
    6c88:	00011924 	andeq	r1, r1, r4, lsr #18
    6c8c:	00011944 	andeq	r1, r1, r4, asr #18
    6c90:	e3013201 	movw	r3, #4609	; 0x1201
    6c94:	1a000004 	bne	6cac <__resume1_start+0x6cac>
    6c98:	00000113 	andeq	r0, r0, r3, lsl r1
    6c9c:	00000f3b 	andeq	r0, r0, fp, lsr pc
    6ca0:	01192425 	tsteq	r9, r5, lsr #8
    6ca4:	01194400 	tsteq	r9, r0, lsl #8
    6ca8:	011c1c00 	tsteq	ip, r0, lsl #24
    6cac:	0f4e0000 	svceq	0x004e0000
    6cb0:	00000000 	andeq	r0, r0, r0
    6cb4:	00012724 	andeq	r2, r1, r4, lsr #14
    6cb8:	01196000 	tsteq	r9, r0
    6cbc:	01197000 	tsteq	r9, r0
    6cc0:	01340100 	teqeq	r4, r0, lsl #2
    6cc4:	0000051d 	andeq	r0, r0, sp, lsl r5
    6cc8:	0001431a 	andeq	r4, r1, sl, lsl r3
    6ccc:	000f7900 	andeq	r7, pc, r0, lsl #18
    6cd0:	01381a00 	teqeq	r8, r0, lsl #20
    6cd4:	0f8c0000 	svceq	0x008c0000
    6cd8:	60250000 	eorvs	r0, r5, r0
    6cdc:	70000119 	andvc	r0, r0, r9, lsl r1
    6ce0:	1c000119 	stfnes	f0, [r0], {25}
    6ce4:	0000014e 	andeq	r0, r0, lr, asr #2
    6ce8:	00000faa 	andeq	r0, r0, sl, lsr #31
    6cec:	02240000 	eoreq	r0, r4, #0
    6cf0:	bc000001 	stclt	0, cr0, [r0], {1}
    6cf4:	dc000119 	stfles	f0, [r0], {25}
    6cf8:	01000119 	tsteq	r0, r9, lsl r1
    6cfc:	054c0127 	strbeq	r0, [ip, #-295]	; 0x127
    6d00:	13270000 	teqne	r7, #0
    6d04:	01000001 	tsteq	r0, r1
    6d08:	19bc2556 	ldmibne	ip!, {r1, r2, r4, r6, r8, sl, sp}
    6d0c:	19dc0001 	ldmibne	ip, {r0}^
    6d10:	1c1c0001 	ldcne	0, cr0, [ip], {1}
    6d14:	bd000001 	stclt	0, cr0, [r0, #-4]
    6d18:	0000000f 	andeq	r0, r0, pc
    6d1c:	01272800 	teqeq	r7, r0, lsl #16
    6d20:	19f80000 	ldmibne	r8!, {}^	; <UNPREDICTABLE>
    6d24:	1a080001 	bne	206d30 <__bss_end+0x1f3be4>
    6d28:	29010001 	stmdbcs	r1, {r0}
    6d2c:	01431a01 	cmpeq	r3, r1, lsl #20
    6d30:	0fe80000 	svceq	0x00e80000
    6d34:	381a0000 	ldmdacc	sl, {}	; <UNPREDICTABLE>
    6d38:	fb000001 	blx	6d46 <__resume1_start+0x6d46>
    6d3c:	2500000f 	strcs	r0, [r0, #-15]
    6d40:	000119f8 	strdeq	r1, [r1], -r8
    6d44:	00011a08 	andeq	r1, r1, r8, lsl #20
    6d48:	00014e1c 	andeq	r4, r1, ip, lsl lr
    6d4c:	00101900 	andseq	r1, r0, r0, lsl #18
    6d50:	00000000 	andeq	r0, r0, r0
    6d54:	18170120 	ldmdane	r7, {r5, r8}
    6d58:	79010000 	stmdbvc	r1, {}	; <UNPREDICTABLE>
    6d5c:	00410101 	subeq	r0, r1, r1, lsl #2
    6d60:	1a140000 	bne	506d68 <__bss_end+0x4f3c1c>
    6d64:	1ce40001 	stclne	0, cr0, [r4], #4
    6d68:	102c0001 	eorne	r0, ip, r1
    6d6c:	07b40000 	ldreq	r0, [r4, r0]!
    6d70:	ea160000 	b	586d78 <__bss_end+0x573c2c>
    6d74:	01000017 	tsteq	r0, r7, lsl r0
    6d78:	00f70179 	rscseq	r0, r7, r9, ror r1
    6d7c:	10650000 	rsbne	r0, r5, r0
    6d80:	18210000 	stmdane	r1!, {}	; <UNPREDICTABLE>
    6d84:	00001754 	andeq	r1, r0, r4, asr r7
    6d88:	a1017b01 	tstge	r1, r1, lsl #22
    6d8c:	02000000 	andeq	r0, r0, #0
    6d90:	5f184c91 	svcpl	0x00184c91
    6d94:	01000017 	tsteq	r0, r7, lsl r0
    6d98:	01c0017c 	biceq	r0, r0, ip, ror r1
    6d9c:	91030000 	mrsls	r0, (UNDEF: 3)
    6da0:	a5227fbc 	strge	r7, [r2, #-4028]!	; 0xfbc
    6da4:	01000017 	tsteq	r0, r7, lsl r0
    6da8:	00ea017d 	rsceq	r0, sl, sp, ror r1
    6dac:	10a80000 	adcne	r0, r8, r0
    6db0:	48220000 	stmdami	r2!, {}	; <UNPREDICTABLE>
    6db4:	01000017 	tsteq	r0, r7, lsl r0
    6db8:	00ea017e 	rsceq	r0, sl, lr, ror r1
    6dbc:	111a0000 	tstne	sl, r0
    6dc0:	d0220000 	eorle	r0, r2, r0
    6dc4:	01000017 	tsteq	r0, r7, lsl r0
    6dc8:	0041017f 	subeq	r0, r1, pc, ror r1
    6dcc:	11300000 	teqne	r0, r0
    6dd0:	6c230000 	stcvs	0, cr0, [r3], #-0
    6dd4:	01006e65 	tsteq	r0, r5, ror #28
    6dd8:	00410180 	subeq	r0, r1, r0, lsl #3
    6ddc:	114e0000 	mrsne	r0, (UNDEF: 78)
    6de0:	02240000 	eoreq	r0, r4, #0
    6de4:	34000001 	strcc	r0, [r0], #-1
    6de8:	5400011b 	strpl	r0, [r0], #-283	; 0x11b
    6dec:	0100011b 	tsteq	r0, fp, lsl r1
    6df0:	064201b1 			; <UNDEFINED> instruction: 0x064201b1
    6df4:	131a0000 	tstne	sl, #0
    6df8:	a4000001 	strge	r0, [r0], #-1
    6dfc:	25000011 	strcs	r0, [r0, #-17]
    6e00:	00011b34 	andeq	r1, r1, r4, lsr fp
    6e04:	00011b54 	andeq	r1, r1, r4, asr fp
    6e08:	00011c1c 	andeq	r1, r1, ip, lsl ip
    6e0c:	0011b700 	andseq	fp, r1, r0, lsl #14
    6e10:	24000000 	strcs	r0, [r0], #-0
    6e14:	00000127 	andeq	r0, r0, r7, lsr #2
    6e18:	00011b70 	andeq	r1, r1, r0, ror fp
    6e1c:	00011b80 	andeq	r1, r1, r0, lsl #23
    6e20:	7c01b301 	stcvc	3, cr11, [r1], {1}
    6e24:	1a000006 	bne	6e44 <__resume1_start+0x6e44>
    6e28:	00000143 	andeq	r0, r0, r3, asr #2
    6e2c:	000011e2 	andeq	r1, r0, r2, ror #3
    6e30:	0001381a 	andeq	r3, r1, sl, lsl r8
    6e34:	0011f500 	andseq	pc, r1, r0, lsl #10
    6e38:	1b702500 	blne	1c10240 <__bss_end+0x1bfd0f4>
    6e3c:	1b800001 	blne	fe006e48 <__bss_end+0xfdff3cfc>
    6e40:	4e1c0001 	cdpmi	0, 1, cr0, cr12, cr1, {0}
    6e44:	13000001 	movwne	r0, #1
    6e48:	00000012 	andeq	r0, r0, r2, lsl r0
    6e4c:	01272400 	teqeq	r7, r0, lsl #8
    6e50:	1ba00000 	blne	fe806e58 <__bss_end+0xfe7f3d0c>
    6e54:	1bb00001 	blne	fec06e60 <__bss_end+0xfebf3d14>
    6e58:	c1010001 	tstgt	r1, r1
    6e5c:	0006b601 	andeq	fp, r6, r1, lsl #12
    6e60:	01431a00 	cmpeq	r3, r0, lsl #20
    6e64:	12260000 	eorne	r0, r6, #0
    6e68:	381a0000 	ldmdacc	sl, {}	; <UNPREDICTABLE>
    6e6c:	3c000001 	stccc	0, cr0, [r0], {1}
    6e70:	25000012 	strcs	r0, [r0, #-18]
    6e74:	00011ba0 	andeq	r1, r1, r0, lsr #23
    6e78:	00011bb0 			; <UNDEFINED> instruction: 0x00011bb0
    6e7c:	00014e1c 	andeq	r4, r1, ip, lsl lr
    6e80:	00125a00 	andseq	r5, r2, r0, lsl #20
    6e84:	24000000 	strcs	r0, [r0], #-0
    6e88:	00000102 	andeq	r0, r0, r2, lsl #2
    6e8c:	00011bb0 			; <UNDEFINED> instruction: 0x00011bb0
    6e90:	00011bd0 	ldrdeq	r1, [r1], -r0
    6e94:	e301c201 	movw	ip, #4609	; 0x1201
    6e98:	26000006 	strcs	r0, [r0], -r6
    6e9c:	00000113 	andeq	r0, r0, r3, lsl r1
    6ea0:	011bb025 	tsteq	fp, r5, lsr #32
    6ea4:	011bd000 	tsteq	fp, r0
    6ea8:	011c1c00 	tsteq	ip, r0, lsl #24
    6eac:	126d0000 	rsbne	r0, sp, #0
    6eb0:	00000000 	andeq	r0, r0, r0
    6eb4:	00010224 	andeq	r0, r1, r4, lsr #4
    6eb8:	011bf400 	tsteq	fp, r0, lsl #8
    6ebc:	011c1400 	tsteq	ip, r0, lsl #8
    6ec0:	01a70100 			; <UNDEFINED> instruction: 0x01a70100
    6ec4:	00000714 	andeq	r0, r0, r4, lsl r7
    6ec8:	0001131a 	andeq	r1, r1, sl, lsl r3
    6ecc:	00129b00 	andseq	r9, r2, r0, lsl #22
    6ed0:	1bf42500 	blne	ffd102d8 <__bss_end+0xffcfd18c>
    6ed4:	1c140001 	ldcne	0, cr0, [r4], {1}
    6ed8:	1c1c0001 	ldcne	0, cr0, [ip], {1}
    6edc:	ae000001 	cdpge	0, 0, cr0, cr0, cr1, {0}
    6ee0:	00000012 	andeq	r0, r0, r2, lsl r0
    6ee4:	01272400 	teqeq	r7, r0, lsl #8
    6ee8:	1c300000 	ldcne	0, cr0, [r0], #-0
    6eec:	1c400001 	mcrrne	0, 0, r0, r0, cr1
    6ef0:	a9010001 	stmdbge	r1, {r0}
    6ef4:	00074e01 	andeq	r4, r7, r1, lsl #28
    6ef8:	01431a00 	cmpeq	r3, r0, lsl #20
    6efc:	12d90000 	sbcsne	r0, r9, #0
    6f00:	381a0000 	ldmdacc	sl, {}	; <UNPREDICTABLE>
    6f04:	ec000001 	stc	0, cr0, [r0], {1}
    6f08:	25000012 	strcs	r0, [r0, #-18]
    6f0c:	00011c30 	andeq	r1, r1, r0, lsr ip
    6f10:	00011c40 	andeq	r1, r1, r0, asr #24
    6f14:	00014e1c 	andeq	r4, r1, ip, lsl lr
    6f18:	00130a00 	andseq	r0, r3, r0, lsl #20
    6f1c:	24000000 	strcs	r0, [r0], #-0
    6f20:	00000102 	andeq	r0, r0, r2, lsl #2
    6f24:	00011c8c 	andeq	r1, r1, ip, lsl #25
    6f28:	00011cac 	andeq	r1, r1, ip, lsr #25
    6f2c:	7d019c01 	stcvc	12, cr9, [r1, #-4]
    6f30:	27000007 	strcs	r0, [r0, -r7]
    6f34:	00000113 	andeq	r0, r0, r3, lsl r1
    6f38:	8c255601 	stchi	6, cr5, [r5], #-4
    6f3c:	ac00011c 	stfges	f0, [r0], {28}
    6f40:	1c00011c 	stfnes	f0, [r0], {28}
    6f44:	0000011c 	andeq	r0, r0, ip, lsl r1
    6f48:	0000131d 	andeq	r1, r0, sp, lsl r3
    6f4c:	27280000 	strcs	r0, [r8, -r0]!
    6f50:	c8000001 	stmdagt	r0, {r0}
    6f54:	d800011c 	stmdale	r0, {r2, r3, r4, r8}
    6f58:	0100011c 	tsteq	r0, ip, lsl r1
    6f5c:	431a019e 	tstmi	sl, #-2147483609	; 0x80000027
    6f60:	48000001 	stmdami	r0, {r0}
    6f64:	1a000013 	bne	6fb8 <__resume1_start+0x6fb8>
    6f68:	00000138 	andeq	r0, r0, r8, lsr r1
    6f6c:	0000135b 	andeq	r1, r0, fp, asr r3
    6f70:	011cc825 	tsteq	ip, r5, lsr #16
    6f74:	011cd800 	tsteq	ip, r0, lsl #16
    6f78:	014e1c00 	cmpeq	lr, r0, lsl #24
    6f7c:	13790000 	cmnne	r9, #0
    6f80:	00000000 	andeq	r0, r0, r0
    6f84:	00f00f00 	rscseq	r0, r0, r0, lsl #30
    6f88:	07c40000 	strbeq	r0, [r4, r0]
    6f8c:	53100000 	tstpl	r0, #0
    6f90:	ff000000 			; <UNDEFINED> instruction: 0xff000000
    6f94:	17951800 	ldrne	r1, [r5, r0, lsl #16]
    6f98:	03010000 	movweq	r0, #4096	; 0x1000
    6f9c:	0007b401 	andeq	fp, r7, r1, lsl #8
    6fa0:	50030500 	andpl	r0, r3, r0, lsl #10
    6fa4:	0000012e 	andeq	r0, r0, lr, lsr #2
    6fa8:	00000070 	andeq	r0, r0, r0, ror r0
    6fac:	0de70002 	stcleq	0, cr0, [r7, #8]!
    6fb0:	01040000 	mrseq	r0, (UNDEF: 4)
    6fb4:	00000e16 	andeq	r0, r0, r6, lsl lr
    6fb8:	00011ce4 	andeq	r1, r1, r4, ror #25
    6fbc:	00011ec0 	andeq	r1, r1, r0, asr #29
    6fc0:	68637261 	stmdavs	r3!, {r0, r5, r6, r9, ip, sp, lr}^
    6fc4:	6d72612f 	ldfvse	f6, [r2, #-188]!	; 0xffffff44
    6fc8:	63616d2f 	cmnvs	r1, #3008	; 0xbc0
    6fcc:	75732d68 	ldrbvc	r2, [r3, #-3432]!	; 0xd68
    6fd0:	2f69786e 	svccs	0x0069786e
    6fd4:	732f6d70 	teqvc	pc, #7168	; 0x1c00
    6fd8:	646e6174 	strbtvs	r6, [lr], #-372	; 0x174
    6fdc:	2e2f7962 	cdpcs	9, 2, cr7, cr15, cr2, {3}
    6fe0:	656d2f2e 	strbvs	r2, [sp, #-3886]!	; 0xf2e
    6fe4:	69645f6d 	stmdbvs	r4!, {r0, r2, r3, r5, r6, r8, r9, sl, fp, ip, lr}^
    6fe8:	62696c76 	rsbvs	r6, r9, #30208	; 0x7600
    6fec:	2f00532e 	svccs	0x0000532e
    6ff0:	6b726f77 	blvs	1ca2dd4 <__bss_end+0x1c8fc88>
    6ff4:	6b64732f 	blvs	1923cb8 <__bss_end+0x1910b6c>
    6ff8:	3038612f 	eorscc	r6, r8, pc, lsr #2
    6ffc:	7469672f 	strbtvc	r6, [r9], #-1839	; 0x72f
    7000:	2f627568 	svccs	0x00627568
    7004:	756e696c 	strbvc	r6, [lr, #-2412]!	; 0x96c
    7008:	2e332d78 	mrccs	13, 1, r2, cr3, cr8, {3}
    700c:	4e470034 	mcrmi	0, 2, r0, cr7, cr4, {1}
    7010:	53412055 	movtpl	r2, #4181	; 0x1055
    7014:	322e3220 	eorcc	r3, lr, #2
    7018:	80010032 	andhi	r0, r1, r2, lsr r0
    701c:	000000ef 	andeq	r0, r0, pc, ror #1
    7020:	0dfb0002 	ldcleq	0, cr0, [fp, #8]!
    7024:	01040000 	mrseq	r0, (UNDEF: 4)
    7028:	0000010d 	andeq	r0, r0, sp, lsl #2
    702c:	00186601 	andseq	r6, r8, r1, lsl #12
    7030:	00004200 	andeq	r4, r0, r0, lsl #4
    7034:	011ec000 	tsteq	lr, r0
    7038:	011f1800 	tsteq	pc, r0, lsl #16
    703c:	000ec300 	andeq	ip, lr, r0, lsl #6
    7040:	06010200 	streq	r0, [r1], -r0, lsl #4
    7044:	000000d3 	ldrdeq	r0, [r0], -r3
    7048:	d1080102 	tstle	r8, r2, lsl #2
    704c:	02000000 	andeq	r0, r0, #0
    7050:	01410502 	cmpeq	r1, r2, lsl #10
    7054:	02020000 	andeq	r0, r2, #0
    7058:	0000fa07 	andeq	pc, r0, r7, lsl #20
    705c:	11f40300 	mvnsne	r0, r0, lsl #6
    7060:	12020000 	andne	r0, r2, #0
    7064:	0000004c 	andeq	r0, r0, ip, asr #32
    7068:	69050404 	stmdbvs	r5, {r2, sl}
    706c:	0300746e 	movweq	r7, #1134	; 0x46e
    7070:	000008a8 	andeq	r0, r0, r8, lsr #17
    7074:	005e1302 	subseq	r1, lr, r2, lsl #6
    7078:	04020000 	streq	r0, [r2], #-0
    707c:	00006b07 	andeq	r6, r0, r7, lsl #22
    7080:	05080200 	streq	r0, [r8, #-512]	; 0x200
    7084:	00000000 	andeq	r0, r0, r0
    7088:	61070802 	tstvs	r7, r2, lsl #16
    708c:	02000000 	andeq	r0, r0, #0
    7090:	00660704 	rsbeq	r0, r6, r4, lsl #14
    7094:	01050000 	mrseq	r0, (UNDEF: 5)
    7098:	0000182d 	andeq	r1, r0, sp, lsr #16
    709c:	c0010301 	andgt	r0, r1, r1, lsl #6
    70a0:	cc00011e 	stfgts	f0, [r0], {30}
    70a4:	0200011e 	andeq	r0, r0, #-2147483641	; 0x80000007
    70a8:	0106007d 	tsteq	r6, sp, ror r0
    70ac:	00001852 	andeq	r1, r0, r2, asr r8
    70b0:	53010801 	movwpl	r0, #6145	; 0x1801
    70b4:	cc000000 	stcgt	0, cr0, [r0], {-0}
    70b8:	1800011e 	stmdane	r0, {r1, r2, r3, r4, r8}
    70bc:	0200011f 	andeq	r0, r0, #-1073741817	; 0xc0000007
    70c0:	4907007d 	stmdbmi	r7, {r0, r2, r3, r4, r5, r6}
    70c4:	01000018 	tsteq	r0, r8, lsl r0
    70c8:	00005308 	andeq	r5, r0, r8, lsl #6
    70cc:	00138c00 	andseq	r8, r3, r0, lsl #24
    70d0:	18400700 	stmdane	r0, {r8, r9, sl}^
    70d4:	08010000 	stmdaeq	r1, {}	; <UNPREDICTABLE>
    70d8:	00000053 	andeq	r0, r0, r3, asr r0
    70dc:	0000139f 	muleq	r0, pc, r3	; <UNPREDICTABLE>
    70e0:	00185f08 	andseq	r5, r8, r8, lsl #30
    70e4:	530a0100 	movwpl	r0, #41216	; 0xa100
    70e8:	b2000000 	andlt	r0, r0, #0
    70ec:	08000013 	stmdaeq	r0, {r0, r1, r4}
    70f0:	00001838 	andeq	r1, r0, r8, lsr r8
    70f4:	00530b01 	subseq	r0, r3, r1, lsl #22
    70f8:	13ea0000 	mvnne	r0, #0
    70fc:	96080000 	strls	r0, [r8], -r0
    7100:	01000018 	tsteq	r0, r8, lsl r0
    7104:	0000410c 	andeq	r4, r0, ip, lsl #2
    7108:	00141400 	andseq	r1, r4, r0, lsl #8
    710c:	db000000 	blle	7114 <__resume1_start+0x7114>
    7110:	02000001 	andeq	r0, r0, #1
    7114:	000e7c00 	andeq	r7, lr, r0, lsl #24
    7118:	0d010400 	cfstrseq	mvf0, [r1, #-0]
    711c:	01000001 	tsteq	r0, r1
    7120:	000018ca 	andeq	r1, r0, sl, asr #17
    7124:	00000042 	andeq	r0, r0, r2, asr #32
    7128:	00011f18 	andeq	r1, r1, r8, lsl pc
    712c:	000120a4 	andeq	r2, r1, r4, lsr #1
    7130:	00000f49 	andeq	r0, r0, r9, asr #30
    7134:	d3060102 	movwle	r0, #24834	; 0x6102
    7138:	02000000 	andeq	r0, r0, #0
    713c:	00d10801 	sbcseq	r0, r1, r1, lsl #16
    7140:	02020000 	andeq	r0, r2, #0
    7144:	00014105 	andeq	r4, r1, r5, lsl #2
    7148:	07020200 	streq	r0, [r2, -r0, lsl #4]
    714c:	000000fa 	strdeq	r0, [r0], -sl
    7150:	0011f403 	andseq	pc, r1, r3, lsl #8
    7154:	4c120200 	lfmmi	f0, 4, [r2], {-0}
    7158:	04000000 	streq	r0, [r0], #-0
    715c:	6e690504 	cdpvs	5, 6, cr0, cr9, cr4, {0}
    7160:	a8030074 	stmdage	r3, {r2, r4, r5, r6}
    7164:	02000008 	andeq	r0, r0, #8
    7168:	00005e13 	andeq	r5, r0, r3, lsl lr
    716c:	07040200 	streq	r0, [r4, -r0, lsl #4]
    7170:	0000006b 	andeq	r0, r0, fp, rrx
    7174:	00050802 	andeq	r0, r5, r2, lsl #16
    7178:	02000000 	andeq	r0, r0, #0
    717c:	00610708 	rsbeq	r0, r1, r8, lsl #14
    7180:	53050000 	movwpl	r0, #20480	; 0x5000
    7184:	06000000 	streq	r0, [r0], -r0
    7188:	000018a9 	andeq	r1, r0, r9, lsr #17
    718c:	aa180304 	bge	607da4 <__bss_end+0x5f4c58>
    7190:	07000000 	streq	r0, [r0, -r0]
    7194:	00001933 	andeq	r1, r0, r3, lsr r9
    7198:	19450732 	stmdbne	r5, {r1, r4, r5, r8, r9, sl}^
    719c:	07000000 	streq	r0, [r0, -r0]
    71a0:	000018f6 	strdeq	r1, [r0], -r6
    71a4:	197b0700 	ldmdbne	fp!, {r8, r9, sl}^
    71a8:	07000000 	streq	r0, [r0, -r0]
    71ac:	00001957 	andeq	r1, r0, r7, asr r9
    71b0:	19130700 	ldmdbne	r3, {r8, r9, sl}
    71b4:	00d10000 	sbcseq	r0, r1, r0
    71b8:	07040200 	streq	r0, [r4, -r0, lsl #4]
    71bc:	00000066 	andeq	r0, r0, r6, rrx
    71c0:	01090408 	tsteq	r9, r8, lsl #8
    71c4:	00001926 	andeq	r1, r0, r6, lsr #18
    71c8:	41012201 	tstmi	r1, r1, lsl #4
    71cc:	18000000 	stmdane	r0, {}	; <UNPREDICTABLE>
    71d0:	a800011f 	stmdage	r0, {r0, r1, r2, r3, r4, r8}
    71d4:	3e00011f 	mcrcc	1, 0, r0, cr0, cr15, {0}
    71d8:	de000014 	mcrle	0, 0, r0, cr0, cr4, {0}
    71dc:	0a000000 	beq	71e4 <__resume1_start+0x71e4>
    71e0:	24010069 	strcs	r0, [r1], #-105	; 0x69
    71e4:	00000053 	andeq	r0, r0, r3, asr r0
    71e8:	0000145e 	andeq	r1, r0, lr, asr r4
    71ec:	9c010900 	stcls	9, cr0, [r1], {-0}
    71f0:	01000018 	tsteq	r0, r8, lsl r0
    71f4:	00410157 	subeq	r0, r1, r7, asr r1
    71f8:	1fa80000 	svcne	0x00a80000
    71fc:	1ffc0001 	svcne	0x00fc0001
    7200:	147d0001 	ldrbtne	r0, [sp], #-1
    7204:	01180000 	tsteq	r8, r0
    7208:	690a0000 	stmdbvs	sl, {}	; <UNPREDICTABLE>
    720c:	4c590100 	ldfmie	f0, [r9], {-0}
    7210:	9d000000 	stcls	0, cr0, [r0, #-0]
    7214:	0b000014 	bleq	726c <__resume1_start+0x726c>
    7218:	00001969 	andeq	r1, r0, r9, ror #18
    721c:	00735a01 	rsbseq	r5, r3, r1, lsl #20
    7220:	14bc0000 	ldrtne	r0, [ip], #0
    7224:	09000000 	stmdbeq	r0, {}	; <UNPREDICTABLE>
    7228:	00199a01 	andseq	r9, r9, r1, lsl #20
    722c:	01710100 	cmneq	r1, r0, lsl #2
    7230:	00000041 	andeq	r0, r0, r1, asr #32
    7234:	00011ffc 	strdeq	r1, [r1], -ip
    7238:	00012054 	andeq	r2, r1, r4, asr r0
    723c:	000014e7 	andeq	r1, r0, r7, ror #9
    7240:	00000163 	andeq	r0, r0, r3, ror #2
    7244:	6372730c 	cmnvs	r2, #805306368	; 0x30000000
    7248:	78710100 	ldmdavc	r1!, {r8}^
    724c:	07000000 	streq	r0, [r0, -r0]
    7250:	0b000015 	bleq	72ac <__resume1_start+0x72ac>
    7254:	0000198c 	andeq	r1, r0, ip, lsl #19
    7258:	00537301 	subseq	r7, r3, r1, lsl #6
    725c:	151a0000 	ldrne	r0, [sl, #-0]
    7260:	930b0000 	movwls	r0, #45056	; 0xb000
    7264:	01000019 	tsteq	r0, r9, lsl r0
    7268:	00005374 	andeq	r5, r0, r4, ror r3
    726c:	00153100 	andseq	r3, r5, r0, lsl #2
    7270:	010d0000 	mrseq	r0, (UNDEF: 13)
    7274:	000018bc 			; <UNDEFINED> instruction: 0x000018bc
    7278:	41018f01 	tstmi	r1, r1, lsl #30
    727c:	54000000 	strpl	r0, [r0], #-0
    7280:	a4000120 	strge	r0, [r0], #-288	; 0x120
    7284:	02000120 	andeq	r0, r0, #8
    7288:	01bc007d 			; <UNDEFINED> instruction: 0x01bc007d
    728c:	730c0000 	movwvc	r0, #49152	; 0xc000
    7290:	01006372 	tsteq	r0, r2, ror r3
    7294:	0000788f 	andeq	r7, r0, pc, lsl #17
    7298:	00155300 	andseq	r5, r5, r0, lsl #6
    729c:	19740b00 	ldmdbne	r4!, {r8, r9, fp}^
    72a0:	91010000 	mrsls	r0, (UNDEF: 1)
    72a4:	00000041 	andeq	r0, r0, r1, asr #32
    72a8:	00001566 	andeq	r1, r0, r6, ror #10
    72ac:	00198c0b 	andseq	r8, r9, fp, lsl #24
    72b0:	53920100 	orrspl	r0, r2, #0
    72b4:	7a000000 	bvc	72bc <__resume1_start+0x72bc>
    72b8:	0b000015 	bleq	7314 <__resume1_start+0x7314>
    72bc:	00001993 	muleq	r0, r3, r9
    72c0:	00539301 	subseq	r9, r3, r1, lsl #6
    72c4:	15910000 	ldrne	r0, [r1]
    72c8:	0e000000 	cdpeq	0, 0, cr0, cr0, cr0, {0}
    72cc:	000019a9 	andeq	r1, r0, r9, lsr #19
    72d0:	00b11401 	adcseq	r1, r1, r1, lsl #8
    72d4:	03050000 	movweq	r0, #20480	; 0x5000
    72d8:	00012f50 	andeq	r2, r1, r0, asr pc
    72dc:	00190a0e 	andseq	r0, r9, lr, lsl #20
    72e0:	b1150100 	tstlt	r5, r0, lsl #2
    72e4:	05000000 	streq	r0, [r0, #-0]
    72e8:	012f5403 	teqeq	pc, r3, lsl #8
    72ec:	03e90000 	mvneq	r0, #0
    72f0:	00020000 	andeq	r0, r2, r0
    72f4:	00000f47 	andeq	r0, r0, r7, asr #30
    72f8:	010d0104 	tsteq	sp, r4, lsl #2
    72fc:	4c010000 	stcmi	0, cr0, [r1], {-0}
    7300:	4200001a 	andmi	r0, r0, #26
    7304:	a4000000 	strge	r0, [r0], #-0
    7308:	40000120 	andmi	r0, r0, r0, lsr #2
    730c:	41000122 	tstmi	r0, r2, lsr #2
    7310:	02000010 	andeq	r0, r0, #16
    7314:	00d30601 	sbcseq	r0, r3, r1, lsl #12
    7318:	01020000 	mrseq	r0, (UNDEF: 2)
    731c:	0000d108 	andeq	sp, r0, r8, lsl #2
    7320:	05020200 	streq	r0, [r2, #-512]	; 0x200
    7324:	00000141 	andeq	r0, r0, r1, asr #2
    7328:	fa070202 	blx	1c7b38 <__bss_end+0x1b49ec>
    732c:	03000000 	movweq	r0, #0
    7330:	000011f4 	strdeq	r1, [r0], -r4
    7334:	004c1202 	subeq	r1, ip, r2, lsl #4
    7338:	04040000 	streq	r0, [r4], #-0
    733c:	746e6905 	strbtvc	r6, [lr], #-2309	; 0x905
    7340:	08a80300 	stmiaeq	r8!, {r8, r9}
    7344:	13020000 	movwne	r0, #8192	; 0x2000
    7348:	0000005e 	andeq	r0, r0, lr, asr r0
    734c:	6b070402 	blvs	1c835c <__bss_end+0x1b5210>
    7350:	02000000 	andeq	r0, r0, #0
    7354:	00000508 	andeq	r0, r0, r8, lsl #10
    7358:	08020000 	stmdaeq	r2, {}	; <UNPREDICTABLE>
    735c:	00006107 	andeq	r6, r0, r7, lsl #2
    7360:	00530500 	subseq	r0, r3, r0, lsl #10
    7364:	53060000 	movwpl	r0, #24576	; 0x6000
    7368:	88000000 	stmdahi	r0, {}	; <UNPREDICTABLE>
    736c:	07000000 	streq	r0, [r0, -r0]
    7370:	0000005e 	andeq	r0, r0, lr, asr r0
    7374:	53060001 	movwpl	r0, #24577	; 0x6001
    7378:	98000000 	stmdals	r0, {}	; <UNPREDICTABLE>
    737c:	07000000 	streq	r0, [r0, -r0]
    7380:	0000005e 	andeq	r0, r0, lr, asr r0
    7384:	20080003 	andcs	r0, r8, r3
    7388:	bc00001b 	stclt	0, cr0, [r0], {27}
    738c:	02b61503 	adcseq	r1, r6, #12582912	; 0xc00000
    7390:	c8090000 	stmdagt	r9, {}	; <UNPREDICTABLE>
    7394:	03000019 	movweq	r0, #25
    7398:	00007318 	andeq	r7, r0, r8, lsl r3
    739c:	00230200 	eoreq	r0, r3, r0, lsl #4
    73a0:	001b7309 	andseq	r7, fp, r9, lsl #6
    73a4:	73190300 	tstvc	r9, #0
    73a8:	02000000 	andeq	r0, r0, #0
    73ac:	52090423 	andpl	r0, r9, #587202560	; 0x23000000
    73b0:	0300000c 	movweq	r0, #12
    73b4:	0002b61a 	andeq	fp, r2, sl, lsl r6
    73b8:	08230200 	stmdaeq	r3!, {r9}
    73bc:	001bc309 	andseq	ip, fp, r9, lsl #6
    73c0:	731c0300 	tstvc	ip, #0
    73c4:	02000000 	andeq	r0, r0, #0
    73c8:	cf091023 	svcgt	0x00091023
    73cc:	03000019 	movweq	r0, #25
    73d0:	0000731d 	andeq	r7, r0, sp, lsl r3
    73d4:	14230200 	strtne	r0, [r3], #-512	; 0x200
    73d8:	0019f109 	andseq	pc, r9, r9, lsl #2
    73dc:	731e0300 	tstvc	lr, #0
    73e0:	02000000 	andeq	r0, r0, #0
    73e4:	58091823 	stmdapl	r9, {r0, r1, r5, fp, ip}
    73e8:	03000004 	movweq	r0, #4
    73ec:	0000731f 	andeq	r7, r0, pc, lsl r3
    73f0:	1c230200 	sfmne	f0, 4, [r3], #-0
    73f4:	0019e909 	andseq	lr, r9, r9, lsl #18
    73f8:	73210300 	teqvc	r1, #0
    73fc:	02000000 	andeq	r0, r0, #0
    7400:	47092023 	strmi	r2, [r9, -r3, lsr #32]
    7404:	0300001b 	movweq	r0, #27
    7408:	00007322 	andeq	r7, r0, r2, lsr #6
    740c:	24230200 	strtcs	r0, [r3], #-512	; 0x200
    7410:	001b7a09 	andseq	r7, fp, r9, lsl #20
    7414:	73230300 	teqvc	r3, #0
    7418:	02000000 	andeq	r0, r0, #0
    741c:	61092823 	tstvs	r9, r3, lsr #16
    7420:	0300000c 	movweq	r0, #12
    7424:	00007324 	andeq	r7, r0, r4, lsr #6
    7428:	2c230200 	sfmcs	f0, 4, [r3], #-0
    742c:	001ab109 	andseq	fp, sl, r9, lsl #2
    7430:	73260300 	teqvc	r6, #0
    7434:	02000000 	andeq	r0, r0, #0
    7438:	04093023 	streq	r3, [r9], #-35	; 0x23
    743c:	0300001a 	movweq	r0, #26
    7440:	00007327 	andeq	r7, r0, r7, lsr #6
    7444:	34230200 	strtcc	r0, [r3], #-512	; 0x200
    7448:	001a1f09 	andseq	r1, sl, r9, lsl #30
    744c:	73280300 	teqvc	r8, #0
    7450:	02000000 	andeq	r0, r0, #0
    7454:	6b093823 	blvs	2554e8 <__bss_end+0x24239c>
    7458:	0300000c 	movweq	r0, #12
    745c:	00007329 	andeq	r7, r0, r9, lsr #6
    7460:	3c230200 	sfmcc	f0, 4, [r3], #-0
    7464:	001b6409 	andseq	r6, fp, r9, lsl #8
    7468:	732b0300 	teqvc	fp, #0
    746c:	02000000 	andeq	r0, r0, #0
    7470:	85094023 	strhi	r4, [r9, #-35]	; 0x23
    7474:	0300001b 	movweq	r0, #27
    7478:	0000732c 	andeq	r7, r0, ip, lsr #6
    747c:	44230200 	strtmi	r0, [r3], #-512	; 0x200
    7480:	00046209 	andeq	r6, r4, r9, lsl #4
    7484:	bb2d0300 	bllt	b4808c <__bss_end+0xb34f40>
    7488:	02000002 	andeq	r0, r0, #2
    748c:	cb094823 	blgt	259520 <__bss_end+0x2463d4>
    7490:	0300001b 	movweq	r0, #27
    7494:	0000732f 	andeq	r7, r0, pc, lsr #6
    7498:	50230200 	eorpl	r0, r3, r0, lsl #4
    749c:	001a7809 	andseq	r7, sl, r9, lsl #16
    74a0:	73300300 	teqvc	r0, #0
    74a4:	02000000 	andeq	r0, r0, #0
    74a8:	83095423 	movwhi	r5, #37923	; 0x9423
    74ac:	0300001a 	movweq	r0, #26
    74b0:	00007331 	andeq	r7, r0, r1, lsr r3
    74b4:	58230200 	stmdapl	r3!, {r9}
    74b8:	000a7809 	andeq	r7, sl, r9, lsl #16
    74bc:	73320300 	teqvc	r2, #0
    74c0:	02000000 	andeq	r0, r0, #0
    74c4:	fc095c23 	stc2	12, cr5, [r9], {35}	; 0x23
    74c8:	03000019 	movweq	r0, #25
    74cc:	00007334 	andeq	r7, r0, r4, lsr r3
    74d0:	60230200 	eorvs	r0, r3, r0, lsl #4
    74d4:	001ba609 	andseq	sl, fp, r9, lsl #12
    74d8:	73350300 	teqvc	r5, #0
    74dc:	02000000 	andeq	r0, r0, #0
    74e0:	b1096423 	tstlt	r9, r3, lsr #8
    74e4:	0300001b 	movweq	r0, #27
    74e8:	00007336 	andeq	r7, r0, r6, lsr r3
    74ec:	68230200 	stmdavs	r3!, {r9}
    74f0:	000c9309 	andeq	r9, ip, r9, lsl #6
    74f4:	d0370300 	eorsle	r0, r7, r0, lsl #6
    74f8:	02000002 	andeq	r0, r0, #2
    74fc:	6c096c23 	stcvs	12, cr6, [r9], {35}	; 0x23
    7500:	0300001b 	movweq	r0, #27
    7504:	00007339 	andeq	r7, r0, r9, lsr r3
    7508:	80230300 	eorhi	r0, r3, r0, lsl #6
    750c:	1b9e0901 	blne	fe789918 <__bss_end+0xfe7767cc>
    7510:	3a030000 	bcc	c7518 <__bss_end+0xb43cc>
    7514:	00000073 	andeq	r0, r0, r3, ror r0
    7518:	01842303 	orreq	r2, r4, r3, lsl #6
    751c:	0019c009 	andseq	ip, r9, r9
    7520:	733b0300 	teqvc	fp, #0
    7524:	03000000 	movweq	r0, #0
    7528:	09018823 	stmdbeq	r1, {r0, r1, r5, fp, pc}
    752c:	00001b5d 	andeq	r1, r0, sp, asr fp
    7530:	00733c03 	rsbseq	r3, r3, r3, lsl #24
    7534:	23030000 	movwcs	r0, #12288	; 0x3000
    7538:	9d09018c 	stflss	f0, [r9, #-560]	; 0xfffffdd0
    753c:	0300000c 	movweq	r0, #12
    7540:	0002d53f 	andeq	sp, r2, pc, lsr r5
    7544:	90230300 	eorls	r0, r3, r0, lsl #6
    7548:	1b030901 	blne	c9954 <__bss_end+0xb6808>
    754c:	42030000 	andmi	r0, r3, #0
    7550:	00000073 	andeq	r0, r0, r3, ror r0
    7554:	01a02303 	lsleq	r2, r3, #6
    7558:	0019b209 	andseq	fp, r9, r9, lsl #4
    755c:	73430300 	movtvc	r0, #13056	; 0x3300
    7560:	03000000 	movweq	r0, #0
    7564:	0901a423 	stmdbeq	r1, {r0, r1, r5, sl, sp, pc}
    7568:	00001aa7 	andeq	r1, r0, r7, lsr #21
    756c:	02da4403 	sbcseq	r4, sl, #50331648	; 0x3000000
    7570:	23030000 	movwcs	r0, #12288	; 0x3000
    7574:	da0901a8 	ble	247c1c <__bss_end+0x234ad0>
    7578:	03000019 	movweq	r0, #25
    757c:	00007347 	andeq	r7, r0, r7, asr #6
    7580:	b0230300 	eorlt	r0, r3, r0, lsl #6
    7584:	1b900901 	blne	fe409990 <__bss_end+0xfe3f6844>
    7588:	48030000 	stmdami	r3, {}	; <UNPREDICTABLE>
    758c:	00000073 	andeq	r0, r0, r3, ror r0
    7590:	01b42303 			; <UNDEFINED> instruction: 0x01b42303
    7594:	001ab909 	andseq	fp, sl, r9, lsl #18
    7598:	73490300 	movtvc	r0, #37632	; 0x9300
    759c:	03000000 	movweq	r0, #0
    75a0:	0001b823 	andeq	fp, r1, r3, lsr #16
    75a4:	00007805 	andeq	r7, r0, r5, lsl #16
    75a8:	00780500 	rsbseq	r0, r8, r0, lsl #10
    75ac:	53060000 	movwpl	r0, #24576	; 0x6000
    75b0:	d0000000 	andle	r0, r0, r0
    75b4:	07000002 	streq	r0, [r0, -r2]
    75b8:	0000005e 	andeq	r0, r0, lr, asr r0
    75bc:	c0050004 	andgt	r0, r5, r4
    75c0:	05000002 	streq	r0, [r0, #-2]
    75c4:	00000088 	andeq	r0, r0, r8, lsl #1
    75c8:	00007805 	andeq	r7, r0, r5, lsl #16
    75cc:	1a0f0300 	bne	3c81d4 <__bss_end+0x3b5088>
    75d0:	4b030000 	blmi	c75d8 <__bss_end+0xb448c>
    75d4:	00000098 	muleq	r0, r8, r0
    75d8:	66070402 	strvs	r0, [r7], -r2, lsl #8
    75dc:	0a000000 	beq	75e4 <__resume1_start+0x75e4>
    75e0:	001bd301 	andseq	sp, fp, r1, lsl #6
    75e4:	01110100 	tsteq	r1, r0, lsl #2
    75e8:	00000041 	andeq	r0, r0, r1, asr #32
    75ec:	000120a4 	andeq	r2, r1, r4, lsr #1
    75f0:	00012108 	andeq	r2, r1, r8, lsl #2
    75f4:	000015b3 			; <UNDEFINED> instruction: 0x000015b3
    75f8:	0000031e 	andeq	r0, r0, lr, lsl r3
    75fc:	001b520b 	andseq	r5, fp, fp, lsl #4
    7600:	1e110100 	mufnes	f0, f1, f0
    7604:	d3000003 	movwle	r0, #3
    7608:	00000015 	andeq	r0, r0, r5, lsl r0
    760c:	02df040c 	sbcseq	r0, pc, #201326592	; 0xc000000
    7610:	010d0000 	mrseq	r0, (UNDEF: 13)
    7614:	00001b10 	andeq	r1, r0, r0, lsl fp
    7618:	41012f01 	tstmi	r1, r1, lsl #30
    761c:	08000000 	stmdaeq	r0, {}	; <UNPREDICTABLE>
    7620:	58000121 	stmdapl	r0, {r0, r5, r8}
    7624:	02000121 	andeq	r0, r0, #1073741832	; 0x40000008
    7628:	0350007d 	cmpeq	r0, #125	; 0x7d
    762c:	520b0000 	andpl	r0, fp, #0
    7630:	0100001b 	tsteq	r0, fp, lsl r0
    7634:	00031e2f 	andeq	r1, r3, pc, lsr #28
    7638:	0015f100 	andseq	pc, r5, r0, lsl #2
    763c:	010e0000 	mrseq	r0, (UNDEF: 14)
    7640:	00001af6 	strdeq	r1, [r0], -r6
    7644:	41014901 	tstmi	r1, r1, lsl #18
    7648:	58000000 	stmdapl	r0, {}	; <UNPREDICTABLE>
    764c:	90000121 	andls	r0, r0, r1, lsr #2
    7650:	02000121 	andeq	r0, r0, #1073741832	; 0x40000008
    7654:	010e007d 	tsteq	lr, sp, ror r0
    7658:	00001a3f 	andeq	r1, r0, pc, lsr sl
    765c:	41016101 	tstmi	r1, r1, lsl #2
    7660:	90000000 	andls	r0, r0, r0
    7664:	b8000121 	stmdalt	r0, {r0, r5, r8}
    7668:	02000121 	andeq	r0, r0, #1073741832	; 0x40000008
    766c:	010f007d 	tsteq	pc, sp, ror r0	; <UNPREDICTABLE>
    7670:	00001ade 	ldrdeq	r1, [r0], -lr
    7674:	b8017901 	stmdalt	r1, {r0, r8, fp, ip, sp, lr}
    7678:	00000121 	andeq	r0, r0, r1, lsr #2
    767c:	02000122 	andeq	r0, r0, #-2147483640	; 0x80000008
    7680:	010f007d 	tsteq	pc, sp, ror r0	; <UNPREDICTABLE>
    7684:	00001b2e 	andeq	r1, r0, lr, lsr #22
    7688:	00019a01 	andeq	r9, r1, r1, lsl #20
    768c:	40000122 	andmi	r0, r0, r2, lsr #2
    7690:	02000122 	andeq	r0, r0, #-2147483640	; 0x80000008
    7694:	bc10007d 	ldclt	0, cr0, [r0], {125}	; 0x7d
    7698:	0100001b 	tsteq	r0, fp, lsl r0
    769c:	00031e03 	andeq	r1, r3, r3, lsl #28
    76a0:	58030500 	stmdapl	r3, {r8, sl}
    76a4:	1000012f 	andne	r0, r0, pc, lsr #2
    76a8:	00001a8e 	andeq	r1, r0, lr, lsl #21
    76ac:	00530401 	subseq	r0, r3, r1, lsl #8
    76b0:	03050000 	movweq	r0, #20480	; 0x5000
    76b4:	00012f5c 	andeq	r2, r1, ip, asr pc
    76b8:	001ac810 	andseq	ip, sl, r0, lsl r8
    76bc:	53040100 	movwpl	r0, #16640	; 0x4100
    76c0:	05000000 	streq	r0, [r0, #-0]
    76c4:	012f6003 	teqeq	pc, r3
    76c8:	1a2a1000 	bne	a8b6d0 <__bss_end+0xa78584>
    76cc:	04010000 	streq	r0, [r1], #-0
    76d0:	00000053 	andeq	r0, r0, r3, asr r0
    76d4:	2f640305 	svccs	0x00640305
    76d8:	42000001 	andmi	r0, r0, #1
    76dc:	02000001 	andeq	r0, r0, #1
    76e0:	00103a00 	andseq	r3, r0, r0, lsl #20
    76e4:	0d010400 	cfstrseq	mvf0, [r1, #-0]
    76e8:	01000001 	tsteq	r0, r1
    76ec:	00001c50 	andeq	r1, r0, r0, asr ip
    76f0:	00000042 	andeq	r0, r0, r2, asr #32
    76f4:	00012240 	andeq	r2, r1, r0, asr #4
    76f8:	00012298 	muleq	r1, r8, r2
    76fc:	00001110 	andeq	r1, r0, r0, lsl r1
    7700:	d3060102 	movwle	r0, #24834	; 0x6102
    7704:	02000000 	andeq	r0, r0, #0
    7708:	00d10801 	sbcseq	r0, r1, r1, lsl #16
    770c:	02020000 	andeq	r0, r2, #0
    7710:	00014105 	andeq	r4, r1, r5, lsl #2
    7714:	07020200 	streq	r0, [r2, -r0, lsl #4]
    7718:	000000fa 	strdeq	r0, [r0], -sl
    771c:	0011f403 	andseq	pc, r1, r3, lsl #8
    7720:	4c120200 	lfmmi	f0, 4, [r2], {-0}
    7724:	04000000 	streq	r0, [r0], #-0
    7728:	6e690504 	cdpvs	5, 6, cr0, cr9, cr4, {0}
    772c:	a8030074 	stmdage	r3, {r2, r4, r5, r6}
    7730:	02000008 	andeq	r0, r0, #8
    7734:	00005e13 	andeq	r5, r0, r3, lsl lr
    7738:	07040200 	streq	r0, [r4, -r0, lsl #4]
    773c:	0000006b 	andeq	r0, r0, fp, rrx
    7740:	00050802 	andeq	r0, r5, r2, lsl #16
    7744:	02000000 	andeq	r0, r0, #0
    7748:	00610708 	rsbeq	r0, r1, r8, lsl #14
    774c:	53050000 	movwpl	r0, #20480	; 0x5000
    7750:	06000000 	streq	r0, [r0], -r0
    7754:	00000053 	andeq	r0, r0, r3, asr r0
    7758:	00000088 	andeq	r0, r0, r8, lsl #1
    775c:	00005e07 	andeq	r5, r0, r7, lsl #28
    7760:	08000600 	stmdaeq	r0, {r9, sl}
    7764:	00001be0 	andeq	r1, r0, r0, ror #23
    7768:	bf150324 	svclt	0x00150324
    776c:	09000000 	stmdbeq	r0, {}	; <UNPREDICTABLE>
    7770:	006c7443 	rsbeq	r7, ip, r3, asr #8
    7774:	00731803 	rsbseq	r1, r3, r3, lsl #16
    7778:	23020000 	movwcs	r0, #8192	; 0x2000
    777c:	0c520a00 	mrrceq	10, 0, r0, r2, cr0
    7780:	19030000 	stmdbne	r3, {}	; <UNPREDICTABLE>
    7784:	000000bf 	strheq	r0, [r0], -pc	; <UNPREDICTABLE>
    7788:	0a042302 	beq	110398 <__bss_end+0xfd24c>
    778c:	00001c0e 	andeq	r1, r0, lr, lsl #24
    7790:	00731b03 	rsbseq	r1, r3, r3, lsl #22
    7794:	23020000 	movwcs	r0, #8192	; 0x2000
    7798:	78050020 	stmdavc	r5, {r5}
    779c:	03000000 	movweq	r0, #0
    77a0:	00001bf1 	strdeq	r1, [r0], -r1	; <UNPREDICTABLE>
    77a4:	00881d03 	addeq	r1, r8, r3, lsl #26
    77a8:	04020000 	streq	r0, [r2], #-0
    77ac:	00006607 	andeq	r6, r0, r7, lsl #12
    77b0:	32010b00 	andcc	r0, r1, #0
    77b4:	0100001c 	tsteq	r0, ip, lsl r0
    77b8:	00410111 	subeq	r0, r1, r1, lsl r1
    77bc:	22400000 	subcs	r0, r0, #0
    77c0:	22700001 	rsbscs	r0, r0, #1
    77c4:	7d020001 	stcvc	0, cr0, [r2, #-4]
    77c8:	00010200 	andeq	r0, r1, r0, lsl #4
    77cc:	1c420c00 	mcrrne	12, 0, r0, r2, cr0
    77d0:	11010000 	mrsne	r0, (UNDEF: 1)
    77d4:	00000102 	andeq	r0, r0, r2, lsl #2
    77d8:	0000160f 	andeq	r1, r0, pc, lsl #12
    77dc:	c4040d00 	strgt	r0, [r4], #-3328	; 0xd00
    77e0:	0b000000 	bleq	77e8 <__resume1_start+0x77e8>
    77e4:	001c1f01 	andseq	r1, ip, r1, lsl #30
    77e8:	012a0100 	teqeq	sl, r0, lsl #2
    77ec:	00000041 	andeq	r0, r0, r1, asr #32
    77f0:	00012270 	andeq	r2, r1, r0, ror r2
    77f4:	00012298 	muleq	r1, r8, r2
    77f8:	34007d02 	strcc	r7, [r0], #-3330	; 0xd02
    77fc:	0c000001 	stceq	0, cr0, [r0], {1}
    7800:	00001c42 	andeq	r1, r0, r2, asr #24
    7804:	01022a01 	tsteq	r2, r1, lsl #20
    7808:	162d0000 	strtne	r0, [sp], -r0
    780c:	0e000000 	cdpeq	0, 0, cr0, cr0, cr0, {0}
    7810:	00001c04 	andeq	r1, r0, r4, lsl #24
    7814:	01020401 	tsteq	r2, r1, lsl #8
    7818:	03050000 	movweq	r0, #20480	; 0x5000
    781c:	00012f68 	andeq	r2, r1, r8, ror #30
    7820:	00028b00 	andeq	r8, r2, r0, lsl #22
    7824:	f7000200 			; <UNDEFINED> instruction: 0xf7000200
    7828:	04000010 	streq	r0, [r0], #-16
    782c:	00010d01 	andeq	r0, r1, r1, lsl #26
    7830:	1cfd0100 	ldfnee	f0, [sp]
    7834:	00420000 	subeq	r0, r2, r0
    7838:	22980000 	addscs	r0, r8, #0
    783c:	24000001 	strcs	r0, [r0], #-1
    7840:	119f0001 	orrsne	r0, pc, r1
    7844:	01020000 	mrseq	r0, (UNDEF: 2)
    7848:	0000d306 	andeq	sp, r0, r6, lsl #6
    784c:	08010200 	stmdaeq	r1, {r9}
    7850:	000000d1 	ldrdeq	r0, [r0], -r1
    7854:	41050202 	tstmi	r5, r2, lsl #4
    7858:	02000001 	andeq	r0, r0, #1
    785c:	00fa0702 	rscseq	r0, sl, r2, lsl #14
    7860:	f4030000 	vst4.8	{d0-d3}, [r3], r0
    7864:	02000011 	andeq	r0, r0, #17
    7868:	00004c12 	andeq	r4, r0, r2, lsl ip
    786c:	05040400 	streq	r0, [r4, #-1024]	; 0x400
    7870:	00746e69 	rsbseq	r6, r4, r9, ror #28
    7874:	0008a803 	andeq	sl, r8, r3, lsl #16
    7878:	5e130200 	cdppl	2, 1, cr0, cr3, cr0, {0}
    787c:	02000000 	andeq	r0, r0, #0
    7880:	006b0704 	rsbeq	r0, fp, r4, lsl #14
    7884:	08020000 	stmdaeq	r2, {}	; <UNPREDICTABLE>
    7888:	00000005 	andeq	r0, r0, r5
    788c:	07080200 	streq	r0, [r8, -r0, lsl #4]
    7890:	00000061 	andeq	r0, r0, r1, rrx
    7894:	66070402 	strvs	r0, [r7], -r2, lsl #8
    7898:	05000000 	streq	r0, [r0, #-0]
    789c:	00001d30 	andeq	r1, r0, r0, lsr sp
    78a0:	73011301 	movwvc	r1, #4865	; 0x1301
    78a4:	03000000 	movweq	r0, #0
    78a8:	00000097 	muleq	r0, r7, r0
    78ac:	001c9306 	andseq	r9, ip, r6, lsl #6
    78b0:	73150100 	tstvc	r5, #0
    78b4:	00000000 	andeq	r0, r0, r0
    78b8:	001d4307 	andseq	r4, sp, r7, lsl #6
    78bc:	01330100 	teqeq	r3, r0, lsl #2
    78c0:	0000b003 	andeq	fp, r0, r3
    78c4:	1c930800 	ldcne	8, cr0, [r3], {0}
    78c8:	33010000 	movwcc	r0, #4096	; 0x1000
    78cc:	00000073 	andeq	r0, r0, r3, ror r0
    78d0:	df010900 	svcle	0x00010900
    78d4:	0100001c 	tsteq	r0, ip, lsl r0
    78d8:	00410147 	subeq	r0, r1, r7, asr #2
    78dc:	22980000 	addscs	r0, r8, #0
    78e0:	22c40001 	sbccs	r0, r4, #1
    78e4:	7d020001 	stcvc	0, cr0, [r2, #-4]
    78e8:	0000dc00 	andeq	sp, r0, r0, lsl #24
    78ec:	169d0a00 	ldrne	r0, [sp], r0, lsl #20
    78f0:	47010000 	strmi	r0, [r1, -r0]
    78f4:	00000053 	andeq	r0, r0, r3, asr r0
    78f8:	0000164b 	andeq	r1, r0, fp, asr #12
    78fc:	ac010b00 	stcge	11, cr0, [r1], {-0}
    7900:	0100001c 	tsteq	r0, ip, lsl r0
    7904:	00410161 	subeq	r0, r1, r1, ror #2
    7908:	22c40000 	sbccs	r0, r4, #0
    790c:	23400001 	movtcs	r0, #1
    7910:	165e0001 	ldrbne	r0, [lr], -r1
    7914:	01670000 	cmneq	r7, r0
    7918:	da0a0000 	ble	287920 <__bss_end+0x2747d4>
    791c:	0100001c 	tsteq	r0, ip, lsl r0
    7920:	00005361 	andeq	r5, r0, r1, ror #6
    7924:	00167e00 	andseq	r7, r6, r0, lsl #28
    7928:	1cb80a00 	vldmiane	r8!, {s0-s-1}
    792c:	61010000 	mrsvs	r0, (UNDEF: 1)
    7930:	00000053 	andeq	r0, r0, r3, asr r0
    7934:	000016a7 	andeq	r1, r0, r7, lsr #13
    7938:	001ca50c 	andseq	sl, ip, ip, lsl #10
    793c:	53640100 	cmnpl	r4, #0
    7940:	c5000000 	strgt	r0, [r0, #-0]
    7944:	0d000016 	stceq	0, cr0, [r0, #-88]	; 0xffffffa8
    7948:	0000007a 	andeq	r0, r0, sl, ror r0
    794c:	000122c8 	andeq	r2, r1, r8, asr #5
    7950:	000122d0 	ldrdeq	r2, [r1], -r0
    7954:	014d6701 	cmpeq	sp, r1, lsl #14
    7958:	c80e0000 	stmdagt	lr, {}	; <UNPREDICTABLE>
    795c:	d0000122 	andle	r0, r0, r2, lsr #2
    7960:	0f000122 	svceq	0x00000122
    7964:	0000008b 	andeq	r0, r0, fp, lsl #1
    7968:	0000171b 	andeq	r1, r0, fp, lsl r7
    796c:	97100000 	ldrls	r0, [r0, -r0]
    7970:	1c000000 	stcne	0, cr0, [r0], {-0}
    7974:	20000123 	andcs	r0, r0, r3, lsr #2
    7978:	01000123 	tsteq	r0, r3, lsr #2
    797c:	00a4116f 	adceq	r1, r4, pc, ror #2
    7980:	17390000 	ldrne	r0, [r9, -r0]!
    7984:	00000000 	andeq	r0, r0, r0
    7988:	1cef0109 	stfnee	f0, [pc], #36	; 79b4 <__resume1_start+0x79b4>
    798c:	84010000 	strhi	r0, [r1], #-0
    7990:	00004101 	andeq	r4, r0, r1, lsl #2
    7994:	01234000 	teqeq	r3, r0
    7998:	01237000 	teqeq	r3, r0
    799c:	007d0200 	rsbseq	r0, sp, r0, lsl #4
    79a0:	000001ae 	andeq	r0, r0, lr, lsr #3
    79a4:	001cda0a 	andseq	sp, ip, sl, lsl #20
    79a8:	53840100 	orrpl	r0, r4, #0
    79ac:	4c000000 	stcmi	0, cr0, [r0], {-0}
    79b0:	12000017 	andne	r0, r0, #23
    79b4:	00000097 	muleq	r0, r7, r0
    79b8:	00012344 	andeq	r2, r1, r4, asr #6
    79bc:	00000140 	andeq	r0, r0, r0, asr #2
    79c0:	a4138a01 	ldrge	r8, [r3], #-2561	; 0xa01
    79c4:	05000000 	streq	r0, [r0, #-0]
    79c8:	012f6c03 	teqeq	pc, r3, lsl #24
    79cc:	09000000 	stmdbeq	r0, {}	; <UNPREDICTABLE>
    79d0:	001cc001 	andseq	ip, ip, r1
    79d4:	019a0100 	orrseq	r0, sl, r0, lsl #2
    79d8:	00000041 	andeq	r0, r0, r1, asr #32
    79dc:	00012370 	andeq	r2, r1, r0, ror r3
    79e0:	000123d8 	ldrdeq	r2, [r1], -r8
    79e4:	36007d02 	strcc	r7, [r0], -r2, lsl #26
    79e8:	0a000002 	beq	79f8 <__resume1_start+0x79f8>
    79ec:	00001cda 	ldrdeq	r1, [r0], -sl
    79f0:	00539a01 	subseq	r9, r3, r1, lsl #20
    79f4:	175f0000 	ldrbne	r0, [pc, -r0]
    79f8:	b80a0000 	stmdalt	sl, {}	; <UNPREDICTABLE>
    79fc:	0100001c 	tsteq	r0, ip, lsl r0
    7a00:	0000539a 	muleq	r0, sl, r3
    7a04:	00179200 	andseq	r9, r7, r0, lsl #4
    7a08:	1ca50c00 	stcne	12, cr0, [r5]
    7a0c:	9d010000 	stcls	0, cr0, [r1, #-0]
    7a10:	00000053 	andeq	r0, r0, r3, asr r0
    7a14:	000017b0 			; <UNDEFINED> instruction: 0x000017b0
    7a18:	00007a0d 	andeq	r7, r0, sp, lsl #20
    7a1c:	01237000 	teqeq	r3, r0
    7a20:	01237800 	teqeq	r3, r0, lsl #16
    7a24:	1ca00100 	stfnes	f0, [r0]
    7a28:	0e000002 	cdpeq	0, 0, cr0, cr0, cr2, {0}
    7a2c:	00012370 	andeq	r2, r1, r0, ror r3
    7a30:	00012378 	andeq	r2, r1, r8, ror r3
    7a34:	00008b14 	andeq	r8, r0, r4, lsl fp
    7a38:	00520100 	subseq	r0, r2, r0, lsl #2
    7a3c:	00971000 	addseq	r1, r7, r0
    7a40:	23c00000 	biccs	r0, r0, #0
    7a44:	23c40001 	biccs	r0, r4, #1
    7a48:	a8010001 	stmdage	r1, {r0}
    7a4c:	0000a411 	andeq	sl, r0, r1, lsl r4
    7a50:	00180600 	andseq	r0, r8, r0, lsl #12
    7a54:	09000000 	stmdbeq	r0, {}	; <UNPREDICTABLE>
    7a58:	001c7f01 	andseq	r7, ip, r1, lsl #30
    7a5c:	01bd0100 			; <UNDEFINED> instruction: 0x01bd0100
    7a60:	00000041 	andeq	r0, r0, r1, asr #32
    7a64:	000123d8 	ldrdeq	r2, [r1], -r8
    7a68:	00012400 	andeq	r2, r1, r0, lsl #8
    7a6c:	7d007d02 	stcvc	13, cr7, [r0, #-8]
    7a70:	0a000002 	beq	7a80 <__resume1_start+0x7a80>
    7a74:	00001cda 	ldrdeq	r1, [r0], -sl
    7a78:	0053bd01 	subseq	fp, r3, r1, lsl #26
    7a7c:	18190000 	ldmdane	r9, {}	; <UNPREDICTABLE>
    7a80:	97120000 	ldrls	r0, [r2, -r0]
    7a84:	dc000000 	stcle	0, cr0, [r0], {-0}
    7a88:	68000123 	stmdavs	r0, {r0, r1, r5, r8}
    7a8c:	01000001 	tsteq	r0, r1
    7a90:	00a413c3 	adceq	r1, r4, r3, asr #7
    7a94:	03050000 	movweq	r0, #20480	; 0x5000
    7a98:	00012f6c 	andeq	r2, r1, ip, ror #30
    7a9c:	99150000 	ldmdbls	r5, {}	; <UNPREDICTABLE>
    7aa0:	0100001c 	tsteq	r0, ip, lsl r0
    7aa4:	0000530d 	andeq	r5, r0, sp, lsl #6
    7aa8:	6c030500 	cfstr32vs	mvfx0, [r3], {-0}
    7aac:	0000012f 	andeq	r0, r0, pc, lsr #2
    7ab0:	00002eed 	andeq	r2, r0, sp, ror #29
    7ab4:	12270002 	eorne	r0, r7, #2
    7ab8:	01040000 	mrseq	r0, (UNDEF: 4)
    7abc:	0000010d 	andeq	r0, r0, sp, lsl #2
    7ac0:	001d8f01 	andseq	r8, sp, r1, lsl #30
    7ac4:	00004200 	andeq	r4, r0, r0, lsl #4
    7ac8:	01240000 	teqeq	r4, r0
    7acc:	012c6800 	teqeq	ip, r0, lsl #16
    7ad0:	00129600 	andseq	r9, r2, r0, lsl #12
    7ad4:	06010200 	streq	r0, [r1], -r0, lsl #4
    7ad8:	000000d3 	ldrdeq	r0, [r0], -r3
    7adc:	000ce603 	andeq	lr, ip, r3, lsl #12
    7ae0:	370f0200 	strcc	r0, [pc, -r0, lsl #4]
    7ae4:	02000000 	andeq	r0, r0, #0
    7ae8:	00d10801 	sbcseq	r0, r1, r1, lsl #16
    7aec:	02020000 	andeq	r0, r2, #0
    7af0:	00014105 	andeq	r4, r1, r5, lsl #2
    7af4:	07020200 	streq	r0, [r2, -r0, lsl #4]
    7af8:	000000fa 	strdeq	r0, [r0], -sl
    7afc:	0011f403 	andseq	pc, r1, r3, lsl #8
    7b00:	57120200 	ldrpl	r0, [r2, -r0, lsl #4]
    7b04:	04000000 	streq	r0, [r0], #-0
    7b08:	6e690504 	cdpvs	5, 6, cr0, cr9, cr4, {0}
    7b0c:	a8030074 	stmdage	r3, {r2, r4, r5, r6}
    7b10:	02000008 	andeq	r0, r0, #8
    7b14:	00006913 	andeq	r6, r0, r3, lsl r9
    7b18:	07040200 	streq	r0, [r4, -r0, lsl #4]
    7b1c:	0000006b 	andeq	r0, r0, fp, rrx
    7b20:	00050802 	andeq	r0, r5, r2, lsl #16
    7b24:	02000000 	andeq	r0, r0, #0
    7b28:	00610708 	rsbeq	r0, r1, r8, lsl #14
    7b2c:	04050000 	streq	r0, [r5], #-0
    7b30:	010f9103 	tsteq	pc, r3, lsl #2
    7b34:	38060000 	stmdacc	r6, {}	; <UNPREDICTABLE>
    7b38:	03000003 	movweq	r0, #3
    7b3c:	00005e93 	muleq	r0, r3, lr
    7b40:	1e020400 	cfcpysne	mvf0, mvf2
    7b44:	06002302 	streq	r2, [r0], -r2, lsl #6
    7b48:	00000e46 	andeq	r0, r0, r6, asr #28
    7b4c:	005e9403 	subseq	r9, lr, r3, lsl #8
    7b50:	06040000 	streq	r0, [r4], -r0
    7b54:	00230218 	eoreq	r0, r3, r8, lsl r2
    7b58:	000d9e06 	andeq	r9, sp, r6, lsl #28
    7b5c:	5e950300 	cdppl	3, 9, cr0, cr5, cr0, {0}
    7b60:	04000000 	streq	r0, [r0], #-0
    7b64:	23021008 	movwcs	r1, #8200	; 0x2008
    7b68:	0c820600 	stceq	6, cr0, [r2], {0}
    7b6c:	96030000 	strls	r0, [r3], -r0
    7b70:	0000005e 	andeq	r0, r0, lr, asr r0
    7b74:	020f0104 	andeq	r0, pc, #1
    7b78:	4b060023 	blmi	187c0c <__bss_end+0x174ac0>
    7b7c:	0300000e 	movweq	r0, #14
    7b80:	00005e97 	muleq	r0, r7, lr
    7b84:	08070400 	stmdaeq	r7, {sl}
    7b88:	06002302 	streq	r2, [r0], -r2, lsl #6
    7b8c:	000007f3 	strdeq	r0, [r0], -r3
    7b90:	005e9803 	subseq	r9, lr, r3, lsl #16
    7b94:	03040000 	movweq	r0, #16384	; 0x4000
    7b98:	00230205 	eoreq	r0, r3, r5, lsl #4
    7b9c:	000e5006 	andeq	r5, lr, r6
    7ba0:	5e990300 	cdppl	3, 9, cr0, cr9, cr0, {0}
    7ba4:	04000000 	streq	r0, [r0], #-0
    7ba8:	23020104 	movwcs	r0, #8452	; 0x2104
    7bac:	0d0f0600 	stceq	6, cr0, [pc, #-0]	; 7bb4 <__resume1_start+0x7bb4>
    7bb0:	9a030000 	bls	c7bb8 <__bss_end+0xb4a6c>
    7bb4:	0000005e 	andeq	r0, r0, lr, asr r0
    7bb8:	02000104 	andeq	r0, r0, #1
    7bbc:	07000023 	streq	r0, [r0, -r3, lsr #32]
    7bc0:	2e8e0304 	cdpcs	3, 8, cr0, cr14, cr4, {0}
    7bc4:	08000001 	stmdaeq	r0, {r0}
    7bc8:	000002c6 	andeq	r0, r0, r6, asr #5
    7bcc:	005e9003 	subseq	r9, lr, r3
    7bd0:	25080000 	strcs	r0, [r8, #-0]
    7bd4:	03000009 	movweq	r0, #9
    7bd8:	00007e9b 	muleq	r0, fp, lr
    7bdc:	32030000 	andcc	r0, r3, #0
    7be0:	03000005 	movweq	r0, #5
    7be4:	00010f9c 	muleq	r1, ip, pc	; <UNPREDICTABLE>
    7be8:	03040500 	movweq	r0, #17664	; 0x4500
    7bec:	0001caa1 	andeq	ip, r1, r1, lsr #21
    7bf0:	03380600 	teqeq	r8, #0
    7bf4:	a3030000 	movwge	r0, #12288	; 0x3000
    7bf8:	0000005e 	andeq	r0, r0, lr, asr r0
    7bfc:	021e0204 	andseq	r0, lr, #1073741824	; 0x40000000
    7c00:	46060023 	strmi	r0, [r6], -r3, lsr #32
    7c04:	0300000e 	movweq	r0, #14
    7c08:	00005ea4 	andeq	r5, r0, r4, lsr #29
    7c0c:	18060400 	stmdane	r6, {sl}
    7c10:	06002302 	streq	r2, [r0], -r2, lsl #6
    7c14:	00000d9e 	muleq	r0, lr, sp
    7c18:	005ea503 	subseq	sl, lr, r3, lsl #10
    7c1c:	08040000 	stmdaeq	r4, {}	; <UNPREDICTABLE>
    7c20:	00230210 	eoreq	r0, r3, r0, lsl r2
    7c24:	000c8206 	andeq	r8, ip, r6, lsl #4
    7c28:	5ea60300 	cdppl	3, 10, cr0, cr6, cr0, {0}
    7c2c:	04000000 	streq	r0, [r0], #-0
    7c30:	23020f01 	movwcs	r0, #12033	; 0x2f01
    7c34:	0e4b0600 	cdpeq	6, 4, cr0, cr11, cr0, {0}
    7c38:	a7030000 	strge	r0, [r3, -r0]
    7c3c:	0000005e 	andeq	r0, r0, lr, asr r0
    7c40:	02080704 	andeq	r0, r8, #1048576	; 0x100000
    7c44:	f3060023 	vhadd.u8	d0, d6, d19
    7c48:	03000007 	movweq	r0, #7
    7c4c:	00005ea8 	andeq	r5, r0, r8, lsr #29
    7c50:	05030400 	streq	r0, [r3, #-1024]	; 0x400
    7c54:	06002302 	streq	r2, [r0], -r2, lsl #6
    7c58:	00000e50 	andeq	r0, r0, r0, asr lr
    7c5c:	005ea903 	subseq	sl, lr, r3, lsl #18
    7c60:	04040000 	streq	r0, [r4], #-0
    7c64:	00230201 	eoreq	r0, r3, r1, lsl #4
    7c68:	000d0f06 	andeq	r0, sp, r6, lsl #30
    7c6c:	5eaa0300 	cdppl	3, 10, cr0, cr10, cr0, {0}
    7c70:	04000000 	streq	r0, [r0], #-0
    7c74:	23020001 	movwcs	r0, #8193	; 0x2001
    7c78:	04070000 	streq	r0, [r7], #-0
    7c7c:	01e99e03 	mvneq	r9, r3, lsl #28
    7c80:	c6080000 	strgt	r0, [r8], -r0
    7c84:	03000002 	movweq	r0, #2
    7c88:	00005ea0 	andeq	r5, r0, r0, lsr #29
    7c8c:	09250800 	stmdbeq	r5!, {fp}
    7c90:	ab030000 	blge	c7c98 <__bss_end+0xb4b4c>
    7c94:	00000139 	andeq	r0, r0, r9, lsr r1
    7c98:	036e0300 	cmneq	lr, #0
    7c9c:	ac030000 	stcge	0, cr0, [r3], {-0}
    7ca0:	000001ca 	andeq	r0, r0, sl, asr #3
    7ca4:	b1030405 	tstlt	r3, r5, lsl #8
    7ca8:	000002a7 	andeq	r0, r0, r7, lsr #5
    7cac:	00034606 	andeq	r4, r3, r6, lsl #12
    7cb0:	5eb30300 	cdppl	3, 11, cr0, cr3, cr0, {0}
    7cb4:	04000000 	streq	r0, [r0], #-0
    7cb8:	23021a06 	movwcs	r1, #10758	; 0x2a06
    7cbc:	0e460600 	cdpeq	6, 4, cr0, cr6, cr0, {0}
    7cc0:	b4030000 	strlt	r0, [r3], #-0
    7cc4:	0000005e 	andeq	r0, r0, lr, asr r0
    7cc8:	02180204 	andseq	r0, r8, #1073741824	; 0x40000000
    7ccc:	9e060023 	cdpls	0, 0, cr0, cr6, cr3, {1}
    7cd0:	0300000d 	movweq	r0, #13
    7cd4:	00005eb5 			; <UNDEFINED> instruction: 0x00005eb5
    7cd8:	10080400 	andne	r0, r8, r0, lsl #8
    7cdc:	06002302 	streq	r2, [r0], -r2, lsl #6
    7ce0:	00000ceb 	andeq	r0, r0, fp, ror #25
    7ce4:	005eb603 	subseq	fp, lr, r3, lsl #12
    7ce8:	01040000 	mrseq	r0, (UNDEF: 4)
    7cec:	0023020f 	eoreq	r0, r3, pc, lsl #4
    7cf0:	000e4b06 	andeq	r4, lr, r6, lsl #22
    7cf4:	5eb70300 	cdppl	3, 11, cr0, cr7, cr0, {0}
    7cf8:	04000000 	streq	r0, [r0], #-0
    7cfc:	23020e01 	movwcs	r0, #11777	; 0x2e01
    7d00:	0cf40600 	ldcleq	6, cr0, [r4]
    7d04:	b8030000 	stmdalt	r3, {}	; <UNPREDICTABLE>
    7d08:	0000005e 	andeq	r0, r0, lr, asr r0
    7d0c:	020d0104 	andeq	r0, sp, #1
    7d10:	50060023 	andpl	r0, r6, r3, lsr #32
    7d14:	0300000e 	movweq	r0, #14
    7d18:	00005eb9 			; <UNDEFINED> instruction: 0x00005eb9
    7d1c:	08050400 	stmdaeq	r5, {sl}
    7d20:	06002302 	streq	r2, [r0], -r2, lsl #6
    7d24:	000003a8 	andeq	r0, r0, r8, lsr #7
    7d28:	005eba03 	subseq	fp, lr, r3, lsl #20
    7d2c:	01040000 	mrseq	r0, (UNDEF: 4)
    7d30:	00230207 	eoreq	r0, r3, r7, lsl #4
    7d34:	000e5506 	andeq	r5, lr, r6, lsl #10
    7d38:	5ebb0300 	cdppl	3, 11, cr0, cr11, cr0, {0}
    7d3c:	04000000 	streq	r0, [r0], #-0
    7d40:	23020106 	movwcs	r0, #8454	; 0x2106
    7d44:	0d0f0600 	stceq	6, cr0, [pc, #-0]	; 7d4c <__resume1_start+0x7d4c>
    7d48:	bc030000 	stclt	0, cr0, [r3], {-0}
    7d4c:	0000005e 	andeq	r0, r0, lr, asr r0
    7d50:	02000104 	andeq	r0, r0, #1
    7d54:	07000023 	streq	r0, [r0, -r3, lsr #32]
    7d58:	c6ae0304 	strtgt	r0, [lr], r4, lsl #6
    7d5c:	08000002 	stmdaeq	r0, {r1}
    7d60:	000002c6 	andeq	r0, r0, r6, asr #5
    7d64:	005eb003 	subseq	fp, lr, r3
    7d68:	25080000 	strcs	r0, [r8, #-0]
    7d6c:	03000009 	movweq	r0, #9
    7d70:	0001f4bd 			; <UNDEFINED> instruction: 0x0001f4bd
    7d74:	c2030000 	andgt	r0, r3, #0
    7d78:	03000009 	movweq	r0, #9
    7d7c:	0002a7be 			; <UNDEFINED> instruction: 0x0002a7be
    7d80:	03040500 	movweq	r0, #17664	; 0x4500
    7d84:	000373c3 	andeq	r7, r3, r3, asr #7
    7d88:	0e460600 	cdpeq	6, 4, cr0, cr6, cr0, {0}
    7d8c:	c5030000 	strgt	r0, [r3, #-0]
    7d90:	0000005e 	andeq	r0, r0, lr, asr r0
    7d94:	02180804 	andseq	r0, r8, #262144	; 0x40000
    7d98:	9e060023 	cdpls	0, 0, cr0, cr6, cr3, {1}
    7d9c:	0300000d 	movweq	r0, #13
    7da0:	00005ec6 	andeq	r5, r0, r6, asr #29
    7da4:	10080400 	andne	r0, r8, r0, lsl #8
    7da8:	06002302 	streq	r2, [r0], -r2, lsl #6
    7dac:	00000ceb 	andeq	r0, r0, fp, ror #25
    7db0:	005ec703 	subseq	ip, lr, r3, lsl #14
    7db4:	01040000 	mrseq	r0, (UNDEF: 4)
    7db8:	0023020f 	eoreq	r0, r3, pc, lsl #4
    7dbc:	000e4b06 	andeq	r4, lr, r6, lsl #22
    7dc0:	5ec80300 	cdppl	3, 12, cr0, cr8, cr0, {0}
    7dc4:	04000000 	streq	r0, [r0], #-0
    7dc8:	23020e01 	movwcs	r0, #11777	; 0x2e01
    7dcc:	0cf40600 	ldcleq	6, cr0, [r4]
    7dd0:	c9030000 	stmdbgt	r3, {}	; <UNPREDICTABLE>
    7dd4:	0000005e 	andeq	r0, r0, lr, asr r0
    7dd8:	020d0104 	andeq	r0, sp, #1
    7ddc:	50060023 	andpl	r0, r6, r3, lsr #32
    7de0:	0300000e 	movweq	r0, #14
    7de4:	00005eca 	andeq	r5, r0, sl, asr #29
    7de8:	08050400 	stmdaeq	r5, {sl}
    7dec:	06002302 	streq	r2, [r0], -r2, lsl #6
    7df0:	000003a8 	andeq	r0, r0, r8, lsr #7
    7df4:	005ecb03 	subseq	ip, lr, r3, lsl #22
    7df8:	01040000 	mrseq	r0, (UNDEF: 4)
    7dfc:	00230207 	eoreq	r0, r3, r7, lsl #4
    7e00:	000e5506 	andeq	r5, lr, r6, lsl #10
    7e04:	5ecc0300 	cdppl	3, 12, cr0, cr12, cr0, {0}
    7e08:	04000000 	streq	r0, [r0], #-0
    7e0c:	23020106 	movwcs	r0, #8454	; 0x2106
    7e10:	0d0f0600 	stceq	6, cr0, [pc, #-0]	; 7e18 <__resume1_start+0x7e18>
    7e14:	cd030000 	stcgt	0, cr0, [r3, #-0]
    7e18:	0000005e 	andeq	r0, r0, lr, asr r0
    7e1c:	02000104 	andeq	r0, r0, #1
    7e20:	07000023 	streq	r0, [r0, -r3, lsr #32]
    7e24:	92c00304 	sbcls	r0, r0, #268435456	; 0x10000000
    7e28:	08000003 	stmdaeq	r0, {r0, r1}
    7e2c:	000002c6 	andeq	r0, r0, r6, asr #5
    7e30:	005ec203 	subseq	ip, lr, r3, lsl #4
    7e34:	25080000 	strcs	r0, [r8, #-0]
    7e38:	03000009 	movweq	r0, #9
    7e3c:	0002d1ce 	andeq	sp, r2, lr, asr #3
    7e40:	40030000 	andmi	r0, r3, r0
    7e44:	0300000b 	movweq	r0, #11
    7e48:	000373cf 	andeq	r7, r3, pc, asr #7
    7e4c:	03040500 	movweq	r0, #17664	; 0x4500
    7e50:	00043fd4 	ldrdeq	r3, [r4], -r4
    7e54:	0e460600 	cdpeq	6, 4, cr0, cr6, cr0, {0}
    7e58:	d6030000 	strle	r0, [r3], -r0
    7e5c:	0000005e 	andeq	r0, r0, lr, asr r0
    7e60:	02180804 	andseq	r0, r8, #262144	; 0x40000
    7e64:	9e060023 	cdpls	0, 0, cr0, cr6, cr3, {1}
    7e68:	0300000d 	movweq	r0, #13
    7e6c:	00005ed7 	ldrdeq	r5, [r0], -r7
    7e70:	10080400 	andne	r0, r8, r0, lsl #8
    7e74:	06002302 	streq	r2, [r0], -r2, lsl #6
    7e78:	00000ceb 	andeq	r0, r0, fp, ror #25
    7e7c:	005ed803 	subseq	sp, lr, r3, lsl #16
    7e80:	01040000 	mrseq	r0, (UNDEF: 4)
    7e84:	0023020f 	eoreq	r0, r3, pc, lsl #4
    7e88:	000e4b06 	andeq	r4, lr, r6, lsl #22
    7e8c:	5ed90300 	cdppl	3, 13, cr0, cr9, cr0, {0}
    7e90:	04000000 	streq	r0, [r0], #-0
    7e94:	23020e01 	movwcs	r0, #11777	; 0x2e01
    7e98:	0cf40600 	ldcleq	6, cr0, [r4]
    7e9c:	da030000 	ble	c7ea4 <__bss_end+0xb4d58>
    7ea0:	0000005e 	andeq	r0, r0, lr, asr r0
    7ea4:	020d0104 	andeq	r0, sp, #1
    7ea8:	50060023 	andpl	r0, r6, r3, lsr #32
    7eac:	0300000e 	movweq	r0, #14
    7eb0:	00005edb 	ldrdeq	r5, [r0], -fp
    7eb4:	08050400 	stmdaeq	r5, {sl}
    7eb8:	06002302 	streq	r2, [r0], -r2, lsl #6
    7ebc:	000003a8 	andeq	r0, r0, r8, lsr #7
    7ec0:	005edc03 	subseq	sp, lr, r3, lsl #24
    7ec4:	01040000 	mrseq	r0, (UNDEF: 4)
    7ec8:	00230207 	eoreq	r0, r3, r7, lsl #4
    7ecc:	000e5506 	andeq	r5, lr, r6, lsl #10
    7ed0:	5edd0300 	cdppl	3, 13, cr0, cr13, cr0, {0}
    7ed4:	04000000 	streq	r0, [r0], #-0
    7ed8:	23020106 	movwcs	r0, #8454	; 0x2106
    7edc:	0d0f0600 	stceq	6, cr0, [pc, #-0]	; 7ee4 <__resume1_start+0x7ee4>
    7ee0:	de030000 	cdple	0, 0, cr0, cr3, cr0, {0}
    7ee4:	0000005e 	andeq	r0, r0, lr, asr r0
    7ee8:	02000104 	andeq	r0, r0, #1
    7eec:	07000023 	streq	r0, [r0, -r3, lsr #32]
    7ef0:	5ed10304 	cdppl	3, 13, cr0, cr1, cr4, {0}
    7ef4:	08000004 	stmdaeq	r0, {r2}
    7ef8:	000002c6 	andeq	r0, r0, r6, asr #5
    7efc:	005ed303 	subseq	sp, lr, r3, lsl #6
    7f00:	25080000 	strcs	r0, [r8, #-0]
    7f04:	03000009 	movweq	r0, #9
    7f08:	00039ddf 	ldrdeq	r9, [r3], -pc	; <UNPREDICTABLE>
    7f0c:	58030000 	stmdapl	r3, {}	; <UNPREDICTABLE>
    7f10:	03000006 	movweq	r0, #6
    7f14:	00043fe0 	andeq	r3, r4, r0, ror #31
    7f18:	03040500 	movweq	r0, #17664	; 0x4500
    7f1c:	00051ce5 	andeq	r1, r5, r5, ror #25
    7f20:	0e460600 	cdpeq	6, 4, cr0, cr6, cr0, {0}
    7f24:	e7030000 	str	r0, [r3, -r0]
    7f28:	0000005e 	andeq	r0, r0, lr, asr r0
    7f2c:	02180804 	andseq	r0, r8, #262144	; 0x40000
    7f30:	9e060023 	cdpls	0, 0, cr0, cr6, cr3, {1}
    7f34:	0300000d 	movweq	r0, #13
    7f38:	00005ee8 	andeq	r5, r0, r8, ror #29
    7f3c:	10080400 	andne	r0, r8, r0, lsl #8
    7f40:	06002302 	streq	r2, [r0], -r2, lsl #6
    7f44:	00000ceb 	andeq	r0, r0, fp, ror #25
    7f48:	005ee903 	subseq	lr, lr, r3, lsl #18
    7f4c:	01040000 	mrseq	r0, (UNDEF: 4)
    7f50:	0023020f 	eoreq	r0, r3, pc, lsl #4
    7f54:	000e4b06 	andeq	r4, lr, r6, lsl #22
    7f58:	5eea0300 	cdppl	3, 14, cr0, cr10, cr0, {0}
    7f5c:	04000000 	streq	r0, [r0], #-0
    7f60:	23020e01 	movwcs	r0, #11777	; 0x2e01
    7f64:	0cf40600 	ldcleq	6, cr0, [r4]
    7f68:	eb030000 	bl	c7f70 <__bss_end+0xb4e24>
    7f6c:	0000005e 	andeq	r0, r0, lr, asr r0
    7f70:	020d0104 	andeq	r0, sp, #1
    7f74:	50060023 	andpl	r0, r6, r3, lsr #32
    7f78:	0300000e 	movweq	r0, #14
    7f7c:	00005eec 	andeq	r5, r0, ip, ror #29
    7f80:	08050400 	stmdaeq	r5, {sl}
    7f84:	06002302 	streq	r2, [r0], -r2, lsl #6
    7f88:	000003a8 	andeq	r0, r0, r8, lsr #7
    7f8c:	005eed03 	subseq	lr, lr, r3, lsl #26
    7f90:	01040000 	mrseq	r0, (UNDEF: 4)
    7f94:	00230207 	eoreq	r0, r3, r7, lsl #4
    7f98:	000e5506 	andeq	r5, lr, r6, lsl #10
    7f9c:	5eee0300 	cdppl	3, 14, cr0, cr14, cr0, {0}
    7fa0:	04000000 	streq	r0, [r0], #-0
    7fa4:	23020205 	movwcs	r0, #8709	; 0x2205
    7fa8:	08310600 	ldmdaeq	r1!, {r9, sl}
    7fac:	ef030000 	svc	0x00030000
    7fb0:	0000005e 	andeq	r0, r0, lr, asr r0
    7fb4:	02010104 	andeq	r0, r1, #1
    7fb8:	0f060023 	svceq	0x00060023
    7fbc:	0300000d 	movweq	r0, #13
    7fc0:	00005ef0 	strdeq	r5, [r0], -r0
    7fc4:	00010400 	andeq	r0, r1, r0, lsl #8
    7fc8:	00002302 	andeq	r2, r0, r2, lsl #6
    7fcc:	e2030407 	and	r0, r3, #117440512	; 0x7000000
    7fd0:	0000053b 	andeq	r0, r0, fp, lsr r5
    7fd4:	0002c608 	andeq	ip, r2, r8, lsl #12
    7fd8:	5ee40300 	cdppl	3, 14, cr0, cr4, cr0, {0}
    7fdc:	08000000 	stmdaeq	r0, {}	; <UNPREDICTABLE>
    7fe0:	00000925 	andeq	r0, r0, r5, lsr #18
    7fe4:	0469f103 	strbteq	pc, [r9], #-259	; 0x103	; <UNPREDICTABLE>
    7fe8:	03000000 	movweq	r0, #0
    7fec:	00000f60 	andeq	r0, r0, r0, ror #30
    7ff0:	051cf203 	ldreq	pc, [ip, #-515]	; 0x203
    7ff4:	04050000 	streq	r0, [r5], #-0
    7ff8:	05eaf703 	strbeq	pc, [sl, #1795]!	; 0x703	; <UNPREDICTABLE>
    7ffc:	46060000 	strmi	r0, [r6], -r0
    8000:	0300000e 	movweq	r0, #14
    8004:	00005ef9 	strdeq	r5, [r0], -r9
    8008:	18080400 	stmdane	r8, {sl}
    800c:	06002302 	streq	r2, [r0], -r2, lsl #6
    8010:	00000d9e 	muleq	r0, lr, sp
    8014:	005efa03 	subseq	pc, lr, r3, lsl #20
    8018:	08040000 	stmdaeq	r4, {}	; <UNPREDICTABLE>
    801c:	00230210 	eoreq	r0, r3, r0, lsl r2
    8020:	0003f006 	andeq	pc, r3, r6
    8024:	5efb0300 	cdppl	3, 15, cr0, cr11, cr0, {0}
    8028:	04000000 	streq	r0, [r0], #-0
    802c:	23020f01 	movwcs	r0, #12033	; 0x2f01
    8030:	0e4b0600 	cdpeq	6, 4, cr0, cr11, cr0, {0}
    8034:	fc030000 	stc2	0, cr0, [r3], {-0}
    8038:	0000005e 	andeq	r0, r0, lr, asr r0
    803c:	020e0104 	andeq	r0, lr, #1
    8040:	f4060023 	vst4.8	{d0-d3}, [r6 :128], r3
    8044:	0300000c 	movweq	r0, #12
    8048:	00005efd 	strdeq	r5, [r0], -sp
    804c:	0d010400 	cfstrseq	mvf0, [r1, #-0]
    8050:	06002302 	streq	r2, [r0], -r2, lsl #6
    8054:	00000e50 	andeq	r0, r0, r0, asr lr
    8058:	005efe03 	subseq	pc, lr, r3, lsl #28
    805c:	05040000 	streq	r0, [r4, #-0]
    8060:	00230208 	eoreq	r0, r3, r8, lsl #4
    8064:	0003a806 	andeq	sl, r3, r6, lsl #16
    8068:	5eff0300 	cdppl	3, 15, cr0, cr15, cr0, {0}
    806c:	04000000 	streq	r0, [r0], #-0
    8070:	23020701 	movwcs	r0, #9985	; 0x2701
    8074:	0e550900 	cdpeq	9, 5, cr0, cr5, cr0, {0}
    8078:	00030000 	andeq	r0, r3, r0
    807c:	00005e01 	andeq	r5, r0, r1, lsl #28
    8080:	01060400 	tsteq	r6, r0, lsl #8
    8084:	09002302 	stmdbeq	r0, {r1, r8, r9, sp}
    8088:	00000d0f 	andeq	r0, r0, pc, lsl #26
    808c:	5e010103 	adfpls	f0, f1, f3
    8090:	04000000 	streq	r0, [r0], #-0
    8094:	23020001 	movwcs	r0, #8193	; 0x2001
    8098:	04070000 	streq	r0, [r7], #-0
    809c:	060af403 	streq	pc, [sl], -r3, lsl #8
    80a0:	c6080000 	strgt	r0, [r8], -r0
    80a4:	03000002 	movweq	r0, #2
    80a8:	00005ef6 	strdeq	r5, [r0], -r6
    80ac:	09250a00 	stmdbeq	r5!, {r9, fp}
    80b0:	02030000 	andeq	r0, r3, #0
    80b4:	00054601 	andeq	r4, r5, r1, lsl #12
    80b8:	c20b0000 	andgt	r0, fp, #0
    80bc:	0300000b 	movweq	r0, #11
    80c0:	05ea0103 	strbeq	r0, [sl, #259]!	; 0x103
    80c4:	040c0000 	streq	r0, [ip], #-0
    80c8:	d4010803 	strle	r0, [r1], #-2051	; 0x803
    80cc:	09000006 	stmdbeq	r0, {r1, r2}
    80d0:	00000c82 	andeq	r0, r0, r2, lsl #25
    80d4:	5e010a03 	vmlapl.f32	s0, s2, s6
    80d8:	04000000 	streq	r0, [r0], #-0
    80dc:	23021e02 	movwcs	r1, #11778	; 0x2e02
    80e0:	0e460900 	cdpeq	9, 4, cr0, cr6, cr0, {0}
    80e4:	0b030000 	bleq	c80ec <__bss_end+0xb4fa0>
    80e8:	00005e01 	andeq	r5, r0, r1, lsl #28
    80ec:	18060400 	stmdane	r6, {sl}
    80f0:	09002302 	stmdbeq	r0, {r1, r8, r9, sp}
    80f4:	00000d9e 	muleq	r0, lr, sp
    80f8:	5e010c03 	cdppl	12, 0, cr0, cr1, cr3, {0}
    80fc:	04000000 	streq	r0, [r0], #-0
    8100:	23021008 	movwcs	r1, #8200	; 0x2008
    8104:	03f00900 	mvnseq	r0, #0
    8108:	0d030000 	stceq	0, cr0, [r3, #-0]
    810c:	00005e01 	andeq	r5, r0, r1, lsl #28
    8110:	0f010400 	svceq	0x00010400
    8114:	09002302 	stmdbeq	r0, {r1, r8, r9, sp}
    8118:	00000e4b 	andeq	r0, r0, fp, asr #28
    811c:	5e010e03 	cdppl	14, 0, cr0, cr1, cr3, {0}
    8120:	04000000 	streq	r0, [r0], #-0
    8124:	23020e01 	movwcs	r0, #11777	; 0x2e01
    8128:	0cf40900 	ldcleq	9, cr0, [r4]
    812c:	0f030000 	svceq	0x00030000
    8130:	00005e01 	andeq	r5, r0, r1, lsl #28
    8134:	0d010400 	cfstrseq	mvf0, [r1, #-0]
    8138:	09002302 	stmdbeq	r0, {r1, r8, r9, sp}
    813c:	00000e50 	andeq	r0, r0, r0, asr lr
    8140:	5e011003 	cdppl	0, 0, cr1, cr1, cr3, {0}
    8144:	04000000 	streq	r0, [r0], #-0
    8148:	23020805 	movwcs	r0, #10245	; 0x2805
    814c:	03a80900 			; <UNDEFINED> instruction: 0x03a80900
    8150:	11030000 	mrsne	r0, (UNDEF: 3)
    8154:	00005e01 	andeq	r5, r0, r1, lsl #28
    8158:	07010400 	streq	r0, [r1, -r0, lsl #8]
    815c:	09002302 	stmdbeq	r0, {r1, r8, r9, sp}
    8160:	00000e55 	andeq	r0, r0, r5, asr lr
    8164:	5e011203 	cdppl	2, 0, cr1, cr1, cr3, {0}
    8168:	04000000 	streq	r0, [r0], #-0
    816c:	23020106 	movwcs	r0, #8454	; 0x2106
    8170:	0d0f0900 	stceq	9, cr0, [pc, #-0]	; 8178 <__resume1_start+0x8178>
    8174:	13030000 	movwne	r0, #12288	; 0x3000
    8178:	00005e01 	andeq	r5, r0, r1, lsl #28
    817c:	00010400 	andeq	r0, r1, r0, lsl #8
    8180:	00002302 	andeq	r2, r0, r2, lsl #6
    8184:	0503040d 	streq	r0, [r3, #-1037]	; 0x40d
    8188:	0006f601 	andeq	pc, r6, r1, lsl #12
    818c:	02c60a00 	sbceq	r0, r6, #0
    8190:	07030000 	streq	r0, [r3, -r0]
    8194:	00005e01 	andeq	r5, r0, r1, lsl #28
    8198:	09250a00 	stmdbeq	r5!, {r9, fp}
    819c:	14030000 	strne	r0, [r3], #-0
    81a0:	00061601 	andeq	r1, r6, r1, lsl #12
    81a4:	930b0000 	movwls	r0, #45056	; 0xb000
    81a8:	03000008 	movweq	r0, #8
    81ac:	06d40115 			; <UNDEFINED> instruction: 0x06d40115
    81b0:	040c0000 	streq	r0, [ip], #-0
    81b4:	ae011a03 	vmlage.f32	s2, s2, s6
    81b8:	09000007 	stmdbeq	r0, {r0, r1, r2}
    81bc:	00000e46 	andeq	r0, r0, r6, asr #28
    81c0:	5e011c03 	cdppl	12, 0, cr1, cr1, cr3, {0}
    81c4:	04000000 	streq	r0, [r0], #-0
    81c8:	23021808 	movwcs	r1, #10248	; 0x2808
    81cc:	0d9e0900 	ldceq	9, cr0, [lr]
    81d0:	1d030000 	stcne	0, cr0, [r3, #-0]
    81d4:	00005e01 	andeq	r5, r0, r1, lsl #28
    81d8:	10080400 	andne	r0, r8, r0, lsl #8
    81dc:	09002302 	stmdbeq	r0, {r1, r8, r9, sp}
    81e0:	00000ceb 	andeq	r0, r0, fp, ror #25
    81e4:	5e011e03 	cdppl	14, 0, cr1, cr1, cr3, {0}
    81e8:	04000000 	streq	r0, [r0], #-0
    81ec:	23020f01 	movwcs	r0, #12033	; 0x2f01
    81f0:	0e4b0900 	cdpeq	9, 4, cr0, cr11, cr0, {0}
    81f4:	1f030000 	svcne	0x00030000
    81f8:	00005e01 	andeq	r5, r0, r1, lsl #28
    81fc:	0e010400 	cfcpyseq	mvf0, mvf1
    8200:	09002302 	stmdbeq	r0, {r1, r8, r9, sp}
    8204:	00000cf4 	strdeq	r0, [r0], -r4
    8208:	5e012003 	cdppl	0, 0, cr2, cr1, cr3, {0}
    820c:	04000000 	streq	r0, [r0], #-0
    8210:	23020d01 	movwcs	r0, #11521	; 0x2d01
    8214:	0e500900 	cdpeq	9, 5, cr0, cr0, cr0, {0}
    8218:	21030000 	mrscs	r0, (UNDEF: 3)
    821c:	00005e01 	andeq	r5, r0, r1, lsl #28
    8220:	08050400 	stmdaeq	r5, {sl}
    8224:	09002302 	stmdbeq	r0, {r1, r8, r9, sp}
    8228:	000003a8 	andeq	r0, r0, r8, lsr #7
    822c:	5e012203 	cdppl	2, 0, cr2, cr1, cr3, {0}
    8230:	04000000 	streq	r0, [r0], #-0
    8234:	23020701 	movwcs	r0, #9985	; 0x2701
    8238:	0e550900 	cdpeq	9, 5, cr0, cr5, cr0, {0}
    823c:	23030000 	movwcs	r0, #12288	; 0x3000
    8240:	00005e01 	andeq	r5, r0, r1, lsl #28
    8244:	01060400 	tsteq	r6, r0, lsl #8
    8248:	09002302 	stmdbeq	r0, {r1, r8, r9, sp}
    824c:	00000d0f 	andeq	r0, r0, pc, lsl #26
    8250:	5e012403 	cdppl	4, 0, cr2, cr1, cr3, {0}
    8254:	04000000 	streq	r0, [r0], #-0
    8258:	23020001 	movwcs	r0, #8193	; 0x2001
    825c:	040d0000 	streq	r0, [sp], #-0
    8260:	d0011703 	andle	r1, r1, r3, lsl #14
    8264:	0a000007 	beq	8288 <__resume1_start+0x8288>
    8268:	000002c6 	andeq	r0, r0, r6, asr #5
    826c:	5e011903 	cdppl	9, 0, cr1, cr1, cr3, {0}
    8270:	0a000000 	beq	8278 <__resume1_start+0x8278>
    8274:	00000925 	andeq	r0, r0, r5, lsr #18
    8278:	02012503 	andeq	r2, r1, #12582912	; 0xc00000
    827c:	00000007 	andeq	r0, r0, r7
    8280:	00027c0b 	andeq	r7, r2, fp, lsl #24
    8284:	01260300 	teqeq	r6, r0, lsl #6
    8288:	000007ae 	andeq	r0, r0, lr, lsr #15
    828c:	2b03040c 	blcs	c92c4 <__bss_end+0xb6178>
    8290:	00088801 	andeq	r8, r8, r1, lsl #16
    8294:	0e460900 	cdpeq	9, 4, cr0, cr6, cr0, {0}
    8298:	2d030000 	stccs	0, cr0, [r3, #-0]
    829c:	00005e01 	andeq	r5, r0, r1, lsl #28
    82a0:	18080400 	stmdane	r8, {sl}
    82a4:	09002302 	stmdbeq	r0, {r1, r8, r9, sp}
    82a8:	00000d9e 	muleq	r0, lr, sp
    82ac:	5e012e03 	cdppl	14, 0, cr2, cr1, cr3, {0}
    82b0:	04000000 	streq	r0, [r0], #-0
    82b4:	23021008 	movwcs	r1, #8200	; 0x2008
    82b8:	0ceb0900 	stcleq	9, cr0, [fp]
    82bc:	2f030000 	svccs	0x00030000
    82c0:	00005e01 	andeq	r5, r0, r1, lsl #28
    82c4:	0f010400 	svceq	0x00010400
    82c8:	09002302 	stmdbeq	r0, {r1, r8, r9, sp}
    82cc:	00000e4b 	andeq	r0, r0, fp, asr #28
    82d0:	5e013003 	cdppl	0, 0, cr3, cr1, cr3, {0}
    82d4:	04000000 	streq	r0, [r0], #-0
    82d8:	23020e01 	movwcs	r0, #11777	; 0x2e01
    82dc:	0cf40900 	ldcleq	9, cr0, [r4]
    82e0:	31030000 	mrscc	r0, (UNDEF: 3)
    82e4:	00005e01 	andeq	r5, r0, r1, lsl #28
    82e8:	0d010400 	cfstrseq	mvf0, [r1, #-0]
    82ec:	09002302 	stmdbeq	r0, {r1, r8, r9, sp}
    82f0:	00000e50 	andeq	r0, r0, r0, asr lr
    82f4:	5e013203 	cdppl	2, 0, cr3, cr1, cr3, {0}
    82f8:	04000000 	streq	r0, [r0], #-0
    82fc:	23020805 	movwcs	r0, #10245	; 0x2805
    8300:	03a80900 			; <UNDEFINED> instruction: 0x03a80900
    8304:	33030000 	movwcc	r0, #12288	; 0x3000
    8308:	00005e01 	andeq	r5, r0, r1, lsl #28
    830c:	07010400 	streq	r0, [r1, -r0, lsl #8]
    8310:	09002302 	stmdbeq	r0, {r1, r8, r9, sp}
    8314:	00000e55 	andeq	r0, r0, r5, asr lr
    8318:	5e013403 	cdppl	4, 0, cr3, cr1, cr3, {0}
    831c:	04000000 	streq	r0, [r0], #-0
    8320:	23020106 	movwcs	r0, #8454	; 0x2106
    8324:	0d0f0900 	stceq	9, cr0, [pc, #-0]	; 832c <__resume1_start+0x832c>
    8328:	35030000 	strcc	r0, [r3, #-0]
    832c:	00005e01 	andeq	r5, r0, r1, lsl #28
    8330:	00010400 	andeq	r0, r1, r0, lsl #8
    8334:	00002302 	andeq	r2, r0, r2, lsl #6
    8338:	2803040d 	stmdacs	r3, {r0, r2, r3, sl}
    833c:	0008aa01 	andeq	sl, r8, r1, lsl #20
    8340:	02c60a00 	sbceq	r0, r6, #0
    8344:	2a030000 	bcs	c834c <__bss_end+0xb5200>
    8348:	00005e01 	andeq	r5, r0, r1, lsl #28
    834c:	09250a00 	stmdbeq	r5!, {r9, fp}
    8350:	36030000 	strcc	r0, [r3], -r0
    8354:	0007dc01 	andeq	sp, r7, r1, lsl #24
    8358:	df0b0000 	svcle	0x000b0000
    835c:	0300000e 	movweq	r0, #14
    8360:	08880137 	stmeq	r8, {r0, r1, r2, r4, r5, r8}
    8364:	040c0000 	streq	r0, [ip], #-0
    8368:	62013c03 	andvs	r3, r1, #768	; 0x300
    836c:	09000009 	stmdbeq	r0, {r0, r3}
    8370:	00000e46 	andeq	r0, r0, r6, asr #28
    8374:	5e013e03 	cdppl	14, 0, cr3, cr1, cr3, {0}
    8378:	04000000 	streq	r0, [r0], #-0
    837c:	23021808 	movwcs	r1, #10248	; 0x2808
    8380:	0d9e0900 	ldceq	9, cr0, [lr]
    8384:	3f030000 	svccc	0x00030000
    8388:	00005e01 	andeq	r5, r0, r1, lsl #28
    838c:	10080400 	andne	r0, r8, r0, lsl #8
    8390:	09002302 	stmdbeq	r0, {r1, r8, r9, sp}
    8394:	00000ceb 	andeq	r0, r0, fp, ror #25
    8398:	5e014003 	cdppl	0, 0, cr4, cr1, cr3, {0}
    839c:	04000000 	streq	r0, [r0], #-0
    83a0:	23020f01 	movwcs	r0, #12033	; 0x2f01
    83a4:	0e4b0900 	cdpeq	9, 4, cr0, cr11, cr0, {0}
    83a8:	41030000 	mrsmi	r0, (UNDEF: 3)
    83ac:	00005e01 	andeq	r5, r0, r1, lsl #28
    83b0:	0e010400 	cfcpyseq	mvf0, mvf1
    83b4:	09002302 	stmdbeq	r0, {r1, r8, r9, sp}
    83b8:	00000cf4 	strdeq	r0, [r0], -r4
    83bc:	5e014203 	cdppl	2, 0, cr4, cr1, cr3, {0}
    83c0:	04000000 	streq	r0, [r0], #-0
    83c4:	23020d01 	movwcs	r0, #11521	; 0x2d01
    83c8:	0e500900 	cdpeq	9, 5, cr0, cr0, cr0, {0}
    83cc:	43030000 	movwmi	r0, #12288	; 0x3000
    83d0:	00005e01 	andeq	r5, r0, r1, lsl #28
    83d4:	08050400 	stmdaeq	r5, {sl}
    83d8:	09002302 	stmdbeq	r0, {r1, r8, r9, sp}
    83dc:	000003a8 	andeq	r0, r0, r8, lsr #7
    83e0:	5e014403 	cdppl	4, 0, cr4, cr1, cr3, {0}
    83e4:	04000000 	streq	r0, [r0], #-0
    83e8:	23020701 	movwcs	r0, #9985	; 0x2701
    83ec:	0e550900 	cdpeq	9, 5, cr0, cr5, cr0, {0}
    83f0:	45030000 	strmi	r0, [r3, #-0]
    83f4:	00005e01 	andeq	r5, r0, r1, lsl #28
    83f8:	01060400 	tsteq	r6, r0, lsl #8
    83fc:	09002302 	stmdbeq	r0, {r1, r8, r9, sp}
    8400:	00000d0f 	andeq	r0, r0, pc, lsl #26
    8404:	5e014603 	cfmadd32pl	mvax0, mvfx4, mvfx1, mvfx3
    8408:	04000000 	streq	r0, [r0], #-0
    840c:	23020001 	movwcs	r0, #8193	; 0x2001
    8410:	040d0000 	streq	r0, [sp], #-0
    8414:	84013903 	strhi	r3, [r1], #-2307	; 0x903
    8418:	0a000009 	beq	8444 <__resume1_start+0x8444>
    841c:	000002c6 	andeq	r0, r0, r6, asr #5
    8420:	5e013b03 	vmlapl.f64	d3, d1, d3
    8424:	0a000000 	beq	842c <__resume1_start+0x842c>
    8428:	00000925 	andeq	r0, r0, r5, lsr #18
    842c:	b6014703 	strlt	r4, [r1], -r3, lsl #14
    8430:	00000008 	andeq	r0, r0, r8
    8434:	000f250b 	andeq	r2, pc, fp, lsl #10
    8438:	01480300 	mrseq	r0, (UNDEF: 120)
    843c:	00000962 	andeq	r0, r0, r2, ror #18
    8440:	4d03040c 	cfstrsmi	mvf0, [r3, #-48]	; 0xffffffd0
    8444:	000a3c01 	andeq	r3, sl, r1, lsl #24
    8448:	0e460900 	cdpeq	9, 4, cr0, cr6, cr0, {0}
    844c:	4f030000 	svcmi	0x00030000
    8450:	00005e01 	andeq	r5, r0, r1, lsl #28
    8454:	18080400 	stmdane	r8, {sl}
    8458:	09002302 	stmdbeq	r0, {r1, r8, r9, sp}
    845c:	00000d9e 	muleq	r0, lr, sp
    8460:	5e015003 	cdppl	0, 0, cr5, cr1, cr3, {0}
    8464:	04000000 	streq	r0, [r0], #-0
    8468:	23021008 	movwcs	r1, #8200	; 0x2008
    846c:	0ceb0900 	stcleq	9, cr0, [fp]
    8470:	51030000 	mrspl	r0, (UNDEF: 3)
    8474:	00005e01 	andeq	r5, r0, r1, lsl #28
    8478:	0f010400 	svceq	0x00010400
    847c:	09002302 	stmdbeq	r0, {r1, r8, r9, sp}
    8480:	00000e4b 	andeq	r0, r0, fp, asr #28
    8484:	5e015203 	cdppl	2, 0, cr5, cr1, cr3, {0}
    8488:	04000000 	streq	r0, [r0], #-0
    848c:	23020e01 	movwcs	r0, #11777	; 0x2e01
    8490:	0cf40900 	ldcleq	9, cr0, [r4]
    8494:	53030000 	movwpl	r0, #12288	; 0x3000
    8498:	00005e01 	andeq	r5, r0, r1, lsl #28
    849c:	0d010400 	cfstrseq	mvf0, [r1, #-0]
    84a0:	09002302 	stmdbeq	r0, {r1, r8, r9, sp}
    84a4:	00000e50 	andeq	r0, r0, r0, asr lr
    84a8:	5e015403 	cdppl	4, 0, cr5, cr1, cr3, {0}
    84ac:	04000000 	streq	r0, [r0], #-0
    84b0:	23020805 	movwcs	r0, #10245	; 0x2805
    84b4:	03a80900 			; <UNDEFINED> instruction: 0x03a80900
    84b8:	55030000 	strpl	r0, [r3, #-0]
    84bc:	00005e01 	andeq	r5, r0, r1, lsl #28
    84c0:	07010400 	streq	r0, [r1, -r0, lsl #8]
    84c4:	09002302 	stmdbeq	r0, {r1, r8, r9, sp}
    84c8:	00000e55 	andeq	r0, r0, r5, asr lr
    84cc:	5e015603 	cfmadd32pl	mvax0, mvfx5, mvfx1, mvfx3
    84d0:	04000000 	streq	r0, [r0], #-0
    84d4:	23020106 	movwcs	r0, #8454	; 0x2106
    84d8:	0d0f0900 	stceq	9, cr0, [pc, #-0]	; 84e0 <__resume1_start+0x84e0>
    84dc:	57030000 	strpl	r0, [r3, -r0]
    84e0:	00005e01 	andeq	r5, r0, r1, lsl #28
    84e4:	00010400 	andeq	r0, r1, r0, lsl #8
    84e8:	00002302 	andeq	r2, r0, r2, lsl #6
    84ec:	4a03040d 	bmi	c9528 <__bss_end+0xb63dc>
    84f0:	000a5e01 	andeq	r5, sl, r1, lsl #28
    84f4:	02c60a00 	sbceq	r0, r6, #0
    84f8:	4c030000 	stcmi	0, cr0, [r3], {-0}
    84fc:	00005e01 	andeq	r5, r0, r1, lsl #28
    8500:	09250a00 	stmdbeq	r5!, {r9, fp}
    8504:	58030000 	stmdapl	r3, {}	; <UNPREDICTABLE>
    8508:	00099001 	andeq	r9, r9, r1
    850c:	dd0b0000 	stcle	0, cr0, [fp, #-0]
    8510:	03000007 	movweq	r0, #7
    8514:	0a3c0159 	beq	f08a80 <__bss_end+0xef5934>
    8518:	040c0000 	streq	r0, [ip], #-0
    851c:	bc015e03 	stclt	14, cr5, [r1], {3}
    8520:	0900000a 	stmdbeq	r0, {r1, r3}
    8524:	00000b2d 	andeq	r0, r0, sp, lsr #22
    8528:	5e016003 	cdppl	0, 0, cr6, cr1, cr3, {0}
    852c:	04000000 	streq	r0, [r0], #-0
    8530:	23021f01 	movwcs	r1, #12033	; 0x2f01
    8534:	0e460900 	cdpeq	9, 4, cr0, cr6, cr0, {0}
    8538:	61030000 	mrsvs	r0, (UNDEF: 3)
    853c:	00005e01 	andeq	r5, r0, r1, lsl #28
    8540:	18070400 	stmdane	r7, {sl}
    8544:	09002302 	stmdbeq	r0, {r1, r8, r9, sp}
    8548:	0000047a 	andeq	r0, r0, sl, ror r4
    854c:	5e016203 	cdppl	2, 0, cr6, cr1, cr3, {0}
    8550:	04000000 	streq	r0, [r0], #-0
    8554:	23021701 	movwcs	r1, #9985	; 0x2701
    8558:	0e4b0900 	cdpeq	9, 4, cr0, cr11, cr0, {0}
    855c:	63030000 	movwvs	r0, #12288	; 0x3000
    8560:	00005e01 	andeq	r5, r0, r1, lsl #28
    8564:	00170400 	andseq	r0, r7, r0, lsl #8
    8568:	00002302 	andeq	r2, r0, r2, lsl #6
    856c:	5b03040d 	blpl	c95a8 <__bss_end+0xb645c>
    8570:	000ade01 	andeq	sp, sl, r1, lsl #28
    8574:	02c60a00 	sbceq	r0, r6, #0
    8578:	5d030000 	stcpl	0, cr0, [r3, #-0]
    857c:	00005e01 	andeq	r5, r0, r1, lsl #28
    8580:	09250a00 	stmdbeq	r5!, {r9, fp}
    8584:	64030000 	strvs	r0, [r3], #-0
    8588:	000a6a01 	andeq	r6, sl, r1, lsl #20
    858c:	1f0b0000 	svcne	0x000b0000
    8590:	03000006 	movweq	r0, #6
    8594:	0abc0165 	beq	fef08b30 <__bss_end+0xfeef59e4>
    8598:	040c0000 	streq	r0, [ip], #-0
    859c:	3c016a03 	stccc	10, cr6, [r1], {3}
    85a0:	0900000b 	stmdbeq	r0, {r0, r1, r3}
    85a4:	000008ae 	andeq	r0, r0, lr, lsr #17
    85a8:	5e016c03 	cdppl	12, 0, cr6, cr1, cr3, {0}
    85ac:	04000000 	streq	r0, [r0], #-0
    85b0:	23021d03 	movwcs	r1, #11523	; 0x2d03
    85b4:	0e460900 	cdpeq	9, 4, cr0, cr6, cr0, {0}
    85b8:	6d030000 	stcvs	0, cr0, [r3, #-0]
    85bc:	00005e01 	andeq	r5, r0, r1, lsl #28
    85c0:	18050400 	stmdane	r5, {sl}
    85c4:	09002302 	stmdbeq	r0, {r1, r8, r9, sp}
    85c8:	0000035d 	andeq	r0, r0, sp, asr r3
    85cc:	5e016e03 	cdppl	14, 0, cr6, cr1, cr3, {0}
    85d0:	04000000 	streq	r0, [r0], #-0
    85d4:	23021602 	movwcs	r1, #9730	; 0x2602
    85d8:	0e4b0900 	cdpeq	9, 4, cr0, cr11, cr0, {0}
    85dc:	6f030000 	svcvs	0x00030000
    85e0:	00005e01 	andeq	r5, r0, r1, lsl #28
    85e4:	10060400 	andne	r0, r6, r0, lsl #8
    85e8:	00002302 	andeq	r2, r0, r2, lsl #6
    85ec:	6703040d 	strvs	r0, [r3, -sp, lsl #8]
    85f0:	000b5e01 	andeq	r5, fp, r1, lsl #28
    85f4:	02c60a00 	sbceq	r0, r6, #0
    85f8:	69030000 	stmdbvs	r3, {}	; <UNPREDICTABLE>
    85fc:	00005e01 	andeq	r5, r0, r1, lsl #28
    8600:	09250a00 	stmdbeq	r5!, {r9, fp}
    8604:	70030000 	andvc	r0, r3, r0
    8608:	000aea01 	andeq	lr, sl, r1, lsl #20
    860c:	b30b0000 	movwlt	r0, #45056	; 0xb000
    8610:	03000009 	movweq	r0, #9
    8614:	0b3c0171 	bleq	f08be0 <__bss_end+0xef5a94>
    8618:	040c0000 	streq	r0, [ip], #-0
    861c:	bc017603 	stclt	6, cr7, [r1], {3}
    8620:	0900000b 	stmdbeq	r0, {r0, r1, r3}
    8624:	000006bf 			; <UNDEFINED> instruction: 0x000006bf
    8628:	5e017803 	cdppl	8, 0, cr7, cr1, cr3, {0}
    862c:	04000000 	streq	r0, [r0], #-0
    8630:	23021d03 	movwcs	r1, #11523	; 0x2d03
    8634:	0e460900 	cdpeq	9, 4, cr0, cr6, cr0, {0}
    8638:	79030000 	stmdbvc	r3, {}	; <UNPREDICTABLE>
    863c:	00005e01 	andeq	r5, r0, r1, lsl #28
    8640:	18050400 	stmdane	r5, {sl}
    8644:	09002302 	stmdbeq	r0, {r1, r8, r9, sp}
    8648:	000006ae 	andeq	r0, r0, lr, lsr #13
    864c:	5e017a03 	vmlapl.f32	s14, s2, s6
    8650:	04000000 	streq	r0, [r0], #-0
    8654:	23021602 	movwcs	r1, #9730	; 0x2602
    8658:	0e4b0900 	cdpeq	9, 4, cr0, cr11, cr0, {0}
    865c:	7b030000 	blvc	c8664 <__bss_end+0xb5518>
    8660:	00005e01 	andeq	r5, r0, r1, lsl #28
    8664:	10060400 	andne	r0, r6, r0, lsl #8
    8668:	00002302 	andeq	r2, r0, r2, lsl #6
    866c:	7303040d 	movwvc	r0, #13325	; 0x340d
    8670:	000bde01 	andeq	sp, fp, r1, lsl #28
    8674:	02c60a00 	sbceq	r0, r6, #0
    8678:	75030000 	strvc	r0, [r3, #-0]
    867c:	00005e01 	andeq	r5, r0, r1, lsl #28
    8680:	09250a00 	stmdbeq	r5!, {r9, fp}
    8684:	7c030000 	stcvc	0, cr0, [r3], {-0}
    8688:	000b6a01 	andeq	r6, fp, r1, lsl #20
    868c:	210b0000 	mrscs	r0, (UNDEF: 11)
    8690:	0300000d 	movweq	r0, #13
    8694:	0bbc017d 	bleq	fef08c90 <__bss_end+0xfeef5b44>
    8698:	040c0000 	streq	r0, [ip], #-0
    869c:	3c018203 	sfmcc	f0, 1, [r1], {3}
    86a0:	0900000c 	stmdbeq	r0, {r2, r3}
    86a4:	000006e2 	andeq	r0, r0, r2, ror #13
    86a8:	5e018403 	cdppl	4, 0, cr8, cr1, cr3, {0}
    86ac:	04000000 	streq	r0, [r0], #-0
    86b0:	23021e02 	movwcs	r1, #11778	; 0x2e02
    86b4:	0e460900 	cdpeq	9, 4, cr0, cr6, cr0, {0}
    86b8:	85030000 	strhi	r0, [r3, #-0]
    86bc:	00005e01 	andeq	r5, r0, r1, lsl #28
    86c0:	08160400 	ldmdaeq	r6, {sl}
    86c4:	09002302 	stmdbeq	r0, {r1, r8, r9, sp}
    86c8:	000007bb 			; <UNDEFINED> instruction: 0x000007bb
    86cc:	5e018603 	cfmadd32pl	mvax0, mvfx8, mvfx1, mvfx3
    86d0:	04000000 	streq	r0, [r0], #-0
    86d4:	23020602 	movwcs	r0, #9730	; 0x2602
    86d8:	0e4b0900 	cdpeq	9, 4, cr0, cr11, cr0, {0}
    86dc:	87030000 	strhi	r0, [r3, -r0]
    86e0:	00005e01 	andeq	r5, r0, r1, lsl #28
    86e4:	00060400 	andeq	r0, r6, r0, lsl #8
    86e8:	00002302 	andeq	r2, r0, r2, lsl #6
    86ec:	7f03040d 	svcvc	0x0003040d
    86f0:	000c5e01 	andeq	r5, ip, r1, lsl #28
    86f4:	02c60a00 	sbceq	r0, r6, #0
    86f8:	81030000 	mrshi	r0, (UNDEF: 3)
    86fc:	00005e01 	andeq	r5, r0, r1, lsl #28
    8700:	09250a00 	stmdbeq	r5!, {r9, fp}
    8704:	88030000 	stmdahi	r3, {}	; <UNPREDICTABLE>
    8708:	000bea01 	andeq	lr, fp, r1, lsl #20
    870c:	280b0000 	stmdacs	fp, {}	; <UNPREDICTABLE>
    8710:	03000003 	movweq	r0, #3
    8714:	0c3c0189 	ldfeqs	f0, [ip], #-548	; 0xfffffddc
    8718:	040c0000 	streq	r0, [ip], #-0
    871c:	bc018e03 	stclt	14, cr8, [r1], {3}
    8720:	0900000c 	stmdbeq	r0, {r2, r3}
    8724:	00000c23 	andeq	r0, r0, r3, lsr #24
    8728:	5e019003 	cdppl	0, 0, cr9, cr1, cr3, {0}
    872c:	04000000 	streq	r0, [r0], #-0
    8730:	23021e02 	movwcs	r1, #11778	; 0x2e02
    8734:	0e460900 	cdpeq	9, 4, cr0, cr6, cr0, {0}
    8738:	91030000 	mrsls	r0, (UNDEF: 3)
    873c:	00005e01 	andeq	r5, r0, r1, lsl #28
    8740:	08160400 	ldmdaeq	r6, {sl}
    8744:	09002302 	stmdbeq	r0, {r1, r8, r9, sp}
    8748:	00000e26 	andeq	r0, r0, r6, lsr #28
    874c:	5e019203 	cdppl	2, 0, cr9, cr1, cr3, {0}
    8750:	04000000 	streq	r0, [r0], #-0
    8754:	23020602 	movwcs	r0, #9730	; 0x2602
    8758:	0e4b0900 	cdpeq	9, 4, cr0, cr11, cr0, {0}
    875c:	93030000 	movwls	r0, #12288	; 0x3000
    8760:	00005e01 	andeq	r5, r0, r1, lsl #28
    8764:	00060400 	andeq	r0, r6, r0, lsl #8
    8768:	00002302 	andeq	r2, r0, r2, lsl #6
    876c:	8b03040d 	blhi	c97a8 <__bss_end+0xb665c>
    8770:	000cde01 	andeq	sp, ip, r1, lsl #28
    8774:	02c60a00 	sbceq	r0, r6, #0
    8778:	8d030000 	stchi	0, cr0, [r3, #-0]
    877c:	00005e01 	andeq	r5, r0, r1, lsl #28
    8780:	09250a00 	stmdbeq	r5!, {r9, fp}
    8784:	94030000 	strls	r0, [r3], #-0
    8788:	000c6a01 	andeq	r6, ip, r1, lsl #20
    878c:	e40b0000 	str	r0, [fp], #-0
    8790:	0300000b 	movweq	r0, #11
    8794:	0cbc0195 	ldfeqs	f0, [ip], #596	; 0x254
    8798:	040c0000 	streq	r0, [ip], #-0
    879c:	3c019a03 	stccc	10, cr9, [r1], {3}
    87a0:	0900000d 	stmdbeq	r0, {r0, r2, r3}
    87a4:	00000ae6 	andeq	r0, r0, r6, ror #21
    87a8:	5e019c03 	cdppl	12, 0, cr9, cr1, cr3, {0}
    87ac:	04000000 	streq	r0, [r0], #-0
    87b0:	23021e02 	movwcs	r1, #11778	; 0x2e02
    87b4:	0e460900 	cdpeq	9, 4, cr0, cr6, cr0, {0}
    87b8:	9d030000 	stcls	0, cr0, [r3, #-0]
    87bc:	00005e01 	andeq	r5, r0, r1, lsl #28
    87c0:	08160400 	ldmdaeq	r6, {sl}
    87c4:	09002302 	stmdbeq	r0, {r1, r8, r9, sp}
    87c8:	00000669 	andeq	r0, r0, r9, ror #12
    87cc:	5e019e03 	cdppl	14, 0, cr9, cr1, cr3, {0}
    87d0:	04000000 	streq	r0, [r0], #-0
    87d4:	23020602 	movwcs	r0, #9730	; 0x2602
    87d8:	0e4b0900 	cdpeq	9, 4, cr0, cr11, cr0, {0}
    87dc:	9f030000 	svcls	0x00030000
    87e0:	00005e01 	andeq	r5, r0, r1, lsl #28
    87e4:	00060400 	andeq	r0, r6, r0, lsl #8
    87e8:	00002302 	andeq	r2, r0, r2, lsl #6
    87ec:	9703040d 	strls	r0, [r3, -sp, lsl #8]
    87f0:	000d5e01 	andeq	r5, sp, r1, lsl #28
    87f4:	02c60a00 	sbceq	r0, r6, #0
    87f8:	99030000 	stmdbls	r3, {}	; <UNPREDICTABLE>
    87fc:	00005e01 	andeq	r5, r0, r1, lsl #28
    8800:	09250a00 	stmdbeq	r5!, {r9, fp}
    8804:	a0030000 	andge	r0, r3, r0
    8808:	000cea01 	andeq	lr, ip, r1, lsl #20
    880c:	0d0b0000 	stceq	0, cr0, [fp, #-0]
    8810:	0300000a 	movweq	r0, #10
    8814:	0d3c01a1 	ldfeqs	f0, [ip, #-644]!	; 0xfffffd7c
    8818:	040c0000 	streq	r0, [ip], #-0
    881c:	bc01a603 	stclt	6, cr10, [r1], {3}
    8820:	0900000d 	stmdbeq	r0, {r0, r2, r3}
    8824:	00000a99 	muleq	r0, r9, sl
    8828:	5e01a803 	cdppl	8, 0, cr10, cr1, cr3, {0}
    882c:	04000000 	streq	r0, [r0], #-0
    8830:	23021e02 	movwcs	r1, #11778	; 0x2e02
    8834:	0e460900 	cdpeq	9, 4, cr0, cr6, cr0, {0}
    8838:	a9030000 	stmdbge	r3, {}	; <UNPREDICTABLE>
    883c:	00005e01 	andeq	r5, r0, r1, lsl #28
    8840:	08160400 	ldmdaeq	r6, {sl}
    8844:	09002302 	stmdbeq	r0, {r1, r8, r9, sp}
    8848:	00000d88 	andeq	r0, r0, r8, lsl #27
    884c:	5e01aa03 	vmlapl.f32	s20, s2, s6
    8850:	04000000 	streq	r0, [r0], #-0
    8854:	23020602 	movwcs	r0, #9730	; 0x2602
    8858:	0e4b0900 	cdpeq	9, 4, cr0, cr11, cr0, {0}
    885c:	ab030000 	blge	c8864 <__bss_end+0xb5718>
    8860:	00005e01 	andeq	r5, r0, r1, lsl #28
    8864:	00060400 	andeq	r0, r6, r0, lsl #8
    8868:	00002302 	andeq	r2, r0, r2, lsl #6
    886c:	a303040d 	movwge	r0, #13325	; 0x340d
    8870:	000dde01 	andeq	sp, sp, r1, lsl #28
    8874:	02c60a00 	sbceq	r0, r6, #0
    8878:	a5030000 	strge	r0, [r3, #-0]
    887c:	00005e01 	andeq	r5, r0, r1, lsl #28
    8880:	09250a00 	stmdbeq	r5!, {r9, fp}
    8884:	ac030000 	stcge	0, cr0, [r3], {-0}
    8888:	000d6a01 	andeq	r6, sp, r1, lsl #20
    888c:	7a0b0000 	bvc	2c8894 <__bss_end+0x2b5748>
    8890:	03000006 	movweq	r0, #6
    8894:	0dbc01ad 	ldfeqs	f0, [ip, #692]!	; 0x2b4
    8898:	040c0000 	streq	r0, [ip], #-0
    889c:	3c01b203 	sfmcc	f3, 1, [r1], {3}
    88a0:	0900000e 	stmdbeq	r0, {r1, r2, r3}
    88a4:	00000c36 	andeq	r0, r0, r6, lsr ip
    88a8:	5e01b403 	cdppl	4, 0, cr11, cr1, cr3, {0}
    88ac:	04000000 	streq	r0, [r0], #-0
    88b0:	23021e02 	movwcs	r1, #11778	; 0x2e02
    88b4:	0e460900 	cdpeq	9, 4, cr0, cr6, cr0, {0}
    88b8:	b5030000 	strlt	r0, [r3, #-0]
    88bc:	00005e01 	andeq	r5, r0, r1, lsl #28
    88c0:	08160400 	ldmdaeq	r6, {sl}
    88c4:	09002302 	stmdbeq	r0, {r1, r8, r9, sp}
    88c8:	00000711 	andeq	r0, r0, r1, lsl r7
    88cc:	5e01b603 	cfmadd32pl	mvax0, mvfx11, mvfx1, mvfx3
    88d0:	04000000 	streq	r0, [r0], #-0
    88d4:	23020701 	movwcs	r0, #9985	; 0x2701
    88d8:	0e4b0900 	cdpeq	9, 4, cr0, cr11, cr0, {0}
    88dc:	b7030000 	strlt	r0, [r3, -r0]
    88e0:	00005e01 	andeq	r5, r0, r1, lsl #28
    88e4:	00070400 	andeq	r0, r7, r0, lsl #8
    88e8:	00002302 	andeq	r2, r0, r2, lsl #6
    88ec:	af03040d 	svcge	0x0003040d
    88f0:	000e5e01 	andeq	r5, lr, r1, lsl #28
    88f4:	02c60a00 	sbceq	r0, r6, #0
    88f8:	b1030000 	mrslt	r0, (UNDEF: 3)
    88fc:	00005e01 	andeq	r5, r0, r1, lsl #28
    8900:	09250a00 	stmdbeq	r5!, {r9, fp}
    8904:	b8030000 	stmdalt	r3, {}	; <UNPREDICTABLE>
    8908:	000dea01 	andeq	lr, sp, r1, lsl #20
    890c:	0f0b0000 	svceq	0x000b0000
    8910:	0300000b 	movweq	r0, #11
    8914:	0e3c01b9 	mrceq	1, 1, r0, cr12, cr9, {5}
    8918:	040c0000 	streq	r0, [ip], #-0
    891c:	e001be03 	and	fp, r1, r3, lsl #28
    8920:	0900000e 	stmdbeq	r0, {r1, r2, r3}
    8924:	000007c9 	andeq	r0, r0, r9, asr #15
    8928:	5e01c003 	cdppl	0, 0, cr12, cr1, cr3, {0}
    892c:	04000000 	streq	r0, [r0], #-0
    8930:	23021b05 	movwcs	r1, #11013	; 0x2b05
    8934:	0e460900 	cdpeq	9, 4, cr0, cr6, cr0, {0}
    8938:	c1030000 	mrsgt	r0, (UNDEF: 3)
    893c:	00005e01 	andeq	r5, r0, r1, lsl #28
    8940:	100b0400 	andne	r0, fp, r0, lsl #8
    8944:	09002302 	stmdbeq	r0, {r1, r8, r9, sp}
    8948:	000007d3 	ldrdeq	r0, [r0], -r3
    894c:	5e01c203 	cdppl	2, 0, cr12, cr1, cr3, {0}
    8950:	04000000 	streq	r0, [r0], #-0
    8954:	23020e02 	movwcs	r0, #11778	; 0x2e02
    8958:	0e4b0900 	cdpeq	9, 4, cr0, cr11, cr0, {0}
    895c:	c3030000 	movwgt	r0, #12288	; 0x3000
    8960:	00005e01 	andeq	r5, r0, r1, lsl #28
    8964:	08060400 	stmdaeq	r6, {sl}
    8968:	09002302 	stmdbeq	r0, {r1, r8, r9, sp}
    896c:	00000817 	andeq	r0, r0, r7, lsl r8
    8970:	5e01c403 	cdppl	4, 0, cr12, cr1, cr3, {0}
    8974:	04000000 	streq	r0, [r0], #-0
    8978:	23020701 	movwcs	r0, #9985	; 0x2701
    897c:	0e500900 	cdpeq	9, 5, cr0, cr0, cr0, {0}
    8980:	c5030000 	strgt	r0, [r3, #-0]
    8984:	00005e01 	andeq	r5, r0, r1, lsl #28
    8988:	00070400 	andeq	r0, r7, r0, lsl #8
    898c:	00002302 	andeq	r2, r0, r2, lsl #6
    8990:	bb03040d 	bllt	c99cc <__bss_end+0xb6880>
    8994:	000f0201 	andeq	r0, pc, r1, lsl #4
    8998:	02c60a00 	sbceq	r0, r6, #0
    899c:	bd030000 	stclt	0, cr0, [r3, #-0]
    89a0:	00005e01 	andeq	r5, r0, r1, lsl #28
    89a4:	09250a00 	stmdbeq	r5!, {r9, fp}
    89a8:	c6030000 	strgt	r0, [r3], -r0
    89ac:	000e6a01 	andeq	r6, lr, r1, lsl #20
    89b0:	2a0b0000 	bcs	2c89b8 <__bss_end+0x2b586c>
    89b4:	03000009 	movweq	r0, #9
    89b8:	0ee001c7 	cdpeq	1, 14, cr0, cr0, cr7, {6}
    89bc:	040c0000 	streq	r0, [ip], #-0
    89c0:	6001cc03 	andvs	ip, r1, r3, lsl #24
    89c4:	0900000f 	stmdbeq	r0, {r0, r1, r2, r3}
    89c8:	000002b1 			; <UNDEFINED> instruction: 0x000002b1
    89cc:	5e01ce03 	cdppl	14, 0, cr12, cr1, cr3, {0}
    89d0:	04000000 	streq	r0, [r0], #-0
    89d4:	23021e02 	movwcs	r1, #11778	; 0x2e02
    89d8:	0e460900 	cdpeq	9, 4, cr0, cr6, cr0, {0}
    89dc:	cf030000 	svcgt	0x00030000
    89e0:	00005e01 	andeq	r5, r0, r1, lsl #28
    89e4:	08160400 	ldmdaeq	r6, {sl}
    89e8:	09002302 	stmdbeq	r0, {r1, r8, r9, sp}
    89ec:	00000bf3 	strdeq	r0, [r0], -r3
    89f0:	5e01d003 	cdppl	0, 0, cr13, cr1, cr3, {0}
    89f4:	04000000 	streq	r0, [r0], #-0
    89f8:	23020602 	movwcs	r0, #9730	; 0x2602
    89fc:	0e4b0900 	cdpeq	9, 4, cr0, cr11, cr0, {0}
    8a00:	d1030000 	mrsle	r0, (UNDEF: 3)
    8a04:	00005e01 	andeq	r5, r0, r1, lsl #28
    8a08:	00060400 	andeq	r0, r6, r0, lsl #8
    8a0c:	00002302 	andeq	r2, r0, r2, lsl #6
    8a10:	c903040d 	stmdbgt	r3, {r0, r2, r3, sl}
    8a14:	000f8201 	andeq	r8, pc, r1, lsl #4
    8a18:	02c60a00 	sbceq	r0, r6, #0
    8a1c:	cb030000 	blgt	c8a24 <__bss_end+0xb58d8>
    8a20:	00005e01 	andeq	r5, r0, r1, lsl #28
    8a24:	09250a00 	stmdbeq	r5!, {r9, fp}
    8a28:	d2030000 	andle	r0, r3, #0
    8a2c:	000f0e01 	andeq	r0, pc, r1, lsl #28
    8a30:	db0b0000 	blle	2c8a38 <__bss_end+0x2b58ec>
    8a34:	0300000d 	movweq	r0, #13
    8a38:	0f6001d3 	svceq	0x006001d3
    8a3c:	040c0000 	streq	r0, [ip], #-0
    8a40:	f201d803 	vadd.i8	d13, d1, d3
    8a44:	0900000f 	stmdbeq	r0, {r0, r1, r2, r3}
    8a48:	00000419 	andeq	r0, r0, r9, lsl r4
    8a4c:	5e01da03 	vmlapl.f32	s26, s2, s6
    8a50:	04000000 	streq	r0, [r0], #-0
    8a54:	23021d03 	movwcs	r1, #11523	; 0x2d03
    8a58:	0e460900 	cdpeq	9, 4, cr0, cr6, cr0, {0}
    8a5c:	db030000 	blle	c8a64 <__bss_end+0xb5918>
    8a60:	00005e01 	andeq	r5, r0, r1, lsl #28
    8a64:	08150400 	ldmdaeq	r5, {sl}
    8a68:	09002302 	stmdbeq	r0, {r1, r8, r9, sp}
    8a6c:	00000bfa 	strdeq	r0, [r0], -sl
    8a70:	5e01dc03 	cdppl	12, 0, cr13, cr1, cr3, {0}
    8a74:	04000000 	streq	r0, [r0], #-0
    8a78:	23020602 	movwcs	r0, #9730	; 0x2602
    8a7c:	0e4b0900 	cdpeq	9, 4, cr0, cr11, cr0, {0}
    8a80:	dd030000 	stcle	0, cr0, [r3, #-0]
    8a84:	00005e01 	andeq	r5, r0, r1, lsl #28
    8a88:	01050400 	tsteq	r5, r0, lsl #8
    8a8c:	09002302 	stmdbeq	r0, {r1, r8, r9, sp}
    8a90:	00000b66 	andeq	r0, r0, r6, ror #22
    8a94:	5e01de03 	cdppl	14, 0, cr13, cr1, cr3, {0}
    8a98:	04000000 	streq	r0, [r0], #-0
    8a9c:	23020001 	movwcs	r0, #8193	; 0x2001
    8aa0:	040d0000 	streq	r0, [sp], #-0
    8aa4:	1401d503 	strne	sp, [r1], #-1283	; 0x503
    8aa8:	0a000010 	beq	8af0 <__resume1_start+0x8af0>
    8aac:	000002c6 	andeq	r0, r0, r6, asr #5
    8ab0:	5e01d703 	cdppl	7, 0, cr13, cr1, cr3, {0}
    8ab4:	0a000000 	beq	8abc <__resume1_start+0x8abc>
    8ab8:	00000925 	andeq	r0, r0, r5, lsr #18
    8abc:	8e01df03 	cdphi	15, 0, cr13, cr1, cr3, {0}
    8ac0:	0000000f 	andeq	r0, r0, pc
    8ac4:	0003e20b 	andeq	lr, r3, fp, lsl #4
    8ac8:	01e00300 	mvneq	r0, r0, lsl #6
    8acc:	00000ff2 	strdeq	r0, [r0], -r2
    8ad0:	e503040c 	str	r0, [r3, #-1036]	; 0x40c
    8ad4:	00108401 	andseq	r8, r0, r1, lsl #8
    8ad8:	04190900 	ldreq	r0, [r9], #-2304	; 0x900
    8adc:	e7030000 	str	r0, [r3, -r0]
    8ae0:	00005e01 	andeq	r5, r0, r1, lsl #28
    8ae4:	1d030400 	cfstrsne	mvf0, [r3, #-0]
    8ae8:	09002302 	stmdbeq	r0, {r1, r8, r9, sp}
    8aec:	00000e46 	andeq	r0, r0, r6, asr #28
    8af0:	5e01e803 	cdppl	8, 0, cr14, cr1, cr3, {0}
    8af4:	04000000 	streq	r0, [r0], #-0
    8af8:	23020815 	movwcs	r0, #10261	; 0x2815
    8afc:	0bfa0900 	bleq	ffe8af04 <__bss_end+0xffe77db8>
    8b00:	e9030000 	stmdb	r3, {}	; <UNPREDICTABLE>
    8b04:	00005e01 	andeq	r5, r0, r1, lsl #28
    8b08:	06020400 	streq	r0, [r2], -r0, lsl #8
    8b0c:	09002302 	stmdbeq	r0, {r1, r8, r9, sp}
    8b10:	00000e4b 	andeq	r0, r0, fp, asr #28
    8b14:	5e01ea03 	vmlapl.f32	s28, s2, s6
    8b18:	04000000 	streq	r0, [r0], #-0
    8b1c:	23020105 	movwcs	r0, #8453	; 0x2105
    8b20:	0b660900 	bleq	198af28 <__bss_end+0x1977ddc>
    8b24:	eb030000 	bl	c8b2c <__bss_end+0xb59e0>
    8b28:	00005e01 	andeq	r5, r0, r1, lsl #28
    8b2c:	00010400 	andeq	r0, r1, r0, lsl #8
    8b30:	00002302 	andeq	r2, r0, r2, lsl #6
    8b34:	e203040d 	and	r0, r3, #218103808	; 0xd000000
    8b38:	0010a601 	andseq	sl, r0, r1, lsl #12
    8b3c:	02c60a00 	sbceq	r0, r6, #0
    8b40:	e4030000 	str	r0, [r3], #-0
    8b44:	00005e01 	andeq	r5, r0, r1, lsl #28
    8b48:	09250a00 	stmdbeq	r5!, {r9, fp}
    8b4c:	ec030000 	stc	0, cr0, [r3], {-0}
    8b50:	00102001 	andseq	r2, r0, r1
    8b54:	560b0000 	strpl	r0, [fp], -r0
    8b58:	0300000b 	movweq	r0, #11
    8b5c:	108401ed 	addne	r0, r4, sp, ror #3
    8b60:	040c0000 	streq	r0, [ip], #-0
    8b64:	e001f203 	and	pc, r1, r3, lsl #4
    8b68:	09000010 	stmdbeq	r0, {r4}
    8b6c:	000007f3 	strdeq	r0, [r0], -r3
    8b70:	5e01f403 	cdppl	4, 0, cr15, cr1, cr3, {0}
    8b74:	04000000 	streq	r0, [r0], #-0
    8b78:	23021010 	movwcs	r1, #8208	; 0x2010
    8b7c:	0e460900 	cdpeq	9, 4, cr0, cr6, cr0, {0}
    8b80:	f5030000 			; <UNDEFINED> instruction: 0xf5030000
    8b84:	00005e01 	andeq	r5, r0, r1, lsl #28
    8b88:	00100400 	andseq	r0, r0, r0, lsl #8
    8b8c:	00002302 	andeq	r2, r0, r2, lsl #6
    8b90:	ef03040d 	svc	0x0003040d
    8b94:	00110201 	andseq	r0, r1, r1, lsl #4
    8b98:	02c60a00 	sbceq	r0, r6, #0
    8b9c:	f1030000 			; <UNDEFINED> instruction: 0xf1030000
    8ba0:	00005e01 	andeq	r5, r0, r1, lsl #28
    8ba4:	09250a00 	stmdbeq	r5!, {r9, fp}
    8ba8:	f6030000 			; <UNDEFINED> instruction: 0xf6030000
    8bac:	0010b201 	andseq	fp, r0, r1, lsl #4
    8bb0:	ce0b0000 	cdpgt	0, 0, cr0, cr11, cr0, {0}
    8bb4:	03000003 	movweq	r0, #3
    8bb8:	10e001f7 	strdne	r0, [r0], #23	; <UNPREDICTABLE>
    8bbc:	040c0000 	streq	r0, [ip], #-0
    8bc0:	3c01fc03 	stccc	12, cr15, [r1], {3}
    8bc4:	09000011 	stmdbeq	r0, {r0, r4}
    8bc8:	000007f3 	strdeq	r0, [r0], -r3
    8bcc:	5e01fe03 	cdppl	14, 0, cr15, cr1, cr3, {0}
    8bd0:	04000000 	streq	r0, [r0], #-0
    8bd4:	23021010 	movwcs	r1, #8208	; 0x2010
    8bd8:	0e460900 	cdpeq	9, 4, cr0, cr6, cr0, {0}
    8bdc:	ff030000 			; <UNDEFINED> instruction: 0xff030000
    8be0:	00005e01 	andeq	r5, r0, r1, lsl #28
    8be4:	00100400 	andseq	r0, r0, r0, lsl #8
    8be8:	00002302 	andeq	r2, r0, r2, lsl #6
    8bec:	f903040d 			; <UNDEFINED> instruction: 0xf903040d
    8bf0:	00115e01 	andseq	r5, r1, r1, lsl #28
    8bf4:	02c60a00 	sbceq	r0, r6, #0
    8bf8:	fb030000 	blx	c8c02 <__bss_end+0xb5ab6>
    8bfc:	00005e01 	andeq	r5, r0, r1, lsl #28
    8c00:	09250a00 	stmdbeq	r5!, {r9, fp}
    8c04:	00030000 	andeq	r0, r3, r0
    8c08:	00110e02 	andseq	r0, r1, r2, lsl #28
    8c0c:	7d0b0000 	stcvc	0, cr0, [fp, #-0]
    8c10:	03000009 	movweq	r0, #9
    8c14:	113c0201 	teqne	ip, r1, lsl #4
    8c18:	040d0000 	streq	r0, [sp], #-0
    8c1c:	80020303 	andhi	r0, r2, r3, lsl #6
    8c20:	0a000011 	beq	8c6c <__resume1_start+0x8c6c>
    8c24:	000002c6 	andeq	r0, r0, r6, asr #5
    8c28:	5e020503 	cfsh32pl	mvfx0, mvfx2, #3
    8c2c:	00000000 	andeq	r0, r0, r0
    8c30:	000e840b 	andeq	r8, lr, fp, lsl #8
    8c34:	02060300 	andeq	r0, r6, #0
    8c38:	0000116a 	andeq	r1, r0, sl, ror #2
    8c3c:	0b03040c 	bleq	c9c74 <__bss_end+0xb6b28>
    8c40:	0011de02 	andseq	sp, r1, r2, lsl #28
    8c44:	0e460900 	cdpeq	9, 4, cr0, cr6, cr0, {0}
    8c48:	0d030000 	stceq	0, cr0, [r3, #-0]
    8c4c:	00005e02 	andeq	r5, r0, r2, lsl #28
    8c50:	10100400 	andsne	r0, r0, r0, lsl #8
    8c54:	09002302 	stmdbeq	r0, {r1, r8, r9, sp}
    8c58:	000004c6 	andeq	r0, r0, r6, asr #9
    8c5c:	5e020e03 	cdppl	14, 0, cr0, cr2, cr3, {0}
    8c60:	04000000 	streq	r0, [r0], #-0
    8c64:	23020b05 	movwcs	r0, #11013	; 0x2b05
    8c68:	0e4b0900 	cdpeq	9, 4, cr0, cr11, cr0, {0}
    8c6c:	0f030000 	svceq	0x00030000
    8c70:	00005e02 	andeq	r5, r0, r2, lsl #28
    8c74:	010a0400 	tsteq	sl, r0, lsl #8
    8c78:	09002302 	stmdbeq	r0, {r1, r8, r9, sp}
    8c7c:	000005d1 	ldrdeq	r0, [r0], -r1
    8c80:	5e021003 	cdppl	0, 0, cr1, cr2, cr3, {0}
    8c84:	04000000 	streq	r0, [r0], #-0
    8c88:	23020001 	movwcs	r0, #8193	; 0x2001
    8c8c:	040d0000 	streq	r0, [sp], #-0
    8c90:	00020803 	andeq	r0, r2, r3, lsl #16
    8c94:	0a000012 	beq	8ce4 <__resume1_start+0x8ce4>
    8c98:	000002c6 	andeq	r0, r0, r6, asr #5
    8c9c:	5e020a03 	vmlapl.f32	s0, s4, s6
    8ca0:	0a000000 	beq	8ca8 <__resume1_start+0x8ca8>
    8ca4:	00000925 	andeq	r0, r0, r5, lsr #18
    8ca8:	8c021103 	stfhis	f1, [r2], {3}
    8cac:	00000011 	andeq	r0, r0, r1, lsl r0
    8cb0:	000cfd0b 	andeq	pc, ip, fp, lsl #26
    8cb4:	02120300 	andseq	r0, r2, #0
    8cb8:	000011de 	ldrdeq	r1, [r0], -lr
    8cbc:	1703040c 	strne	r0, [r3, -ip, lsl #8]
    8cc0:	00125e02 	andseq	r5, r2, r2, lsl #28
    8cc4:	0e460900 	cdpeq	9, 4, cr0, cr6, cr0, {0}
    8cc8:	19030000 	stmdbne	r3, {}	; <UNPREDICTABLE>
    8ccc:	00005e02 	andeq	r5, r0, r2, lsl #28
    8cd0:	10100400 	andsne	r0, r0, r0, lsl #8
    8cd4:	09002302 	stmdbeq	r0, {r1, r8, r9, sp}
    8cd8:	000004c6 	andeq	r0, r0, r6, asr #9
    8cdc:	5e021a03 	vmlapl.f32	s2, s4, s6
    8ce0:	04000000 	streq	r0, [r0], #-0
    8ce4:	23020b05 	movwcs	r0, #11013	; 0x2b05
    8ce8:	0e4b0900 	cdpeq	9, 4, cr0, cr11, cr0, {0}
    8cec:	1b030000 	blne	c8cf4 <__bss_end+0xb5ba8>
    8cf0:	00005e02 	andeq	r5, r0, r2, lsl #28
    8cf4:	010a0400 	tsteq	sl, r0, lsl #8
    8cf8:	09002302 	stmdbeq	r0, {r1, r8, r9, sp}
    8cfc:	000005d1 	ldrdeq	r0, [r0], -r1
    8d00:	5e021c03 	cdppl	12, 0, cr1, cr2, cr3, {0}
    8d04:	04000000 	streq	r0, [r0], #-0
    8d08:	23020001 	movwcs	r0, #8193	; 0x2001
    8d0c:	040d0000 	streq	r0, [sp], #-0
    8d10:	80021403 	andhi	r1, r2, r3, lsl #8
    8d14:	0a000012 	beq	8d64 <__resume1_start+0x8d64>
    8d18:	000002c6 	andeq	r0, r0, r6, asr #5
    8d1c:	5e021603 	cfmadd32pl	mvax0, mvfx1, mvfx2, mvfx3
    8d20:	0a000000 	beq	8d28 <__resume1_start+0x8d28>
    8d24:	00000925 	andeq	r0, r0, r5, lsr #18
    8d28:	0c021d03 	stceq	13, cr1, [r2], {3}
    8d2c:	00000012 	andeq	r0, r0, r2, lsl r0
    8d30:	0005b00b 	andeq	fp, r5, fp
    8d34:	021e0300 	andseq	r0, lr, #0
    8d38:	0000125e 	andeq	r1, r0, lr, asr r2
    8d3c:	2303040c 	movwcs	r0, #13324	; 0x340c
    8d40:	0012cc02 	andseq	ip, r2, r2, lsl #24
    8d44:	0e460900 	cdpeq	9, 4, cr0, cr6, cr0, {0}
    8d48:	25030000 	strcs	r0, [r3, #-0]
    8d4c:	00005e02 	andeq	r5, r0, r2, lsl #28
    8d50:	10100400 	andsne	r0, r0, r0, lsl #8
    8d54:	09002302 	stmdbeq	r0, {r1, r8, r9, sp}
    8d58:	00000ebb 			; <UNDEFINED> instruction: 0x00000ebb
    8d5c:	5e022603 	cfmadd32pl	mvax0, mvfx2, mvfx2, mvfx3
    8d60:	04000000 	streq	r0, [r0], #-0
    8d64:	23020b05 	movwcs	r0, #11013	; 0x2b05
    8d68:	0e4b0900 	cdpeq	9, 4, cr0, cr11, cr0, {0}
    8d6c:	27030000 	strcs	r0, [r3, -r0]
    8d70:	00005e02 	andeq	r5, r0, r2, lsl #28
    8d74:	000b0400 	andeq	r0, fp, r0, lsl #8
    8d78:	00002302 	andeq	r2, r0, r2, lsl #6
    8d7c:	2003040d 	andcs	r0, r3, sp, lsl #8
    8d80:	0012ee02 	andseq	lr, r2, r2, lsl #28
    8d84:	02c60a00 	sbceq	r0, r6, #0
    8d88:	22030000 	andcs	r0, r3, #0
    8d8c:	00005e02 	andeq	r5, r0, r2, lsl #28
    8d90:	09250a00 	stmdbeq	r5!, {r9, fp}
    8d94:	28030000 	stmdacs	r3, {}	; <UNPREDICTABLE>
    8d98:	00128c02 	andseq	r8, r2, r2, lsl #24
    8d9c:	d10b0000 	mrsle	r0, (UNDEF: 11)
    8da0:	0300000a 	movweq	r0, #10
    8da4:	12cc0229 	sbcne	r0, ip, #-1879048190	; 0x90000002
    8da8:	040c0000 	streq	r0, [ip], #-0
    8dac:	3a022e03 	bcc	945c0 <__bss_end+0x81474>
    8db0:	09000013 	stmdbeq	r0, {r0, r1, r4}
    8db4:	00000e46 	andeq	r0, r0, r6, asr #28
    8db8:	5e023003 	cdppl	0, 0, cr3, cr2, cr3, {0}
    8dbc:	04000000 	streq	r0, [r0], #-0
    8dc0:	23021010 	movwcs	r1, #8208	; 0x2010
    8dc4:	0ebb0900 	cdpeq	9, 11, cr0, cr11, cr0, {0}
    8dc8:	31030000 	mrscc	r0, (UNDEF: 3)
    8dcc:	00005e02 	andeq	r5, r0, r2, lsl #28
    8dd0:	0b050400 	bleq	149dd8 <__bss_end+0x136c8c>
    8dd4:	09002302 	stmdbeq	r0, {r1, r8, r9, sp}
    8dd8:	00000e4b 	andeq	r0, r0, fp, asr #28
    8ddc:	5e023203 	cdppl	2, 0, cr3, cr2, cr3, {0}
    8de0:	04000000 	streq	r0, [r0], #-0
    8de4:	2302000b 	movwcs	r0, #8203	; 0x200b
    8de8:	040d0000 	streq	r0, [sp], #-0
    8dec:	5c022b03 	stcpl	11, cr2, [r2], {3}
    8df0:	0a000013 	beq	8e44 <__resume1_start+0x8e44>
    8df4:	000002c6 	andeq	r0, r0, r6, asr #5
    8df8:	5e022d03 	cdppl	13, 0, cr2, cr2, cr3, {0}
    8dfc:	0a000000 	beq	8e04 <__resume1_start+0x8e04>
    8e00:	00000925 	andeq	r0, r0, r5, lsr #18
    8e04:	fa023303 	blx	95a18 <__bss_end+0x828cc>
    8e08:	00000012 	andeq	r0, r0, r2, lsl r0
    8e0c:	000a820b 	andeq	r8, sl, fp, lsl #4
    8e10:	02340300 	eorseq	r0, r4, #0
    8e14:	0000133a 	andeq	r1, r0, sl, lsr r3
    8e18:	3903040c 	stmdbcc	r3, {r2, r3, sl}
    8e1c:	0013a802 	andseq	sl, r3, r2, lsl #16
    8e20:	0e460900 	cdpeq	9, 4, cr0, cr6, cr0, {0}
    8e24:	3b030000 	blcc	c8e2c <__bss_end+0xb5ce0>
    8e28:	00005e02 	andeq	r5, r0, r2, lsl #28
    8e2c:	10100400 	andsne	r0, r0, r0, lsl #8
    8e30:	09002302 	stmdbeq	r0, {r1, r8, r9, sp}
    8e34:	00000ebb 			; <UNDEFINED> instruction: 0x00000ebb
    8e38:	5e023c03 	cdppl	12, 0, cr3, cr2, cr3, {0}
    8e3c:	04000000 	streq	r0, [r0], #-0
    8e40:	23020b05 	movwcs	r0, #11013	; 0x2b05
    8e44:	0e4b0900 	cdpeq	9, 4, cr0, cr11, cr0, {0}
    8e48:	3d030000 	stccc	0, cr0, [r3, #-0]
    8e4c:	00005e02 	andeq	r5, r0, r2, lsl #28
    8e50:	000b0400 	andeq	r0, fp, r0, lsl #8
    8e54:	00002302 	andeq	r2, r0, r2, lsl #6
    8e58:	3603040d 	strcc	r0, [r3], -sp, lsl #8
    8e5c:	0013ca02 	andseq	ip, r3, r2, lsl #20
    8e60:	02c60a00 	sbceq	r0, r6, #0
    8e64:	38030000 	stmdacc	r3, {}	; <UNPREDICTABLE>
    8e68:	00005e02 	andeq	r5, r0, r2, lsl #28
    8e6c:	09250a00 	stmdbeq	r5!, {r9, fp}
    8e70:	3e030000 	cdpcc	0, 0, cr0, cr3, cr0, {0}
    8e74:	00136802 	andseq	r6, r3, r2, lsl #16
    8e78:	370b0000 	strcc	r0, [fp, -r0]
    8e7c:	0300000a 	movweq	r0, #10
    8e80:	13a8023f 			; <UNDEFINED> instruction: 0x13a8023f
    8e84:	040c0000 	streq	r0, [ip], #-0
    8e88:	16024403 	strne	r4, [r2], -r3, lsl #8
    8e8c:	09000014 	stmdbeq	r0, {r2, r4}
    8e90:	00000e46 	andeq	r0, r0, r6, asr #28
    8e94:	5e024603 	cfmadd32pl	mvax0, mvfx4, mvfx2, mvfx3
    8e98:	04000000 	streq	r0, [r0], #-0
    8e9c:	23021010 	movwcs	r1, #8208	; 0x2010
    8ea0:	04420900 	strbeq	r0, [r2], #-2304	; 0x900
    8ea4:	47030000 	strmi	r0, [r3, -r0]
    8ea8:	00005e02 	andeq	r5, r0, r2, lsl #28
    8eac:	0b050400 	bleq	149eb4 <__bss_end+0x136d68>
    8eb0:	09002302 	stmdbeq	r0, {r1, r8, r9, sp}
    8eb4:	00000e4b 	andeq	r0, r0, fp, asr #28
    8eb8:	5e024803 	cdppl	8, 0, cr4, cr2, cr3, {0}
    8ebc:	04000000 	streq	r0, [r0], #-0
    8ec0:	2302000b 	movwcs	r0, #8203	; 0x200b
    8ec4:	040d0000 	streq	r0, [sp], #-0
    8ec8:	38024103 	stmdacc	r2, {r0, r1, r8, lr}
    8ecc:	0a000014 	beq	8f24 <__resume1_start+0x8f24>
    8ed0:	000002c6 	andeq	r0, r0, r6, asr #5
    8ed4:	5e024303 	cdppl	3, 0, cr4, cr2, cr3, {0}
    8ed8:	0a000000 	beq	8ee0 <__resume1_start+0x8ee0>
    8edc:	00000925 	andeq	r0, r0, r5, lsr #18
    8ee0:	d6024903 	strle	r4, [r2], -r3, lsl #18
    8ee4:	00000013 	andeq	r0, r0, r3, lsl r0
    8ee8:	0003150b 	andeq	r1, r3, fp, lsl #10
    8eec:	024a0300 	subeq	r0, sl, #0
    8ef0:	00001416 	andeq	r1, r0, r6, lsl r4
    8ef4:	4f03040c 	svcmi	0x0003040c
    8ef8:	00148402 	andseq	r8, r4, r2, lsl #8
    8efc:	0e460900 	cdpeq	9, 4, cr0, cr6, cr0, {0}
    8f00:	51030000 	mrspl	r0, (UNDEF: 3)
    8f04:	00005e02 	andeq	r5, r0, r2, lsl #28
    8f08:	10100400 	andsne	r0, r0, r0, lsl #8
    8f0c:	09002302 	stmdbeq	r0, {r1, r8, r9, sp}
    8f10:	00000ebb 			; <UNDEFINED> instruction: 0x00000ebb
    8f14:	5e025203 	cdppl	2, 0, cr5, cr2, cr3, {0}
    8f18:	04000000 	streq	r0, [r0], #-0
    8f1c:	23020b05 	movwcs	r0, #11013	; 0x2b05
    8f20:	0e4b0900 	cdpeq	9, 4, cr0, cr11, cr0, {0}
    8f24:	53030000 	movwpl	r0, #12288	; 0x3000
    8f28:	00005e02 	andeq	r5, r0, r2, lsl #28
    8f2c:	000b0400 	andeq	r0, fp, r0, lsl #8
    8f30:	00002302 	andeq	r2, r0, r2, lsl #6
    8f34:	4c03040d 	cfstrsmi	mvf0, [r3], {13}
    8f38:	0014a602 	andseq	sl, r4, r2, lsl #12
    8f3c:	02c60a00 	sbceq	r0, r6, #0
    8f40:	4e030000 	cdpmi	0, 0, cr0, cr3, cr0, {0}
    8f44:	00005e02 	andeq	r5, r0, r2, lsl #28
    8f48:	09250a00 	stmdbeq	r5!, {r9, fp}
    8f4c:	54030000 	strpl	r0, [r3], #-0
    8f50:	00144402 	andseq	r4, r4, r2, lsl #8
    8f54:	030b0000 	movweq	r0, #45056	; 0xb000
    8f58:	03000004 	movweq	r0, #4
    8f5c:	14840255 	strne	r0, [r4], #597	; 0x255
    8f60:	040c0000 	streq	r0, [ip], #-0
    8f64:	f2025a03 	vpmax.s8	d5, d2, d3
    8f68:	09000014 	stmdbeq	r0, {r2, r4}
    8f6c:	00000e46 	andeq	r0, r0, r6, asr #28
    8f70:	5e025c03 	cdppl	12, 0, cr5, cr2, cr3, {0}
    8f74:	04000000 	streq	r0, [r0], #-0
    8f78:	23021010 	movwcs	r1, #8208	; 0x2010
    8f7c:	0ebb0900 	cdpeq	9, 11, cr0, cr11, cr0, {0}
    8f80:	5d030000 	stcpl	0, cr0, [r3, #-0]
    8f84:	00005e02 	andeq	r5, r0, r2, lsl #28
    8f88:	0b050400 	bleq	149f90 <__bss_end+0x136e44>
    8f8c:	09002302 	stmdbeq	r0, {r1, r8, r9, sp}
    8f90:	00000e4b 	andeq	r0, r0, fp, asr #28
    8f94:	5e025e03 	cdppl	14, 0, cr5, cr2, cr3, {0}
    8f98:	04000000 	streq	r0, [r0], #-0
    8f9c:	2302000b 	movwcs	r0, #8203	; 0x200b
    8fa0:	040d0000 	streq	r0, [sp], #-0
    8fa4:	14025703 	strne	r5, [r2], #-1795	; 0x703
    8fa8:	0a000015 	beq	9004 <__resume1_start+0x9004>
    8fac:	000002c6 	andeq	r0, r0, r6, asr #5
    8fb0:	5e025903 	cdppl	9, 0, cr5, cr2, cr3, {0}
    8fb4:	0a000000 	beq	8fbc <__resume1_start+0x8fbc>
    8fb8:	00000925 	andeq	r0, r0, r5, lsr #18
    8fbc:	b2025f03 	andlt	r5, r2, #12
    8fc0:	00000014 	andeq	r0, r0, r4, lsl r0
    8fc4:	00090f0b 	andeq	r0, r9, fp, lsl #30
    8fc8:	02600300 	rsbeq	r0, r0, #0
    8fcc:	000014f2 	strdeq	r1, [r0], -r2
    8fd0:	6503040c 	strvs	r0, [r3, #-1036]	; 0x40c
    8fd4:	00156002 	andseq	r6, r5, r2
    8fd8:	0e460900 	cdpeq	9, 4, cr0, cr6, cr0, {0}
    8fdc:	67030000 	strvs	r0, [r3, -r0]
    8fe0:	00005e02 	andeq	r5, r0, r2, lsl #28
    8fe4:	10100400 	andsne	r0, r0, r0, lsl #8
    8fe8:	09002302 	stmdbeq	r0, {r1, r8, r9, sp}
    8fec:	00000ebb 			; <UNDEFINED> instruction: 0x00000ebb
    8ff0:	5e026803 	cdppl	8, 0, cr6, cr2, cr3, {0}
    8ff4:	04000000 	streq	r0, [r0], #-0
    8ff8:	23020b05 	movwcs	r0, #11013	; 0x2b05
    8ffc:	0e4b0900 	cdpeq	9, 4, cr0, cr11, cr0, {0}
    9000:	69030000 	stmdbvs	r3, {}	; <UNPREDICTABLE>
    9004:	00005e02 	andeq	r5, r0, r2, lsl #28
    9008:	000b0400 	andeq	r0, fp, r0, lsl #8
    900c:	00002302 	andeq	r2, r0, r2, lsl #6
    9010:	6203040d 	andvs	r0, r3, #218103808	; 0xd000000
    9014:	00158202 	andseq	r8, r5, r2, lsl #4
    9018:	02c60a00 	sbceq	r0, r6, #0
    901c:	64030000 	strvs	r0, [r3], #-0
    9020:	00005e02 	andeq	r5, r0, r2, lsl #28
    9024:	09250a00 	stmdbeq	r5!, {r9, fp}
    9028:	6a030000 	bvs	c9030 <__bss_end+0xb5ee4>
    902c:	00152002 	andseq	r2, r5, r2
    9030:	370b0000 	strcc	r0, [fp, -r0]
    9034:	0300000f 	movweq	r0, #15
    9038:	1560026b 	strbne	r0, [r0, #-619]!	; 0x26b
    903c:	040c0000 	streq	r0, [ip], #-0
    9040:	ce027003 	cdpgt	0, 0, cr7, cr2, cr3, {0}
    9044:	09000015 	stmdbeq	r0, {r0, r2, r4}
    9048:	00000e46 	andeq	r0, r0, r6, asr #28
    904c:	5e027203 	cdppl	2, 0, cr7, cr2, cr3, {0}
    9050:	04000000 	streq	r0, [r0], #-0
    9054:	23021010 	movwcs	r1, #8208	; 0x2010
    9058:	0ebb0900 	cdpeq	9, 11, cr0, cr11, cr0, {0}
    905c:	73030000 	movwvc	r0, #12288	; 0x3000
    9060:	00005e02 	andeq	r5, r0, r2, lsl #28
    9064:	0b050400 	bleq	14a06c <__bss_end+0x136f20>
    9068:	09002302 	stmdbeq	r0, {r1, r8, r9, sp}
    906c:	00000e4b 	andeq	r0, r0, fp, asr #28
    9070:	5e027403 	cdppl	4, 0, cr7, cr2, cr3, {0}
    9074:	04000000 	streq	r0, [r0], #-0
    9078:	2302000b 	movwcs	r0, #8203	; 0x200b
    907c:	040d0000 	streq	r0, [sp], #-0
    9080:	f0026d03 			; <UNDEFINED> instruction: 0xf0026d03
    9084:	0a000015 	beq	90e0 <__resume1_start+0x90e0>
    9088:	000002c6 	andeq	r0, r0, r6, asr #5
    908c:	5e026f03 	cdppl	15, 0, cr6, cr2, cr3, {0}
    9090:	0a000000 	beq	9098 <__resume1_start+0x9098>
    9094:	00000925 	andeq	r0, r0, r5, lsr #18
    9098:	8e027503 	cfsh32hi	mvfx7, mvfx2, #3
    909c:	00000015 	andeq	r0, r0, r5, lsl r0
    90a0:	000b7a0b 	andeq	r7, fp, fp, lsl #20
    90a4:	02760300 	rsbseq	r0, r6, #0
    90a8:	000015ce 	andeq	r1, r0, lr, asr #11
    90ac:	7b03040c 	blvc	ca0e4 <__bss_end+0xb6f98>
    90b0:	00163c02 	andseq	r3, r6, r2, lsl #24
    90b4:	0e460900 	cdpeq	9, 4, cr0, cr6, cr0, {0}
    90b8:	7d030000 	stcvc	0, cr0, [r3, #-0]
    90bc:	00005e02 	andeq	r5, r0, r2, lsl #28
    90c0:	10100400 	andsne	r0, r0, r0, lsl #8
    90c4:	09002302 	stmdbeq	r0, {r1, r8, r9, sp}
    90c8:	00000ebb 			; <UNDEFINED> instruction: 0x00000ebb
    90cc:	5e027e03 	cdppl	14, 0, cr7, cr2, cr3, {0}
    90d0:	04000000 	streq	r0, [r0], #-0
    90d4:	23020b05 	movwcs	r0, #11013	; 0x2b05
    90d8:	0e4b0900 	cdpeq	9, 4, cr0, cr11, cr0, {0}
    90dc:	7f030000 	svcvc	0x00030000
    90e0:	00005e02 	andeq	r5, r0, r2, lsl #28
    90e4:	000b0400 	andeq	r0, fp, r0, lsl #8
    90e8:	00002302 	andeq	r2, r0, r2, lsl #6
    90ec:	7803040d 	stmdavc	r3, {r0, r2, r3, sl}
    90f0:	00165e02 	andseq	r5, r6, r2, lsl #28
    90f4:	02c60a00 	sbceq	r0, r6, #0
    90f8:	7a030000 	bvc	c9100 <__bss_end+0xb5fb4>
    90fc:	00005e02 	andeq	r5, r0, r2, lsl #28
    9100:	09250a00 	stmdbeq	r5!, {r9, fp}
    9104:	80030000 	andhi	r0, r3, r0
    9108:	0015fc02 	andseq	pc, r5, r2, lsl #24
    910c:	100b0000 	andne	r0, fp, r0
    9110:	0300000c 	movweq	r0, #12
    9114:	163c0281 	ldrtne	r0, [ip], -r1, lsl #5
    9118:	040c0000 	streq	r0, [ip], #-0
    911c:	aa028603 	bge	aa930 <__bss_end+0x977e4>
    9120:	09000016 	stmdbeq	r0, {r1, r2, r4}
    9124:	00000e46 	andeq	r0, r0, r6, asr #28
    9128:	5e028803 	cdppl	8, 0, cr8, cr2, cr3, {0}
    912c:	04000000 	streq	r0, [r0], #-0
    9130:	23021010 	movwcs	r1, #8208	; 0x2010
    9134:	0ebb0900 	cdpeq	9, 11, cr0, cr11, cr0, {0}
    9138:	89030000 	stmdbhi	r3, {}	; <UNPREDICTABLE>
    913c:	00005e02 	andeq	r5, r0, r2, lsl #28
    9140:	0b050400 	bleq	14a148 <__bss_end+0x136ffc>
    9144:	09002302 	stmdbeq	r0, {r1, r8, r9, sp}
    9148:	00000e4b 	andeq	r0, r0, fp, asr #28
    914c:	5e028a03 	vmlapl.f32	s16, s4, s6
    9150:	04000000 	streq	r0, [r0], #-0
    9154:	2302000b 	movwcs	r0, #8203	; 0x200b
    9158:	040d0000 	streq	r0, [sp], #-0
    915c:	cc028303 	stcgt	3, cr8, [r2], {3}
    9160:	0a000016 	beq	91c0 <__resume1_start+0x91c0>
    9164:	000002c6 	andeq	r0, r0, r6, asr #5
    9168:	5e028503 	cfsh32pl	mvfx8, mvfx2, #3
    916c:	0a000000 	beq	9174 <__resume1_start+0x9174>
    9170:	00000925 	andeq	r0, r0, r5, lsr #18
    9174:	6a028b03 	bvs	abd88 <__bss_end+0x98c3c>
    9178:	00000016 	andeq	r0, r0, r6, lsl r0
    917c:	000e9a0b 	andeq	r9, lr, fp, lsl #20
    9180:	028c0300 	addeq	r0, ip, #0
    9184:	000016aa 	andeq	r1, r0, sl, lsr #13
    9188:	9103040c 	tstls	r3, ip, lsl #8
    918c:	00179602 	andseq	r9, r7, r2, lsl #12
    9190:	0b720900 	bleq	1c8b598 <__bss_end+0x1c7844c>
    9194:	93030000 	movwls	r0, #12288	; 0x3000
    9198:	00005e02 	andeq	r5, r0, r2, lsl #28
    919c:	19070400 	stmdbne	r7, {sl}
    91a0:	09002302 	stmdbeq	r0, {r1, r8, r9, sp}
    91a4:	00000e5a 	andeq	r0, r0, sl, asr lr
    91a8:	5e029403 	cdppl	4, 0, cr9, cr2, cr3, {0}
    91ac:	04000000 	streq	r0, [r0], #-0
    91b0:	23021801 	movwcs	r1, #10241	; 0x2801
    91b4:	09d60900 	ldmibeq	r6, {r8, fp}^
    91b8:	95030000 	strls	r0, [r3, #-0]
    91bc:	00005e02 	andeq	r5, r0, r2, lsl #28
    91c0:	11070400 	tstne	r7, r0, lsl #8
    91c4:	09002302 	stmdbeq	r0, {r1, r8, r9, sp}
    91c8:	00000c5c 	andeq	r0, r0, ip, asr ip
    91cc:	5e029603 	cfmadd32pl	mvax0, mvfx9, mvfx2, mvfx3
    91d0:	04000000 	streq	r0, [r0], #-0
    91d4:	23021001 	movwcs	r1, #8193	; 0x2001
    91d8:	0e600900 	cdpeq	9, 6, cr0, cr0, cr0, {0}
    91dc:	97030000 	strls	r0, [r3, -r0]
    91e0:	00005e02 	andeq	r5, r0, r2, lsl #28
    91e4:	09070400 	stmdbeq	r7, {sl}
    91e8:	09002302 	stmdbeq	r0, {r1, r8, r9, sp}
    91ec:	00000e46 	andeq	r0, r0, r6, asr #28
    91f0:	5e029803 	cdppl	8, 0, cr9, cr2, cr3, {0}
    91f4:	04000000 	streq	r0, [r0], #-0
    91f8:	23020801 	movwcs	r0, #10241	; 0x2801
    91fc:	046c0900 	strbteq	r0, [ip], #-2304	; 0x900
    9200:	99030000 	stmdbls	r3, {}	; <UNPREDICTABLE>
    9204:	00005e02 	andeq	r5, r0, r2, lsl #28
    9208:	05030400 	streq	r0, [r3, #-1024]	; 0x400
    920c:	09002302 	stmdbeq	r0, {r1, r8, r9, sp}
    9210:	00000e4b 	andeq	r0, r0, fp, asr #28
    9214:	5e029a03 	vmlapl.f32	s18, s4, s6
    9218:	04000000 	streq	r0, [r0], #-0
    921c:	23020401 	movwcs	r0, #9217	; 0x2401
    9220:	0bd70900 	bleq	ff5cb628 <__bss_end+0xff5b84dc>
    9224:	9b030000 	blls	c922c <__bss_end+0xb60e0>
    9228:	00005e02 	andeq	r5, r0, r2, lsl #28
    922c:	01030400 	tsteq	r3, r0, lsl #8
    9230:	09002302 	stmdbeq	r0, {r1, r8, r9, sp}
    9234:	00000e50 	andeq	r0, r0, r0, asr lr
    9238:	5e029c03 	cdppl	12, 0, cr9, cr2, cr3, {0}
    923c:	04000000 	streq	r0, [r0], #-0
    9240:	23020001 	movwcs	r0, #8193	; 0x2001
    9244:	040d0000 	streq	r0, [sp], #-0
    9248:	b8028e03 	stmdalt	r2, {r0, r1, r9, sl, fp, pc}
    924c:	0a000017 	beq	92b0 <__resume1_start+0x92b0>
    9250:	000002c6 	andeq	r0, r0, r6, asr #5
    9254:	5e029003 	cdppl	0, 0, cr9, cr2, cr3, {0}
    9258:	0a000000 	beq	9260 <__resume1_start+0x9260>
    925c:	00000925 	andeq	r0, r0, r5, lsr #18
    9260:	d8029d03 	stmdale	r2, {r0, r1, r8, sl, fp, ip, pc}
    9264:	00000016 	andeq	r0, r0, r6, lsl r0
    9268:	0008cd0b 	andeq	ip, r8, fp, lsl #26
    926c:	029e0300 	addseq	r0, lr, #0
    9270:	00001796 	muleq	r0, r6, r7
    9274:	a303040c 	movwge	r0, #13324	; 0x340c
    9278:	00188202 	andseq	r8, r8, r2, lsl #4
    927c:	0b720900 	bleq	1c8b684 <__bss_end+0x1c78538>
    9280:	a5030000 	strge	r0, [r3, #-0]
    9284:	00005e02 	andeq	r5, r0, r2, lsl #28
    9288:	19070400 	stmdbne	r7, {sl}
    928c:	09002302 	stmdbeq	r0, {r1, r8, r9, sp}
    9290:	00000e5a 	andeq	r0, r0, sl, asr lr
    9294:	5e02a603 	cfmadd32pl	mvax0, mvfx10, mvfx2, mvfx3
    9298:	04000000 	streq	r0, [r0], #-0
    929c:	23021801 	movwcs	r1, #10241	; 0x2801
    92a0:	09d60900 	ldmibeq	r6, {r8, fp}^
    92a4:	a7030000 	strge	r0, [r3, -r0]
    92a8:	00005e02 	andeq	r5, r0, r2, lsl #28
    92ac:	11070400 	tstne	r7, r0, lsl #8
    92b0:	09002302 	stmdbeq	r0, {r1, r8, r9, sp}
    92b4:	00000c5c 	andeq	r0, r0, ip, asr ip
    92b8:	5e02a803 	cdppl	8, 0, cr10, cr2, cr3, {0}
    92bc:	04000000 	streq	r0, [r0], #-0
    92c0:	23021001 	movwcs	r1, #8193	; 0x2001
    92c4:	0e600900 	cdpeq	9, 6, cr0, cr0, cr0, {0}
    92c8:	a9030000 	stmdbge	r3, {}	; <UNPREDICTABLE>
    92cc:	00005e02 	andeq	r5, r0, r2, lsl #28
    92d0:	09070400 	stmdbeq	r7, {sl}
    92d4:	09002302 	stmdbeq	r0, {r1, r8, r9, sp}
    92d8:	00000e46 	andeq	r0, r0, r6, asr #28
    92dc:	5e02aa03 	vmlapl.f32	s20, s4, s6
    92e0:	04000000 	streq	r0, [r0], #-0
    92e4:	23020801 	movwcs	r0, #10241	; 0x2801
    92e8:	046c0900 	strbteq	r0, [ip], #-2304	; 0x900
    92ec:	ab030000 	blge	c92f4 <__bss_end+0xb61a8>
    92f0:	00005e02 	andeq	r5, r0, r2, lsl #28
    92f4:	05030400 	streq	r0, [r3, #-1024]	; 0x400
    92f8:	09002302 	stmdbeq	r0, {r1, r8, r9, sp}
    92fc:	00000e4b 	andeq	r0, r0, fp, asr #28
    9300:	5e02ac03 	cdppl	12, 0, cr10, cr2, cr3, {0}
    9304:	04000000 	streq	r0, [r0], #-0
    9308:	23020401 	movwcs	r0, #9217	; 0x2401
    930c:	0bd70900 	bleq	ff5cb714 <__bss_end+0xff5b85c8>
    9310:	ad030000 	stcge	0, cr0, [r3, #-0]
    9314:	00005e02 	andeq	r5, r0, r2, lsl #28
    9318:	01030400 	tsteq	r3, r0, lsl #8
    931c:	09002302 	stmdbeq	r0, {r1, r8, r9, sp}
    9320:	00000e50 	andeq	r0, r0, r0, asr lr
    9324:	5e02ae03 	cdppl	14, 0, cr10, cr2, cr3, {0}
    9328:	04000000 	streq	r0, [r0], #-0
    932c:	23020001 	movwcs	r0, #8193	; 0x2001
    9330:	040d0000 	streq	r0, [sp], #-0
    9334:	a402a003 	strge	sl, [r2], #-3
    9338:	0a000018 	beq	93a0 <__resume1_start+0x93a0>
    933c:	000002c6 	andeq	r0, r0, r6, asr #5
    9340:	5e02a203 	cdppl	2, 0, cr10, cr2, cr3, {0}
    9344:	0a000000 	beq	934c <__resume1_start+0x934c>
    9348:	00000925 	andeq	r0, r0, r5, lsr #18
    934c:	c402af03 	strgt	sl, [r2], #-3843	; 0xf03
    9350:	00000017 	andeq	r0, r0, r7, lsl r0
    9354:	00069d0b 	andeq	r9, r6, fp, lsl #26
    9358:	02b00300 	adcseq	r0, r0, #0
    935c:	00001882 	andeq	r1, r0, r2, lsl #17
    9360:	b503040c 	strlt	r0, [r3, #-1036]	; 0x40c
    9364:	00192602 	andseq	r2, r9, r2, lsl #12
    9368:	02e60900 	rsceq	r0, r6, #0
    936c:	b7030000 	strlt	r0, [r3, -r0]
    9370:	00005e02 	andeq	r5, r0, r2, lsl #28
    9374:	0f110400 	svceq	0x00110400
    9378:	09002302 	stmdbeq	r0, {r1, r8, r9, sp}
    937c:	00001734 	andeq	r1, r0, r4, lsr r7
    9380:	5e02b803 	cdppl	8, 0, cr11, cr2, cr3, {0}
    9384:	04000000 	streq	r0, [r0], #-0
    9388:	23020d02 	movwcs	r0, #11522	; 0x2d02
    938c:	0bfa0900 	bleq	ffe8b794 <__bss_end+0xffe78648>
    9390:	b9030000 	stmdblt	r3, {}	; <UNPREDICTABLE>
    9394:	00005e02 	andeq	r5, r0, r2, lsl #28
    9398:	0c010400 	cfstrseq	mvf0, [r1], {-0}
    939c:	09002302 	stmdbeq	r0, {r1, r8, r9, sp}
    93a0:	00000707 	andeq	r0, r0, r7, lsl #14
    93a4:	5e02ba03 	vmlapl.f32	s22, s4, s6
    93a8:	04000000 	streq	r0, [r0], #-0
    93ac:	23020309 	movwcs	r0, #8969	; 0x2309
    93b0:	03070900 	movweq	r0, #30976	; 0x7900
    93b4:	bb030000 	bllt	c93bc <__bss_end+0xb6270>
    93b8:	00005e02 	andeq	r5, r0, r2, lsl #28
    93bc:	01020400 	tsteq	r2, r0, lsl #8
    93c0:	09002302 	stmdbeq	r0, {r1, r8, r9, sp}
    93c4:	000004b6 			; <UNDEFINED> instruction: 0x000004b6
    93c8:	5e02bc03 	cdppl	12, 0, cr11, cr2, cr3, {0}
    93cc:	04000000 	streq	r0, [r0], #-0
    93d0:	23020001 	movwcs	r0, #8193	; 0x2001
    93d4:	040d0000 	streq	r0, [sp], #-0
    93d8:	4802b203 	stmdami	r2, {r0, r1, r9, ip, sp, pc}
    93dc:	0a000019 	beq	9448 <__resume1_start+0x9448>
    93e0:	000002c6 	andeq	r0, r0, r6, asr #5
    93e4:	5e02b403 	cdppl	4, 0, cr11, cr2, cr3, {0}
    93e8:	0a000000 	beq	93f0 <__resume1_start+0x93f0>
    93ec:	00000925 	andeq	r0, r0, r5, lsr #18
    93f0:	b002bd03 	andlt	fp, r2, r3, lsl #26
    93f4:	00000018 	andeq	r0, r0, r8, lsl r0
    93f8:	0002ef0b 	andeq	lr, r2, fp, lsl #30
    93fc:	02be0300 	adcseq	r0, lr, #0
    9400:	00001926 	andeq	r1, r0, r6, lsr #18
    9404:	c303040c 	movwgt	r0, #13324	; 0x340c
    9408:	0019ca02 	andseq	ip, r9, r2, lsl #20
    940c:	02e60900 	rsceq	r0, r6, #0
    9410:	c5030000 	strgt	r0, [r3, #-0]
    9414:	00005e02 	andeq	r5, r0, r2, lsl #28
    9418:	0f110400 	svceq	0x00110400
    941c:	09002302 	stmdbeq	r0, {r1, r8, r9, sp}
    9420:	00001734 	andeq	r1, r0, r4, lsr r7
    9424:	5e02c603 	cfmadd32pl	mvax0, mvfx12, mvfx2, mvfx3
    9428:	04000000 	streq	r0, [r0], #-0
    942c:	23020d02 	movwcs	r0, #11522	; 0x2d02
    9430:	0bfa0900 	bleq	ffe8b838 <__bss_end+0xffe786ec>
    9434:	c7030000 	strgt	r0, [r3, -r0]
    9438:	00005e02 	andeq	r5, r0, r2, lsl #28
    943c:	0c010400 	cfstrseq	mvf0, [r1], {-0}
    9440:	09002302 	stmdbeq	r0, {r1, r8, r9, sp}
    9444:	00000707 	andeq	r0, r0, r7, lsl #14
    9448:	5e02c803 	cdppl	8, 0, cr12, cr2, cr3, {0}
    944c:	04000000 	streq	r0, [r0], #-0
    9450:	23020309 	movwcs	r0, #8969	; 0x2309
    9454:	03070900 	movweq	r0, #30976	; 0x7900
    9458:	c9030000 	stmdbgt	r3, {}	; <UNPREDICTABLE>
    945c:	00005e02 	andeq	r5, r0, r2, lsl #28
    9460:	01020400 	tsteq	r2, r0, lsl #8
    9464:	09002302 	stmdbeq	r0, {r1, r8, r9, sp}
    9468:	000004b6 			; <UNDEFINED> instruction: 0x000004b6
    946c:	5e02ca03 	vmlapl.f32	s24, s4, s6
    9470:	04000000 	streq	r0, [r0], #-0
    9474:	23020001 	movwcs	r0, #8193	; 0x2001
    9478:	040d0000 	streq	r0, [sp], #-0
    947c:	ec02c003 	stc	0, cr12, [r2], {3}
    9480:	0a000019 	beq	94ec <__resume1_start+0x94ec>
    9484:	000002c6 	andeq	r0, r0, r6, asr #5
    9488:	5e02c203 	cdppl	2, 0, cr12, cr2, cr3, {0}
    948c:	0a000000 	beq	9494 <__resume1_start+0x9494>
    9490:	00000925 	andeq	r0, r0, r5, lsr #18
    9494:	5402cb03 	strpl	ip, [r2], #-2819	; 0xb03
    9498:	00000019 	andeq	r0, r0, r9, lsl r0
    949c:	000ab70b 	andeq	fp, sl, fp, lsl #14
    94a0:	02cc0300 	sbceq	r0, ip, #0
    94a4:	000019ca 	andeq	r1, r0, sl, asr #19
    94a8:	d103040c 	tstle	r3, ip, lsl #8
    94ac:	001a6e02 	andseq	r6, sl, r2, lsl #28
    94b0:	02e60900 	rsceq	r0, r6, #0
    94b4:	d3030000 	movwle	r0, #12288	; 0x3000
    94b8:	00005e02 	andeq	r5, r0, r2, lsl #28
    94bc:	0f110400 	svceq	0x00110400
    94c0:	09002302 	stmdbeq	r0, {r1, r8, r9, sp}
    94c4:	00001734 	andeq	r1, r0, r4, lsr r7
    94c8:	5e02d403 	cdppl	4, 0, cr13, cr2, cr3, {0}
    94cc:	04000000 	streq	r0, [r0], #-0
    94d0:	23020d02 	movwcs	r0, #11522	; 0x2d02
    94d4:	0bfa0900 	bleq	ffe8b8dc <__bss_end+0xffe78790>
    94d8:	d5030000 	strle	r0, [r3, #-0]
    94dc:	00005e02 	andeq	r5, r0, r2, lsl #28
    94e0:	0c010400 	cfstrseq	mvf0, [r1], {-0}
    94e4:	09002302 	stmdbeq	r0, {r1, r8, r9, sp}
    94e8:	00000707 	andeq	r0, r0, r7, lsl #14
    94ec:	5e02d603 	cfmadd32pl	mvax0, mvfx13, mvfx2, mvfx3
    94f0:	04000000 	streq	r0, [r0], #-0
    94f4:	23020309 	movwcs	r0, #8969	; 0x2309
    94f8:	03070900 	movweq	r0, #30976	; 0x7900
    94fc:	d7030000 	strle	r0, [r3, -r0]
    9500:	00005e02 	andeq	r5, r0, r2, lsl #28
    9504:	01020400 	tsteq	r2, r0, lsl #8
    9508:	09002302 	stmdbeq	r0, {r1, r8, r9, sp}
    950c:	000004b6 			; <UNDEFINED> instruction: 0x000004b6
    9510:	5e02d803 	cdppl	8, 0, cr13, cr2, cr3, {0}
    9514:	04000000 	streq	r0, [r0], #-0
    9518:	23020001 	movwcs	r0, #8193	; 0x2001
    951c:	040d0000 	streq	r0, [sp], #-0
    9520:	9002ce03 	andls	ip, r2, r3, lsl #28
    9524:	0a00001a 	beq	9594 <__resume1_start+0x9594>
    9528:	000002c6 	andeq	r0, r0, r6, asr #5
    952c:	5e02d003 	cdppl	0, 0, cr13, cr2, cr3, {0}
    9530:	0a000000 	beq	9538 <__resume1_start+0x9538>
    9534:	00000925 	andeq	r0, r0, r5, lsr #18
    9538:	f802d903 			; <UNDEFINED> instruction: 0xf802d903
    953c:	00000019 	andeq	r0, r0, r9, lsl r0
    9540:	000e0a0b 	andeq	r0, lr, fp, lsl #20
    9544:	02da0300 	sbcseq	r0, sl, #0
    9548:	00001a6e 	andeq	r1, r0, lr, ror #20
    954c:	df03040c 	svcle	0x0003040c
    9550:	001b1202 	andseq	r1, fp, r2, lsl #4
    9554:	02e60900 	rsceq	r0, r6, #0
    9558:	e1030000 	mrs	r0, (UNDEF: 3)
    955c:	00005e02 	andeq	r5, r0, r2, lsl #28
    9560:	0f110400 	svceq	0x00110400
    9564:	09002302 	stmdbeq	r0, {r1, r8, r9, sp}
    9568:	00001734 	andeq	r1, r0, r4, lsr r7
    956c:	5e02e203 	cdppl	2, 0, cr14, cr2, cr3, {0}
    9570:	04000000 	streq	r0, [r0], #-0
    9574:	23020d02 	movwcs	r0, #11522	; 0x2d02
    9578:	0bfa0900 	bleq	ffe8b980 <__bss_end+0xffe78834>
    957c:	e3030000 	movw	r0, #12288	; 0x3000
    9580:	00005e02 	andeq	r5, r0, r2, lsl #28
    9584:	0c010400 	cfstrseq	mvf0, [r1], {-0}
    9588:	09002302 	stmdbeq	r0, {r1, r8, r9, sp}
    958c:	00000707 	andeq	r0, r0, r7, lsl #14
    9590:	5e02e403 	cdppl	4, 0, cr14, cr2, cr3, {0}
    9594:	04000000 	streq	r0, [r0], #-0
    9598:	23020309 	movwcs	r0, #8969	; 0x2309
    959c:	03070900 	movweq	r0, #30976	; 0x7900
    95a0:	e5030000 	str	r0, [r3, #-0]
    95a4:	00005e02 	andeq	r5, r0, r2, lsl #28
    95a8:	01020400 	tsteq	r2, r0, lsl #8
    95ac:	09002302 	stmdbeq	r0, {r1, r8, r9, sp}
    95b0:	000004b6 			; <UNDEFINED> instruction: 0x000004b6
    95b4:	5e02e603 	cfmadd32pl	mvax0, mvfx14, mvfx2, mvfx3
    95b8:	04000000 	streq	r0, [r0], #-0
    95bc:	23020001 	movwcs	r0, #8193	; 0x2001
    95c0:	040d0000 	streq	r0, [sp], #-0
    95c4:	3402dc03 	strcc	sp, [r2], #-3075	; 0xc03
    95c8:	0a00001b 	beq	963c <__resume1_start+0x963c>
    95cc:	000002c6 	andeq	r0, r0, r6, asr #5
    95d0:	5e02de03 	cdppl	14, 0, cr13, cr2, cr3, {0}
    95d4:	0a000000 	beq	95dc <__resume1_start+0x95dc>
    95d8:	00000925 	andeq	r0, r0, r5, lsr #18
    95dc:	9c02e703 	stcls	7, cr14, [r2], {3}
    95e0:	0000001a 	andeq	r0, r0, sl, lsl r0
    95e4:	00095b0b 	andeq	r5, r9, fp, lsl #22
    95e8:	02e80300 	rsceq	r0, r8, #0
    95ec:	00001b12 	andeq	r1, r0, r2, lsl fp
    95f0:	ed03040c 	cfstrs	mvf0, [r3, #-48]	; 0xffffffd0
    95f4:	001bb602 	andseq	fp, fp, r2, lsl #12
    95f8:	02e60900 	rsceq	r0, r6, #0
    95fc:	ef030000 	svc	0x00030000
    9600:	00005e02 	andeq	r5, r0, r2, lsl #28
    9604:	0f110400 	svceq	0x00110400
    9608:	09002302 	stmdbeq	r0, {r1, r8, r9, sp}
    960c:	00001734 	andeq	r1, r0, r4, lsr r7
    9610:	5e02f003 	cdppl	0, 0, cr15, cr2, cr3, {0}
    9614:	04000000 	streq	r0, [r0], #-0
    9618:	23020d02 	movwcs	r0, #11522	; 0x2d02
    961c:	0bfa0900 	bleq	ffe8ba24 <__bss_end+0xffe788d8>
    9620:	f1030000 			; <UNDEFINED> instruction: 0xf1030000
    9624:	00005e02 	andeq	r5, r0, r2, lsl #28
    9628:	0c010400 	cfstrseq	mvf0, [r1], {-0}
    962c:	09002302 	stmdbeq	r0, {r1, r8, r9, sp}
    9630:	00000707 	andeq	r0, r0, r7, lsl #14
    9634:	5e02f203 	cdppl	2, 0, cr15, cr2, cr3, {0}
    9638:	04000000 	streq	r0, [r0], #-0
    963c:	23020309 	movwcs	r0, #8969	; 0x2309
    9640:	03070900 	movweq	r0, #30976	; 0x7900
    9644:	f3030000 	vhadd.u8	d0, d3, d0
    9648:	00005e02 	andeq	r5, r0, r2, lsl #28
    964c:	01020400 	tsteq	r2, r0, lsl #8
    9650:	09002302 	stmdbeq	r0, {r1, r8, r9, sp}
    9654:	000004b6 			; <UNDEFINED> instruction: 0x000004b6
    9658:	5e02f403 	cdppl	4, 0, cr15, cr2, cr3, {0}
    965c:	04000000 	streq	r0, [r0], #-0
    9660:	23020001 	movwcs	r0, #8193	; 0x2001
    9664:	040d0000 	streq	r0, [sp], #-0
    9668:	d802ea03 	stmdale	r2, {r0, r1, r9, fp, sp, lr, pc}
    966c:	0a00001b 	beq	96e0 <__resume1_start+0x96e0>
    9670:	000002c6 	andeq	r0, r0, r6, asr #5
    9674:	5e02ec03 	cdppl	12, 0, cr14, cr2, cr3, {0}
    9678:	0a000000 	beq	9680 <__resume1_start+0x9680>
    967c:	00000925 	andeq	r0, r0, r5, lsr #18
    9680:	4002f503 	andmi	pc, r2, r3, lsl #10
    9684:	0000001b 	andeq	r0, r0, fp, lsl r0
    9688:	0005fe0b 	andeq	pc, r5, fp, lsl #28
    968c:	02f60300 	rscseq	r0, r6, #0
    9690:	00001bb6 			; <UNDEFINED> instruction: 0x00001bb6
    9694:	fb03040c 	blx	ca6ce <__bss_end+0xb7582>
    9698:	001c5a02 	andseq	r5, ip, r2, lsl #20
    969c:	02e60900 	rsceq	r0, r6, #0
    96a0:	fd030000 	stc2	0, cr0, [r3, #-0]
    96a4:	00005e02 	andeq	r5, r0, r2, lsl #28
    96a8:	0f110400 	svceq	0x00110400
    96ac:	09002302 	stmdbeq	r0, {r1, r8, r9, sp}
    96b0:	00001734 	andeq	r1, r0, r4, lsr r7
    96b4:	5e02fe03 	cdppl	14, 0, cr15, cr2, cr3, {0}
    96b8:	04000000 	streq	r0, [r0], #-0
    96bc:	23020d02 	movwcs	r0, #11522	; 0x2d02
    96c0:	0bfa0900 	bleq	ffe8bac8 <__bss_end+0xffe7897c>
    96c4:	ff030000 			; <UNDEFINED> instruction: 0xff030000
    96c8:	00005e02 	andeq	r5, r0, r2, lsl #28
    96cc:	0c010400 	cfstrseq	mvf0, [r1], {-0}
    96d0:	09002302 	stmdbeq	r0, {r1, r8, r9, sp}
    96d4:	00000707 	andeq	r0, r0, r7, lsl #14
    96d8:	5e030003 	cdppl	0, 0, cr0, cr3, cr3, {0}
    96dc:	04000000 	streq	r0, [r0], #-0
    96e0:	23020309 	movwcs	r0, #8969	; 0x2309
    96e4:	03070900 	movweq	r0, #30976	; 0x7900
    96e8:	01030000 	mrseq	r0, (UNDEF: 3)
    96ec:	00005e03 	andeq	r5, r0, r3, lsl #28
    96f0:	01020400 	tsteq	r2, r0, lsl #8
    96f4:	09002302 	stmdbeq	r0, {r1, r8, r9, sp}
    96f8:	000004b6 			; <UNDEFINED> instruction: 0x000004b6
    96fc:	5e030203 	cdppl	2, 0, cr0, cr3, cr3, {0}
    9700:	04000000 	streq	r0, [r0], #-0
    9704:	23020001 	movwcs	r0, #8193	; 0x2001
    9708:	040d0000 	streq	r0, [sp], #-0
    970c:	7c02f803 	stcvc	8, cr15, [r2], {3}
    9710:	0a00001c 	beq	9788 <__resume1_start+0x9788>
    9714:	000002c6 	andeq	r0, r0, r6, asr #5
    9718:	5e02fa03 	vmlapl.f32	s30, s4, s6
    971c:	0a000000 	beq	9724 <__resume1_start+0x9724>
    9720:	00000925 	andeq	r0, r0, r5, lsr #18
    9724:	e4030303 	str	r0, [r3], #-771	; 0x303
    9728:	0000001b 	andeq	r0, r0, fp, lsl r0
    972c:	0005e50b 	andeq	lr, r5, fp, lsl #10
    9730:	03040300 	movweq	r0, #17152	; 0x4300
    9734:	00001c5a 	andeq	r1, r0, sl, asr ip
    9738:	0903040c 	stmdbeq	r3, {r2, r3, sl}
    973c:	001cfe03 	andseq	pc, ip, r3, lsl #28
    9740:	02e60900 	rsceq	r0, r6, #0
    9744:	0b030000 	bleq	c974c <__bss_end+0xb6600>
    9748:	00005e03 	andeq	r5, r0, r3, lsl #28
    974c:	0f110400 	svceq	0x00110400
    9750:	09002302 	stmdbeq	r0, {r1, r8, r9, sp}
    9754:	00001734 	andeq	r1, r0, r4, lsr r7
    9758:	5e030c03 	cdppl	12, 0, cr0, cr3, cr3, {0}
    975c:	04000000 	streq	r0, [r0], #-0
    9760:	23020d02 	movwcs	r0, #11522	; 0x2d02
    9764:	0bfa0900 	bleq	ffe8bb6c <__bss_end+0xffe78a20>
    9768:	0d030000 	stceq	0, cr0, [r3, #-0]
    976c:	00005e03 	andeq	r5, r0, r3, lsl #28
    9770:	0c010400 	cfstrseq	mvf0, [r1], {-0}
    9774:	09002302 	stmdbeq	r0, {r1, r8, r9, sp}
    9778:	00000707 	andeq	r0, r0, r7, lsl #14
    977c:	5e030e03 	cdppl	14, 0, cr0, cr3, cr3, {0}
    9780:	04000000 	streq	r0, [r0], #-0
    9784:	23020309 	movwcs	r0, #8969	; 0x2309
    9788:	03070900 	movweq	r0, #30976	; 0x7900
    978c:	0f030000 	svceq	0x00030000
    9790:	00005e03 	andeq	r5, r0, r3, lsl #28
    9794:	01020400 	tsteq	r2, r0, lsl #8
    9798:	09002302 	stmdbeq	r0, {r1, r8, r9, sp}
    979c:	000004b6 			; <UNDEFINED> instruction: 0x000004b6
    97a0:	5e031003 	cdppl	0, 0, cr1, cr3, cr3, {0}
    97a4:	04000000 	streq	r0, [r0], #-0
    97a8:	23020001 	movwcs	r0, #8193	; 0x2001
    97ac:	040d0000 	streq	r0, [sp], #-0
    97b0:	20030603 	andcs	r0, r3, r3, lsl #12
    97b4:	0a00001d 	beq	9830 <__resume1_start+0x9830>
    97b8:	000002c6 	andeq	r0, r0, r6, asr #5
    97bc:	5e030803 	cdppl	8, 0, cr0, cr3, cr3, {0}
    97c0:	0a000000 	beq	97c8 <__resume1_start+0x97c8>
    97c4:	00000925 	andeq	r0, r0, r5, lsr #18
    97c8:	88031103 	stmdahi	r3, {r0, r1, r8, ip}
    97cc:	0000001c 	andeq	r0, r0, ip, lsl r0
    97d0:	000ec90b 	andeq	ip, lr, fp, lsl #18
    97d4:	03120300 	tsteq	r2, #0
    97d8:	00001cfe 	strdeq	r1, [r0], -lr
    97dc:	1703040c 	strne	r0, [r3, -ip, lsl #8]
    97e0:	001da203 	andseq	sl, sp, r3, lsl #4
    97e4:	02e60900 	rsceq	r0, r6, #0
    97e8:	19030000 	stmdbne	r3, {}	; <UNPREDICTABLE>
    97ec:	00005e03 	andeq	r5, r0, r3, lsl #28
    97f0:	0f110400 	svceq	0x00110400
    97f4:	09002302 	stmdbeq	r0, {r1, r8, r9, sp}
    97f8:	00001734 	andeq	r1, r0, r4, lsr r7
    97fc:	5e031a03 	vmlapl.f32	s2, s6, s6
    9800:	04000000 	streq	r0, [r0], #-0
    9804:	23020d02 	movwcs	r0, #11522	; 0x2d02
    9808:	0bfa0900 	bleq	ffe8bc10 <__bss_end+0xffe78ac4>
    980c:	1b030000 	blne	c9814 <__bss_end+0xb66c8>
    9810:	00005e03 	andeq	r5, r0, r3, lsl #28
    9814:	0c010400 	cfstrseq	mvf0, [r1], {-0}
    9818:	09002302 	stmdbeq	r0, {r1, r8, r9, sp}
    981c:	00000707 	andeq	r0, r0, r7, lsl #14
    9820:	5e031c03 	cdppl	12, 0, cr1, cr3, cr3, {0}
    9824:	04000000 	streq	r0, [r0], #-0
    9828:	23020309 	movwcs	r0, #8969	; 0x2309
    982c:	03070900 	movweq	r0, #30976	; 0x7900
    9830:	1d030000 	stcne	0, cr0, [r3, #-0]
    9834:	00005e03 	andeq	r5, r0, r3, lsl #28
    9838:	01020400 	tsteq	r2, r0, lsl #8
    983c:	09002302 	stmdbeq	r0, {r1, r8, r9, sp}
    9840:	000004b6 			; <UNDEFINED> instruction: 0x000004b6
    9844:	5e031e03 	cdppl	14, 0, cr1, cr3, cr3, {0}
    9848:	04000000 	streq	r0, [r0], #-0
    984c:	23020001 	movwcs	r0, #8193	; 0x2001
    9850:	040d0000 	streq	r0, [sp], #-0
    9854:	c4031403 	strgt	r1, [r3], #-1027	; 0x403
    9858:	0a00001d 	beq	98d4 <__resume1_start+0x98d4>
    985c:	000002c6 	andeq	r0, r0, r6, asr #5
    9860:	5e031603 	cfmadd32pl	mvax0, mvfx1, mvfx3, mvfx3
    9864:	0a000000 	beq	986c <__resume1_start+0x986c>
    9868:	00000925 	andeq	r0, r0, r5, lsr #18
    986c:	2c031f03 	stccs	15, cr1, [r3], {3}
    9870:	0000001d 	andeq	r0, r0, sp, lsl r0
    9874:	0008fa0b 	andeq	pc, r8, fp, lsl #20
    9878:	03200300 	teqeq	r0, #0
    987c:	00001da2 	andeq	r1, r0, r2, lsr #27
    9880:	2503040c 	strcs	r0, [r3, #-1036]	; 0x40c
    9884:	001e4603 	andseq	r4, lr, r3, lsl #12
    9888:	02e60900 	rsceq	r0, r6, #0
    988c:	27030000 	strcs	r0, [r3, -r0]
    9890:	00005e03 	andeq	r5, r0, r3, lsl #28
    9894:	0f110400 	svceq	0x00110400
    9898:	09002302 	stmdbeq	r0, {r1, r8, r9, sp}
    989c:	00001734 	andeq	r1, r0, r4, lsr r7
    98a0:	5e032803 	cdppl	8, 0, cr2, cr3, cr3, {0}
    98a4:	04000000 	streq	r0, [r0], #-0
    98a8:	23020d02 	movwcs	r0, #11522	; 0x2d02
    98ac:	0bfa0900 	bleq	ffe8bcb4 <__bss_end+0xffe78b68>
    98b0:	29030000 	stmdbcs	r3, {}	; <UNPREDICTABLE>
    98b4:	00005e03 	andeq	r5, r0, r3, lsl #28
    98b8:	0c010400 	cfstrseq	mvf0, [r1], {-0}
    98bc:	09002302 	stmdbeq	r0, {r1, r8, r9, sp}
    98c0:	00000707 	andeq	r0, r0, r7, lsl #14
    98c4:	5e032a03 	vmlapl.f32	s4, s6, s6
    98c8:	04000000 	streq	r0, [r0], #-0
    98cc:	23020309 	movwcs	r0, #8969	; 0x2309
    98d0:	03070900 	movweq	r0, #30976	; 0x7900
    98d4:	2b030000 	blcs	c98dc <__bss_end+0xb6790>
    98d8:	00005e03 	andeq	r5, r0, r3, lsl #28
    98dc:	01020400 	tsteq	r2, r0, lsl #8
    98e0:	09002302 	stmdbeq	r0, {r1, r8, r9, sp}
    98e4:	000004b6 			; <UNDEFINED> instruction: 0x000004b6
    98e8:	5e032c03 	cdppl	12, 0, cr2, cr3, cr3, {0}
    98ec:	04000000 	streq	r0, [r0], #-0
    98f0:	23020001 	movwcs	r0, #8193	; 0x2001
    98f4:	040d0000 	streq	r0, [sp], #-0
    98f8:	68032203 	stmdavs	r3, {r0, r1, r9, sp}
    98fc:	0a00001e 	beq	997c <__resume1_start+0x997c>
    9900:	000002c6 	andeq	r0, r0, r6, asr #5
    9904:	5e032403 	cdppl	4, 0, cr2, cr3, cr3, {0}
    9908:	0a000000 	beq	9910 <__resume1_start+0x9910>
    990c:	00000925 	andeq	r0, r0, r5, lsr #18
    9910:	d0032d03 	andle	r2, r3, r3, lsl #26
    9914:	0000001d 	andeq	r0, r0, sp, lsl r0
    9918:	0008010b 	andeq	r0, r8, fp, lsl #2
    991c:	032e0300 	teqeq	lr, #0
    9920:	00001e46 	andeq	r1, r0, r6, asr #28
    9924:	3303040c 	movwcc	r0, #13324	; 0x340c
    9928:	001eea03 	andseq	lr, lr, r3, lsl #20
    992c:	02e60900 	rsceq	r0, r6, #0
    9930:	35030000 	strcc	r0, [r3, #-0]
    9934:	00005e03 	andeq	r5, r0, r3, lsl #28
    9938:	0f110400 	svceq	0x00110400
    993c:	09002302 	stmdbeq	r0, {r1, r8, r9, sp}
    9940:	00001734 	andeq	r1, r0, r4, lsr r7
    9944:	5e033603 	cfmadd32pl	mvax0, mvfx3, mvfx3, mvfx3
    9948:	04000000 	streq	r0, [r0], #-0
    994c:	23020d02 	movwcs	r0, #11522	; 0x2d02
    9950:	0bfa0900 	bleq	ffe8bd58 <__bss_end+0xffe78c0c>
    9954:	37030000 	strcc	r0, [r3, -r0]
    9958:	00005e03 	andeq	r5, r0, r3, lsl #28
    995c:	0c010400 	cfstrseq	mvf0, [r1], {-0}
    9960:	09002302 	stmdbeq	r0, {r1, r8, r9, sp}
    9964:	00000707 	andeq	r0, r0, r7, lsl #14
    9968:	5e033803 	cdppl	8, 0, cr3, cr3, cr3, {0}
    996c:	04000000 	streq	r0, [r0], #-0
    9970:	23020309 	movwcs	r0, #8969	; 0x2309
    9974:	03070900 	movweq	r0, #30976	; 0x7900
    9978:	39030000 	stmdbcc	r3, {}	; <UNPREDICTABLE>
    997c:	00005e03 	andeq	r5, r0, r3, lsl #28
    9980:	01020400 	tsteq	r2, r0, lsl #8
    9984:	09002302 	stmdbeq	r0, {r1, r8, r9, sp}
    9988:	000004b6 			; <UNDEFINED> instruction: 0x000004b6
    998c:	5e033a03 	vmlapl.f32	s6, s6, s6
    9990:	04000000 	streq	r0, [r0], #-0
    9994:	23020001 	movwcs	r0, #8193	; 0x2001
    9998:	040d0000 	streq	r0, [sp], #-0
    999c:	0c033003 	stceq	0, cr3, [r3], {3}
    99a0:	0a00001f 	beq	9a24 <__resume1_start+0x9a24>
    99a4:	000002c6 	andeq	r0, r0, r6, asr #5
    99a8:	5e033203 	cdppl	2, 0, cr3, cr3, cr3, {0}
    99ac:	0a000000 	beq	99b4 <__resume1_start+0x99b4>
    99b0:	00000925 	andeq	r0, r0, r5, lsr #18
    99b4:	74033b03 	strvc	r3, [r3], #-2819	; 0xb03
    99b8:	0000001e 	andeq	r0, r0, lr, lsl r0
    99bc:	0009390b 	andeq	r3, r9, fp, lsl #18
    99c0:	033c0300 	teqeq	ip, #0
    99c4:	00001eea 	andeq	r1, r0, sl, ror #29
    99c8:	4103040c 	tstmi	r3, ip, lsl #8
    99cc:	001fb203 	andseq	fp, pc, r3, lsl #4
    99d0:	0e460900 	cdpeq	9, 4, cr0, cr6, cr0, {0}
    99d4:	43030000 	movwmi	r0, #12288	; 0x3000
    99d8:	00005e03 	andeq	r5, r0, r3, lsl #28
    99dc:	18080400 	stmdane	r8, {sl}
    99e0:	09002302 	stmdbeq	r0, {r1, r8, r9, sp}
    99e4:	0000055b 	andeq	r0, r0, fp, asr r5
    99e8:	5e034403 	cdppl	4, 0, cr4, cr3, cr3, {0}
    99ec:	04000000 	streq	r0, [r0], #-0
    99f0:	23021305 	movwcs	r1, #8965	; 0x2305
    99f4:	0e4b0900 	cdpeq	9, 4, cr0, cr11, cr0, {0}
    99f8:	45030000 	strmi	r0, [r3, #-0]
    99fc:	00005e03 	andeq	r5, r0, r3, lsl #28
    9a00:	0c070400 	cfstrseq	mvf0, [r7], {-0}
    9a04:	09002302 	stmdbeq	r0, {r1, r8, r9, sp}
    9a08:	00000565 	andeq	r0, r0, r5, ror #10
    9a0c:	5e034603 	cfmadd32pl	mvax0, mvfx4, mvfx3, mvfx3
    9a10:	04000000 	streq	r0, [r0], #-0
    9a14:	23020a02 	movwcs	r0, #10754	; 0x2a02
    9a18:	0e500900 	cdpeq	9, 5, cr0, cr0, cr0, {0}
    9a1c:	47030000 	strmi	r0, [r3, -r0]
    9a20:	00005e03 	andeq	r5, r0, r3, lsl #28
    9a24:	08020400 	stmdaeq	r2, {sl}
    9a28:	09002302 	stmdbeq	r0, {r1, r8, r9, sp}
    9a2c:	00000d67 	andeq	r0, r0, r7, ror #26
    9a30:	5e034803 	cdppl	8, 0, cr4, cr3, cr3, {0}
    9a34:	04000000 	streq	r0, [r0], #-0
    9a38:	23020602 	movwcs	r0, #9730	; 0x2602
    9a3c:	0e550900 	cdpeq	9, 5, cr0, cr5, cr0, {0}
    9a40:	49030000 	stmdbmi	r3, {}	; <UNPREDICTABLE>
    9a44:	00005e03 	andeq	r5, r0, r3, lsl #28
    9a48:	01050400 	tsteq	r5, r0, lsl #8
    9a4c:	09002302 	stmdbeq	r0, {r1, r8, r9, sp}
    9a50:	00000692 	muleq	r0, r2, r6
    9a54:	5e034a03 	vmlapl.f32	s8, s6, s6
    9a58:	04000000 	streq	r0, [r0], #-0
    9a5c:	23020001 	movwcs	r0, #8193	; 0x2001
    9a60:	040d0000 	streq	r0, [sp], #-0
    9a64:	d4033e03 	strle	r3, [r3], #-3587	; 0xe03
    9a68:	0a00001f 	beq	9aec <__resume1_start+0x9aec>
    9a6c:	000002c6 	andeq	r0, r0, r6, asr #5
    9a70:	5e034003 	cdppl	0, 0, cr4, cr3, cr3, {0}
    9a74:	0a000000 	beq	9a7c <__resume1_start+0x9a7c>
    9a78:	00000925 	andeq	r0, r0, r5, lsr #18
    9a7c:	18034b03 	stmdane	r3, {r0, r1, r8, r9, fp, lr}
    9a80:	0000001f 	andeq	r0, r0, pc, lsl r0
    9a84:	000b9e0b 	andeq	r9, fp, fp, lsl #28
    9a88:	034c0300 	movteq	r0, #49920	; 0xc300
    9a8c:	00001fb2 			; <UNDEFINED> instruction: 0x00001fb2
    9a90:	5103040c 	tstpl	r3, ip, lsl #8
    9a94:	00207a03 	eoreq	r7, r0, r3, lsl #20
    9a98:	0e460900 	cdpeq	9, 4, cr0, cr6, cr0, {0}
    9a9c:	53030000 	movwpl	r0, #12288	; 0x3000
    9aa0:	00005e03 	andeq	r5, r0, r3, lsl #28
    9aa4:	18080400 	stmdane	r8, {sl}
    9aa8:	09002302 	stmdbeq	r0, {r1, r8, r9, sp}
    9aac:	0000055b 	andeq	r0, r0, fp, asr r5
    9ab0:	5e035403 	cdppl	4, 0, cr5, cr3, cr3, {0}
    9ab4:	04000000 	streq	r0, [r0], #-0
    9ab8:	23021305 	movwcs	r1, #8965	; 0x2305
    9abc:	0e4b0900 	cdpeq	9, 4, cr0, cr11, cr0, {0}
    9ac0:	55030000 	strpl	r0, [r3, #-0]
    9ac4:	00005e03 	andeq	r5, r0, r3, lsl #28
    9ac8:	0c070400 	cfstrseq	mvf0, [r7], {-0}
    9acc:	09002302 	stmdbeq	r0, {r1, r8, r9, sp}
    9ad0:	00000565 	andeq	r0, r0, r5, ror #10
    9ad4:	5e035603 	cfmadd32pl	mvax0, mvfx5, mvfx3, mvfx3
    9ad8:	04000000 	streq	r0, [r0], #-0
    9adc:	23020a02 	movwcs	r0, #10754	; 0x2a02
    9ae0:	0e500900 	cdpeq	9, 5, cr0, cr0, cr0, {0}
    9ae4:	57030000 	strpl	r0, [r3, -r0]
    9ae8:	00005e03 	andeq	r5, r0, r3, lsl #28
    9aec:	08020400 	stmdaeq	r2, {sl}
    9af0:	09002302 	stmdbeq	r0, {r1, r8, r9, sp}
    9af4:	00000d67 	andeq	r0, r0, r7, ror #26
    9af8:	5e035803 	cdppl	8, 0, cr5, cr3, cr3, {0}
    9afc:	04000000 	streq	r0, [r0], #-0
    9b00:	23020602 	movwcs	r0, #9730	; 0x2602
    9b04:	0e550900 	cdpeq	9, 5, cr0, cr5, cr0, {0}
    9b08:	59030000 	stmdbpl	r3, {}	; <UNPREDICTABLE>
    9b0c:	00005e03 	andeq	r5, r0, r3, lsl #28
    9b10:	01050400 	tsteq	r5, r0, lsl #8
    9b14:	09002302 	stmdbeq	r0, {r1, r8, r9, sp}
    9b18:	00000692 	muleq	r0, r2, r6
    9b1c:	5e035a03 	vmlapl.f32	s10, s6, s6
    9b20:	04000000 	streq	r0, [r0], #-0
    9b24:	23020001 	movwcs	r0, #8193	; 0x2001
    9b28:	040d0000 	streq	r0, [sp], #-0
    9b2c:	9c034e03 	stcls	14, cr4, [r3], {3}
    9b30:	0a000020 	beq	9bb8 <__resume1_start+0x9bb8>
    9b34:	000002c6 	andeq	r0, r0, r6, asr #5
    9b38:	5e035003 	cdppl	0, 0, cr5, cr3, cr3, {0}
    9b3c:	0a000000 	beq	9b44 <__resume1_start+0x9b44>
    9b40:	00000925 	andeq	r0, r0, r5, lsr #18
    9b44:	e0035b03 	and	r5, r3, r3, lsl #22
    9b48:	0000001f 	andeq	r0, r0, pc, lsl r0
    9b4c:	0005c20b 	andeq	ip, r5, fp, lsl #4
    9b50:	035c0300 	cmpeq	ip, #0
    9b54:	0000207a 	andeq	r2, r0, sl, ror r0
    9b58:	000f150e 	andeq	r1, pc, lr, lsl #10
    9b5c:	03018400 	movweq	r8, #5120	; 0x1400
    9b60:	246e035e 	strbtcs	r0, [lr], #-862	; 0x35e
    9b64:	880f0000 	stmdahi	pc, {}	; <UNPREDICTABLE>
    9b68:	03000008 	movweq	r0, #8
    9b6c:	246e0361 	strbtcs	r0, [lr], #-865	; 0x361
    9b70:	23020000 	movwcs	r0, #8192	; 0x2000
    9b74:	03b30f00 			; <UNDEFINED> instruction: 0x03b30f00
    9b78:	62030000 	andvs	r0, r3, #0
    9b7c:	00247303 	eoreq	r7, r4, r3, lsl #6
    9b80:	04230200 	strteq	r0, [r3], #-512	; 0x200
    9b84:	000a540f 	andeq	r5, sl, pc, lsl #8
    9b88:	03630300 	cmneq	r3, #0
    9b8c:	00002478 	andeq	r2, r0, r8, ror r4
    9b90:	0f082302 	svceq	0x00082302
    9b94:	00000848 	andeq	r0, r0, r8, asr #16
    9b98:	7d036403 	cfstrsvc	mvf6, [r3, #-12]
    9b9c:	02000024 	andeq	r0, r0, #36	; 0x24
    9ba0:	de0f0c23 	cdple	12, 0, cr0, cr15, cr3, {1}
    9ba4:	03000008 	movweq	r0, #8
    9ba8:	24820365 	strcs	r0, [r2], #869	; 0x365
    9bac:	23020000 	movwcs	r0, #8192	; 0x2000
    9bb0:	06f60f10 	usateq	r0, #22, r0, lsl #30
    9bb4:	66030000 	strvs	r0, [r3], -r0
    9bb8:	00248703 	eoreq	r8, r4, r3, lsl #14
    9bbc:	14230200 	strtne	r0, [r3], #-512	; 0x200
    9bc0:	00048d0f 	andeq	r8, r4, pc, lsl #26
    9bc4:	03670300 	cmneq	r7, #0
    9bc8:	0000248c 	andeq	r2, r0, ip, lsl #9
    9bcc:	0f182302 	svceq	0x00182302
    9bd0:	00000d4d 	andeq	r0, r0, sp, asr #26
    9bd4:	91036803 	tstls	r3, r3, lsl #16
    9bd8:	02000024 	andeq	r0, r0, #36	; 0x24
    9bdc:	c10f1c23 	tstgt	pc, r3, lsr #24
    9be0:	03000008 	movweq	r0, #8
    9be4:	24960369 	ldrcs	r0, [r6], #873	; 0x369
    9be8:	23020000 	movwcs	r0, #8192	; 0x2000
    9bec:	0aac0f20 	beq	feb0d874 <__bss_end+0xfeafa728>
    9bf0:	6a030000 	bvs	c9bf8 <__bss_end+0xb6aac>
    9bf4:	00249b03 	eoreq	r9, r4, r3, lsl #22
    9bf8:	24230200 	strtcs	r0, [r3], #-512	; 0x200
    9bfc:	0009710f 	andeq	r7, r9, pc, lsl #2
    9c00:	036b0300 	cmneq	fp, #0
    9c04:	000024a0 	andeq	r2, r0, r0, lsr #9
    9c08:	0f282302 	svceq	0x00282302
    9c0c:	0000037f 	andeq	r0, r0, pc, ror r3
    9c10:	a5036c03 	strge	r6, [r3, #-3075]	; 0xc03
    9c14:	02000024 	andeq	r0, r0, #36	; 0x24
    9c18:	520f2c23 	andpl	r2, pc, #8960	; 0x2300
    9c1c:	0300000c 	movweq	r0, #12
    9c20:	24ba036e 	ldrtcs	r0, [sl], #878	; 0x36e
    9c24:	23020000 	movwcs	r0, #8192	; 0x2000
    9c28:	0a6c0f30 	beq	1b0d8f0 <__bss_end+0x1afa7a4>
    9c2c:	6f030000 	svcvs	0x00030000
    9c30:	0024bf03 	eoreq	fp, r4, r3, lsl #30
    9c34:	50230200 	eorpl	r0, r3, r0, lsl #4
    9c38:	00038f0f 	andeq	r8, r3, pc, lsl #30
    9c3c:	03700300 	cmneq	r0, #0
    9c40:	000024c4 	andeq	r2, r0, r4, asr #9
    9c44:	0f542302 	svceq	0x00542302
    9c48:	00000c49 	andeq	r0, r0, r9, asr #24
    9c4c:	c9037103 	stmdbgt	r3, {r0, r1, r8, ip, sp, lr}
    9c50:	02000024 	andeq	r0, r0, #36	; 0x24
    9c54:	060f5823 	streq	r5, [pc], -r3, lsr #16
    9c58:	0300000c 	movweq	r0, #12
    9c5c:	24ce0372 	strbcs	r0, [lr], #882	; 0x372
    9c60:	23020000 	movwcs	r0, #8192	; 0x2000
    9c64:	0db20f5c 	ldceq	15, cr0, [r2, #368]!	; 0x170
    9c68:	73030000 	movwvc	r0, #12288	; 0x3000
    9c6c:	0024d303 	eoreq	sp, r4, r3, lsl #6
    9c70:	60230200 	eorvs	r0, r3, r0, lsl #4
    9c74:	0008280f 	andeq	r2, r8, pc, lsl #16
    9c78:	03740300 	cmneq	r4, #0
    9c7c:	000024d8 	ldrdeq	r2, [r0], -r8
    9c80:	0f642302 	svceq	0x00642302
    9c84:	00000521 	andeq	r0, r0, r1, lsr #10
    9c88:	dd037503 	cfstr32le	mvfx7, [r3, #-12]
    9c8c:	02000024 	andeq	r0, r0, #36	; 0x24
    9c90:	580f6823 	stmdapl	pc, {r0, r1, r5, fp, sp, lr}	; <UNPREDICTABLE>
    9c94:	03000004 	movweq	r0, #4
    9c98:	24e20376 	strbtcs	r0, [r2], #886	; 0x376
    9c9c:	23020000 	movwcs	r0, #8192	; 0x2000
    9ca0:	06890f6c 	streq	r0, [r9], ip, ror #30
    9ca4:	77030000 	strvc	r0, [r3, -r0]
    9ca8:	0024e703 	eoreq	lr, r4, r3, lsl #14
    9cac:	70230200 	eorvc	r0, r3, r0, lsl #4
    9cb0:	000f4a0f 	andeq	r4, pc, pc, lsl #20
    9cb4:	03780300 	cmneq	r8, #0
    9cb8:	000024ec 	andeq	r2, r0, ip, ror #9
    9cbc:	0f742302 	svceq	0x00742302
    9cc0:	000005a5 	andeq	r0, r0, r5, lsr #11
    9cc4:	f1037903 			; <UNDEFINED> instruction: 0xf1037903
    9cc8:	02000024 	andeq	r0, r0, #36	; 0x24
    9ccc:	610f7823 	tstvs	pc, r3, lsr #16
    9cd0:	0300000c 	movweq	r0, #12
    9cd4:	24e2037a 	strbtcs	r0, [r2], #890	; 0x37a
    9cd8:	23020000 	movwcs	r0, #8192	; 0x2000
    9cdc:	09530f7c 	ldmdbeq	r3, {r2, r3, r4, r5, r6, r8, r9, sl, fp}^
    9ce0:	7b030000 	blvc	c9ce8 <__bss_end+0xb6b9c>
    9ce4:	0024f603 	eoreq	pc, r4, r3, lsl #12
    9ce8:	80230300 	eorhi	r0, r3, r0, lsl #6
    9cec:	0eb10f01 	cdpeq	15, 11, cr0, cr1, cr1, {0}
    9cf0:	7c030000 	stcvc	0, cr0, [r3], {-0}
    9cf4:	0024fb03 	eoreq	pc, r4, r3, lsl #22
    9cf8:	84230300 	strthi	r0, [r3], #-768	; 0x300
    9cfc:	0c6b0f01 	stcleq	15, cr0, [fp], #-4
    9d00:	7d030000 	stcvc	0, cr0, [r3, #-0]
    9d04:	00251003 	eoreq	r1, r5, r3
    9d08:	88230300 	stmdahi	r3!, {r8, r9}
    9d0c:	0c750f01 	ldcleq	15, cr0, [r5], #-4
    9d10:	7e030000 	cdpvc	0, 0, cr0, cr3, cr0, {0}
    9d14:	00251503 	eoreq	r1, r5, r3, lsl #10
    9d18:	90230300 	eorls	r0, r3, r0, lsl #6
    9d1c:	07830f01 	streq	r0, [r3, r1, lsl #30]
    9d20:	7f030000 	svcvc	0x00030000
    9d24:	00251a03 	eoreq	r1, r5, r3, lsl #20
    9d28:	94230300 	strtls	r0, [r3], #-768	; 0x300
    9d2c:	04620f01 	strbteq	r0, [r2], #-3841	; 0xf01
    9d30:	80030000 	andhi	r0, r3, r0
    9d34:	0024e203 	eoreq	lr, r4, r3, lsl #4
    9d38:	98230300 	stmdals	r3!, {r8, r9}
    9d3c:	0f7e0f01 	svceq	0x007e0f01
    9d40:	81030000 	mrshi	r0, (UNDEF: 3)
    9d44:	00251f03 	eoreq	r1, r5, r3, lsl #30
    9d48:	9c230300 	stcls	3, cr0, [r3], #-0
    9d4c:	0b030f01 	bleq	cd958 <__bss_end+0xba80c>
    9d50:	83030000 	movwhi	r0, #12288	; 0x3000
    9d54:	00252403 	eoreq	r2, r5, r3, lsl #8
    9d58:	a0230300 	eorge	r0, r3, r0, lsl #6
    9d5c:	04360f01 	ldrteq	r0, [r6], #-3841	; 0xf01
    9d60:	84030000 	strhi	r0, [r3], #-0
    9d64:	00252903 	eoreq	r2, r5, r3, lsl #18
    9d68:	a4230300 	strtge	r0, [r3], #-768	; 0x300
    9d6c:	0e370f01 	cdpeq	15, 3, cr0, cr7, cr1, {0}
    9d70:	85030000 	strhi	r0, [r3, #-0]
    9d74:	00252e03 	eoreq	r2, r5, r3, lsl #28
    9d78:	a8230300 	stmdage	r3!, {r8, r9}
    9d7c:	0d770f01 	ldcleq	15, cr0, [r7, #-4]!
    9d80:	86030000 	strhi	r0, [r3], -r0
    9d84:	00253303 	eoreq	r3, r5, r3, lsl #6
    9d88:	ac230300 	stcge	3, cr0, [r3], #-0
    9d8c:	06310f01 	ldrteq	r0, [r1], -r1, lsl #30
    9d90:	87030000 	strhi	r0, [r3, -r0]
    9d94:	00253803 	eoreq	r3, r5, r3, lsl #16
    9d98:	b0230300 	eorlt	r0, r3, r0, lsl #6
    9d9c:	028e0f01 	addeq	r0, lr, #4
    9da0:	88030000 	stmdahi	r3, {}	; <UNPREDICTABLE>
    9da4:	00253d03 	eoreq	r3, r5, r3, lsl #26
    9da8:	b4230300 	strtlt	r0, [r3], #-768	; 0x300
    9dac:	09fd0f01 	ldmibeq	sp!, {r0, r8, r9, sl, fp}^
    9db0:	89030000 	stmdbhi	r3, {}	; <UNPREDICTABLE>
    9db4:	00254203 	eoreq	r4, r5, r3, lsl #4
    9db8:	b8230300 	stmdalt	r3!, {r8, r9}
    9dbc:	03980f01 	orrseq	r0, r8, #4
    9dc0:	8a030000 	bhi	c9dc8 <__bss_end+0xb6c7c>
    9dc4:	00254703 	eoreq	r4, r5, r3, lsl #14
    9dc8:	bc230300 	stclt	3, cr0, [r3], #-0
    9dcc:	0cbd0f01 	ldceq	15, cr0, [sp], #4
    9dd0:	8b030000 	blhi	c9dd8 <__bss_end+0xb6c8c>
    9dd4:	00254c03 	eoreq	r4, r5, r3, lsl #24
    9dd8:	c0230300 	eorgt	r0, r3, r0, lsl #6
    9ddc:	05880f01 	streq	r0, [r8, #3841]	; 0xf01
    9de0:	8c030000 	stchi	0, cr0, [r3], {-0}
    9de4:	00255103 	eoreq	r5, r5, r3, lsl #2
    9de8:	c4230300 	strtgt	r0, [r3], #-768	; 0x300
    9dec:	0f530f01 	svceq	0x00530f01
    9df0:	8d030000 	stchi	0, cr0, [r3, #-0]
    9df4:	00255603 	eoreq	r5, r5, r3, lsl #12
    9df8:	c8230300 	stmdagt	r3!, {r8, r9}
    9dfc:	08e90f01 	stmiaeq	r9!, {r0, r8, r9, sl, fp}^
    9e00:	8e030000 	cdphi	0, 0, cr0, cr3, cr0, {0}
    9e04:	00255b03 	eoreq	r5, r5, r3, lsl #22
    9e08:	cc230300 	stcgt	3, cr0, [r3], #-0
    9e0c:	0a780f01 	beq	1e0da18 <__bss_end+0x1dfa8cc>
    9e10:	8f030000 	svchi	0x00030000
    9e14:	00257003 	eoreq	r7, r5, r3
    9e18:	d0230300 	eorle	r0, r3, r0, lsl #6
    9e1c:	049c0f01 	ldreq	r0, [ip], #3841	; 0xf01
    9e20:	90030000 	andls	r0, r3, r0
    9e24:	00257503 	eoreq	r7, r5, r3, lsl #10
    9e28:	e0230300 	eor	r0, r3, r0, lsl #6
    9e2c:	0d5c0f01 	ldcleq	15, cr0, [ip, #-4]
    9e30:	91030000 	mrsls	r0, (UNDEF: 3)
    9e34:	00257a03 	eoreq	r7, r5, r3, lsl #20
    9e38:	e4230300 	strt	r0, [r3], #-768	; 0x300
    9e3c:	0c930f01 	ldceq	15, cr0, [r3], {1}
    9e40:	92030000 	andls	r0, r3, #0
    9e44:	00258f03 	eoreq	r8, r5, r3, lsl #30
    9e48:	e8230300 	stmda	r3!, {r8, r9}
    9e4c:	0b8c0f01 	bleq	fe30da58 <__bss_end+0xfe2fa90c>
    9e50:	93030000 	movwls	r0, #12288	; 0x3000
    9e54:	00259403 	eoreq	r9, r5, r3, lsl #8
    9e58:	84230300 	strthi	r0, [r3], #-768	; 0x300
    9e5c:	0a230f02 	beq	8cda6c <__bss_end+0x8ba920>
    9e60:	94030000 	strls	r0, [r3], #-0
    9e64:	00259903 	eoreq	r9, r5, r3, lsl #18
    9e68:	88230300 	stmdahi	r3!, {r8, r9}
    9e6c:	0b1e0f02 	bleq	78da7c <__bss_end+0x77a930>
    9e70:	95030000 	strls	r0, [r3, #-0]
    9e74:	00259e03 	eoreq	r9, r5, r3, lsl #28
    9e78:	8c230300 	stchi	3, cr0, [r3], #-0
    9e7c:	04ef0f02 	strbteq	r0, [pc], #3842	; 9e84 <__resume1_start+0x9e84>
    9e80:	96030000 	strls	r0, [r3], -r0
    9e84:	0025a303 	eoreq	sl, r5, r3, lsl #6
    9e88:	90230300 	eorls	r0, r3, r0, lsl #6
    9e8c:	05750f02 	ldrbeq	r0, [r5, #-3842]!	; 0xf02
    9e90:	97030000 	strls	r0, [r3, -r0]
    9e94:	0025a803 	eoreq	sl, r5, r3, lsl #16
    9e98:	94230300 	strtls	r0, [r3], #-768	; 0x300
    9e9c:	09a00f02 	stmibeq	r0!, {r1, r8, r9, sl, fp}
    9ea0:	98030000 	stmdals	r3, {}	; <UNPREDICTABLE>
    9ea4:	0025ad03 	eoreq	sl, r5, r3, lsl #26
    9ea8:	98230300 	stmdals	r3!, {r8, r9}
    9eac:	07920f02 	ldreq	r0, [r2, r2, lsl #30]
    9eb0:	99030000 	stmdbls	r3, {}	; <UNPREDICTABLE>
    9eb4:	0025b203 	eoreq	fp, r5, r3, lsl #4
    9eb8:	9c230300 	stcls	3, cr0, [r3], #-0
    9ebc:	08790f02 	ldmdaeq	r9!, {r1, r8, r9, sl, fp}^
    9ec0:	9a030000 	bls	c9ec8 <__bss_end+0xb6d7c>
    9ec4:	0025b703 	eoreq	fp, r5, r3, lsl #14
    9ec8:	a0230300 	eorge	r0, r3, r0, lsl #6
    9ecc:	06d20f02 	ldrbeq	r0, [r2], r2, lsl #30
    9ed0:	9b030000 	blls	c9ed8 <__bss_end+0xb6d8c>
    9ed4:	0025bc03 	eoreq	fp, r5, r3, lsl #24
    9ed8:	a4230300 	strtge	r0, [r3], #-768	; 0x300
    9edc:	0df60f02 	ldcleq	15, cr0, [r6, #8]!
    9ee0:	9c030000 	stcls	0, cr0, [r3], {-0}
    9ee4:	0025c103 	eoreq	ip, r5, r3, lsl #2
    9ee8:	a8230300 	stmdage	r3!, {r8, r9}
    9eec:	0c9d0f02 	ldceq	15, cr0, [sp], {2}
    9ef0:	9d030000 	stcls	0, cr0, [r3, #-0]
    9ef4:	0025d603 	eoreq	sp, r5, r3, lsl #12
    9ef8:	ac230300 	stcge	3, cr0, [r3], #-0
    9efc:	077a0f02 	ldrbeq	r0, [sl, -r2, lsl #30]!
    9f00:	9e030000 	cdpls	0, 0, cr0, cr3, cr0, {0}
    9f04:	0025db03 	eoreq	sp, r5, r3, lsl #22
    9f08:	fc230300 	stc2	3, cr0, [r3], #-0
    9f0c:	03540f02 	cmpeq	r4, #8
    9f10:	9f030000 	svcls	0x00030000
    9f14:	0025e003 	eoreq	lr, r5, r3
    9f18:	80230300 	eorhi	r0, r3, r0, lsl #6
    9f1c:	2e100003 	cdpcs	0, 1, cr0, cr0, cr3, {0}
    9f20:	10000001 	andne	r0, r0, r1
    9f24:	000001e9 	andeq	r0, r0, r9, ror #3
    9f28:	0002c610 	andeq	ip, r2, r0, lsl r6
    9f2c:	03921000 	orrseq	r1, r2, #0
    9f30:	5e100000 	cdppl	0, 1, cr0, cr0, cr0, {0}
    9f34:	10000004 	andne	r0, r0, r4
    9f38:	0000053b 	andeq	r0, r0, fp, lsr r5
    9f3c:	00060a10 	andeq	r0, r6, r0, lsl sl
    9f40:	06f61000 	ldrbteq	r1, [r6], r0
    9f44:	d0100000 	andsle	r0, r0, r0
    9f48:	10000007 	andne	r0, r0, r7
    9f4c:	000008aa 	andeq	r0, r0, sl, lsr #17
    9f50:	00098410 	andeq	r8, r9, r0, lsl r4
    9f54:	0a5e1000 	beq	178df5c <__bss_end+0x177ae10>
    9f58:	5e110000 	cdppl	0, 1, cr0, cr1, cr0, {0}
    9f5c:	ba000000 	blt	9f64 <__resume1_start+0x9f64>
    9f60:	12000024 	andne	r0, r0, #36	; 0x24
    9f64:	00000069 	andeq	r0, r0, r9, rrx
    9f68:	aa100007 	bge	409f8c <__bss_end+0x3f6e40>
    9f6c:	10000024 	andne	r0, r0, r4, lsr #32
    9f70:	00000ade 	ldrdeq	r0, [r0], -lr
    9f74:	000b5e10 	andeq	r5, fp, r0, lsl lr
    9f78:	0bde1000 	bleq	ff78df80 <__bss_end+0xff77ae34>
    9f7c:	5e100000 	cdppl	0, 1, cr0, cr0, cr0, {0}
    9f80:	1000000c 	andne	r0, r0, ip
    9f84:	00000cde 	ldrdeq	r0, [r0], -lr
    9f88:	000d5e10 	andeq	r5, sp, r0, lsl lr
    9f8c:	0dde1000 	ldcleq	0, cr1, [lr]
    9f90:	5e100000 	cdppl	0, 1, cr0, cr0, cr0, {0}
    9f94:	10000000 	andne	r0, r0, r0
    9f98:	00000e5e 	andeq	r0, r0, lr, asr lr
    9f9c:	000f0210 	andeq	r0, pc, r0, lsl r2	; <UNPREDICTABLE>
    9fa0:	0f821000 	svceq	0x00821000
    9fa4:	14100000 	ldrne	r0, [r0], #-0
    9fa8:	10000010 	andne	r0, r0, r0, lsl r0
    9fac:	000010a6 	andeq	r1, r0, r6, lsr #1
    9fb0:	00005e11 	andeq	r5, r0, r1, lsl lr
    9fb4:	00251000 	eoreq	r1, r5, r0
    9fb8:	00691200 	rsbeq	r1, r9, r0, lsl #4
    9fbc:	00010000 	andeq	r0, r1, r0
    9fc0:	00250010 	eoreq	r0, r5, r0, lsl r0
    9fc4:	11021000 	mrsne	r1, (UNDEF: 2)
    9fc8:	5e100000 	cdppl	0, 1, cr0, cr0, cr0, {0}
    9fcc:	10000011 	andne	r0, r0, r1, lsl r0
    9fd0:	00001180 	andeq	r1, r0, r0, lsl #3
    9fd4:	00120010 	andseq	r0, r2, r0, lsl r0
    9fd8:	12801000 	addne	r1, r0, #0
    9fdc:	ee100000 	cdp	0, 1, cr0, cr0, cr0, {0}
    9fe0:	10000012 	andne	r0, r0, r2, lsl r0
    9fe4:	0000135c 	andeq	r1, r0, ip, asr r3
    9fe8:	0013ca10 	andseq	ip, r3, r0, lsl sl
    9fec:	14381000 	ldrtne	r1, [r8], #-0
    9ff0:	a6100000 	ldrge	r0, [r0], -r0
    9ff4:	10000014 	andne	r0, r0, r4, lsl r0
    9ff8:	00001514 	andeq	r1, r0, r4, lsl r5
    9ffc:	00158210 	andseq	r8, r5, r0, lsl r2
    a000:	15f01000 	ldrbne	r1, [r0, #0]!
    a004:	5e100000 	cdppl	0, 1, cr0, cr0, cr0, {0}
    a008:	10000016 	andne	r0, r0, r6, lsl r0
    a00c:	000016cc 	andeq	r1, r0, ip, asr #13
    a010:	00005e11 	andeq	r5, r0, r1, lsl lr
    a014:	00257000 	eoreq	r7, r5, r0
    a018:	00691200 	rsbeq	r1, r9, r0, lsl #4
    a01c:	00030000 	andeq	r0, r3, r0
    a020:	00256010 	eoreq	r6, r5, r0, lsl r0
    a024:	17b81000 	ldrne	r1, [r8, r0]!
    a028:	a4100000 	ldrge	r0, [r0], #-0
    a02c:	11000018 	tstne	r0, r8, lsl r0
    a030:	0000005e 	andeq	r0, r0, lr, asr r0
    a034:	0000258f 	andeq	r2, r0, pc, lsl #11
    a038:	00006912 	andeq	r6, r0, r2, lsl r9
    a03c:	10000600 	andne	r0, r0, r0, lsl #12
    a040:	0000257f 	andeq	r2, r0, pc, ror r5
    a044:	00194810 	andseq	r4, r9, r0, lsl r8
    a048:	19ec1000 	stmibne	ip!, {ip}^
    a04c:	90100000 	andsls	r0, r0, r0
    a050:	1000001a 	andne	r0, r0, sl, lsl r0
    a054:	00001b34 	andeq	r1, r0, r4, lsr fp
    a058:	001bd810 	andseq	sp, fp, r0, lsl r8
    a05c:	1c7c1000 	ldclne	0, cr1, [ip], #-0
    a060:	20100000 	andscs	r0, r0, r0
    a064:	1000001d 	andne	r0, r0, sp, lsl r0
    a068:	00001dc4 	andeq	r1, r0, r4, asr #27
    a06c:	001e6810 	andseq	r6, lr, r0, lsl r8
    a070:	1f0c1000 	svcne	0x000c1000
    a074:	5e110000 	cdppl	0, 1, cr0, cr1, cr0, {0}
    a078:	d6000000 	strle	r0, [r0], -r0
    a07c:	12000025 	andne	r0, r0, #37	; 0x25
    a080:	00000069 	andeq	r0, r0, r9, rrx
    a084:	c6100013 			; <UNDEFINED> instruction: 0xc6100013
    a088:	10000025 	andne	r0, r0, r5, lsr #32
    a08c:	00001fd4 	ldrdeq	r1, [r0], -r4
    a090:	00209c10 	eoreq	r9, r0, r0, lsl ip
    a094:	0dc90b00 	vstreq	d16, [r9]
    a098:	a0030000 	andge	r0, r3, r0
    a09c:	0020a803 	eoreq	sl, r0, r3, lsl #16
    a0a0:	1f440e00 	svcne	0x00440e00
    a0a4:	01b80000 			; <UNDEFINED> instruction: 0x01b80000
    a0a8:	0b03a503 	bleq	f34bc <__bss_end+0xe0370>
    a0ac:	0f00002a 	svceq	0x0000002a
    a0b0:	00001fe3 	andeq	r1, r0, r3, ror #31
    a0b4:	e203a603 	and	sl, r3, #3145728	; 0x300000
    a0b8:	02000024 	andeq	r0, r0, #36	; 0x24
    a0bc:	220f0023 	andcs	r0, pc, #35	; 0x23
    a0c0:	0300001e 	movweq	r0, #30
    a0c4:	24e203a7 	strbtcs	r0, [r2], #935	; 0x3a7
    a0c8:	23020000 	movwcs	r0, #8192	; 0x2000
    a0cc:	1e980f04 	cdpne	15, 9, cr0, cr8, cr4, {0}
    a0d0:	a8030000 	stmdage	r3, {}	; <UNPREDICTABLE>
    a0d4:	0024e203 	eoreq	lr, r4, r3, lsl #4
    a0d8:	08230200 	stmdaeq	r3!, {r9}
    a0dc:	001ff30f 	andseq	pc, pc, pc, lsl #6
    a0e0:	03a90300 			; <UNDEFINED> instruction: 0x03a90300
    a0e4:	000024e2 	andeq	r2, r0, r2, ror #9
    a0e8:	0f0c2302 	svceq	0x000c2302
    a0ec:	00001d7f 	andeq	r1, r0, pc, ror sp
    a0f0:	e203aa03 	and	sl, r3, #12288	; 0x3000
    a0f4:	02000024 	andeq	r0, r0, #36	; 0x24
    a0f8:	c00f1023 	andgt	r1, pc, r3, lsr #32
    a0fc:	0300001e 	movweq	r0, #30
    a100:	24e203ab 	strbtcs	r0, [r2], #939	; 0x3ab
    a104:	23020000 	movwcs	r0, #8192	; 0x2000
    a108:	1d870f14 	stcne	15, cr0, [r7, #80]	; 0x50
    a10c:	ac030000 	stcge	0, cr0, [r3], {-0}
    a110:	0024e203 	eoreq	lr, r4, r3, lsl #4
    a114:	18230200 	stmdane	r3!, {r9}
    a118:	0020290f 	eoreq	r2, r0, pc, lsl #18
    a11c:	03ad0300 			; <UNDEFINED> instruction: 0x03ad0300
    a120:	000024e2 	andeq	r2, r0, r2, ror #9
    a124:	0f1c2302 	svceq	0x001c2302
    a128:	00000c52 	andeq	r0, r0, r2, asr ip
    a12c:	0b03ae03 	bleq	f5940 <__bss_end+0xe27f4>
    a130:	0200002a 	andeq	r0, r0, #42	; 0x2a
    a134:	340f2023 	strcc	r2, [pc], #-35	; a13c <__resume1_start+0xa13c>
    a138:	03000021 	movweq	r0, #33	; 0x21
    a13c:	24e203af 	strbtcs	r0, [r2], #943	; 0x3af
    a140:	23020000 	movwcs	r0, #8192	; 0x2000
    a144:	1e3b0f28 	cdpne	15, 3, cr0, cr11, cr8, {1}
    a148:	b0030000 	andlt	r0, r3, r0
    a14c:	0024e203 	eoreq	lr, r4, r3, lsl #4
    a150:	2c230200 	sfmcs	f0, 4, [r3], #-0
    a154:	0020b00f 	eoreq	fp, r0, pc
    a158:	03b10300 			; <UNDEFINED> instruction: 0x03b10300
    a15c:	000024e2 	andeq	r2, r0, r2, ror #9
    a160:	0f302302 	svceq	0x00302302
    a164:	00001ee7 	andeq	r1, r0, r7, ror #29
    a168:	e203b203 	and	fp, r3, #805306368	; 0x30000000
    a16c:	02000024 	andeq	r0, r0, #36	; 0x24
    a170:	f30f3423 	vshl.u8	d3, d19, d15
    a174:	03000020 	movweq	r0, #32
    a178:	24e203b3 	strbtcs	r0, [r2], #947	; 0x3b3
    a17c:	23020000 	movwcs	r0, #8192	; 0x2000
    a180:	20770f38 	rsbscs	r0, r7, r8, lsr pc
    a184:	b4030000 	strlt	r0, [r3], #-0
    a188:	0024e203 	eoreq	lr, r4, r3, lsl #4
    a18c:	3c230200 	sfmcc	f0, 4, [r3], #-0
    a190:	0020310f 	eoreq	r3, r0, pc, lsl #2
    a194:	03b50300 			; <UNDEFINED> instruction: 0x03b50300
    a198:	000024e2 	andeq	r2, r0, r2, ror #9
    a19c:	0f402302 	svceq	0x00402302
    a1a0:	00001e8c 	andeq	r1, r0, ip, lsl #29
    a1a4:	e203b603 	and	fp, r3, #3145728	; 0x300000
    a1a8:	02000024 	andeq	r0, r0, #36	; 0x24
    a1ac:	580f4423 	stmdapl	pc, {r0, r1, r5, sl, lr}	; <UNPREDICTABLE>
    a1b0:	03000004 	movweq	r0, #4
    a1b4:	24e203b7 	strbtcs	r0, [r2], #951	; 0x3b7
    a1b8:	23020000 	movwcs	r0, #8192	; 0x2000
    a1bc:	20800f48 	addcs	r0, r0, r8, asr #30
    a1c0:	b8030000 	stmdalt	r3, {}	; <UNPREDICTABLE>
    a1c4:	0024e203 	eoreq	lr, r4, r3, lsl #4
    a1c8:	4c230200 	sfmmi	f0, 4, [r3], #-0
    a1cc:	001d6a0f 	andseq	r6, sp, pc, lsl #20
    a1d0:	03b90300 			; <UNDEFINED> instruction: 0x03b90300
    a1d4:	000024e2 	andeq	r2, r0, r2, ror #9
    a1d8:	0f502302 	svceq	0x00502302
    a1dc:	00000c61 	andeq	r0, r0, r1, ror #24
    a1e0:	2003ba03 	andcs	fp, r3, r3, lsl #20
    a1e4:	0200002a 	andeq	r0, r0, #42	; 0x2a
    a1e8:	500f5423 	andpl	r5, pc, r3, lsr #8
    a1ec:	03000021 	movweq	r0, #33	; 0x21
    a1f0:	24e203bb 	strbtcs	r0, [r2], #955	; 0x3bb
    a1f4:	23030000 	movwcs	r0, #12288	; 0x3000
    a1f8:	2b0f0180 	blcs	3ca800 <__bss_end+0x3b76b4>
    a1fc:	03000021 	movweq	r0, #33	; 0x21
    a200:	24e203bc 	strbtcs	r0, [r2], #956	; 0x3bc
    a204:	23030000 	movwcs	r0, #12288	; 0x3000
    a208:	6b0f0184 	blvs	3ca820 <__bss_end+0x3b76d4>
    a20c:	0300000c 	movweq	r0, #12
    a210:	2a2503bd 	bcs	94b10c <__bss_end+0x937fc0>
    a214:	23030000 	movwcs	r0, #12288	; 0x3000
    a218:	160f0188 	strne	r0, [pc], -r8, lsl #3
    a21c:	03000020 	movweq	r0, #32
    a220:	24e203be 	strbtcs	r0, [r2], #958	; 0x3be
    a224:	23030000 	movwcs	r0, #12288	; 0x3000
    a228:	590f0190 	stmdbpl	pc, {r4, r7, r8}	; <UNPREDICTABLE>
    a22c:	03000021 	movweq	r0, #33	; 0x21
    a230:	24e203bf 	strbtcs	r0, [r2], #959	; 0x3bf
    a234:	23030000 	movwcs	r0, #12288	; 0x3000
    a238:	a80f0194 	stmdage	pc, {r2, r4, r7, r8}	; <UNPREDICTABLE>
    a23c:	0300001e 	movweq	r0, #30
    a240:	24e203c0 	strbtcs	r0, [r2], #960	; 0x3c0
    a244:	23030000 	movwcs	r0, #12288	; 0x3000
    a248:	3b0f0198 	blcc	3ca8b0 <__bss_end+0x3b7764>
    a24c:	03000021 	movweq	r0, #33	; 0x21
    a250:	24e203c1 	strbtcs	r0, [r2], #961	; 0x3c1
    a254:	23030000 	movwcs	r0, #12288	; 0x3000
    a258:	c30f019c 	movwgt	r0, #61852	; 0xf19c
    a25c:	0300001f 	movweq	r0, #31
    a260:	24e203c2 	strbtcs	r0, [r2], #962	; 0x3c2
    a264:	23030000 	movwcs	r0, #12288	; 0x3000
    a268:	620f01a0 	andvs	r0, pc, #40	; 0x28
    a26c:	03000004 	movweq	r0, #4
    a270:	24e203c3 	strbtcs	r0, [r2], #963	; 0x3c3
    a274:	23030000 	movwcs	r0, #12288	; 0x3000
    a278:	5b0f01a4 	blpl	3ca910 <__bss_end+0x3b77c4>
    a27c:	03000020 	movweq	r0, #32
    a280:	24e203c4 	strbtcs	r0, [r2], #964	; 0x3c4
    a284:	23030000 	movwcs	r0, #12288	; 0x3000
    a288:	690f01a8 	stmdbvs	pc, {r3, r5, r7, r8}	; <UNPREDICTABLE>
    a28c:	03000020 	movweq	r0, #32
    a290:	24e203c5 	strbtcs	r0, [r2], #965	; 0x3c5
    a294:	23030000 	movwcs	r0, #12288	; 0x3000
    a298:	180f01ac 	stmdane	pc, {r2, r3, r5, r7, r8}	; <UNPREDICTABLE>
    a29c:	0300001e 	movweq	r0, #30
    a2a0:	24e203c6 	strbtcs	r0, [r2], #966	; 0x3c6
    a2a4:	23030000 	movwcs	r0, #12288	; 0x3000
    a2a8:	a50f01b0 	strge	r0, [pc, #-432]	; a100 <__resume1_start+0xa100>
    a2ac:	0300001f 	movweq	r0, #31
    a2b0:	24e203c7 	strbtcs	r0, [r2], #967	; 0x3c7
    a2b4:	23030000 	movwcs	r0, #12288	; 0x3000
    a2b8:	780f01b4 	stmdavc	pc, {r2, r4, r5, r7, r8}	; <UNPREDICTABLE>
    a2bc:	0300000a 	movweq	r0, #10
    a2c0:	24e203c8 	strbtcs	r0, [r2], #968	; 0x3c8
    a2c4:	23030000 	movwcs	r0, #12288	; 0x3000
    a2c8:	120f01b8 	andne	r0, pc, #46	; 0x2e
    a2cc:	0300001f 	movweq	r0, #31
    a2d0:	24e203c9 	strbtcs	r0, [r2], #969	; 0x3c9
    a2d4:	23030000 	movwcs	r0, #12288	; 0x3000
    a2d8:	780f01bc 	stmdavc	pc, {r2, r3, r4, r5, r7, r8}	; <UNPREDICTABLE>
    a2dc:	0300001e 	movweq	r0, #30
    a2e0:	24e203ca 	strbtcs	r0, [r2], #970	; 0x3ca
    a2e4:	23030000 	movwcs	r0, #12288	; 0x3000
    a2e8:	600f01c0 	andvs	r0, pc, r0, asr #3
    a2ec:	0300001d 	movweq	r0, #29
    a2f0:	24e203cb 	strbtcs	r0, [r2], #971	; 0x3cb
    a2f4:	23030000 	movwcs	r0, #12288	; 0x3000
    a2f8:	0c0f01c4 	stfeqs	f0, [pc], {196}	; 0xc4
    a2fc:	03000020 	movweq	r0, #32
    a300:	24e203cc 	strbtcs	r0, [r2], #972	; 0x3cc
    a304:	23030000 	movwcs	r0, #12288	; 0x3000
    a308:	220f01c8 	andcs	r0, pc, #50	; 0x32
    a30c:	03000020 	movweq	r0, #32
    a310:	24e203cd 	strbtcs	r0, [r2], #973	; 0x3cd
    a314:	23030000 	movwcs	r0, #12288	; 0x3000
    a318:	590f01cc 	stmdbpl	pc, {r2, r3, r6, r7, r8}	; <UNPREDICTABLE>
    a31c:	0300001d 	movweq	r0, #29
    a320:	24e203ce 	strbtcs	r0, [r2], #974	; 0x3ce
    a324:	23030000 	movwcs	r0, #12288	; 0x3000
    a328:	fb0f01d0 	blx	3caa72 <__bss_end+0x3b7926>
    a32c:	0300001d 	movweq	r0, #29
    a330:	24e203cf 	strbtcs	r0, [r2], #975	; 0x3cf
    a334:	23030000 	movwcs	r0, #12288	; 0x3000
    a338:	930f01d4 	movwls	r0, #61908	; 0xf1d4
    a33c:	0300000c 	movweq	r0, #12
    a340:	2a3a03d0 	bcs	e8b288 <__bss_end+0xe7813c>
    a344:	23030000 	movwcs	r0, #12288	; 0x3000
    a348:	e60f01d8 			; <UNDEFINED> instruction: 0xe60f01d8
    a34c:	03000020 	movweq	r0, #32
    a350:	24e203d1 	strbtcs	r0, [r2], #977	; 0x3d1
    a354:	23030000 	movwcs	r0, #12288	; 0x3000
    a358:	580f01f0 	stmdapl	pc, {r4, r5, r6, r7, r8}	; <UNPREDICTABLE>
    a35c:	0300001f 	movweq	r0, #31
    a360:	24e203d2 	strbtcs	r0, [r2], #978	; 0x3d2
    a364:	23030000 	movwcs	r0, #12288	; 0x3000
    a368:	440f01f4 	strmi	r0, [pc], #-500	; a370 <__resume1_start+0xa370>
    a36c:	03000021 	movweq	r0, #33	; 0x21
    a370:	24e203d3 	strbtcs	r0, [r2], #979	; 0x3d3
    a374:	23030000 	movwcs	r0, #12288	; 0x3000
    a378:	9d0f01f8 	stflss	f0, [pc, #-992]	; 9fa0 <__resume1_start+0x9fa0>
    a37c:	0300000c 	movweq	r0, #12
    a380:	24e203d4 	strbtcs	r0, [r2], #980	; 0x3d4
    a384:	23030000 	movwcs	r0, #12288	; 0x3000
    a388:	760f01fc 			; <UNDEFINED> instruction: 0x760f01fc
    a38c:	0300001d 	movweq	r0, #29
    a390:	24e203d5 	strbtcs	r0, [r2], #981	; 0x3d5
    a394:	23030000 	movwcs	r0, #12288	; 0x3000
    a398:	6f0f0280 	svcvs	0x000f0280
    a39c:	0300001f 	movweq	r0, #31
    a3a0:	24e203d6 	strbtcs	r0, [r2], #982	; 0x3d6
    a3a4:	23030000 	movwcs	r0, #12288	; 0x3000
    a3a8:	ee0f0284 	cdp	2, 0, cr0, cr15, cr4, {4}
    a3ac:	0300001d 	movweq	r0, #29
    a3b0:	24e203d7 	strbtcs	r0, [r2], #983	; 0x3d7
    a3b4:	23030000 	movwcs	r0, #12288	; 0x3000
    a3b8:	fc0f0288 	stc2	2, cr0, [pc], {136}	; 0x88
    a3bc:	03000020 	movweq	r0, #32
    a3c0:	24e203d8 	strbtcs	r0, [r2], #984	; 0x3d8
    a3c4:	23030000 	movwcs	r0, #12288	; 0x3000
    a3c8:	cf0f028c 	svcgt	0x000f028c
    a3cc:	03000020 	movweq	r0, #32
    a3d0:	24e203d9 	strbtcs	r0, [r2], #985	; 0x3d9
    a3d4:	23030000 	movwcs	r0, #12288	; 0x3000
    a3d8:	a70f0290 			; <UNDEFINED> instruction: 0xa70f0290
    a3dc:	0300001a 	movweq	r0, #26
    a3e0:	2a4f03da 	bcs	13cb350 <__bss_end+0x13b8204>
    a3e4:	23030000 	movwcs	r0, #12288	; 0x3000
    a3e8:	3d0f0294 	sfmcc	f0, 4, [pc, #-592]	; a1a0 <__resume1_start+0xa1a0>
    a3ec:	03000020 	movweq	r0, #32
    a3f0:	24e203db 	strbtcs	r0, [r2], #987	; 0x3db
    a3f4:	23030000 	movwcs	r0, #12288	; 0x3000
    a3f8:	c40f0380 	strgt	r0, [pc], #-896	; a400 <__resume1_start+0xa400>
    a3fc:	0300001d 	movweq	r0, #29
    a400:	24e203dc 	strbtcs	r0, [r2], #988	; 0x3dc
    a404:	23030000 	movwcs	r0, #12288	; 0x3000
    a408:	a40f0384 	strge	r0, [pc], #-900	; a410 <__resume1_start+0xa410>
    a40c:	03000020 	movweq	r0, #32
    a410:	24e203dd 	strbtcs	r0, [r2], #989	; 0x3dd
    a414:	23030000 	movwcs	r0, #12288	; 0x3000
    a418:	8a0f0388 	bhi	3cb240 <__bss_end+0x3b80f4>
    a41c:	03000020 	movweq	r0, #32
    a420:	24e203de 	strbtcs	r0, [r2], #990	; 0x3de
    a424:	23030000 	movwcs	r0, #12288	; 0x3000
    a428:	8c0f038c 	stchi	3, cr0, [pc], {140}	; 0x8c
    a42c:	0300001f 	movweq	r0, #31
    a430:	24e203df 	strbtcs	r0, [r2], #991	; 0x3df
    a434:	23030000 	movwcs	r0, #12288	; 0x3000
    a438:	b90f0390 	stmdblt	pc, {r4, r7, r8, r9}	; <UNPREDICTABLE>
    a43c:	03000020 	movweq	r0, #32
    a440:	24e203e0 	strbtcs	r0, [r2], #992	; 0x3e0
    a444:	23030000 	movwcs	r0, #12288	; 0x3000
    a448:	d10f0394 			; <UNDEFINED> instruction: 0xd10f0394
    a44c:	0300001e 	movweq	r0, #30
    a450:	2a5403e1 	bcs	150b3dc <__bss_end+0x14f8290>
    a454:	23030000 	movwcs	r0, #12288	; 0x3000
    a458:	660f0398 			; <UNDEFINED> instruction: 0x660f0398
    a45c:	03000021 	movweq	r0, #33	; 0x21
    a460:	24e203e2 	strbtcs	r0, [r2], #994	; 0x3e2
    a464:	23030000 	movwcs	r0, #12288	; 0x3000
    a468:	030f03a0 	movweq	r0, #62368	; 0xf3a0
    a46c:	03000020 	movweq	r0, #32
    a470:	24e203e3 	strbtcs	r0, [r2], #995	; 0x3e3
    a474:	23030000 	movwcs	r0, #12288	; 0x3000
    a478:	320f03a4 	andcc	r0, pc, #-1879048190	; 0x90000002
    a47c:	0300001e 	movweq	r0, #30
    a480:	24e203e4 	strbtcs	r0, [r2], #996	; 0x3e4
    a484:	23030000 	movwcs	r0, #12288	; 0x3000
    a488:	dc0f03a8 	stcle	3, cr0, [pc], {168}	; 0xa8
    a48c:	0300001e 	movweq	r0, #30
    a490:	24e203e5 	strbtcs	r0, [r2], #997	; 0x3e5
    a494:	23030000 	movwcs	r0, #12288	; 0x3000
    a498:	c80f03ac 	stmdagt	pc, {r2, r3, r5, r7, r8, r9}	; <UNPREDICTABLE>
    a49c:	0300001e 	movweq	r0, #30
    a4a0:	24e203e6 	strbtcs	r0, [r2], #998	; 0x3e6
    a4a4:	23030000 	movwcs	r0, #12288	; 0x3000
    a4a8:	bb0f03b0 	bllt	3cb370 <__bss_end+0x3b8224>
    a4ac:	0300001d 	movweq	r0, #29
    a4b0:	24e203e7 	strbtcs	r0, [r2], #999	; 0x3e7
    a4b4:	23030000 	movwcs	r0, #12288	; 0x3000
    a4b8:	100003b4 			; <UNDEFINED> instruction: 0x100003b4
    a4bc:	00002500 	andeq	r2, r0, r0, lsl #10
    a4c0:	00005e11 	andeq	r5, r0, r1, lsl lr
    a4c4:	002a2000 	eoreq	r2, sl, r0
    a4c8:	00691200 	rsbeq	r1, r9, r0, lsl #4
    a4cc:	000a0000 	andeq	r0, sl, r0
    a4d0:	002a1010 	eoreq	r1, sl, r0, lsl r0
    a4d4:	25001000 	strcs	r1, [r0, #-0]
    a4d8:	5e110000 	cdppl	0, 1, cr0, cr1, cr0, {0}
    a4dc:	3a000000 	bcc	a4e4 <__resume1_start+0xa4e4>
    a4e0:	1200002a 	andne	r0, r0, #42	; 0x2a
    a4e4:	00000069 	andeq	r0, r0, r9, rrx
    a4e8:	2a100005 	bcs	40a504 <__bss_end+0x3f73b8>
    a4ec:	1100002a 	tstne	r0, sl, lsr #32
    a4f0:	0000005e 	andeq	r0, r0, lr, asr r0
    a4f4:	00002a4f 	andeq	r2, r0, pc, asr #20
    a4f8:	00006912 	andeq	r6, r0, r2, lsl r9
    a4fc:	10001a00 	andne	r1, r0, r0, lsl #20
    a500:	00002a3f 	andeq	r2, r0, pc, lsr sl
    a504:	00250010 	eoreq	r0, r5, r0, lsl r0
    a508:	1f1f0b00 	svcne	0x001f0b00
    a50c:	e8030000 	stmda	r3, {}	; <UNPREDICTABLE>
    a510:	0025f103 	eoreq	pc, r5, r3, lsl #2
    a514:	e5041300 	str	r1, [r4, #-768]	; 0x300
    a518:	13000025 	movwne	r0, #37	; 0x25
    a51c:	002a5904 	eoreq	r5, sl, r4, lsl #18
    a520:	0bad1400 	bleq	feb4f528 <__bss_end+0xfeb3c3dc>
    a524:	04040000 	streq	r0, [r4], #-0
    a528:	002a8c40 	eoreq	r8, sl, r0, asr #24
    a52c:	038f1500 	orreq	r1, pc, #0
    a530:	41040000 	mrsmi	r0, (UNDEF: 4)
    a534:	0000005e 	andeq	r0, r0, lr, asr r0
    a538:	00002302 	andeq	r2, r0, r2, lsl #6
    a53c:	000bb714 	andeq	fp, fp, r4, lsl r7
    a540:	44043400 	strmi	r3, [r4], #-1024	; 0x400
    a544:	00002b4f 	andeq	r2, r0, pc, asr #22
    a548:	000b0315 	andeq	r0, fp, r5, lsl r3
    a54c:	5e450400 	cdppl	4, 4, cr0, cr5, cr0, {0}
    a550:	02000000 	andeq	r0, r0, #0
    a554:	77150023 	ldrvc	r0, [r5, -r3, lsr #32]
    a558:	0400000d 	streq	r0, [r0], #-13
    a55c:	00005e46 	andeq	r5, r0, r6, asr #28
    a560:	04230200 	strteq	r0, [r3], #-512	; 0x200
    a564:	0008e915 	andeq	lr, r8, r5, lsl r9
    a568:	5e470400 	cdppl	4, 4, cr0, cr7, cr0, {0}
    a56c:	02000000 	andeq	r0, r0, #0
    a570:	9c150823 	ldcls	8, cr0, [r5], {35}	; 0x23
    a574:	04000004 	streq	r0, [r0], #-4
    a578:	00005e48 	andeq	r5, r0, r8, asr #28
    a57c:	0c230200 	sfmeq	f0, 4, [r3], #-0
    a580:	00043615 	andeq	r3, r4, r5, lsl r6
    a584:	5e490400 	cdppl	4, 4, cr0, cr9, cr0, {0}
    a588:	02000000 	andeq	r0, r0, #0
    a58c:	fd151023 	ldc2	0, cr1, [r5, #-140]	; 0xffffff74
    a590:	04000009 	streq	r0, [r0], #-9
    a594:	00005e4a 	andeq	r5, r0, sl, asr #28
    a598:	14230200 	strtne	r0, [r3], #-512	; 0x200
    a59c:	00039815 	andeq	r9, r3, r5, lsl r8
    a5a0:	5e4b0400 	cdppl	4, 4, cr0, cr11, cr0, {0}
    a5a4:	02000000 	andeq	r0, r0, #0
    a5a8:	5c151823 	ldcpl	8, cr1, [r5], {35}	; 0x23
    a5ac:	0400000d 	streq	r0, [r0], #-13
    a5b0:	00005e4c 	andeq	r5, r0, ip, asr #28
    a5b4:	1c230200 	sfmne	f0, 4, [r3], #-0
    a5b8:	00057515 	andeq	r7, r5, r5, lsl r5
    a5bc:	5e4d0400 	cdppl	4, 4, cr0, cr13, cr0, {0}
    a5c0:	02000000 	andeq	r0, r0, #0
    a5c4:	a0152023 	andsge	r2, r5, r3, lsr #32
    a5c8:	04000009 	streq	r0, [r0], #-9
    a5cc:	00005e4e 	andeq	r5, r0, lr, asr #28
    a5d0:	24230200 	strtcs	r0, [r3], #-512	; 0x200
    a5d4:	0003b315 	andeq	fp, r3, r5, lsl r3
    a5d8:	5e4f0400 	cdppl	4, 4, cr0, cr15, cr0, {0}
    a5dc:	02000000 	andeq	r0, r0, #0
    a5e0:	8d152823 	ldchi	8, cr2, [r5, #-140]	; 0xffffff74
    a5e4:	04000004 	streq	r0, [r0], #-4
    a5e8:	00005e50 	andeq	r5, r0, r0, asr lr
    a5ec:	2c230200 	sfmcs	f0, 4, [r3], #-0
    a5f0:	000d4d15 	andeq	r4, sp, r5, lsl sp
    a5f4:	5e510400 	cdppl	4, 5, cr0, cr1, cr0, {0}
    a5f8:	02000000 	andeq	r0, r0, #0
    a5fc:	14003023 	strne	r3, [r0], #-35	; 0x23
    a600:	00000429 	andeq	r0, r0, r9, lsr #8
    a604:	a2540408 	subsge	r0, r4, #134217728	; 0x8000000
    a608:	1500002b 	strne	r0, [r0, #-43]	; 0x2b
    a60c:	0000054b 	andeq	r0, r0, fp, asr #10
    a610:	002c5504 	eoreq	r5, ip, r4, lsl #10
    a614:	23020000 	movwcs	r0, #8192	; 0x2000
    a618:	052a1500 	streq	r1, [sl, #-1280]!	; 0x500
    a61c:	56040000 	strpl	r0, [r4], -r0
    a620:	0000002c 	andeq	r0, r0, ip, lsr #32
    a624:	15012302 	strne	r2, [r1, #-770]	; 0x302
    a628:	00000543 	andeq	r0, r0, r3, asr #10
    a62c:	002c5704 	eoreq	r5, ip, r4, lsl #14
    a630:	23020000 	movwcs	r0, #8192	; 0x2000
    a634:	05531502 	ldrbeq	r1, [r3, #-1282]	; 0x502
    a638:	58040000 	stmdapl	r4, {}	; <UNPREDICTABLE>
    a63c:	0000002c 	andeq	r0, r0, ip, lsr #32
    a640:	16032302 	strne	r2, [r3], -r2, lsl #6
    a644:	006c6c50 	rsbeq	r6, ip, r0, asr ip
    a648:	005e5904 	subseq	r5, lr, r4, lsl #18
    a64c:	23020000 	movwcs	r0, #8192	; 0x2000
    a650:	c5170004 	ldrgt	r0, [r7, #-4]
    a654:	44000020 	strmi	r0, [r0], #-32
    a658:	ea5c0403 	b	170b66c <__bss_end+0x16f8520>
    a65c:	1500002b 	strne	r0, [r0, #-43]	; 0x2b
    a660:	00001e70 	andeq	r1, r0, r0, ror lr
    a664:	2a655d04 	bcs	1961a7c <__bss_end+0x194e930>
    a668:	23020000 	movwcs	r0, #8192	; 0x2000
    a66c:	1fb41500 	svcne	0x00b41500
    a670:	5e040000 	cdppl	0, 0, cr0, cr4, cr0, {0}
    a674:	000025e5 	andeq	r2, r0, r5, ror #11
    a678:	15042302 	strne	r2, [r4, #-770]	; 0x302
    a67c:	000020da 	ldrdeq	r2, [r0], -sl
    a680:	2a6b5f04 	bcs	1ae2298 <__bss_end+0x1acf14c>
    a684:	23030000 	movwcs	r0, #12288	; 0x3000
    a688:	f0150388 			; <UNDEFINED> instruction: 0xf0150388
    a68c:	0400001e 	streq	r0, [r0], #-30
    a690:	002a5960 	eoreq	r5, sl, r0, ror #18
    a694:	8c230300 	stchi	3, cr0, [r3], #-0
    a698:	04020003 	streq	r0, [r2], #-3
    a69c:	00006607 	andeq	r6, r0, r7, lsl #12
    a6a0:	d0011800 	andle	r1, r1, r0, lsl #16
    a6a4:	0100001d 	tsteq	r0, sp, lsl r0
    a6a8:	2a650115 	bcs	194ab04 <__bss_end+0x19379b8>
    a6ac:	24000000 	strcs	r0, [r0], #-0
    a6b0:	242c0001 	strtcs	r0, [ip], #-1
    a6b4:	7d020001 	stcvc	0, cr0, [r2, #-4]
    a6b8:	002c1d00 	eoreq	r1, ip, r0, lsl #26
    a6bc:	169d1900 	ldrne	r1, [sp], r0, lsl #18
    a6c0:	15010000 	strne	r0, [r1, #-0]
    a6c4:	0000005e 	andeq	r0, r0, lr, asr r0
    a6c8:	0000183c 	andeq	r1, r0, ip, lsr r8
    a6cc:	64011a00 	strvs	r1, [r1], #-2560	; 0xa00
    a6d0:	0100001f 	tsteq	r0, pc, lsl r0
    a6d4:	2a65012e 	bcs	194ab94 <__bss_end+0x1937a48>
    a6d8:	242c0000 	strtcs	r0, [ip], #-0
    a6dc:	243c0001 	ldrtcs	r0, [ip], #-1
    a6e0:	7d020001 	stcvc	0, cr0, [r2, #-4]
    a6e4:	98011b00 	stmdals	r1, {r8, r9, fp, ip}
    a6e8:	0100001f 	tsteq	r0, pc, lsl r0
    a6ec:	4c010201 	sfmmi	f0, 4, [r1], {1}
    a6f0:	3c000000 	stccc	0, cr0, [r0], {-0}
    a6f4:	d4000124 	strle	r0, [r0], #-292	; 0x124
    a6f8:	02000125 	andeq	r0, r0, #1073741833	; 0x40000009
    a6fc:	2c63007d 	stclcs	0, cr0, [r3], #-500	; 0xfffffe0c
    a700:	701c0000 	andsvc	r0, ip, r0
    a704:	0100001e 	tsteq	r0, lr, lsl r0
    a708:	2c630201 	sfmcs	f0, 2, [r3], #-4
    a70c:	184f0000 	stmdane	pc, {}^	; <UNPREDICTABLE>
    a710:	13000000 	movwne	r0, #0
    a714:	002ba204 	eoreq	sl, fp, r4, lsl #4
    a718:	20491d00 	subcs	r1, r9, r0, lsl #26
    a71c:	ad010000 	stcge	0, cr0, [r1, #-0]
    a720:	004c0101 	subeq	r0, ip, r1, lsl #2
    a724:	a0010000 	andge	r0, r1, r0
    a728:	1e00002c 	cdpne	0, 0, cr0, cr0, cr12, {1}
    a72c:	00001e84 	andeq	r1, r0, r4, lsl #29
    a730:	5e01af01 	cdppl	15, 0, cr10, cr1, cr1, {0}
    a734:	1e000000 	cdpne	0, 0, cr0, cr0, cr0, {0}
    a738:	0000210c 	andeq	r2, r0, ip, lsl #2
    a73c:	5e01b001 	cdppl	0, 0, cr11, cr1, cr1, {0}
    a740:	1e000000 	cdpne	0, 0, cr0, cr0, cr0, {0}
    a744:	00002103 	andeq	r2, r0, r3, lsl #2
    a748:	5e01b101 	mvfpls	f3, f1
    a74c:	00000000 	andeq	r0, r0, r0
    a750:	2094011f 	addscs	r0, r4, pc, lsl r1
    a754:	58010000 	stmdapl	r1, {}	; <UNPREDICTABLE>
    a758:	004c0102 	subeq	r0, ip, r2, lsl #2
    a75c:	25d40000 	ldrbcs	r0, [r4]
    a760:	2a0c0001 	bcs	30a76c <__bss_end+0x2f7620>
    a764:	186d0001 	stmdane	sp!, {r0}^
    a768:	2d050000 	stccs	0, cr0, [r5, #-0]
    a76c:	701c0000 	andsvc	r0, ip, r0
    a770:	0100001e 	tsteq	r0, lr, lsl r0
    a774:	2c630258 	sfmcs	f0, 2, [r3], #-352	; 0xfffffea0
    a778:	188d0000 	stmne	sp, {}	; <UNPREDICTABLE>
    a77c:	69200000 	stmdbvs	r0!, {}	; <UNPREDICTABLE>
    a780:	0c00002c 	stceq	0, cr0, [r0], {44}	; 0x2c
    a784:	fc000129 	stc2	1, cr0, [r0], {41}	; 0x29
    a788:	01000129 	tsteq	r0, r9, lsr #2
    a78c:	0c2102c1 	sfmeq	f0, 4, [r1], #-772	; 0xfffffcfc
    a790:	fc000129 	stc2	1, cr0, [r0], {41}	; 0x29
    a794:	22000129 	andcs	r0, r0, #1073741834	; 0x4000000a
    a798:	00002c7b 	andeq	r2, r0, fp, ror ip
    a79c:	000018ab 	andeq	r1, r0, fp, lsr #17
    a7a0:	002c8722 	eoreq	r8, ip, r2, lsr #14
    a7a4:	0018f600 	andseq	pc, r8, r0, lsl #12
    a7a8:	2c932200 	lfmcs	f2, 4, [r3], {0}
    a7ac:	19150000 	ldmdbne	r5, {}	; <UNPREDICTABLE>
    a7b0:	00000000 	andeq	r0, r0, r0
    a7b4:	03011b00 	movweq	r1, #6912	; 0x1b00
    a7b8:	0100001f 	tsteq	r0, pc, lsl r0
    a7bc:	4c0102d2 	sfmmi	f0, 4, [r1], {210}	; 0xd2
    a7c0:	0c000000 	stceq	0, cr0, [r0], {-0}
    a7c4:	3400012a 	strcc	r0, [r0], #-298	; 0x12a
    a7c8:	0200012a 	andeq	r0, r0, #-2147483638	; 0x8000000a
    a7cc:	2d33007d 	ldccs	0, cr0, [r3, #-500]!	; 0xfffffe0c
    a7d0:	661c0000 	ldrvs	r0, [ip], -r0
    a7d4:	01000003 	tsteq	r0, r3
    a7d8:	2d3302d2 	lfmcs	f0, 4, [r3, #-840]!	; 0xfffffcb8
    a7dc:	19340000 	ldmdbne	r4!, {}	; <UNPREDICTABLE>
    a7e0:	13000000 	movwne	r0, #0
    a7e4:	002a7104 	eoreq	r7, sl, r4, lsl #2
    a7e8:	35011b00 	strcc	r1, [r1, #-2816]	; 0xb00
    a7ec:	0100001f 	tsteq	r0, pc, lsl r0
    a7f0:	4c0102eb 	sfmmi	f0, 4, [r1], {235}	; 0xeb
    a7f4:	34000000 	strcc	r0, [r0], #-0
    a7f8:	5c00012a 	stfpls	f0, [r0], {42}	; 0x2a
    a7fc:	0200012a 	andeq	r0, r0, #-2147483638	; 0x8000000a
    a800:	2d67007d 	stclcs	0, cr0, [r7, #-500]!	; 0xfffffe0c
    a804:	661c0000 	ldrvs	r0, [ip], -r0
    a808:	01000003 	tsteq	r0, r3
    a80c:	2d3302eb 	lfmcs	f0, 4, [r3, #-940]!	; 0xfffffc54
    a810:	19470000 	stmdbne	r7, {}^	; <UNPREDICTABLE>
    a814:	1f000000 	svcne	0x00000000
    a818:	001e4201 	andseq	r4, lr, r1, lsl #4
    a81c:	03040100 	movweq	r0, #16640	; 0x4100
    a820:	00004c01 	andeq	r4, r0, r1, lsl #24
    a824:	012a5c00 	teqeq	sl, r0, lsl #24
    a828:	012aac00 	teqeq	sl, r0, lsl #24
    a82c:	00196500 	andseq	r6, r9, r0, lsl #10
    a830:	002d9600 	eoreq	r9, sp, r0, lsl #12
    a834:	1e651c00 	cdpne	12, 6, cr1, cr5, cr0, {0}
    a838:	04010000 	streq	r0, [r1], #-0
    a83c:	002d9603 	eoreq	r9, sp, r3, lsl #12
    a840:	00198500 	andseq	r8, r9, r0, lsl #10
    a844:	04130000 	ldreq	r0, [r3], #-0
    a848:	00002b4f 	andeq	r2, r0, pc, asr #22
    a84c:	1e59011f 	mrcne	1, 2, r0, cr9, cr15, {0}
    a850:	1d010000 	stcne	0, cr0, [r1, #-0]
    a854:	004c0103 	subeq	r0, ip, r3, lsl #2
    a858:	2aac0000 	bcs	feb0a860 <__bss_end+0xfeaf7714>
    a85c:	2af00001 	bcs	ffc0a868 <__bss_end+0xffbf771c>
    a860:	19a30001 	stmibne	r3!, {r0}
    a864:	2dcb0000 	stclcs	0, cr0, [fp]
    a868:	651c0000 	ldrvs	r0, [ip, #-0]
    a86c:	0100001e 	tsteq	r0, lr, lsl r0
    a870:	2d96031d 	ldccs	3, cr0, [r6, #116]	; 0x74
    a874:	19c30000 	stmibne	r3, {}^	; <UNPREDICTABLE>
    a878:	1b000000 	blne	a880 <__resume1_start+0xa880>
    a87c:	001ddd01 	andseq	sp, sp, r1, lsl #26
    a880:	03330100 	teqeq	r3, #0
    a884:	00004c01 	andeq	r4, r0, r1, lsl #24
    a888:	012af000 	msreq	CPSR_fx, r0
    a88c:	012b8800 	teqeq	fp, r0, lsl #16
    a890:	007d0200 	rsbseq	r0, sp, r0, lsl #4
    a894:	00002df9 	strdeq	r2, [r0], -r9
    a898:	0008581c 	andeq	r5, r8, ip, lsl r8
    a89c:	03330100 	teqeq	r3, #0
    a8a0:	00002df9 	strdeq	r2, [r0], -r9
    a8a4:	000019e1 	andeq	r1, r0, r1, ror #19
    a8a8:	8c041300 	stchi	3, cr1, [r4], {-0}
    a8ac:	1b00002a 	blne	a95c <__resume1_start+0xa95c>
    a8b0:	001eaf01 	andseq	sl, lr, r1, lsl #30
    a8b4:	035f0100 	cmpeq	pc, #0
    a8b8:	00004c01 	andeq	r4, r0, r1, lsl #24
    a8bc:	012b8800 	teqeq	fp, r0, lsl #16
    a8c0:	012c0c00 	teqeq	ip, r0, lsl #24
    a8c4:	007d0200 	rsbseq	r0, sp, r0, lsl #4
    a8c8:	00002e2d 	andeq	r2, r0, sp, lsr #28
    a8cc:	0008581c 	andeq	r5, r8, ip, lsl r8
    a8d0:	035f0100 	cmpeq	pc, #0
    a8d4:	00002df9 	strdeq	r2, [r0], -r9
    a8d8:	000019ff 	strdeq	r1, [r0], -pc	; <UNPREDICTABLE>
    a8dc:	03011f00 	movweq	r1, #7936	; 0x1f00
    a8e0:	0100001e 	tsteq	r0, lr, lsl r0
    a8e4:	5e01037e 	mcrpl	3, 0, r0, cr1, cr14, {3}
    a8e8:	0c000000 	stceq	0, cr0, [r0], {-0}
    a8ec:	6800012c 	stmdavs	r0, {r2, r3, r5, r8}
    a8f0:	1d00012c 	stfnes	f0, [r0, #-176]	; 0xffffff50
    a8f4:	a900001a 	stmdbge	r0, {r1, r3, r4}
    a8f8:	2300002e 	movwcs	r0, #46	; 0x2e
    a8fc:	0000054b 	andeq	r0, r0, fp, asr #10
    a900:	5e038001 	cdppl	0, 0, cr8, cr3, cr1, {0}
    a904:	3d000000 	stccc	0, cr0, [r0, #-0]
    a908:	2400001a 	strcs	r0, [r0], #-26
    a90c:	0000052a 	andeq	r0, r0, sl, lsr #10
    a910:	5e038101 	mvfpls	f0, f1
    a914:	01000000 	mrseq	r0, (UNDEF: 0)
    a918:	00054323 	andeq	r4, r5, r3, lsr #6
    a91c:	03820100 	orreq	r0, r2, #0
    a920:	0000005e 	andeq	r0, r0, lr, asr r0
    a924:	00001a5c 	andeq	r1, r0, ip, asr sl
    a928:	00055323 	andeq	r5, r5, r3, lsr #6
    a92c:	03830100 	orreq	r0, r3, #0
    a930:	0000005e 	andeq	r0, r0, lr, asr r0
    a934:	00001a7d 	andeq	r1, r0, sp, ror sl
    a938:	001e8423 	andseq	r8, lr, r3, lsr #8
    a93c:	03840100 	orreq	r0, r4, #0
    a940:	0000005e 	andeq	r0, r0, lr, asr r0
    a944:	00001a9c 	muleq	r0, ip, sl
    a948:	001e0f23 	andseq	r0, lr, r3, lsr #30
    a94c:	03850100 	orreq	r0, r5, #0
    a950:	0000005e 	andeq	r0, r0, lr, asr r0
    a954:	00001ac6 	andeq	r1, r0, r6, asr #21
    a958:	0d362500 	cfldr32eq	mvfx2, [r6, #-0]
    a95c:	04010000 	streq	r0, [r1], #-0
    a960:	00002a65 	andeq	r2, r0, r5, ror #20
    a964:	2f700305 	svccs	0x00700305
    a968:	78260001 	stmdavc	r6!, {r0}
    a96c:	0100001f 	tsteq	r0, pc, lsl r0
    a970:	0b5e0192 	bleq	178afc0 <__bss_end+0x1777e74>
    a974:	03050000 	movweq	r0, #20480	; 0x5000
    a978:	00012f78 	andeq	r2, r1, r8, ror pc
    a97c:	00211526 	eoreq	r1, r1, r6, lsr #10
    a980:	01930100 	orrseq	r0, r3, r0, lsl #2
    a984:	0000012e 	andeq	r0, r0, lr, lsr #2
    a988:	2f740305 	svccs	0x00740305
    a98c:	cc260001 	stcgt	0, cr0, [r6], #-4
    a990:	0100001f 	tsteq	r0, pc, lsl r0
    a994:	0ade0194 	beq	ff78afec <__bss_end+0xff777ea0>
    a998:	03050000 	movweq	r0, #20480	; 0x5000
    a99c:	00012f7c 	andeq	r2, r1, ip, ror pc
	...

Disassembly of section .debug_abbrev:

00000000 <.debug_abbrev>:
       0:	25011101 	strcs	r1, [r1, #-257]	; 0x101
       4:	030b130e 	movweq	r1, #45838	; 0xb30e
       8:	110e1b0e 	tstne	lr, lr, lsl #22
       c:	10011201 	andne	r1, r1, r1, lsl #4
      10:	02000006 	andeq	r0, r0, #6
      14:	0b0b0024 	bleq	2c00ac <__bss_end+0x2acf60>
      18:	0e030b3e 	vmoveq.16	d3[0], r0
      1c:	24030000 	strcs	r0, [r3], #-0
      20:	3e0b0b00 	vmlacc.f64	d0, d11, d0
      24:	0008030b 	andeq	r0, r8, fp, lsl #6
      28:	01130400 	tsteq	r3, r0, lsl #8
      2c:	0b0b0e03 	bleq	2c3840 <__bss_end+0x2b06f4>
      30:	0b3b0b3a 	bleq	ec2d20 <__bss_end+0xeafbd4>
      34:	00001301 	andeq	r1, r0, r1, lsl #6
      38:	03000d05 	movweq	r0, #3333	; 0xd05
      3c:	3b0b3a0e 	blcc	2ce87c <__bss_end+0x2bb730>
      40:	3813490b 	ldmdacc	r3, {r0, r1, r3, r8, fp, lr}
      44:	0600000a 	streq	r0, [r0], -sl
      48:	13490101 	movtne	r0, #37121	; 0x9101
      4c:	00001301 	andeq	r1, r0, r1, lsl #6
      50:	49002107 	stmdbmi	r0, {r0, r1, r2, r8, sp}
      54:	000b2f13 	andeq	r2, fp, r3, lsl pc
      58:	00160800 	andseq	r0, r6, r0, lsl #16
      5c:	0b3a0e03 	bleq	e83870 <__bss_end+0xe70724>
      60:	13490b3b 	movtne	r0, #39739	; 0x9b3b
      64:	34090000 	strcc	r0, [r9], #-0
      68:	3a0e0300 	bcc	380c70 <__bss_end+0x36db24>
      6c:	490b3b0b 	stmdbmi	fp, {r0, r1, r3, r8, r9, fp, ip, sp}
      70:	020c3f13 	andeq	r3, ip, #76	; 0x4c
      74:	0a00000a 	beq	a4 <__resume1_start+0xa4>
      78:	13490026 	movtne	r0, #36902	; 0x9026
      7c:	01000000 	mrseq	r0, (UNDEF: 0)
      80:	06100011 			; <UNDEFINED> instruction: 0x06100011
      84:	01120111 	tsteq	r2, r1, lsl r1
      88:	081b0803 	ldmdaeq	fp, {r0, r1, fp}
      8c:	05130825 	ldreq	r0, [r3, #-2085]	; 0x825
      90:	01000000 	mrseq	r0, (UNDEF: 0)
      94:	0e250111 	mcreq	1, 1, r0, cr5, cr1, {0}
      98:	0e030b13 	vmoveq.32	d3[0], r0
      9c:	01110e1b 	tsteq	r1, fp, lsl lr
      a0:	06100112 			; <UNDEFINED> instruction: 0x06100112
      a4:	24020000 	strcs	r0, [r2], #-0
      a8:	3e0b0b00 	vmlacc.f64	d0, d11, d0
      ac:	000e030b 	andeq	r0, lr, fp, lsl #6
      b0:	00240300 	eoreq	r0, r4, r0, lsl #6
      b4:	0b3e0b0b 	bleq	f82ce8 <__bss_end+0xf6fb9c>
      b8:	00000803 	andeq	r0, r0, r3, lsl #16
      bc:	0b000f04 	bleq	3cd4 <__resume1_start+0x3cd4>
      c0:	0013490b 	andseq	r4, r3, fp, lsl #18
      c4:	000f0500 	andeq	r0, pc, r0, lsl #10
      c8:	00000b0b 	andeq	r0, r0, fp, lsl #22
      cc:	3f012e06 	svccc	0x00012e06
      d0:	3a0e030c 	bcc	380d08 <__bss_end+0x36dbbc>
      d4:	270b3b0b 	strcs	r3, [fp, -fp, lsl #22]
      d8:	1201110c 	andne	r1, r1, #3
      dc:	000a4001 	andeq	r4, sl, r1
      e0:	00050700 	andeq	r0, r5, r0, lsl #14
      e4:	0b3a0e03 	bleq	e838f8 <__bss_end+0xe707ac>
      e8:	13490b3b 	movtne	r0, #39739	; 0x9b3b
      ec:	00000602 	andeq	r0, r0, r2, lsl #12
      f0:	03000508 	movweq	r0, #1288	; 0x508
      f4:	3b0b3a08 	blcc	2ce91c <__bss_end+0x2bb7d0>
      f8:	0213490b 	andseq	r4, r3, #180224	; 0x2c000
      fc:	09000006 	stmdbeq	r0, {r1, r2}
     100:	0e030034 	mcreq	0, 0, r0, cr3, cr4, {1}
     104:	0b3b0b3a 	bleq	ec2df4 <__bss_end+0xeafca8>
     108:	06021349 	streq	r1, [r2], -r9, asr #6
     10c:	340a0000 	strcc	r0, [sl], #-0
     110:	3a0e0300 	bcc	380d18 <__bss_end+0x36dbcc>
     114:	490b3b0b 	stmdbmi	fp, {r0, r1, r3, r8, r9, fp, ip, sp}
     118:	000a0213 	andeq	r0, sl, r3, lsl r2
     11c:	11010000 	mrsne	r0, (UNDEF: 1)
     120:	130e2501 	movwne	r2, #58625	; 0xe501
     124:	1b0e030b 	blne	380d58 <__bss_end+0x36dc0c>
     128:	1201110e 	andne	r1, r1, #-2147483645	; 0x80000003
     12c:	00061001 	andeq	r1, r6, r1
     130:	00240200 	eoreq	r0, r4, r0, lsl #4
     134:	0b3e0b0b 	bleq	f82d68 <__bss_end+0xf6fc1c>
     138:	00000e03 	andeq	r0, r0, r3, lsl #28
     13c:	0b002403 	bleq	9150 <__resume1_start+0x9150>
     140:	030b3e0b 	movweq	r3, #48651	; 0xbe0b
     144:	00000008 	andeq	r0, r0, r8
     148:	10001101 	andne	r1, r0, r1, lsl #2
     14c:	12011106 	andne	r1, r1, #-2147483647	; 0x80000001
     150:	1b080301 	blne	200d5c <__bss_end+0x1edc10>
     154:	13082508 	movwne	r2, #34056	; 0x8508
     158:	00000005 	andeq	r0, r0, r5
     15c:	25011101 	strcs	r1, [r1, #-257]	; 0x101
     160:	030b130e 	movweq	r1, #45838	; 0xb30e
     164:	110e1b0e 	tstne	lr, lr, lsl #22
     168:	10011201 	andne	r1, r1, r1, lsl #4
     16c:	02000006 	andeq	r0, r0, #6
     170:	0b0b0024 	bleq	2c0208 <__bss_end+0x2ad0bc>
     174:	0e030b3e 	vmoveq.16	d3[0], r0
     178:	24030000 	strcs	r0, [r3], #-0
     17c:	3e0b0b00 	vmlacc.f64	d0, d11, d0
     180:	0008030b 	andeq	r0, r8, fp, lsl #6
     184:	11010000 	mrsne	r0, (UNDEF: 1)
     188:	130e2501 	movwne	r2, #58625	; 0xe501
     18c:	1b0e030b 	blne	380dc0 <__bss_end+0x36dc74>
     190:	1201110e 	andne	r1, r1, #-2147483645	; 0x80000003
     194:	00061001 	andeq	r1, r6, r1
     198:	00240200 	eoreq	r0, r4, r0, lsl #4
     19c:	0b3e0b0b 	bleq	f82dd0 <__bss_end+0xf6fc84>
     1a0:	00000e03 	andeq	r0, r0, r3, lsl #28
     1a4:	0b002403 	bleq	91b8 <__resume1_start+0x91b8>
     1a8:	030b3e0b 	movweq	r3, #48651	; 0xbe0b
     1ac:	00000008 	andeq	r0, r0, r8
     1b0:	25011101 	strcs	r1, [r1, #-257]	; 0x101
     1b4:	030b130e 	movweq	r1, #45838	; 0xb30e
     1b8:	110e1b0e 	tstne	lr, lr, lsl #22
     1bc:	10011201 	andne	r1, r1, r1, lsl #4
     1c0:	02000006 	andeq	r0, r0, #6
     1c4:	0b0b0024 	bleq	2c025c <__bss_end+0x2ad110>
     1c8:	0e030b3e 	vmoveq.16	d3[0], r0
     1cc:	24030000 	strcs	r0, [r3], #-0
     1d0:	3e0b0b00 	vmlacc.f64	d0, d11, d0
     1d4:	0008030b 	andeq	r0, r8, fp, lsl #6
     1d8:	11010000 	mrsne	r0, (UNDEF: 1)
     1dc:	130e2501 	movwne	r2, #58625	; 0xe501
     1e0:	1b0e030b 	blne	380e14 <__bss_end+0x36dcc8>
     1e4:	1201110e 	andne	r1, r1, #-2147483645	; 0x80000003
     1e8:	00061001 	andeq	r1, r6, r1
     1ec:	00240200 	eoreq	r0, r4, r0, lsl #4
     1f0:	0b3e0b0b 	bleq	f82e24 <__bss_end+0xf6fcd8>
     1f4:	00000e03 	andeq	r0, r0, r3, lsl #28
     1f8:	03001603 	movweq	r1, #1539	; 0x603
     1fc:	3b0b3a0e 	blcc	2cea3c <__bss_end+0x2bb8f0>
     200:	0013490b 	andseq	r4, r3, fp, lsl #18
     204:	00240400 	eoreq	r0, r4, r0, lsl #8
     208:	0b3e0b0b 	bleq	f82e3c <__bss_end+0xf6fcf0>
     20c:	00000803 	andeq	r0, r0, r3, lsl #16
     210:	0b011305 	bleq	44e2c <__bss_end+0x31ce0>
     214:	3b0b3a0b 	blcc	2cea48 <__bss_end+0x2bb8fc>
     218:	0013010b 	andseq	r0, r3, fp, lsl #2
     21c:	000d0600 	andeq	r0, sp, r0, lsl #12
     220:	0b3a0e03 	bleq	e83a34 <__bss_end+0xe708e8>
     224:	13490b3b 	movtne	r0, #39739	; 0x9b3b
     228:	0b0d0b0b 	bleq	342e5c <__bss_end+0x32fd10>
     22c:	0a380b0c 	beq	e02e64 <__bss_end+0xdefd18>
     230:	17070000 	strne	r0, [r7, -r0]
     234:	3a0b0b01 	bcc	2c2e40 <__bss_end+0x2afcf4>
     238:	010b3b0b 	tsteq	fp, fp, lsl #22
     23c:	08000013 	stmdaeq	r0, {r0, r1, r4}
     240:	0e03000d 	cdpeq	0, 0, cr0, cr3, cr13, {0}
     244:	0b3b0b3a 	bleq	ec2f34 <__bss_end+0xeafde8>
     248:	00001349 	andeq	r1, r0, r9, asr #6
     24c:	03000d09 	movweq	r0, #3337	; 0xd09
     250:	3b0b3a0e 	blcc	2cea90 <__bss_end+0x2bb944>
     254:	0b134905 	bleq	4d2670 <__bss_end+0x4bf524>
     258:	0c0b0d0b 	stceq	13, cr0, [fp], {11}
     25c:	000a380b 	andeq	r3, sl, fp, lsl #16
     260:	000d0a00 	andeq	r0, sp, r0, lsl #20
     264:	0b3a0e03 	bleq	e83a78 <__bss_end+0xe7092c>
     268:	1349053b 	movtne	r0, #38203	; 0x953b
     26c:	160b0000 	strne	r0, [fp], -r0
     270:	3a0e0300 	bcc	380e78 <__bss_end+0x36dd2c>
     274:	49053b0b 	stmdbmi	r5, {r0, r1, r3, r8, r9, fp, ip, sp}
     278:	0c000013 	stceq	0, cr0, [r0], {19}
     27c:	0b0b0113 	bleq	2c06d0 <__bss_end+0x2ad584>
     280:	053b0b3a 	ldreq	r0, [fp, #-2874]!	; 0xb3a
     284:	00001301 	andeq	r1, r0, r1, lsl #6
     288:	0b01170d 	bleq	45ec4 <__bss_end+0x32d78>
     28c:	3b0b3a0b 	blcc	2ceac0 <__bss_end+0x2bb974>
     290:	00130105 	andseq	r0, r3, r5, lsl #2
     294:	01130e00 	tsteq	r3, r0, lsl #28
     298:	050b0e03 	streq	r0, [fp, #-3587]	; 0xe03
     29c:	053b0b3a 	ldreq	r0, [fp, #-2874]!	; 0xb3a
     2a0:	00001301 	andeq	r1, r0, r1, lsl #6
     2a4:	03000d0f 	movweq	r0, #3343	; 0xd0f
     2a8:	3b0b3a0e 	blcc	2ceae8 <__bss_end+0x2bb99c>
     2ac:	38134905 	ldmdacc	r3, {r0, r2, r8, fp, lr}
     2b0:	1000000a 	andne	r0, r0, sl
     2b4:	13490035 	movtne	r0, #36917	; 0x9035
     2b8:	01110000 	tsteq	r1, r0
     2bc:	01134901 	tsteq	r3, r1, lsl #18
     2c0:	12000013 	andne	r0, r0, #19
     2c4:	13490021 	movtne	r0, #36897	; 0x9021
     2c8:	00000b2f 	andeq	r0, r0, pc, lsr #22
     2cc:	0b000f13 	bleq	3f20 <__resume1_start+0x3f20>
     2d0:	0013490b 	andseq	r4, r3, fp, lsl #18
     2d4:	01131400 	tsteq	r3, r0, lsl #8
     2d8:	0b0b0e03 	bleq	2c3aec <__bss_end+0x2b09a0>
     2dc:	0b3b0b3a 	bleq	ec2fcc <__bss_end+0xeafe80>
     2e0:	00001301 	andeq	r1, r0, r1, lsl #6
     2e4:	03000d15 	movweq	r0, #3349	; 0xd15
     2e8:	3b0b3a0e 	blcc	2ceb28 <__bss_end+0x2bb9dc>
     2ec:	3813490b 	ldmdacc	r3, {r0, r1, r3, r8, fp, lr}
     2f0:	1600000a 	strne	r0, [r0], -sl
     2f4:	0803000d 	stmdaeq	r3, {r0, r2, r3}
     2f8:	0b3b0b3a 	bleq	ec2fe8 <__bss_end+0xeafe9c>
     2fc:	0a381349 	beq	e05028 <__bss_end+0xdf1edc>
     300:	04170000 	ldreq	r0, [r7], #-0
     304:	3a0b0b01 	bcc	2c2f10 <__bss_end+0x2afdc4>
     308:	010b3b0b 	tsteq	fp, fp, lsl #22
     30c:	18000013 	stmdane	r0, {r0, r1, r4}
     310:	0e030028 	cdpeq	0, 0, cr0, cr3, cr8, {1}
     314:	00000d1c 	andeq	r0, r0, ip, lsl sp
     318:	0b000f19 	bleq	3f84 <__resume1_start+0x3f84>
     31c:	1a00000b 	bne	350 <__resume1_start+0x350>
     320:	0c3f002e 	ldceq	0, cr0, [pc], #-184	; 270 <__resume1_start+0x270>
     324:	0b3a0e03 	bleq	e83b38 <__bss_end+0xe709ec>
     328:	0c270b3b 	stceq	11, cr0, [r7], #-236	; 0xffffff14
     32c:	01111349 	tsteq	r1, r9, asr #6
     330:	06400112 			; <UNDEFINED> instruction: 0x06400112
     334:	2e1b0000 	cdpcs	0, 1, cr0, cr11, cr0, {0}
     338:	030c3f01 	movweq	r3, #52993	; 0xcf01
     33c:	3b0b3a0e 	blcc	2ceb7c <__bss_end+0x2bba30>
     340:	110c270b 	tstne	ip, fp, lsl #14
     344:	40011201 	andmi	r1, r1, r1, lsl #4
     348:	00130106 	andseq	r0, r3, r6, lsl #2
     34c:	00341c00 	eorseq	r1, r4, r0, lsl #24
     350:	0b3a0e03 	bleq	e83b64 <__bss_end+0xe70a18>
     354:	13490b3b 	movtne	r0, #39739	; 0x9b3b
     358:	00000602 	andeq	r0, r0, r2, lsl #12
     35c:	0300341d 	movweq	r3, #1053	; 0x41d
     360:	3b0b3a0e 	blcc	2ceba0 <__bss_end+0x2bba54>
     364:	1c13490b 	ldcne	9, cr4, [r3], {11}
     368:	1e00000b 	cdpne	0, 0, cr0, cr0, cr11, {0}
     36c:	0e030034 	mcreq	0, 0, r0, cr3, cr4, {1}
     370:	0b3b0b3a 	bleq	ec3060 <__bss_end+0xeaff14>
     374:	00001349 	andeq	r1, r0, r9, asr #6
     378:	0300341f 	movweq	r3, #1055	; 0x41f
     37c:	3b0b3a0e 	blcc	2cebbc <__bss_end+0x2bba70>
     380:	0213490b 	andseq	r4, r3, #180224	; 0x2c000
     384:	2000000a 	andcs	r0, r0, sl
     388:	0e030034 	mcreq	0, 0, r0, cr3, cr4, {1}
     38c:	0b3b0b3a 	bleq	ec307c <__bss_end+0xeaff30>
     390:	0c3f1349 	ldceq	3, cr1, [pc], #-292	; 274 <__resume1_start+0x274>
     394:	00000a02 	andeq	r0, r0, r2, lsl #20
     398:	03003421 	movweq	r3, #1057	; 0x421
     39c:	3b0b3a0e 	blcc	2cebdc <__bss_end+0x2bba90>
     3a0:	3f13490b 	svccc	0x0013490b
     3a4:	000c3c0c 	andeq	r3, ip, ip, lsl #24
     3a8:	11010000 	mrsne	r0, (UNDEF: 1)
     3ac:	130e2501 	movwne	r2, #58625	; 0xe501
     3b0:	1b0e030b 	blne	380fe4 <__bss_end+0x36de98>
     3b4:	1201110e 	andne	r1, r1, #-2147483645	; 0x80000003
     3b8:	00061001 	andeq	r1, r6, r1
     3bc:	00240200 	eoreq	r0, r4, r0, lsl #4
     3c0:	0b3e0b0b 	bleq	f82ff4 <__bss_end+0xf6fea8>
     3c4:	00000e03 	andeq	r0, r0, r3, lsl #28
     3c8:	0b002403 	bleq	93dc <__resume1_start+0x93dc>
     3cc:	030b3e0b 	movweq	r3, #48651	; 0xbe0b
     3d0:	04000008 	streq	r0, [r0], #-8
     3d4:	0e030016 	mcreq	0, 0, r0, cr3, cr6, {0}
     3d8:	0b3b0b3a 	bleq	ec30c8 <__bss_end+0xeaff7c>
     3dc:	00001349 	andeq	r1, r0, r9, asr #6
     3e0:	03011305 	movweq	r1, #4869	; 0x1305
     3e4:	3a0b0b0e 	bcc	2c3024 <__bss_end+0x2afed8>
     3e8:	010b3b0b 	tsteq	fp, fp, lsl #22
     3ec:	06000013 			; <UNDEFINED> instruction: 0x06000013
     3f0:	0e03000d 	cdpeq	0, 0, cr0, cr3, cr13, {0}
     3f4:	0b3b0b3a 	bleq	ec30e4 <__bss_end+0xeaff98>
     3f8:	0b0b1349 	bleq	2c5124 <__bss_end+0x2b1fd8>
     3fc:	0b0c0b0d 	bleq	303038 <__bss_end+0x2efeec>
     400:	00000a38 	andeq	r0, r0, r8, lsr sl
     404:	0b011707 	bleq	46028 <__bss_end+0x32edc>
     408:	3b0b3a0b 	blcc	2cec3c <__bss_end+0x2bbaf0>
     40c:	0013010b 	andseq	r0, r3, fp, lsl #2
     410:	000d0800 	andeq	r0, sp, r0, lsl #16
     414:	0b3a0e03 	bleq	e83c28 <__bss_end+0xe70adc>
     418:	13490b3b 	movtne	r0, #39739	; 0x9b3b
     41c:	35090000 	strcc	r0, [r9, #-0]
     420:	00134900 	andseq	r4, r3, r0, lsl #18
     424:	012e0a00 	teqeq	lr, r0, lsl #20
     428:	0e030c3f 	mcreq	12, 0, r0, cr3, cr15, {1}
     42c:	0b3b0b3a 	bleq	ec311c <__bss_end+0xeaffd0>
     430:	01110c27 	tsteq	r1, r7, lsr #24
     434:	06400112 			; <UNDEFINED> instruction: 0x06400112
     438:	00001301 	andeq	r1, r0, r1, lsl #6
     43c:	0300340b 	movweq	r3, #1035	; 0x40b
     440:	3b0b3a0e 	blcc	2cec80 <__bss_end+0x2bbb34>
     444:	0213490b 	andseq	r4, r3, #180224	; 0x2c000
     448:	0c00000a 	stceq	0, cr0, [r0], {10}
     44c:	0c3f002e 	ldceq	0, cr0, [pc], #-184	; 39c <__resume1_start+0x39c>
     450:	0b3a0e03 	bleq	e83c64 <__bss_end+0xe70b18>
     454:	0c270b3b 	stceq	11, cr0, [r7], #-236	; 0xffffff14
     458:	01120111 	tsteq	r2, r1, lsl r1
     45c:	00000a40 	andeq	r0, r0, r0, asr #20
     460:	0300340d 	movweq	r3, #1037	; 0x40d
     464:	3b0b3a08 	blcc	2cec8c <__bss_end+0x2bbb40>
     468:	0213490b 	andseq	r4, r3, #180224	; 0x2c000
     46c:	0e000006 	cdpeq	0, 0, cr0, cr0, cr6, {0}
     470:	08030005 	stmdaeq	r3, {r0, r2}
     474:	0b3b0b3a 	bleq	ec3164 <__bss_end+0xeb0018>
     478:	06021349 	streq	r1, [r2], -r9, asr #6
     47c:	2e0f0000 	cdpcs	0, 0, cr0, cr15, cr0, {0}
     480:	030c3f01 	movweq	r3, #52993	; 0xcf01
     484:	3b0b3a0e 	blcc	2cecc4 <__bss_end+0x2bbb78>
     488:	490c270b 	stmdbmi	ip, {r0, r1, r3, r8, r9, sl, sp}
     48c:	12011113 	andne	r1, r1, #-1073741820	; 0xc0000004
     490:	01064001 	tsteq	r6, r1
     494:	10000013 	andne	r0, r0, r3, lsl r0
     498:	0c3f012e 	ldfeqs	f0, [pc], #-184	; 3e8 <__resume1_start+0x3e8>
     49c:	0b3a0e03 	bleq	e83cb0 <__bss_end+0xe70b64>
     4a0:	0c270b3b 	stceq	11, cr0, [r7], #-236	; 0xffffff14
     4a4:	01120111 	tsteq	r2, r1, lsl r1
     4a8:	13010a40 	movwne	r0, #6720	; 0x1a40
     4ac:	2e110000 	cdpcs	0, 1, cr0, cr1, cr0, {0}
     4b0:	030c3f01 	movweq	r3, #52993	; 0xcf01
     4b4:	3b0b3a0e 	blcc	2cecf4 <__bss_end+0x2bbba8>
     4b8:	110c2705 	tstne	ip, r5, lsl #14
     4bc:	40011201 	andmi	r1, r1, r1, lsl #4
     4c0:	0013010a 	andseq	r0, r3, sl, lsl #2
     4c4:	00341200 	eorseq	r1, r4, r0, lsl #4
     4c8:	0b3a0e03 	bleq	e83cdc <__bss_end+0xe70b90>
     4cc:	1349053b 	movtne	r0, #38203	; 0x953b
     4d0:	00000a02 	andeq	r0, r0, r2, lsl #20
     4d4:	3f012e13 	svccc	0x00012e13
     4d8:	3a0e030c 	bcc	381110 <__bss_end+0x36dfc4>
     4dc:	27053b0b 	strcs	r3, [r5, -fp, lsl #22]
     4e0:	1201110c 	andne	r1, r1, #3
     4e4:	01064001 	tsteq	r6, r1
     4e8:	14000013 	strne	r0, [r0], #-19
     4ec:	08030005 	stmdaeq	r3, {r0, r2}
     4f0:	053b0b3a 	ldreq	r0, [fp, #-2874]!	; 0xb3a
     4f4:	06021349 	streq	r1, [r2], -r9, asr #6
     4f8:	34150000 	ldrcc	r0, [r5], #-0
     4fc:	3a0e0300 	bcc	381104 <__bss_end+0x36dfb8>
     500:	49053b0b 	stmdbmi	r5, {r0, r1, r3, r8, r9, fp, ip, sp}
     504:	00060213 	andeq	r0, r6, r3, lsl r2
     508:	000f1600 	andeq	r1, pc, r0, lsl #12
     50c:	13490b0b 	movtne	r0, #39691	; 0x9b0b
     510:	34170000 	ldrcc	r0, [r7], #-0
     514:	3a0e0300 	bcc	38111c <__bss_end+0x36dfd0>
     518:	490b3b0b 	stmdbmi	fp, {r0, r1, r3, r8, r9, fp, ip, sp}
     51c:	020c3f13 	andeq	r3, ip, #76	; 0x4c
     520:	0000000a 	andeq	r0, r0, sl
     524:	25011101 	strcs	r1, [r1, #-257]	; 0x101
     528:	030b130e 	movweq	r1, #45838	; 0xb30e
     52c:	110e1b0e 	tstne	lr, lr, lsl #22
     530:	10011201 	andne	r1, r1, r1, lsl #4
     534:	02000006 	andeq	r0, r0, #6
     538:	0b0b0024 	bleq	2c05d0 <__bss_end+0x2ad484>
     53c:	0e030b3e 	vmoveq.16	d3[0], r0
     540:	16030000 	strne	r0, [r3], -r0
     544:	3a0e0300 	bcc	38114c <__bss_end+0x36e000>
     548:	490b3b0b 	stmdbmi	fp, {r0, r1, r3, r8, r9, fp, ip, sp}
     54c:	04000013 	streq	r0, [r0], #-19
     550:	0b0b0024 	bleq	2c05e8 <__bss_end+0x2ad49c>
     554:	08030b3e 	stmdaeq	r3, {r1, r2, r3, r4, r5, r8, r9, fp}
     558:	04050000 	streq	r0, [r5], #-0
     55c:	0b0e0301 	bleq	381168 <__bss_end+0x36e01c>
     560:	3b0b3a0b 	blcc	2ced94 <__bss_end+0x2bbc48>
     564:	0013010b 	andseq	r0, r3, fp, lsl #2
     568:	00280600 	eoreq	r0, r8, r0, lsl #12
     56c:	0d1c0e03 	ldceq	14, cr0, [ip, #-12]
     570:	2e070000 	cdpcs	0, 0, cr0, cr7, cr0, {0}
     574:	030c3f01 	movweq	r3, #52993	; 0xcf01
     578:	3b0b3a0e 	blcc	2cedb8 <__bss_end+0x2bbc6c>
     57c:	490c270b 	stmdbmi	ip, {r0, r1, r3, r8, r9, sl, sp}
     580:	010b2013 	tsteq	fp, r3, lsl r0
     584:	08000013 	stmdaeq	r0, {r0, r1, r4}
     588:	0e030034 	mcreq	0, 0, r0, cr3, cr4, {1}
     58c:	0b3b0b3a 	bleq	ec327c <__bss_end+0xeb0130>
     590:	00001349 	andeq	r1, r0, r9, asr #6
     594:	3f012e09 	svccc	0x00012e09
     598:	3a0e030c 	bcc	3811d0 <__bss_end+0x36e084>
     59c:	270b3b0b 	strcs	r3, [fp, -fp, lsl #22]
     5a0:	010b200c 	tsteq	fp, ip
     5a4:	0a000013 	beq	5f8 <__resume1_start+0x5f8>
     5a8:	0e030005 	cdpeq	0, 0, cr0, cr3, cr5, {0}
     5ac:	0b3b0b3a 	bleq	ec329c <__bss_end+0xeb0150>
     5b0:	00001349 	andeq	r1, r0, r9, asr #6
     5b4:	03012e0b 	movweq	r2, #7691	; 0x1e0b
     5b8:	3b0b3a0e 	blcc	2cedf8 <__bss_end+0x2bbcac>
     5bc:	490c270b 	stmdbmi	ip, {r0, r1, r3, r8, r9, sl, sp}
     5c0:	010b2013 	tsteq	fp, r3, lsl r0
     5c4:	0c000013 	stceq	0, cr0, [r0], {19}
     5c8:	1331012e 	teqne	r1, #-2147483637	; 0x8000000b
     5cc:	01120111 	tsteq	r2, r1, lsl r1
     5d0:	13010a40 	movwne	r0, #6720	; 0x1a40
     5d4:	050d0000 	streq	r0, [sp, #-0]
     5d8:	02133100 	andseq	r3, r3, #0
     5dc:	0e000006 	cdpeq	0, 0, cr0, cr0, cr6, {0}
     5e0:	13310005 	teqne	r1, #5
     5e4:	00000a02 	andeq	r0, r0, r2, lsl #20
     5e8:	3100340f 	tstcc	r0, pc, lsl #8
     5ec:	00060213 	andeq	r0, r6, r3, lsl r2
     5f0:	002e1000 	eoreq	r1, lr, r0
     5f4:	0e030c3f 	mcreq	12, 0, r0, cr3, cr15, {1}
     5f8:	0b3b0b3a 	bleq	ec32e8 <__bss_end+0xeb019c>
     5fc:	01110c27 	tsteq	r1, r7, lsr #24
     600:	0a400112 	beq	1000a50 <__bss_end+0xfed904>
     604:	34110000 	ldrcc	r0, [r1], #-0
     608:	02133100 	andseq	r3, r3, #0
     60c:	1200000a 	andne	r0, r0, #10
     610:	0c3f012e 	ldfeqs	f0, [pc], #-184	; 560 <__resume1_start+0x560>
     614:	0b3a0e03 	bleq	e83e28 <__bss_end+0xe70cdc>
     618:	0c270b3b 	stceq	11, cr0, [r7], #-236	; 0xffffff14
     61c:	01120111 	tsteq	r2, r1, lsl r1
     620:	13010a40 	movwne	r0, #6720	; 0x1a40
     624:	34130000 	ldrcc	r0, [r3], #-0
     628:	3a0e0300 	bcc	381230 <__bss_end+0x36e0e4>
     62c:	490b3b0b 	stmdbmi	fp, {r0, r1, r3, r8, r9, fp, ip, sp}
     630:	00060213 	andeq	r0, r6, r3, lsl r2
     634:	012e1400 	teqeq	lr, r0, lsl #8
     638:	0e030c3f 	mcreq	12, 0, r0, cr3, cr15, {1}
     63c:	0b3b0b3a 	bleq	ec332c <__bss_end+0xeb01e0>
     640:	01110c27 	tsteq	r1, r7, lsr #24
     644:	06400112 			; <UNDEFINED> instruction: 0x06400112
     648:	00001301 	andeq	r1, r0, r1, lsl #6
     64c:	31011d15 	tstcc	r1, r5, lsl sp
     650:	12011113 	andne	r1, r1, #-1073741820	; 0xc0000004
     654:	590b5801 	stmdbpl	fp, {r0, fp, ip, lr}
     658:	0013010b 	andseq	r0, r3, fp, lsl #2
     65c:	010b1600 	tsteq	fp, r0, lsl #12
     660:	01120111 	tsteq	r2, r1, lsl r1
     664:	1d170000 	ldcne	0, cr0, [r7, #-0]
     668:	11133101 	tstne	r3, r1, lsl #2
     66c:	58011201 	stmdapl	r1, {r0, r9, ip}
     670:	000b590b 	andeq	r5, fp, fp, lsl #18
     674:	00051800 	andeq	r1, r5, r0, lsl #16
     678:	0b3a0803 	bleq	e8268c <__bss_end+0xe6f540>
     67c:	13490b3b 	movtne	r0, #39739	; 0x9b3b
     680:	00000602 	andeq	r0, r0, r2, lsl #12
     684:	03003419 	movweq	r3, #1049	; 0x419
     688:	3b0b3a08 	blcc	2ceeb0 <__bss_end+0x2bbd64>
     68c:	0213490b 	andseq	r4, r3, #180224	; 0x2c000
     690:	1a000006 	bne	6b0 <__resume1_start+0x6b0>
     694:	0803000a 	stmdaeq	r3, {r1, r3}
     698:	0b3b0b3a 	bleq	ec3388 <__bss_end+0xeb023c>
     69c:	00000111 	andeq	r0, r0, r1, lsl r1
     6a0:	0300051b 	movweq	r0, #1307	; 0x51b
     6a4:	3b0b3a0e 	blcc	2ceee4 <__bss_end+0x2bbd98>
     6a8:	0213490b 	andseq	r4, r3, #180224	; 0x2c000
     6ac:	1c000006 	stcne	0, cr0, [r0], {6}
     6b0:	0e030005 	cdpeq	0, 0, cr0, cr3, cr5, {0}
     6b4:	0b3b0b3a 	bleq	ec33a4 <__bss_end+0xeb0258>
     6b8:	0a021349 	beq	853e4 <__bss_end+0x72298>
     6bc:	2e1d0000 	cdpcs	0, 1, cr0, cr13, cr0, {0}
     6c0:	030c3f01 	movweq	r3, #52993	; 0xcf01
     6c4:	3b0b3a0e 	blcc	2cef04 <__bss_end+0x2bbdb8>
     6c8:	490c270b 	stmdbmi	ip, {r0, r1, r3, r8, r9, sl, sp}
     6cc:	12011113 	andne	r1, r1, #-1073741820	; 0xc0000004
     6d0:	010a4001 	tsteq	sl, r1
     6d4:	1e000013 	mcrne	0, 0, r0, cr0, cr3, {0}
     6d8:	0e030034 	mcreq	0, 0, r0, cr3, cr4, {1}
     6dc:	0b3b0b3a 	bleq	ec33cc <__bss_end+0xeb0280>
     6e0:	0a021349 	beq	8540c <__bss_end+0x722c0>
     6e4:	01000000 	mrseq	r0, (UNDEF: 0)
     6e8:	0e250111 	mcreq	1, 1, r0, cr5, cr1, {0}
     6ec:	0e030b13 	vmoveq.32	d3[0], r0
     6f0:	01110e1b 	tsteq	r1, fp, lsl lr
     6f4:	06100112 			; <UNDEFINED> instruction: 0x06100112
     6f8:	24020000 	strcs	r0, [r2], #-0
     6fc:	3e0b0b00 	vmlacc.f64	d0, d11, d0
     700:	0008030b 	andeq	r0, r8, fp, lsl #6
     704:	00240300 	eoreq	r0, r4, r0, lsl #6
     708:	0b3e0b0b 	bleq	f8333c <__bss_end+0xf701f0>
     70c:	00000e03 	andeq	r0, r0, r3, lsl #28
     710:	03001604 	movweq	r1, #1540	; 0x604
     714:	3b0b3a0e 	blcc	2cef54 <__bss_end+0x2bbe08>
     718:	0013490b 	andseq	r4, r3, fp, lsl #18
     71c:	01130500 	tsteq	r3, r0, lsl #10
     720:	0b0b0e03 	bleq	2c3f34 <__bss_end+0x2b0de8>
     724:	0b3b0b3a 	bleq	ec3414 <__bss_end+0xeb02c8>
     728:	00001301 	andeq	r1, r0, r1, lsl #6
     72c:	03000d06 	movweq	r0, #3334	; 0xd06
     730:	3b0b3a0e 	blcc	2cef70 <__bss_end+0x2bbe24>
     734:	3813490b 	ldmdacc	r3, {r0, r1, r3, r8, fp, lr}
     738:	0700000a 	streq	r0, [r0, -sl]
     73c:	0803000d 	stmdaeq	r3, {r0, r2, r3}
     740:	0b3b0b3a 	bleq	ec3430 <__bss_end+0xeb02e4>
     744:	0a381349 	beq	e05470 <__bss_end+0xdf2324>
     748:	2e080000 	cdpcs	0, 0, cr0, cr8, cr0, {0}
     74c:	030c3f01 	movweq	r3, #52993	; 0xcf01
     750:	3b0b3a0e 	blcc	2cef90 <__bss_end+0x2bbe44>
     754:	110c270b 	tstne	ip, fp, lsl #14
     758:	40011201 	andmi	r1, r1, r1, lsl #4
     75c:	0013010a 	andseq	r0, r3, sl, lsl #2
     760:	00050900 	andeq	r0, r5, r0, lsl #18
     764:	0b3a0e03 	bleq	e83f78 <__bss_end+0xe70e2c>
     768:	13490b3b 	movtne	r0, #39739	; 0x9b3b
     76c:	00000a02 	andeq	r0, r0, r2, lsl #20
     770:	0b000f0a 	bleq	43a0 <__resume1_start+0x43a0>
     774:	0013490b 	andseq	r4, r3, fp, lsl #18
     778:	012e0b00 	teqeq	lr, r0, lsl #22
     77c:	0e030c3f 	mcreq	12, 0, r0, cr3, cr15, {1}
     780:	0b3b0b3a 	bleq	ec3470 <__bss_end+0xeb0324>
     784:	01110c27 	tsteq	r1, r7, lsr #24
     788:	0a400112 	beq	1000bd8 <__bss_end+0xfeda8c>
     78c:	01000000 	mrseq	r0, (UNDEF: 0)
     790:	06100011 			; <UNDEFINED> instruction: 0x06100011
     794:	01120111 	tsteq	r2, r1, lsl r1
     798:	081b0803 	ldmdaeq	fp, {r0, r1, fp}
     79c:	05130825 	ldreq	r0, [r3, #-2085]	; 0x825
     7a0:	01000000 	mrseq	r0, (UNDEF: 0)
     7a4:	0e250111 	mcreq	1, 1, r0, cr5, cr1, {0}
     7a8:	0e030b13 	vmoveq.32	d3[0], r0
     7ac:	01110e1b 	tsteq	r1, fp, lsl lr
     7b0:	06100112 			; <UNDEFINED> instruction: 0x06100112
     7b4:	24020000 	strcs	r0, [r2], #-0
     7b8:	3e0b0b00 	vmlacc.f64	d0, d11, d0
     7bc:	000e030b 	andeq	r0, lr, fp, lsl #6
     7c0:	00240300 	eoreq	r0, r4, r0, lsl #6
     7c4:	0b3e0b0b 	bleq	f833f8 <__bss_end+0xf702ac>
     7c8:	00000803 	andeq	r0, r0, r3, lsl #16
     7cc:	03001604 	movweq	r1, #1540	; 0x604
     7d0:	3b0b3a0e 	blcc	2cf010 <__bss_end+0x2bbec4>
     7d4:	0013490b 	andseq	r4, r3, fp, lsl #18
     7d8:	01130500 	tsteq	r3, r0, lsl #10
     7dc:	0b0b0e03 	bleq	2c3ff0 <__bss_end+0x2b0ea4>
     7e0:	0b3b0b3a 	bleq	ec34d0 <__bss_end+0xeb0384>
     7e4:	00001301 	andeq	r1, r0, r1, lsl #6
     7e8:	03000d06 	movweq	r0, #3334	; 0xd06
     7ec:	3b0b3a0e 	blcc	2cf02c <__bss_end+0x2bbee0>
     7f0:	3813490b 	ldmdacc	r3, {r0, r1, r3, r8, fp, lr}
     7f4:	0700000a 	streq	r0, [r0, -sl]
     7f8:	0803000d 	stmdaeq	r3, {r0, r2, r3}
     7fc:	0b3b0b3a 	bleq	ec34ec <__bss_end+0xeb03a0>
     800:	0a381349 	beq	e0552c <__bss_end+0xdf23e0>
     804:	2e080000 	cdpcs	0, 0, cr0, cr8, cr0, {0}
     808:	030c3f01 	movweq	r3, #52993	; 0xcf01
     80c:	3b0b3a0e 	blcc	2cf04c <__bss_end+0x2bbf00>
     810:	110c270b 	tstne	ip, fp, lsl #14
     814:	40011201 	andmi	r1, r1, r1, lsl #4
     818:	0013010a 	andseq	r0, r3, sl, lsl #2
     81c:	00050900 	andeq	r0, r5, r0, lsl #18
     820:	0b3a0e03 	bleq	e84034 <__bss_end+0xe70ee8>
     824:	13490b3b 	movtne	r0, #39739	; 0x9b3b
     828:	00000a02 	andeq	r0, r0, r2, lsl #20
     82c:	0b000f0a 	bleq	445c <__resume1_start+0x445c>
     830:	0013490b 	andseq	r4, r3, fp, lsl #18
     834:	012e0b00 	teqeq	lr, r0, lsl #22
     838:	0e030c3f 	mcreq	12, 0, r0, cr3, cr15, {1}
     83c:	053b0b3a 	ldreq	r0, [fp, #-2874]!	; 0xb3a
     840:	01110c27 	tsteq	r1, r7, lsr #24
     844:	0a400112 	beq	1000c94 <__bss_end+0xfedb48>
     848:	00001301 	andeq	r1, r0, r1, lsl #6
     84c:	0300050c 	movweq	r0, #1292	; 0x50c
     850:	3b0b3a0e 	blcc	2cf090 <__bss_end+0x2bbf44>
     854:	02134905 	andseq	r4, r3, #81920	; 0x14000
     858:	0d00000a 	stceq	0, cr0, [r0, #-40]	; 0xffffffd8
     85c:	08030034 	stmdaeq	r3, {r2, r4, r5}
     860:	053b0b3a 	ldreq	r0, [fp, #-2874]!	; 0xb3a
     864:	06021349 	streq	r1, [r2], -r9, asr #6
     868:	340e0000 	strcc	r0, [lr], #-0
     86c:	3a0e0300 	bcc	381474 <__bss_end+0x36e328>
     870:	49053b0b 	stmdbmi	r5, {r0, r1, r3, r8, r9, fp, ip, sp}
     874:	0f000013 	svceq	0x00000013
     878:	0c3f002e 	ldceq	0, cr0, [pc], #-184	; 7c8 <__resume1_start+0x7c8>
     87c:	0b3a0e03 	bleq	e84090 <__bss_end+0xe70f44>
     880:	0c27053b 	cfstr32eq	mvfx0, [r7], #-236	; 0xffffff14
     884:	01120111 	tsteq	r2, r1, lsl r1
     888:	00000a40 	andeq	r0, r0, r0, asr #20
     88c:	03003410 	movweq	r3, #1040	; 0x410
     890:	3b0b3a0e 	blcc	2cf0d0 <__bss_end+0x2bbf84>
     894:	0213490b 	andseq	r4, r3, #180224	; 0x2c000
     898:	1100000a 	tstne	r0, sl
     89c:	0e030034 	mcreq	0, 0, r0, cr3, cr4, {1}
     8a0:	0b3b0b3a 	bleq	ec3590 <__bss_end+0xeb0444>
     8a4:	00001349 	andeq	r1, r0, r9, asr #6
     8a8:	49002612 	stmdbmi	r0, {r1, r4, r9, sl, sp}
     8ac:	13000013 	movwne	r0, #19
     8b0:	13490101 	movtne	r0, #37121	; 0x9101
     8b4:	00001301 	andeq	r1, r0, r1, lsl #6
     8b8:	49002114 	stmdbmi	r0, {r2, r4, r8, sp}
     8bc:	000b2f13 	andeq	r2, fp, r3, lsl pc
     8c0:	00341500 	eorseq	r1, r4, r0, lsl #10
     8c4:	0b3a0e03 	bleq	e840d8 <__bss_end+0xe70f8c>
     8c8:	13490b3b 	movtne	r0, #39739	; 0x9b3b
     8cc:	0a020c3f 	beq	839d0 <__bss_end+0x70884>
     8d0:	01000000 	mrseq	r0, (UNDEF: 0)
     8d4:	0e250111 	mcreq	1, 1, r0, cr5, cr1, {0}
     8d8:	0e030b13 	vmoveq.32	d3[0], r0
     8dc:	01110e1b 	tsteq	r1, fp, lsl lr
     8e0:	06100112 			; <UNDEFINED> instruction: 0x06100112
     8e4:	24020000 	strcs	r0, [r2], #-0
     8e8:	3e0b0b00 	vmlacc.f64	d0, d11, d0
     8ec:	000e030b 	andeq	r0, lr, fp, lsl #6
     8f0:	00160300 	andseq	r0, r6, r0, lsl #6
     8f4:	0b3a0e03 	bleq	e84108 <__bss_end+0xe70fbc>
     8f8:	13490b3b 	movtne	r0, #39739	; 0x9b3b
     8fc:	24040000 	strcs	r0, [r4], #-0
     900:	3e0b0b00 	vmlacc.f64	d0, d11, d0
     904:	0008030b 	andeq	r0, r8, fp, lsl #6
     908:	01130500 	tsteq	r3, r0, lsl #10
     90c:	0b3a0b0b 	bleq	e83540 <__bss_end+0xe703f4>
     910:	13010b3b 	movwne	r0, #6971	; 0x1b3b
     914:	0d060000 	stceq	0, cr0, [r6, #-0]
     918:	3a0e0300 	bcc	381520 <__bss_end+0x36e3d4>
     91c:	490b3b0b 	stmdbmi	fp, {r0, r1, r3, r8, r9, fp, ip, sp}
     920:	0d0b0b13 	vstreq	d0, [fp, #-76]	; 0xffffffb4
     924:	380b0c0b 	stmdacc	fp, {r0, r1, r3, sl, fp}
     928:	0700000a 	streq	r0, [r0, -sl]
     92c:	0b0b0117 	bleq	2c0d90 <__bss_end+0x2adc44>
     930:	0b3b0b3a 	bleq	ec3620 <__bss_end+0xeb04d4>
     934:	00001301 	andeq	r1, r0, r1, lsl #6
     938:	03000d08 	movweq	r0, #3336	; 0xd08
     93c:	3b0b3a0e 	blcc	2cf17c <__bss_end+0x2bc030>
     940:	0013490b 	andseq	r4, r3, fp, lsl #18
     944:	000d0900 	andeq	r0, sp, r0, lsl #18
     948:	0b3a0e03 	bleq	e8415c <__bss_end+0xe71010>
     94c:	1349053b 	movtne	r0, #38203	; 0x953b
     950:	0b0d0b0b 	bleq	343584 <__bss_end+0x330438>
     954:	0a380b0c 	beq	e0358c <__bss_end+0xdf0440>
     958:	0d0a0000 	stceq	0, cr0, [sl, #-0]
     95c:	3a0e0300 	bcc	381564 <__bss_end+0x36e418>
     960:	49053b0b 	stmdbmi	r5, {r0, r1, r3, r8, r9, fp, ip, sp}
     964:	0b000013 	bleq	9b8 <__resume1_start+0x9b8>
     968:	0e030016 	mcreq	0, 0, r0, cr3, cr6, {0}
     96c:	053b0b3a 	ldreq	r0, [fp, #-2874]!	; 0xb3a
     970:	00001349 	andeq	r1, r0, r9, asr #6
     974:	0b01130c 	bleq	455ac <__bss_end+0x32460>
     978:	3b0b3a0b 	blcc	2cf1ac <__bss_end+0x2bc060>
     97c:	00130105 	andseq	r0, r3, r5, lsl #2
     980:	01170d00 	tsteq	r7, r0, lsl #26
     984:	0b3a0b0b 	bleq	e835b8 <__bss_end+0xe7046c>
     988:	1301053b 	movwne	r0, #5435	; 0x153b
     98c:	130e0000 	movwne	r0, #57344	; 0xe000
     990:	0b0e0301 	bleq	38159c <__bss_end+0x36e450>
     994:	3b0b3a05 	blcc	2cf1b0 <__bss_end+0x2bc064>
     998:	00130105 	andseq	r0, r3, r5, lsl #2
     99c:	000d0f00 	andeq	r0, sp, r0, lsl #30
     9a0:	0b3a0e03 	bleq	e841b4 <__bss_end+0xe71068>
     9a4:	1349053b 	movtne	r0, #38203	; 0x953b
     9a8:	00000a38 	andeq	r0, r0, r8, lsr sl
     9ac:	49003510 	stmdbmi	r0, {r4, r8, sl, ip, sp}
     9b0:	11000013 	tstne	r0, r3, lsl r0
     9b4:	13490101 	movtne	r0, #37121	; 0x9101
     9b8:	00001301 	andeq	r1, r0, r1, lsl #6
     9bc:	49002112 	stmdbmi	r0, {r1, r4, r8, sp}
     9c0:	000b2f13 	andeq	r2, fp, r3, lsl pc
     9c4:	000f1300 	andeq	r1, pc, r0, lsl #6
     9c8:	13490b0b 	movtne	r0, #39691	; 0x9b0b
     9cc:	2e140000 	cdpcs	0, 1, cr0, cr4, cr0, {0}
     9d0:	3a0e0301 	bcc	3815dc <__bss_end+0x36e490>
     9d4:	270b3b0b 	strcs	r3, [fp, -fp, lsl #22]
     9d8:	2013490c 	andscs	r4, r3, ip, lsl #18
     9dc:	0013010b 	andseq	r0, r3, fp, lsl #2
     9e0:	00051500 	andeq	r1, r5, r0, lsl #10
     9e4:	0b3a0e03 	bleq	e841f8 <__bss_end+0xe710ac>
     9e8:	13490b3b 	movtne	r0, #39739	; 0x9b3b
     9ec:	34160000 	ldrcc	r0, [r6], #-0
     9f0:	3a0e0300 	bcc	3815f8 <__bss_end+0x36e4ac>
     9f4:	490b3b0b 	stmdbmi	fp, {r0, r1, r3, r8, r9, fp, ip, sp}
     9f8:	17000013 	smladne	r0, r3, r0, r0
     9fc:	08030034 	stmdaeq	r3, {r2, r4, r5}
     a00:	0b3b0b3a 	bleq	ec36f0 <__bss_end+0xeb05a4>
     a04:	00001349 	andeq	r1, r0, r9, asr #6
     a08:	03012e18 	movweq	r2, #7704	; 0x1e18
     a0c:	3b0b3a0e 	blcc	2cf24c <__bss_end+0x2bc100>
     a10:	200c270b 	andcs	r2, ip, fp, lsl #14
     a14:	0013010b 	andseq	r0, r3, fp, lsl #2
     a18:	012e1900 	teqeq	lr, r0, lsl #18
     a1c:	0b3a0e03 	bleq	e84230 <__bss_end+0xe710e4>
     a20:	0c27053b 	cfstr32eq	mvfx0, [r7], #-236	; 0xffffff14
     a24:	13010b20 	movwne	r0, #6944	; 0x1b20
     a28:	051a0000 	ldreq	r0, [sl, #-0]
     a2c:	3a080300 	bcc	201634 <__bss_end+0x1ee4e8>
     a30:	49053b0b 	stmdbmi	r5, {r0, r1, r3, r8, r9, fp, ip, sp}
     a34:	1b000013 	blne	a88 <__resume1_start+0xa88>
     a38:	0e03012e 	adfeqsp	f0, f3, #0.5
     a3c:	053b0b3a 	ldreq	r0, [fp, #-2874]!	; 0xb3a
     a40:	13490c27 	movtne	r0, #39975	; 0x9c27
     a44:	13010b20 	movwne	r0, #6944	; 0x1b20
     a48:	341c0000 	ldrcc	r0, [ip], #-0
     a4c:	3a0e0300 	bcc	381654 <__bss_end+0x36e508>
     a50:	49053b0b 	stmdbmi	r5, {r0, r1, r3, r8, r9, fp, ip, sp}
     a54:	1d000013 	stcne	0, cr0, [r0, #-76]	; 0xffffffb4
     a58:	1331012e 	teqne	r1, #-2147483637	; 0x8000000b
     a5c:	01120111 	tsteq	r2, r1, lsl r1
     a60:	13010640 	movwne	r0, #5696	; 0x1640
     a64:	051e0000 	ldreq	r0, [lr, #-0]
     a68:	02133100 	andseq	r3, r3, #0
     a6c:	1f000006 	svcne	0x00000006
     a70:	13310034 	teqne	r1, #52	; 0x34
     a74:	00000602 	andeq	r0, r0, r2, lsl #12
     a78:	31003420 	tstcc	r0, r0, lsr #8
     a7c:	000b1c13 	andeq	r1, fp, r3, lsl ip
     a80:	011d2100 	tsteq	sp, r0, lsl #2
     a84:	01111331 	tsteq	r1, r1, lsr r3
     a88:	0b580112 	bleq	1600ed8 <__bss_end+0x15edd8c>
     a8c:	00000b59 	andeq	r0, r0, r9, asr fp
     a90:	11010b22 	tstne	r1, r2, lsr #22
     a94:	00011201 	andeq	r1, r1, r1, lsl #4
     a98:	00342300 	eorseq	r2, r4, r0, lsl #6
     a9c:	00001331 	andeq	r1, r0, r1, lsr r3
     aa0:	31003424 	tstcc	r0, r4, lsr #8
     aa4:	000d1c13 	andeq	r1, sp, r3, lsl ip
     aa8:	00052500 	andeq	r2, r5, r0, lsl #10
     aac:	00001331 	andeq	r1, r0, r1, lsr r3
     ab0:	3f012e26 	svccc	0x00012e26
     ab4:	3a0e030c 	bcc	3816ec <__bss_end+0x36e5a0>
     ab8:	270b3b0b 	strcs	r3, [fp, -fp, lsl #22]
     abc:	1201110c 	andne	r1, r1, #3
     ac0:	01064001 	tsteq	r6, r1
     ac4:	27000013 	smladcs	r0, r3, r0, r0
     ac8:	08030034 	stmdaeq	r3, {r2, r4, r5}
     acc:	053b0b3a 	ldreq	r0, [fp, #-2874]!	; 0xb3a
     ad0:	06021349 	streq	r1, [r2], -r9, asr #6
     ad4:	34280000 	strtcc	r0, [r8], #-0
     ad8:	3a0e0300 	bcc	3816e0 <__bss_end+0x36e594>
     adc:	49053b0b 	stmdbmi	r5, {r0, r1, r3, r8, r9, fp, ip, sp}
     ae0:	00060213 	andeq	r0, r6, r3, lsl r2
     ae4:	011d2900 	tsteq	sp, r0, lsl #18
     ae8:	01521331 	cmpeq	r2, r1, lsr r3
     aec:	0b580655 	bleq	1602448 <__bss_end+0x15ef2fc>
     af0:	00000559 	andeq	r0, r0, r9, asr r5
     af4:	3100052a 	tstcc	r0, sl, lsr #10
     af8:	000b1c13 	andeq	r1, fp, r3, lsl ip
     afc:	010b2b00 	tsteq	fp, r0, lsl #22
     b00:	00000655 	andeq	r0, r0, r5, asr r6
     b04:	3100342c 	tstcc	r0, ip, lsr #8
     b08:	00061c13 	andeq	r1, r6, r3, lsl ip
     b0c:	012e2d00 	teqeq	lr, r0, lsl #26
     b10:	0e030c3f 	mcreq	12, 0, r0, cr3, cr15, {1}
     b14:	053b0b3a 	ldreq	r0, [fp, #-2874]!	; 0xb3a
     b18:	13490c27 	movtne	r0, #39975	; 0x9c27
     b1c:	01120111 	tsteq	r2, r1, lsl r1
     b20:	13010a40 	movwne	r0, #6720	; 0x1a40
     b24:	052e0000 	streq	r0, [lr, #-0]!
     b28:	3a0e0300 	bcc	381730 <__bss_end+0x36e5e4>
     b2c:	49053b0b 	stmdbmi	r5, {r0, r1, r3, r8, r9, fp, ip, sp}
     b30:	00060213 	andeq	r0, r6, r3, lsl r2
     b34:	011d2f00 	tsteq	sp, r0, lsl #30
     b38:	01521331 	cmpeq	r2, r1, lsr r3
     b3c:	0b580655 	bleq	1602498 <__bss_end+0x15ef34c>
     b40:	13010559 	movwne	r0, #5465	; 0x1559
     b44:	1d300000 	ldcne	0, cr0, [r0, #-0]
     b48:	11133101 	tstne	r3, r1, lsl #2
     b4c:	58011201 	stmdapl	r1, {r0, r9, ip}
     b50:	0005590b 	andeq	r5, r5, fp, lsl #18
     b54:	00263100 	eoreq	r3, r6, r0, lsl #2
     b58:	00001349 	andeq	r1, r0, r9, asr #6
     b5c:	3f012e32 	svccc	0x00012e32
     b60:	3a0e030c 	bcc	381798 <__bss_end+0x36e64c>
     b64:	27053b0b 	strcs	r3, [r5, -fp, lsl #22]
     b68:	1113490c 	tstne	r3, ip, lsl #18
     b6c:	40011201 	andmi	r1, r1, r1, lsl #4
     b70:	00130106 	andseq	r0, r3, r6, lsl #2
     b74:	00053300 	andeq	r3, r5, r0, lsl #6
     b78:	0b3a0803 	bleq	e82b8c <__bss_end+0xe6fa40>
     b7c:	1349053b 	movtne	r0, #38203	; 0x953b
     b80:	00000602 	andeq	r0, r0, r2, lsl #12
     b84:	03000534 	movweq	r0, #1332	; 0x534
     b88:	3b0b3a08 	blcc	2cf3b0 <__bss_end+0x2bc264>
     b8c:	02134905 	andseq	r4, r3, #81920	; 0x14000
     b90:	3500000a 	strcc	r0, [r0, #-10]
     b94:	08030034 	stmdaeq	r3, {r2, r4, r5}
     b98:	053b0b3a 	ldreq	r0, [fp, #-2874]!	; 0xb3a
     b9c:	0a021349 	beq	858c8 <__bss_end+0x7277c>
     ba0:	2e360000 	cdpcs	0, 3, cr0, cr6, cr0, {0}
     ba4:	030c3f01 	movweq	r3, #52993	; 0xcf01
     ba8:	3b0b3a0e 	blcc	2cf3e8 <__bss_end+0x2bc29c>
     bac:	110c2705 	tstne	ip, r5, lsl #14
     bb0:	40011201 	andmi	r1, r1, r1, lsl #4
     bb4:	00130106 	andseq	r0, r3, r6, lsl #2
     bb8:	002e3700 	eoreq	r3, lr, r0, lsl #14
     bbc:	0e030c3f 	mcreq	12, 0, r0, cr3, cr15, {1}
     bc0:	053b0b3a 	ldreq	r0, [fp, #-2874]!	; 0xb3a
     bc4:	01110c27 	tsteq	r1, r7, lsr #24
     bc8:	0a400112 	beq	1001018 <__bss_end+0xfedecc>
     bcc:	34380000 	ldrtcc	r0, [r8], #-0
     bd0:	3a0e0300 	bcc	3817d8 <__bss_end+0x36e68c>
     bd4:	490b3b0b 	stmdbmi	fp, {r0, r1, r3, r8, r9, fp, ip, sp}
     bd8:	000a0213 	andeq	r0, sl, r3, lsl r2
     bdc:	11010000 	mrsne	r0, (UNDEF: 1)
     be0:	130e2501 	movwne	r2, #58625	; 0xe501
     be4:	1b0e030b 	blne	381818 <__bss_end+0x36e6cc>
     be8:	1201110e 	andne	r1, r1, #-2147483645	; 0x80000003
     bec:	00061001 	andeq	r1, r6, r1
     bf0:	00240200 	eoreq	r0, r4, r0, lsl #4
     bf4:	0b3e0b0b 	bleq	f83828 <__bss_end+0xf706dc>
     bf8:	00000e03 	andeq	r0, r0, r3, lsl #28
     bfc:	03001603 	movweq	r1, #1539	; 0x603
     c00:	3b0b3a0e 	blcc	2cf440 <__bss_end+0x2bc2f4>
     c04:	0013490b 	andseq	r4, r3, fp, lsl #18
     c08:	00240400 	eoreq	r0, r4, r0, lsl #8
     c0c:	0b3e0b0b 	bleq	f83840 <__bss_end+0xf706f4>
     c10:	00000803 	andeq	r0, r0, r3, lsl #16
     c14:	0b000f05 	bleq	4830 <__resume1_start+0x4830>
     c18:	0600000b 	streq	r0, [r0], -fp
     c1c:	0e030113 	mcreq	1, 0, r0, cr3, cr3, {0}
     c20:	0b3a0b0b 	bleq	e83854 <__bss_end+0xe70708>
     c24:	13010b3b 	movwne	r0, #6971	; 0x1b3b
     c28:	0d070000 	stceq	0, cr0, [r7, #-0]
     c2c:	490e0300 	stmdbmi	lr, {r8, r9}
     c30:	340a3813 	strcc	r3, [sl], #-2067	; 0x813
     c34:	0800000c 	stmdaeq	r0, {r2, r3}
     c38:	0e03012e 	adfeqsp	f0, f3, #0.5
     c3c:	0b3b0b3a 	bleq	ec392c <__bss_end+0xeb07e0>
     c40:	13490c27 	movtne	r0, #39975	; 0x9c27
     c44:	13010b20 	movwne	r0, #6944	; 0x1b20
     c48:	05090000 	streq	r0, [r9, #-0]
     c4c:	3a0e0300 	bcc	381854 <__bss_end+0x36e708>
     c50:	490b3b0b 	stmdbmi	fp, {r0, r1, r3, r8, r9, fp, ip, sp}
     c54:	0a000013 	beq	ca8 <__resume1_start+0xca8>
     c58:	08030005 	stmdaeq	r3, {r0, r2}
     c5c:	0b3b0b3a 	bleq	ec394c <__bss_end+0xeb0800>
     c60:	00001349 	andeq	r1, r0, r9, asr #6
     c64:	0300340b 	movweq	r3, #1035	; 0x40b
     c68:	3b0b3a08 	blcc	2cf490 <__bss_end+0x2bc344>
     c6c:	0013490b 	andseq	r4, r3, fp, lsl #18
     c70:	000f0c00 	andeq	r0, pc, r0, lsl #24
     c74:	13490b0b 	movtne	r0, #39691	; 0x9b0b
     c78:	260d0000 	strcs	r0, [sp], -r0
     c7c:	00134900 	andseq	r4, r3, r0, lsl #18
     c80:	00340e00 	eorseq	r0, r4, r0, lsl #28
     c84:	0b3a0e03 	bleq	e84498 <__bss_end+0xe7134c>
     c88:	13490b3b 	movtne	r0, #39739	; 0x9b3b
     c8c:	010f0000 	mrseq	r0, CPSR
     c90:	01134901 	tsteq	r3, r1, lsl #18
     c94:	10000013 	andne	r0, r0, r3, lsl r0
     c98:	13490021 	movtne	r0, #36897	; 0x9021
     c9c:	00000b2f 	andeq	r0, r0, pc, lsr #22
     ca0:	03012e11 	movweq	r2, #7697	; 0x1e11
     ca4:	3b0b3a0e 	blcc	2cf4e4 <__bss_end+0x2bc398>
     ca8:	490c270b 	stmdbmi	ip, {r0, r1, r3, r8, r9, sl, sp}
     cac:	12011113 	andne	r1, r1, #-1073741820	; 0xc0000004
     cb0:	01064001 	tsteq	r6, r1
     cb4:	12000013 	andne	r0, r0, #19
     cb8:	0e030005 	cdpeq	0, 0, cr0, cr3, cr5, {0}
     cbc:	0b3b0b3a 	bleq	ec39ac <__bss_end+0xeb0860>
     cc0:	06021349 	streq	r1, [r2], -r9, asr #6
     cc4:	34130000 	ldrcc	r0, [r3], #-0
     cc8:	3a0e0300 	bcc	3818d0 <__bss_end+0x36e784>
     ccc:	490b3b0b 	stmdbmi	fp, {r0, r1, r3, r8, r9, fp, ip, sp}
     cd0:	000a0213 	andeq	r0, sl, r3, lsl r2
     cd4:	00341400 	eorseq	r1, r4, r0, lsl #8
     cd8:	0b3a0803 	bleq	e82cec <__bss_end+0xe6fba0>
     cdc:	13490b3b 	movtne	r0, #39739	; 0x9b3b
     ce0:	00000602 	andeq	r0, r0, r2, lsl #12
     ce4:	03012e15 	movweq	r2, #7701	; 0x1e15
     ce8:	3b0b3a0e 	blcc	2cf528 <__bss_end+0x2bc3dc>
     cec:	490c2705 	stmdbmi	ip, {r0, r2, r8, r9, sl, sp}
     cf0:	12011113 	andne	r1, r1, #-1073741820	; 0xc0000004
     cf4:	01064001 	tsteq	r6, r1
     cf8:	16000013 			; <UNDEFINED> instruction: 0x16000013
     cfc:	0e030005 	cdpeq	0, 0, cr0, cr3, cr5, {0}
     d00:	053b0b3a 	ldreq	r0, [fp, #-2874]!	; 0xb3a
     d04:	06021349 	streq	r1, [r2], -r9, asr #6
     d08:	05170000 	ldreq	r0, [r7, #-0]
     d0c:	3a080300 	bcc	201914 <__bss_end+0x1ee7c8>
     d10:	49053b0b 	stmdbmi	r5, {r0, r1, r3, r8, r9, fp, ip, sp}
     d14:	00060213 	andeq	r0, r6, r3, lsl r2
     d18:	00341800 	eorseq	r1, r4, r0, lsl #16
     d1c:	0b3a0e03 	bleq	e84530 <__bss_end+0xe713e4>
     d20:	1349053b 	movtne	r0, #38203	; 0x953b
     d24:	00000a02 	andeq	r0, r0, r2, lsl #20
     d28:	31011d19 	tstcc	r1, r9, lsl sp
     d2c:	55015213 	strpl	r5, [r1, #-531]	; 0x213
     d30:	590b5806 	stmdbpl	fp, {r1, r2, fp, ip, lr}
     d34:	1a000005 	bne	d50 <__resume1_start+0xd50>
     d38:	13310005 	teqne	r1, #5
     d3c:	00000602 	andeq	r0, r0, r2, lsl #12
     d40:	55010b1b 	strpl	r0, [r1, #-2843]	; 0xb1b
     d44:	1c000006 	stcne	0, cr0, [r0], {6}
     d48:	13310034 	teqne	r1, #52	; 0x34
     d4c:	00000602 	andeq	r0, r0, r2, lsl #12
     d50:	31012e1d 	tstcc	r1, sp, lsl lr
     d54:	12011113 	andne	r1, r1, #-1073741820	; 0xc0000004
     d58:	01064001 	tsteq	r6, r1
     d5c:	1e000013 	mcrne	0, 0, r0, cr0, cr3, {0}
     d60:	13310034 	teqne	r1, #52	; 0x34
     d64:	00000a02 	andeq	r0, r0, r2, lsl #20
     d68:	3100051f 	tstcc	r0, pc, lsl r5
     d6c:	000b1c13 	andeq	r1, fp, r3, lsl ip
     d70:	012e2000 	teqeq	lr, r0
     d74:	0e030c3f 	mcreq	12, 0, r0, cr3, cr15, {1}
     d78:	053b0b3a 	ldreq	r0, [fp, #-2874]!	; 0xb3a
     d7c:	13490c27 	movtne	r0, #39975	; 0x9c27
     d80:	01120111 	tsteq	r2, r1, lsl r1
     d84:	13010640 	movwne	r0, #5696	; 0x1640
     d88:	18210000 	stmdane	r1!, {}	; <UNPREDICTABLE>
     d8c:	22000000 	andcs	r0, r0, #0
     d90:	0e030034 	mcreq	0, 0, r0, cr3, cr4, {1}
     d94:	053b0b3a 	ldreq	r0, [fp, #-2874]!	; 0xb3a
     d98:	06021349 	streq	r1, [r2], -r9, asr #6
     d9c:	34230000 	strtcc	r0, [r3], #-0
     da0:	3a080300 	bcc	2019a8 <__bss_end+0x1ee85c>
     da4:	49053b0b 	stmdbmi	r5, {r0, r1, r3, r8, r9, fp, ip, sp}
     da8:	00060213 	andeq	r0, r6, r3, lsl r2
     dac:	011d2400 	tsteq	sp, r0, lsl #8
     db0:	01111331 	tsteq	r1, r1, lsr r3
     db4:	0b580112 	bleq	1601204 <__bss_end+0x15ee0b8>
     db8:	13010559 	movwne	r0, #5465	; 0x1559
     dbc:	0b250000 	bleq	940dc4 <__bss_end+0x92dc78>
     dc0:	12011101 	andne	r1, r1, #1073741824	; 0x40000000
     dc4:	26000001 	strcs	r0, [r0], -r1
     dc8:	13310005 	teqne	r1, #5
     dcc:	05270000 	streq	r0, [r7, #-0]!
     dd0:	02133100 	andseq	r3, r3, #0
     dd4:	2800000a 	stmdacs	r0, {r1, r3}
     dd8:	1331011d 	teqne	r1, #1073741831	; 0x40000007
     ddc:	01120111 	tsteq	r2, r1, lsl r1
     de0:	05590b58 	ldrbeq	r0, [r9, #-2904]	; 0xb58
     de4:	01000000 	mrseq	r0, (UNDEF: 0)
     de8:	06100011 			; <UNDEFINED> instruction: 0x06100011
     dec:	01120111 	tsteq	r2, r1, lsl r1
     df0:	081b0803 	ldmdaeq	fp, {r0, r1, fp}
     df4:	05130825 	ldreq	r0, [r3, #-2085]	; 0x825
     df8:	01000000 	mrseq	r0, (UNDEF: 0)
     dfc:	0e250111 	mcreq	1, 1, r0, cr5, cr1, {0}
     e00:	0e030b13 	vmoveq.32	d3[0], r0
     e04:	01110e1b 	tsteq	r1, fp, lsl lr
     e08:	06100112 			; <UNDEFINED> instruction: 0x06100112
     e0c:	24020000 	strcs	r0, [r2], #-0
     e10:	3e0b0b00 	vmlacc.f64	d0, d11, d0
     e14:	000e030b 	andeq	r0, lr, fp, lsl #6
     e18:	00160300 	andseq	r0, r6, r0, lsl #6
     e1c:	0b3a0e03 	bleq	e84630 <__bss_end+0xe714e4>
     e20:	13490b3b 	movtne	r0, #39739	; 0x9b3b
     e24:	24040000 	strcs	r0, [r4], #-0
     e28:	3e0b0b00 	vmlacc.f64	d0, d11, d0
     e2c:	0008030b 	andeq	r0, r8, fp, lsl #6
     e30:	002e0500 	eoreq	r0, lr, r0, lsl #10
     e34:	0e030c3f 	mcreq	12, 0, r0, cr3, cr15, {1}
     e38:	0b3b0b3a 	bleq	ec3b28 <__bss_end+0xeb09dc>
     e3c:	01110c27 	tsteq	r1, r7, lsr #24
     e40:	0a400112 	beq	1001290 <__bss_end+0xfee144>
     e44:	2e060000 	cdpcs	0, 0, cr0, cr6, cr0, {0}
     e48:	030c3f01 	movweq	r3, #52993	; 0xcf01
     e4c:	3b0b3a0e 	blcc	2cf68c <__bss_end+0x2bc540>
     e50:	490c270b 	stmdbmi	ip, {r0, r1, r3, r8, r9, sl, sp}
     e54:	12011113 	andne	r1, r1, #-1073741820	; 0xc0000004
     e58:	000a4001 	andeq	r4, sl, r1
     e5c:	00050700 	andeq	r0, r5, r0, lsl #14
     e60:	0b3a0e03 	bleq	e84674 <__bss_end+0xe71528>
     e64:	13490b3b 	movtne	r0, #39739	; 0x9b3b
     e68:	00000602 	andeq	r0, r0, r2, lsl #12
     e6c:	03003408 	movweq	r3, #1032	; 0x408
     e70:	3b0b3a0e 	blcc	2cf6b0 <__bss_end+0x2bc564>
     e74:	0213490b 	andseq	r4, r3, #180224	; 0x2c000
     e78:	00000006 	andeq	r0, r0, r6
     e7c:	25011101 	strcs	r1, [r1, #-257]	; 0x101
     e80:	030b130e 	movweq	r1, #45838	; 0xb30e
     e84:	110e1b0e 	tstne	lr, lr, lsl #22
     e88:	10011201 	andne	r1, r1, r1, lsl #4
     e8c:	02000006 	andeq	r0, r0, #6
     e90:	0b0b0024 	bleq	2c0f28 <__bss_end+0x2adddc>
     e94:	0e030b3e 	vmoveq.16	d3[0], r0
     e98:	16030000 	strne	r0, [r3], -r0
     e9c:	3a0e0300 	bcc	381aa4 <__bss_end+0x36e958>
     ea0:	490b3b0b 	stmdbmi	fp, {r0, r1, r3, r8, r9, fp, ip, sp}
     ea4:	04000013 	streq	r0, [r0], #-19
     ea8:	0b0b0024 	bleq	2c0f40 <__bss_end+0x2addf4>
     eac:	08030b3e 	stmdaeq	r3, {r1, r2, r3, r4, r5, r8, r9, fp}
     eb0:	35050000 	strcc	r0, [r5, #-0]
     eb4:	00134900 	andseq	r4, r3, r0, lsl #18
     eb8:	01040600 	tsteq	r4, r0, lsl #12
     ebc:	0b0b0e03 	bleq	2c46d0 <__bss_end+0x2b1584>
     ec0:	0b3b0b3a 	bleq	ec3bb0 <__bss_end+0xeb0a64>
     ec4:	00001301 	andeq	r1, r0, r1, lsl #6
     ec8:	03002807 	movweq	r2, #2055	; 0x807
     ecc:	000d1c0e 	andeq	r1, sp, lr, lsl #24
     ed0:	000f0800 	andeq	r0, pc, r0, lsl #16
     ed4:	00000b0b 	andeq	r0, r0, fp, lsl #22
     ed8:	3f012e09 	svccc	0x00012e09
     edc:	3a0e030c 	bcc	381b14 <__bss_end+0x36e9c8>
     ee0:	270b3b0b 	strcs	r3, [fp, -fp, lsl #22]
     ee4:	1113490c 	tstne	r3, ip, lsl #18
     ee8:	40011201 	andmi	r1, r1, r1, lsl #4
     eec:	00130106 	andseq	r0, r3, r6, lsl #2
     ef0:	00340a00 	eorseq	r0, r4, r0, lsl #20
     ef4:	0b3a0803 	bleq	e82f08 <__bss_end+0xe6fdbc>
     ef8:	13490b3b 	movtne	r0, #39739	; 0x9b3b
     efc:	00000602 	andeq	r0, r0, r2, lsl #12
     f00:	0300340b 	movweq	r3, #1035	; 0x40b
     f04:	3b0b3a0e 	blcc	2cf744 <__bss_end+0x2bc5f8>
     f08:	0213490b 	andseq	r4, r3, #180224	; 0x2c000
     f0c:	0c000006 	stceq	0, cr0, [r0], {6}
     f10:	08030005 	stmdaeq	r3, {r0, r2}
     f14:	0b3b0b3a 	bleq	ec3c04 <__bss_end+0xeb0ab8>
     f18:	06021349 	streq	r1, [r2], -r9, asr #6
     f1c:	2e0d0000 	cdpcs	0, 0, cr0, cr13, cr0, {0}
     f20:	030c3f01 	movweq	r3, #52993	; 0xcf01
     f24:	3b0b3a0e 	blcc	2cf764 <__bss_end+0x2bc618>
     f28:	490c270b 	stmdbmi	ip, {r0, r1, r3, r8, r9, sl, sp}
     f2c:	12011113 	andne	r1, r1, #-1073741820	; 0xc0000004
     f30:	010a4001 	tsteq	sl, r1
     f34:	0e000013 	mcreq	0, 0, r0, cr0, cr3, {0}
     f38:	0e030034 	mcreq	0, 0, r0, cr3, cr4, {1}
     f3c:	0b3b0b3a 	bleq	ec3c2c <__bss_end+0xeb0ae0>
     f40:	0a021349 	beq	85c6c <__bss_end+0x72b20>
     f44:	01000000 	mrseq	r0, (UNDEF: 0)
     f48:	0e250111 	mcreq	1, 1, r0, cr5, cr1, {0}
     f4c:	0e030b13 	vmoveq.32	d3[0], r0
     f50:	01110e1b 	tsteq	r1, fp, lsl lr
     f54:	06100112 			; <UNDEFINED> instruction: 0x06100112
     f58:	24020000 	strcs	r0, [r2], #-0
     f5c:	3e0b0b00 	vmlacc.f64	d0, d11, d0
     f60:	000e030b 	andeq	r0, lr, fp, lsl #6
     f64:	00160300 	andseq	r0, r6, r0, lsl #6
     f68:	0b3a0e03 	bleq	e8477c <__bss_end+0xe71630>
     f6c:	13490b3b 	movtne	r0, #39739	; 0x9b3b
     f70:	24040000 	strcs	r0, [r4], #-0
     f74:	3e0b0b00 	vmlacc.f64	d0, d11, d0
     f78:	0008030b 	andeq	r0, r8, fp, lsl #6
     f7c:	00350500 	eorseq	r0, r5, r0, lsl #10
     f80:	00001349 	andeq	r1, r0, r9, asr #6
     f84:	49010106 	stmdbmi	r1, {r1, r2, r8}
     f88:	00130113 	andseq	r0, r3, r3, lsl r1
     f8c:	00210700 	eoreq	r0, r1, r0, lsl #14
     f90:	0b2f1349 	bleq	bc5cbc <__bss_end+0xbb2b70>
     f94:	13080000 	movwne	r0, #32768	; 0x8000
     f98:	0b0e0301 	bleq	381ba4 <__bss_end+0x36ea58>
     f9c:	3b0b3a0b 	blcc	2cf7d0 <__bss_end+0x2bc684>
     fa0:	0013010b 	andseq	r0, r3, fp, lsl #2
     fa4:	000d0900 	andeq	r0, sp, r0, lsl #18
     fa8:	0b3a0e03 	bleq	e847bc <__bss_end+0xe71670>
     fac:	13490b3b 	movtne	r0, #39739	; 0x9b3b
     fb0:	00000a38 	andeq	r0, r0, r8, lsr sl
     fb4:	3f012e0a 	svccc	0x00012e0a
     fb8:	3a0e030c 	bcc	381bf0 <__bss_end+0x36eaa4>
     fbc:	270b3b0b 	strcs	r3, [fp, -fp, lsl #22]
     fc0:	1113490c 	tstne	r3, ip, lsl #18
     fc4:	40011201 	andmi	r1, r1, r1, lsl #4
     fc8:	00130106 	andseq	r0, r3, r6, lsl #2
     fcc:	00050b00 	andeq	r0, r5, r0, lsl #22
     fd0:	0b3a0e03 	bleq	e847e4 <__bss_end+0xe71698>
     fd4:	13490b3b 	movtne	r0, #39739	; 0x9b3b
     fd8:	00000602 	andeq	r0, r0, r2, lsl #12
     fdc:	0b000f0c 	bleq	4c14 <__resume1_start+0x4c14>
     fe0:	0013490b 	andseq	r4, r3, fp, lsl #18
     fe4:	012e0d00 	teqeq	lr, r0, lsl #26
     fe8:	0e030c3f 	mcreq	12, 0, r0, cr3, cr15, {1}
     fec:	0b3b0b3a 	bleq	ec3cdc <__bss_end+0xeb0b90>
     ff0:	13490c27 	movtne	r0, #39975	; 0x9c27
     ff4:	01120111 	tsteq	r2, r1, lsl r1
     ff8:	13010a40 	movwne	r0, #6720	; 0x1a40
     ffc:	2e0e0000 	cdpcs	0, 0, cr0, cr14, cr0, {0}
    1000:	030c3f00 	movweq	r3, #52992	; 0xcf00
    1004:	3b0b3a0e 	blcc	2cf844 <__bss_end+0x2bc6f8>
    1008:	490c270b 	stmdbmi	ip, {r0, r1, r3, r8, r9, sl, sp}
    100c:	12011113 	andne	r1, r1, #-1073741820	; 0xc0000004
    1010:	000a4001 	andeq	r4, sl, r1
    1014:	002e0f00 	eoreq	r0, lr, r0, lsl #30
    1018:	0e030c3f 	mcreq	12, 0, r0, cr3, cr15, {1}
    101c:	0b3b0b3a 	bleq	ec3d0c <__bss_end+0xeb0bc0>
    1020:	01110c27 	tsteq	r1, r7, lsr #24
    1024:	0a400112 	beq	1001474 <__bss_end+0xfee328>
    1028:	34100000 	ldrcc	r0, [r0], #-0
    102c:	3a0e0300 	bcc	381c34 <__bss_end+0x36eae8>
    1030:	490b3b0b 	stmdbmi	fp, {r0, r1, r3, r8, r9, fp, ip, sp}
    1034:	000a0213 	andeq	r0, sl, r3, lsl r2
    1038:	11010000 	mrsne	r0, (UNDEF: 1)
    103c:	130e2501 	movwne	r2, #58625	; 0xe501
    1040:	1b0e030b 	blne	381c74 <__bss_end+0x36eb28>
    1044:	1201110e 	andne	r1, r1, #-2147483645	; 0x80000003
    1048:	00061001 	andeq	r1, r6, r1
    104c:	00240200 	eoreq	r0, r4, r0, lsl #4
    1050:	0b3e0b0b 	bleq	f83c84 <__bss_end+0xf70b38>
    1054:	00000e03 	andeq	r0, r0, r3, lsl #28
    1058:	03001603 	movweq	r1, #1539	; 0x603
    105c:	3b0b3a0e 	blcc	2cf89c <__bss_end+0x2bc750>
    1060:	0013490b 	andseq	r4, r3, fp, lsl #18
    1064:	00240400 	eoreq	r0, r4, r0, lsl #8
    1068:	0b3e0b0b 	bleq	f83c9c <__bss_end+0xf70b50>
    106c:	00000803 	andeq	r0, r0, r3, lsl #16
    1070:	49003505 	stmdbmi	r0, {r0, r2, r8, sl, ip, sp}
    1074:	06000013 			; <UNDEFINED> instruction: 0x06000013
    1078:	13490101 	movtne	r0, #37121	; 0x9101
    107c:	00001301 	andeq	r1, r0, r1, lsl #6
    1080:	49002107 	stmdbmi	r0, {r0, r1, r2, r8, sp}
    1084:	000b2f13 	andeq	r2, fp, r3, lsl pc
    1088:	01130800 	tsteq	r3, r0, lsl #16
    108c:	0b0b0e03 	bleq	2c48a0 <__bss_end+0x2b1754>
    1090:	0b3b0b3a 	bleq	ec3d80 <__bss_end+0xeb0c34>
    1094:	00001301 	andeq	r1, r0, r1, lsl #6
    1098:	03000d09 	movweq	r0, #3337	; 0xd09
    109c:	3b0b3a08 	blcc	2cf8c4 <__bss_end+0x2bc778>
    10a0:	3813490b 	ldmdacc	r3, {r0, r1, r3, r8, fp, lr}
    10a4:	0a00000a 	beq	10d4 <__resume1_start+0x10d4>
    10a8:	0e03000d 	cdpeq	0, 0, cr0, cr3, cr13, {0}
    10ac:	0b3b0b3a 	bleq	ec3d9c <__bss_end+0xeb0c50>
    10b0:	0a381349 	beq	e05ddc <__bss_end+0xdf2c90>
    10b4:	2e0b0000 	cdpcs	0, 0, cr0, cr11, cr0, {0}
    10b8:	030c3f01 	movweq	r3, #52993	; 0xcf01
    10bc:	3b0b3a0e 	blcc	2cf8fc <__bss_end+0x2bc7b0>
    10c0:	490c270b 	stmdbmi	ip, {r0, r1, r3, r8, r9, sl, sp}
    10c4:	12011113 	andne	r1, r1, #-1073741820	; 0xc0000004
    10c8:	010a4001 	tsteq	sl, r1
    10cc:	0c000013 	stceq	0, cr0, [r0], {19}
    10d0:	0e030005 	cdpeq	0, 0, cr0, cr3, cr5, {0}
    10d4:	0b3b0b3a 	bleq	ec3dc4 <__bss_end+0xeb0c78>
    10d8:	06021349 	streq	r1, [r2], -r9, asr #6
    10dc:	0f0d0000 	svceq	0x000d0000
    10e0:	490b0b00 	stmdbmi	fp, {r8, r9, fp}
    10e4:	0e000013 	mcreq	0, 0, r0, cr0, cr3, {0}
    10e8:	0e030034 	mcreq	0, 0, r0, cr3, cr4, {1}
    10ec:	0b3b0b3a 	bleq	ec3ddc <__bss_end+0xeb0c90>
    10f0:	0a021349 	beq	85e1c <__bss_end+0x72cd0>
    10f4:	01000000 	mrseq	r0, (UNDEF: 0)
    10f8:	0e250111 	mcreq	1, 1, r0, cr5, cr1, {0}
    10fc:	0e030b13 	vmoveq.32	d3[0], r0
    1100:	01110e1b 	tsteq	r1, fp, lsl lr
    1104:	06100112 			; <UNDEFINED> instruction: 0x06100112
    1108:	24020000 	strcs	r0, [r2], #-0
    110c:	3e0b0b00 	vmlacc.f64	d0, d11, d0
    1110:	000e030b 	andeq	r0, lr, fp, lsl #6
    1114:	00160300 	andseq	r0, r6, r0, lsl #6
    1118:	0b3a0e03 	bleq	e8492c <__bss_end+0xe717e0>
    111c:	13490b3b 	movtne	r0, #39739	; 0x9b3b
    1120:	24040000 	strcs	r0, [r4], #-0
    1124:	3e0b0b00 	vmlacc.f64	d0, d11, d0
    1128:	0008030b 	andeq	r0, r8, fp, lsl #6
    112c:	012e0500 	teqeq	lr, r0, lsl #10
    1130:	0b3a0e03 	bleq	e84944 <__bss_end+0xe717f8>
    1134:	0c270b3b 	stceq	11, cr0, [r7], #-236	; 0xffffff14
    1138:	0b201349 	bleq	805e64 <__bss_end+0x7f2d18>
    113c:	00001301 	andeq	r1, r0, r1, lsl #6
    1140:	03003406 	movweq	r3, #1030	; 0x406
    1144:	3b0b3a0e 	blcc	2cf984 <__bss_end+0x2bc838>
    1148:	0013490b 	andseq	r4, r3, fp, lsl #18
    114c:	012e0700 	teqeq	lr, r0, lsl #14
    1150:	0b3a0e03 	bleq	e84964 <__bss_end+0xe71818>
    1154:	0c270b3b 	stceq	11, cr0, [r7], #-236	; 0xffffff14
    1158:	13010b20 	movwne	r0, #6944	; 0x1b20
    115c:	05080000 	streq	r0, [r8, #-0]
    1160:	3a0e0300 	bcc	381d68 <__bss_end+0x36ec1c>
    1164:	490b3b0b 	stmdbmi	fp, {r0, r1, r3, r8, r9, fp, ip, sp}
    1168:	09000013 	stmdbeq	r0, {r0, r1, r4}
    116c:	0c3f012e 	ldfeqs	f0, [pc], #-184	; 10bc <__resume1_start+0x10bc>
    1170:	0b3a0e03 	bleq	e84984 <__bss_end+0xe71838>
    1174:	0c270b3b 	stceq	11, cr0, [r7], #-236	; 0xffffff14
    1178:	01111349 	tsteq	r1, r9, asr #6
    117c:	0a400112 	beq	10015cc <__bss_end+0xfee480>
    1180:	00001301 	andeq	r1, r0, r1, lsl #6
    1184:	0300050a 	movweq	r0, #1290	; 0x50a
    1188:	3b0b3a0e 	blcc	2cf9c8 <__bss_end+0x2bc87c>
    118c:	0213490b 	andseq	r4, r3, #180224	; 0x2c000
    1190:	0b000006 	bleq	11b0 <__resume1_start+0x11b0>
    1194:	0c3f012e 	ldfeqs	f0, [pc], #-184	; 10e4 <__resume1_start+0x10e4>
    1198:	0b3a0e03 	bleq	e849ac <__bss_end+0xe71860>
    119c:	0c270b3b 	stceq	11, cr0, [r7], #-236	; 0xffffff14
    11a0:	01111349 	tsteq	r1, r9, asr #6
    11a4:	06400112 			; <UNDEFINED> instruction: 0x06400112
    11a8:	00001301 	andeq	r1, r0, r1, lsl #6
    11ac:	0300340c 	movweq	r3, #1036	; 0x40c
    11b0:	3b0b3a0e 	blcc	2cf9f0 <__bss_end+0x2bc8a4>
    11b4:	0213490b 	andseq	r4, r3, #180224	; 0x2c000
    11b8:	0d000006 	stceq	0, cr0, [r0, #-24]	; 0xffffffe8
    11bc:	1331011d 	teqne	r1, #1073741831	; 0x40000007
    11c0:	01120111 	tsteq	r2, r1, lsl r1
    11c4:	0b590b58 	bleq	1643f2c <__bss_end+0x1630de0>
    11c8:	00001301 	andeq	r1, r0, r1, lsl #6
    11cc:	11010b0e 	tstne	r1, lr, lsl #22
    11d0:	00011201 	andeq	r1, r1, r1, lsl #4
    11d4:	00340f00 	eorseq	r0, r4, r0, lsl #30
    11d8:	06021331 			; <UNDEFINED> instruction: 0x06021331
    11dc:	1d100000 	ldcne	0, cr0, [r0, #-0]
    11e0:	11133101 	tstne	r3, r1, lsl #2
    11e4:	58011201 	stmdapl	r1, {r0, r9, ip}
    11e8:	000b590b 	andeq	r5, fp, fp, lsl #18
    11ec:	00051100 	andeq	r1, r5, r0, lsl #2
    11f0:	06021331 			; <UNDEFINED> instruction: 0x06021331
    11f4:	1d120000 	ldcne	0, cr0, [r2, #-0]
    11f8:	52133101 	andspl	r3, r3, #1073741824	; 0x40000000
    11fc:	58065501 	stmdapl	r6, {r0, r8, sl, ip, lr}
    1200:	000b590b 	andeq	r5, fp, fp, lsl #18
    1204:	00051300 	andeq	r1, r5, r0, lsl #6
    1208:	0a021331 	beq	85ed4 <__bss_end+0x72d88>
    120c:	34140000 	ldrcc	r0, [r4], #-0
    1210:	02133100 	andseq	r3, r3, #0
    1214:	1500000a 	strne	r0, [r0, #-10]
    1218:	0e030034 	mcreq	0, 0, r0, cr3, cr4, {1}
    121c:	0b3b0b3a 	bleq	ec3f0c <__bss_end+0xeb0dc0>
    1220:	0a021349 	beq	85f4c <__bss_end+0x72e00>
    1224:	01000000 	mrseq	r0, (UNDEF: 0)
    1228:	0e250111 	mcreq	1, 1, r0, cr5, cr1, {0}
    122c:	0e030b13 	vmoveq.32	d3[0], r0
    1230:	01110e1b 	tsteq	r1, fp, lsl lr
    1234:	06100112 			; <UNDEFINED> instruction: 0x06100112
    1238:	24020000 	strcs	r0, [r2], #-0
    123c:	3e0b0b00 	vmlacc.f64	d0, d11, d0
    1240:	000e030b 	andeq	r0, lr, fp, lsl #6
    1244:	00160300 	andseq	r0, r6, r0, lsl #6
    1248:	0b3a0e03 	bleq	e84a5c <__bss_end+0xe71910>
    124c:	13490b3b 	movtne	r0, #39739	; 0x9b3b
    1250:	24040000 	strcs	r0, [r4], #-0
    1254:	3e0b0b00 	vmlacc.f64	d0, d11, d0
    1258:	0008030b 	andeq	r0, r8, fp, lsl #6
    125c:	01130500 	tsteq	r3, r0, lsl #10
    1260:	0b3a0b0b 	bleq	e83e94 <__bss_end+0xe70d48>
    1264:	13010b3b 	movwne	r0, #6971	; 0x1b3b
    1268:	0d060000 	stceq	0, cr0, [r6, #-0]
    126c:	3a0e0300 	bcc	381e74 <__bss_end+0x36ed28>
    1270:	490b3b0b 	stmdbmi	fp, {r0, r1, r3, r8, r9, fp, ip, sp}
    1274:	0d0b0b13 	vstreq	d0, [fp, #-76]	; 0xffffffb4
    1278:	380b0c0b 	stmdacc	fp, {r0, r1, r3, sl, fp}
    127c:	0700000a 	streq	r0, [r0, -sl]
    1280:	0b0b0117 	bleq	2c16e4 <__bss_end+0x2ae598>
    1284:	0b3b0b3a 	bleq	ec3f74 <__bss_end+0xeb0e28>
    1288:	00001301 	andeq	r1, r0, r1, lsl #6
    128c:	03000d08 	movweq	r0, #3336	; 0xd08
    1290:	3b0b3a0e 	blcc	2cfad0 <__bss_end+0x2bc984>
    1294:	0013490b 	andseq	r4, r3, fp, lsl #18
    1298:	000d0900 	andeq	r0, sp, r0, lsl #18
    129c:	0b3a0e03 	bleq	e84ab0 <__bss_end+0xe71964>
    12a0:	1349053b 	movtne	r0, #38203	; 0x953b
    12a4:	0b0d0b0b 	bleq	343ed8 <__bss_end+0x330d8c>
    12a8:	0a380b0c 	beq	e03ee0 <__bss_end+0xdf0d94>
    12ac:	0d0a0000 	stceq	0, cr0, [sl, #-0]
    12b0:	3a0e0300 	bcc	381eb8 <__bss_end+0x36ed6c>
    12b4:	49053b0b 	stmdbmi	r5, {r0, r1, r3, r8, r9, fp, ip, sp}
    12b8:	0b000013 	bleq	130c <__resume1_start+0x130c>
    12bc:	0e030016 	mcreq	0, 0, r0, cr3, cr6, {0}
    12c0:	053b0b3a 	ldreq	r0, [fp, #-2874]!	; 0xb3a
    12c4:	00001349 	andeq	r1, r0, r9, asr #6
    12c8:	0b01130c 	bleq	45f00 <__bss_end+0x32db4>
    12cc:	3b0b3a0b 	blcc	2cfb00 <__bss_end+0x2bc9b4>
    12d0:	00130105 	andseq	r0, r3, r5, lsl #2
    12d4:	01170d00 	tsteq	r7, r0, lsl #26
    12d8:	0b3a0b0b 	bleq	e83f0c <__bss_end+0xe70dc0>
    12dc:	1301053b 	movwne	r0, #5435	; 0x153b
    12e0:	130e0000 	movwne	r0, #57344	; 0xe000
    12e4:	0b0e0301 	bleq	381ef0 <__bss_end+0x36eda4>
    12e8:	3b0b3a05 	blcc	2cfb04 <__bss_end+0x2bc9b8>
    12ec:	00130105 	andseq	r0, r3, r5, lsl #2
    12f0:	000d0f00 	andeq	r0, sp, r0, lsl #30
    12f4:	0b3a0e03 	bleq	e84b08 <__bss_end+0xe719bc>
    12f8:	1349053b 	movtne	r0, #38203	; 0x953b
    12fc:	00000a38 	andeq	r0, r0, r8, lsr sl
    1300:	49003510 	stmdbmi	r0, {r4, r8, sl, ip, sp}
    1304:	11000013 	tstne	r0, r3, lsl r0
    1308:	13490101 	movtne	r0, #37121	; 0x9101
    130c:	00001301 	andeq	r1, r0, r1, lsl #6
    1310:	49002112 	stmdbmi	r0, {r1, r4, r8, sp}
    1314:	000b2f13 	andeq	r2, fp, r3, lsl pc
    1318:	000f1300 	andeq	r1, pc, r0, lsl #6
    131c:	13490b0b 	movtne	r0, #39691	; 0x9b0b
    1320:	13140000 	tstne	r4, #0
    1324:	0b0e0301 	bleq	381f30 <__bss_end+0x36ede4>
    1328:	3b0b3a0b 	blcc	2cfb5c <__bss_end+0x2bca10>
    132c:	0013010b 	andseq	r0, r3, fp, lsl #2
    1330:	000d1500 	andeq	r1, sp, r0, lsl #10
    1334:	0b3a0e03 	bleq	e84b48 <__bss_end+0xe719fc>
    1338:	13490b3b 	movtne	r0, #39739	; 0x9b3b
    133c:	00000a38 	andeq	r0, r0, r8, lsr sl
    1340:	03000d16 	movweq	r0, #3350	; 0xd16
    1344:	3b0b3a08 	blcc	2cfb6c <__bss_end+0x2bca20>
    1348:	3813490b 	ldmdacc	r3, {r0, r1, r3, r8, fp, lr}
    134c:	1700000a 	strne	r0, [r0, -sl]
    1350:	0e030113 	mcreq	1, 0, r0, cr3, cr3, {0}
    1354:	0b3a050b 	bleq	e82788 <__bss_end+0xe6f63c>
    1358:	13010b3b 	movwne	r0, #6971	; 0x1b3b
    135c:	2e180000 	cdpcs	0, 1, cr0, cr8, cr0, {0}
    1360:	030c3f01 	movweq	r3, #52993	; 0xcf01
    1364:	3b0b3a0e 	blcc	2cfba4 <__bss_end+0x2bca58>
    1368:	490c270b 	stmdbmi	ip, {r0, r1, r3, r8, r9, sl, sp}
    136c:	12011113 	andne	r1, r1, #-1073741820	; 0xc0000004
    1370:	010a4001 	tsteq	sl, r1
    1374:	19000013 	stmdbne	r0, {r0, r1, r4}
    1378:	0e030005 	cdpeq	0, 0, cr0, cr3, cr5, {0}
    137c:	0b3b0b3a 	bleq	ec406c <__bss_end+0xeb0f20>
    1380:	06021349 	streq	r1, [r2], -r9, asr #6
    1384:	2e1a0000 	cdpcs	0, 1, cr0, cr10, cr0, {0}
    1388:	030c3f00 	movweq	r3, #52992	; 0xcf00
    138c:	3b0b3a0e 	blcc	2cfbcc <__bss_end+0x2bca80>
    1390:	490c270b 	stmdbmi	ip, {r0, r1, r3, r8, r9, sl, sp}
    1394:	12011113 	andne	r1, r1, #-1073741820	; 0xc0000004
    1398:	000a4001 	andeq	r4, sl, r1
    139c:	012e1b00 	teqeq	lr, r0, lsl #22
    13a0:	0e030c3f 	mcreq	12, 0, r0, cr3, cr15, {1}
    13a4:	053b0b3a 	ldreq	r0, [fp, #-2874]!	; 0xb3a
    13a8:	13490c27 	movtne	r0, #39975	; 0x9c27
    13ac:	01120111 	tsteq	r2, r1, lsl r1
    13b0:	13010a40 	movwne	r0, #6720	; 0x1a40
    13b4:	051c0000 	ldreq	r0, [ip, #-0]
    13b8:	3a0e0300 	bcc	381fc0 <__bss_end+0x36ee74>
    13bc:	49053b0b 	stmdbmi	r5, {r0, r1, r3, r8, r9, fp, ip, sp}
    13c0:	00060213 	andeq	r0, r6, r3, lsl r2
    13c4:	012e1d00 	teqeq	lr, r0, lsl #26
    13c8:	0b3a0e03 	bleq	e84bdc <__bss_end+0xe71a90>
    13cc:	0c27053b 	cfstr32eq	mvfx0, [r7], #-236	; 0xffffff14
    13d0:	0b201349 	bleq	8060fc <__bss_end+0x7f2fb0>
    13d4:	00001301 	andeq	r1, r0, r1, lsl #6
    13d8:	0300341e 	movweq	r3, #1054	; 0x41e
    13dc:	3b0b3a0e 	blcc	2cfc1c <__bss_end+0x2bcad0>
    13e0:	00134905 	andseq	r4, r3, r5, lsl #18
    13e4:	012e1f00 	teqeq	lr, r0, lsl #30
    13e8:	0e030c3f 	mcreq	12, 0, r0, cr3, cr15, {1}
    13ec:	053b0b3a 	ldreq	r0, [fp, #-2874]!	; 0xb3a
    13f0:	13490c27 	movtne	r0, #39975	; 0x9c27
    13f4:	01120111 	tsteq	r2, r1, lsl r1
    13f8:	13010640 	movwne	r0, #5696	; 0x1640
    13fc:	1d200000 	stcne	0, cr0, [r0, #-0]
    1400:	11133101 	tstne	r3, r1, lsl #2
    1404:	58011201 	stmdapl	r1, {r0, r9, ip}
    1408:	0005590b 	andeq	r5, r5, fp, lsl #18
    140c:	010b2100 	mrseq	r2, (UNDEF: 27)
    1410:	01120111 	tsteq	r2, r1, lsl r1
    1414:	34220000 	strtcc	r0, [r2], #-0
    1418:	02133100 	andseq	r3, r3, #0
    141c:	23000006 	movwcs	r0, #6
    1420:	0e030034 	mcreq	0, 0, r0, cr3, cr4, {1}
    1424:	053b0b3a 	ldreq	r0, [fp, #-2874]!	; 0xb3a
    1428:	06021349 	streq	r1, [r2], -r9, asr #6
    142c:	34240000 	strtcc	r0, [r4], #-0
    1430:	3a0e0300 	bcc	382038 <__bss_end+0x36eeec>
    1434:	49053b0b 	stmdbmi	r5, {r0, r1, r3, r8, r9, fp, ip, sp}
    1438:	000b1c13 	andeq	r1, fp, r3, lsl ip
    143c:	00342500 	eorseq	r2, r4, r0, lsl #10
    1440:	0b3a0e03 	bleq	e84c54 <__bss_end+0xe71b08>
    1444:	13490b3b 	movtne	r0, #39739	; 0x9b3b
    1448:	00000a02 	andeq	r0, r0, r2, lsl #20
    144c:	03003426 	movweq	r3, #1062	; 0x426
    1450:	3b0b3a0e 	blcc	2cfc90 <__bss_end+0x2bcb44>
    1454:	02134905 	andseq	r4, r3, #81920	; 0x14000
    1458:	0000000a 	andeq	r0, r0, sl

Disassembly of section .debug_line:

00000000 <.debug_line>:
       0:	00000094 	muleq	r0, r4, r0
       4:	008e0002 	addeq	r0, lr, r2
       8:	01020000 	mrseq	r0, (UNDEF: 2)
       c:	000d0efb 	strdeq	r0, [sp], -fp
      10:	01010101 	tsteq	r1, r1, lsl #2
      14:	01000000 	mrseq	r0, (UNDEF: 0)
      18:	61010000 	mrsvs	r0, (UNDEF: 1)
      1c:	2f686372 	svccs	0x00686372
      20:	2f6d7261 	svccs	0x006d7261
      24:	6863616d 	stmdavs	r3!, {r0, r2, r3, r5, r6, r8, sp, lr}^
      28:	6e75732d 	cdpvs	3, 7, cr7, cr5, cr13, {1}
      2c:	702f6978 	eorvc	r6, pc, r8, ror r9	; <UNPREDICTABLE>
      30:	74732f6d 	ldrbtvc	r2, [r3], #-3949	; 0xf6d
      34:	62646e61 	rsbvs	r6, r4, #1552	; 0x610
      38:	75732f79 	ldrbvc	r2, [r3, #-3961]!	; 0xf79
      3c:	2f726570 	svccs	0x00726570
      40:	75736572 	ldrbvc	r6, [r3, #-1394]!	; 0x572
      44:	2e2f656d 	cfsh64cs	mvdx6, mvdx15, #61
      48:	002e2e2f 	eoreq	r2, lr, pc, lsr #28
      4c:	68637261 	stmdavs	r3!, {r0, r5, r6, r9, ip, sp, lr}^
      50:	6d72612f 	ldfvse	f6, [r2, #-188]!	; 0xffffff44
      54:	63616d2f 	cmnvs	r1, #3008	; 0xbc0
      58:	75732d68 	ldrbvc	r2, [r3, #-3432]!	; 0xd68
      5c:	2f69786e 	svccs	0x0069786e
      60:	732f6d70 	teqvc	pc, #7168	; 0x1c00
      64:	646e6174 	strbtvs	r6, [lr], #-372	; 0x174
      68:	732f7962 	teqvc	pc, #1605632	; 0x188000
      6c:	72657075 	rsbvc	r7, r5, #117	; 0x75
      70:	7365722f 	cmnvc	r5, #-268435454	; 0xf0000002
      74:	00656d75 	rsbeq	r6, r5, r5, ror sp
      78:	70757300 	rsbsvc	r7, r5, r0, lsl #6
      7c:	695f7265 	ldmdbvs	pc, {r0, r2, r5, r6, r9, ip, sp, lr}^	; <UNPREDICTABLE>
      80:	0100682e 	tsteq	r0, lr, lsr #16
      84:	65720000 	ldrbvs	r0, [r2, #-0]!
      88:	656d7573 	strbvs	r7, [sp, #-1395]!	; 0x573
      8c:	6165685f 	cmnvs	r5, pc, asr r8
      90:	00632e64 	rsbeq	r2, r3, r4, ror #28
      94:	00000002 	andeq	r0, r0, r2
      98:	00000076 	andeq	r0, r0, r6, ror r0
      9c:	004c0002 	subeq	r0, ip, r2
      a0:	01020000 	mrseq	r0, (UNDEF: 2)
      a4:	000d0efb 	strdeq	r0, [sp], -fp
      a8:	01010101 	tsteq	r1, r1, lsl #2
      ac:	01000000 	mrseq	r0, (UNDEF: 0)
      b0:	61010000 	mrsvs	r0, (UNDEF: 1)
      b4:	2f686372 	svccs	0x00686372
      b8:	2f6d7261 	svccs	0x006d7261
      bc:	6863616d 	stmdavs	r3!, {r0, r2, r3, r5, r6, r8, sp, lr}^
      c0:	6e75732d 	cdpvs	3, 7, cr7, cr5, cr13, {1}
      c4:	702f6978 	eorvc	r6, pc, r8, ror r9	; <UNPREDICTABLE>
      c8:	74732f6d 	ldrbtvc	r2, [r3], #-3949	; 0xf6d
      cc:	62646e61 	rsbvs	r6, r4, #1552	; 0x610
      d0:	75732f79 	ldrbvc	r2, [r3, #-3961]!	; 0xf79
      d4:	2f726570 	svccs	0x00726570
      d8:	75736572 	ldrbvc	r6, [r3, #-1394]!	; 0x572
      dc:	0000656d 	andeq	r6, r0, sp, ror #10
      e0:	75736572 	ldrbvc	r6, [r3, #-1394]!	; 0x572
      e4:	2e31656d 	cdpcs	5, 3, cr6, cr1, cr13, {3}
      e8:	00010053 	andeq	r0, r1, r3, asr r0
      ec:	05000000 	streq	r0, [r0, #-0]
      f0:	01003002 	tsteq	r0, r2
      f4:	00c30300 	sbceq	r0, r3, r0, lsl #6
      f8:	2f2f2f01 	svccs	0x002f2f01
      fc:	2f332f2f 	svccs	0x00332f2f
     100:	302f2f2f 	eorcc	r2, pc, pc, lsr #30
     104:	2e22032f 	cdpcs	3, 2, cr0, cr2, cr15, {1}
     108:	2f312f30 	svccs	0x00312f30
     10c:	00020230 	andeq	r0, r2, r0, lsr r2
     110:	00720101 	rsbseq	r0, r2, r1, lsl #2
     114:	00020000 	andeq	r0, r2, r0
     118:	00000044 	andeq	r0, r0, r4, asr #32
     11c:	0efb0102 	cdpeq	1, 15, cr0, cr11, cr2, {0}
     120:	0101000d 	tsteq	r1, sp
     124:	00000101 	andeq	r0, r0, r1, lsl #2
     128:	00000100 	andeq	r0, r0, r0, lsl #2
     12c:	63726101 	cmnvs	r2, #1073741824	; 0x40000000
     130:	72612f68 	rsbvc	r2, r1, #416	; 0x1a0
     134:	616d2f6d 	cmnvs	sp, sp, ror #30
     138:	732d6863 	teqvc	sp, #6488064	; 0x630000
     13c:	69786e75 	ldmdbvs	r8!, {r0, r2, r4, r5, r6, r9, sl, fp, sp, lr}^
     140:	2f6d702f 	svccs	0x006d702f
     144:	6e617473 	mcrvs	4, 3, r7, cr1, cr3, {3}
     148:	2f796264 	svccs	0x00796264
     14c:	65707573 	ldrbvs	r7, [r0, #-1395]!	; 0x573
     150:	63000072 	movwvs	r0, #114	; 0x72
     154:	6f6d6d6f 	svcvs	0x006d6d6f
     158:	00632e6e 	rsbeq	r2, r3, lr, ror #28
     15c:	00000001 	andeq	r0, r0, r1
     160:	7c020500 	cfstr32vc	mvfx0, [r2], {-0}
     164:	03000100 	movweq	r0, #256	; 0x100
     168:	4c150123 	ldfmis	f0, [r5], {35}	; 0x23
     16c:	004a7a03 	subeq	r7, sl, r3, lsl #20
     170:	35020402 	strcc	r0, [r2, #-1026]	; 0x402
     174:	02040200 	andeq	r0, r4, #0
     178:	0402002d 	streq	r0, [r2], #-45	; 0x2d
     17c:	02002f02 	andeq	r2, r0, #8
     180:	022d0204 	eoreq	r0, sp, #1073741824	; 0x40000000
     184:	01010004 	tsteq	r1, r4
     188:	00000019 	andeq	r0, r0, r9, lsl r0
     18c:	00130002 	andseq	r0, r3, r2
     190:	01020000 	mrseq	r0, (UNDEF: 2)
     194:	000d0efb 	strdeq	r0, [sp], -fp
     198:	01010101 	tsteq	r1, r1, lsl #2
     19c:	01000000 	mrseq	r0, (UNDEF: 0)
     1a0:	00010000 	andeq	r0, r1, r0
     1a4:	00006700 	andeq	r6, r0, r0, lsl #14
     1a8:	49000200 	stmdbmi	r0, {r9}
     1ac:	02000000 	andeq	r0, r0, #0
     1b0:	0d0efb01 	vstreq	d15, [lr, #-4]
     1b4:	01010100 	mrseq	r0, (UNDEF: 17)
     1b8:	00000001 	andeq	r0, r0, r1
     1bc:	01000001 	tsteq	r0, r1
     1c0:	68637261 	stmdavs	r3!, {r0, r5, r6, r9, ip, sp, lr}^
     1c4:	6d72612f 	ldfvse	f6, [r2, #-188]!	; 0xffffff44
     1c8:	63616d2f 	cmnvs	r1, #3008	; 0xbc0
     1cc:	75732d68 	ldrbvc	r2, [r3, #-3432]!	; 0xd68
     1d0:	2f69786e 	svccs	0x0069786e
     1d4:	732f6d70 	teqvc	pc, #7168	; 0x1c00
     1d8:	646e6174 	strbtvs	r6, [lr], #-372	; 0x174
     1dc:	732f7962 	teqvc	pc, #1605632	; 0x188000
     1e0:	72657075 	rsbvc	r7, r5, #117	; 0x75
     1e4:	75730000 	ldrbvc	r0, [r3, #-0]!
     1e8:	5f726570 	svcpl	0x00726570
     1ec:	616c6564 	cmnvs	ip, r4, ror #10
     1f0:	00532e79 	subseq	r2, r3, r9, ror lr
     1f4:	00000001 	andeq	r0, r0, r1
     1f8:	a4020500 	strge	r0, [r2], #-1280	; 0x500
     1fc:	03000100 	movweq	r0, #256	; 0x100
     200:	2f2f010d 	svccs	0x002f010d
     204:	2f2f2f30 	svccs	0x002f2f30
     208:	022f302f 	eoreq	r3, pc, #47	; 0x2f
     20c:	01010002 	tsteq	r1, r2
     210:	00000019 	andeq	r0, r0, r9, lsl r0
     214:	00130002 	andseq	r0, r3, r2
     218:	01020000 	mrseq	r0, (UNDEF: 2)
     21c:	000d0efb 	strdeq	r0, [sp], -fp
     220:	01010101 	tsteq	r1, r1, lsl #2
     224:	01000000 	mrseq	r0, (UNDEF: 0)
     228:	00010000 	andeq	r0, r1, r0
     22c:	00001900 	andeq	r1, r0, r0, lsl #18
     230:	13000200 	movwne	r0, #512	; 0x200
     234:	02000000 	andeq	r0, r0, #0
     238:	0d0efb01 	vstreq	d15, [lr, #-4]
     23c:	01010100 	mrseq	r0, (UNDEF: 17)
     240:	00000001 	andeq	r0, r0, r1
     244:	01000001 	tsteq	r0, r1
     248:	00190000 	andseq	r0, r9, r0
     24c:	00020000 	andeq	r0, r2, r0
     250:	00000013 	andeq	r0, r0, r3, lsl r0
     254:	0efb0102 	cdpeq	1, 15, cr0, cr11, cr2, {0}
     258:	0101000d 	tsteq	r1, sp
     25c:	00000101 	andeq	r0, r0, r1, lsl #2
     260:	00000100 	andeq	r0, r0, r0, lsl #2
     264:	41000001 	tstmi	r0, r1
     268:	02000001 	andeq	r0, r0, #1
     26c:	0000c500 	andeq	ip, r0, r0, lsl #10
     270:	fb010200 	blx	40a7a <__bss_end+0x2d92e>
     274:	01000d0e 	tsteq	r0, lr, lsl #26
     278:	00010101 	andeq	r0, r1, r1, lsl #2
     27c:	00010000 	andeq	r0, r1, r0
     280:	72610100 	rsbvc	r0, r1, #0
     284:	612f6863 	teqvs	pc, r3, ror #16
     288:	6d2f6d72 	stcvs	13, cr6, [pc, #-456]!	; c8 <__resume1_start+0xc8>
     28c:	2d686361 	stclcs	3, cr6, [r8, #-388]!	; 0xfffffe7c
     290:	786e7573 	stmdavc	lr!, {r0, r1, r4, r5, r6, r8, sl, ip, sp, lr}^
     294:	6d702f69 	ldclvs	15, cr2, [r0, #-420]!	; 0xfffffe5c
     298:	6174732f 	cmnvs	r4, pc, lsr #6
     29c:	7962646e 	stmdbvc	r2!, {r1, r2, r3, r5, r6, sl, sp, lr}^
     2a0:	7075732f 	rsbsvc	r7, r5, pc, lsr #6
     2a4:	722f7265 	eorvc	r7, pc, #1342177286	; 0x50000006
     2a8:	6d757365 	ldclvs	3, cr7, [r5, #-404]!	; 0xfffffe6c
     2ac:	72610065 	rsbvc	r0, r1, #101	; 0x65
     2b0:	612f6863 	teqvs	pc, r3, ror #16
     2b4:	6d2f6d72 	stcvs	13, cr6, [pc, #-456]!	; f4 <__resume1_start+0xf4>
     2b8:	2d686361 	stclcs	3, cr6, [r8, #-388]!	; 0xfffffe7c
     2bc:	786e7573 	stmdavc	lr!, {r0, r1, r4, r5, r6, r8, sl, ip, sp, lr}^
     2c0:	6d702f69 	ldclvs	15, cr2, [r0, #-420]!	; 0xfffffe5c
     2c4:	6174732f 	cmnvs	r4, pc, lsr #6
     2c8:	7962646e 	stmdbvc	r2!, {r1, r2, r3, r5, r6, sl, sp, lr}^
     2cc:	7075732f 	rsbsvc	r7, r5, pc, lsr #6
     2d0:	722f7265 	eorvc	r7, pc, #1342177286	; 0x50000006
     2d4:	6d757365 	ldclvs	3, cr7, [r5, #-404]!	; 0xfffffe6c
     2d8:	2f2e2f65 	svccs	0x002e2f65
     2dc:	2e2f2e2e 	cdpcs	14, 2, cr2, cr15, cr14, {1}
     2e0:	2e2e2f2e 	cdpcs	15, 2, cr2, cr14, cr14, {1}
     2e4:	65720000 	ldrbvs	r0, [r2, #-0]!
     2e8:	656d7573 	strbvs	r7, [sp, #-1395]!	; 0x573
     2ec:	5f635f31 	svcpl	0x00635f31
     2f0:	74726170 	ldrbtvc	r6, [r2], #-368	; 0x170
     2f4:	0100632e 	tsteq	r0, lr, lsr #6
     2f8:	6d700000 	ldclvs	0, cr0, [r0, #-0]
     2fc:	7079745f 	rsbsvc	r7, r9, pc, asr r4
     300:	682e7365 	stmdavs	lr!, {r0, r2, r5, r6, r8, r9, ip, sp, lr}
     304:	00000200 	andeq	r0, r0, r0, lsl #4
     308:	5f6d656d 	svcpl	0x006d656d
     30c:	756d6363 	strbvc	r6, [sp, #-867]!	; 0x363
     310:	6e75732d 	cdpvs	3, 7, cr7, cr5, cr13, {1}
     314:	31776939 	cmncc	r7, r9, lsr r9
     318:	682e3170 	stmdavs	lr!, {r4, r5, r6, r8, ip, sp}
     31c:	00000200 	andeq	r0, r0, r0, lsl #4
     320:	5f6d656d 	svcpl	0x006d656d
     324:	2e6b6c63 	cdpcs	12, 6, cr6, cr11, cr3, {3}
     328:	00020068 	andeq	r0, r2, r8, rrx
     32c:	2e6d7000 	cdpcs	0, 6, cr7, cr13, cr0, {0}
     330:	00020068 	andeq	r0, r2, r8, rrx
     334:	05000000 	streq	r0, [r0, #-0]
     338:	0100cc02 	tsteq	r0, r2, lsl #24
     33c:	012e0300 	teqeq	lr, r0, lsl #6
     340:	2e0c0331 	mcrcs	3, 0, r0, cr12, cr1, {1}
     344:	2f2e7403 	svccs	0x002e7403
     348:	4c2e0903 	stcmi	9, cr0, [lr], #-12
     34c:	2f4b4b6d 	svccs	0x004b4b6d
     350:	4b4e6b4c 	blmi	139b088 <__bss_end+0x1387f3c>
     354:	4b354b50 	blmi	d5309c <__bss_end+0xd3ff50>
     358:	03694b6a 	cmneq	r9, #108544	; 0x1a800
     35c:	24034a55 	strcs	r4, [r3], #-2645	; 0xa55
     360:	66670366 	strbtvs	r0, [r7], -r6, ror #6
     364:	58082c03 	stmdapl	r8, {r0, r1, sl, fp, sp}
     368:	302e0b03 	eorcc	r0, lr, r3, lsl #22
     36c:	01040200 	mrseq	r0, R12_usr
     370:	068206a0 	streq	r0, [r2], r0, lsr #13
     374:	4a2e0335 	bmi	b81050 <__bss_end+0xb6df04>
     378:	302e5203 	eorcc	r5, lr, r3, lsl #4
     37c:	4f2e2603 	svcmi	0x002e2603
     380:	a12f322a 	teqge	pc, sl, lsr #4
     384:	7a03344b 	bvc	cd4b8 <__bss_end+0xba36c>
     388:	2f6a302e 	svccs	0x006a302e
     38c:	4b2d2f4e 	blmi	b4c0cc <__bss_end+0xb38f80>
     390:	4e2f6731 	mcrmi	7, 1, r6, cr15, cr1, {1}
     394:	66018303 	strvs	r8, [r1], -r3, lsl #6
     398:	2c302f4d 	ldccs	15, cr2, [r0], #-308	; 0xfffffecc
     39c:	2e7eff03 	cdpcs	15, 7, cr15, cr14, cr3, {0}
     3a0:	2fbc314b 	svccs	0x00bc314b
     3a4:	024a7503 	subeq	r7, sl, #12582912	; 0xc00000
     3a8:	0101000c 	tsteq	r1, ip
     3ac:	00000124 	andeq	r0, r0, r4, lsr #2
     3b0:	005f0002 	subseq	r0, pc, r2
     3b4:	01020000 	mrseq	r0, (UNDEF: 2)
     3b8:	000d0efb 	strdeq	r0, [sp], -fp
     3bc:	01010101 	tsteq	r1, r1, lsl #2
     3c0:	01000000 	mrseq	r0, (UNDEF: 0)
     3c4:	61010000 	mrsvs	r0, (UNDEF: 1)
     3c8:	2f686372 	svccs	0x00686372
     3cc:	2f6d7261 	svccs	0x006d7261
     3d0:	6863616d 	stmdavs	r3!, {r0, r2, r3, r5, r6, r8, sp, lr}^
     3d4:	6e75732d 	cdpvs	3, 7, cr7, cr5, cr13, {1}
     3d8:	702f6978 	eorvc	r6, pc, r8, ror r9	; <UNPREDICTABLE>
     3dc:	74732f6d 	ldrbtvc	r2, [r3], #-3949	; 0xf6d
     3e0:	62646e61 	rsbvs	r6, r4, #1552	; 0x610
     3e4:	2e2e2f79 	mcrcs	15, 1, r2, cr14, cr9, {3}
     3e8:	6d700000 	ldclvs	0, cr0, [r0, #-0]
     3ec:	6265645f 	rsbvs	r6, r5, #1593835520	; 0x5f000000
     3f0:	632e6775 	teqvs	lr, #30670848	; 0x1d40000
     3f4:	00000100 	andeq	r0, r0, r0, lsl #2
     3f8:	645f6d70 	ldrbvs	r6, [pc], #-3440	; 400 <__resume1_start+0x400>
     3fc:	67756265 	ldrbvs	r6, [r5, -r5, ror #4]!
     400:	0100682e 	tsteq	r0, lr, lsr #16
     404:	6d700000 	ldclvs	0, cr0, [r0, #-0]
     408:	7079745f 	rsbsvc	r7, r9, pc, asr r4
     40c:	682e7365 	stmdavs	lr!, {r0, r2, r5, r6, r8, r9, ip, sp, lr}
     410:	00000100 	andeq	r0, r0, r0, lsl #2
     414:	02050000 	andeq	r0, r5, #0
     418:	000102e4 	andeq	r0, r1, r4, ror #5
     41c:	30010b03 	andcc	r0, r1, r3, lsl #22
     420:	01040200 	mrseq	r0, R12_usr
     424:	1a516a4b 	bne	145ad58 <__bss_end+0x1447c0c>
     428:	13361936 	teqne	r6, #884736	; 0xd8000
     42c:	314b2d4b 	cmpcc	fp, fp, asr #26
     430:	3211322b 	andscc	r3, r1, #-1342177278	; 0xb0000002
     434:	4b2d4b13 	blmi	b53088 <__bss_end+0xb3ff3c>
     438:	11322b31 	teqne	r2, r1, lsr fp
     43c:	2f2d3232 	svccs	0x002d3232
     440:	2d69672d 	stclcs	7, cr6, [r9, #-180]!	; 0xffffff4c
     444:	2e780336 	mrccs	3, 3, r0, cr8, cr6, {1}
     448:	2f2f2f2d 	svccs	0x002f2f2d
     44c:	4b2f2d2f 	blmi	bcb910 <__bss_end+0xbb87c4>
     450:	672f672f 	strvs	r6, [pc, -pc, lsr #14]!
     454:	032e7703 	teqeq	lr, #786432	; 0xc0000
     458:	2d2f2e0c 	stccs	14, cr2, [pc, #-48]!	; 430 <__resume1_start+0x430>
     45c:	4a31144e 	bmi	c4559c <__bss_end+0xc32450>
     460:	2d2f672f 	stccs	7, cr6, [pc, #-188]!	; 3ac <__resume1_start+0x3ac>
     464:	03660903 	cmneq	r6, #49152	; 0xc000
     468:	4b2c2e79 	blmi	b0be54 <__bss_end+0xaf8d08>
     46c:	2f2d2f2f 	svccs	0x002d2f2f
     470:	2f672f4b 	svccs	0x00672f4b
     474:	2f302f67 	svccs	0x00302f67
     478:	68304d30 	ldmdavs	r0!, {r4, r5, r8, sl, fp, lr}
     47c:	312f6848 	teqcc	pc, r8, asr #16
     480:	324b4c2b 	subcc	r4, fp, #11008	; 0x2b00
     484:	314d2f4d 	cmpcc	sp, sp, asr #30
     488:	312f4d47 	teqcc	pc, r7, asr #26
     48c:	314b4c2b 	cmpcc	fp, fp, lsr #24
     490:	75032c68 	strvc	r2, [r3, #-3176]	; 0xc68
     494:	4a0f032e 	bmi	3c1154 <__bss_end+0x3ae008>
     498:	4b2f4a69 	blmi	bd2e44 <__bss_end+0xbbfcf8>
     49c:	2d2f2f2d 	stccs	15, cr2, [pc, #-180]!	; 3f0 <__resume1_start+0x3f0>
     4a0:	032e0903 	teqeq	lr, #49152	; 0xc000
     4a4:	2c302e77 	ldccs	14, cr2, [r0], #-476	; 0xfffffe24
     4a8:	2d2f2f4b 	stccs	15, cr2, [pc, #-300]!	; 384 <__resume1_start+0x384>
     4ac:	672f4b2f 	strvs	r4, [pc, -pc, lsr #22]!
     4b0:	4732672f 	ldrmi	r6, [r2, -pc, lsr #14]!
     4b4:	2e00cc03 	cdpcs	12, 0, cr12, cr0, cr3, {0}
     4b8:	1631a114 			; <UNDEFINED> instruction: 0x1631a114
     4bc:	31312f67 	teqcc	r1, r7, ror #30
     4c0:	312f6815 	teqcc	pc, r5, lsl r8	; <UNPREDICTABLE>
     4c4:	4c4c3034 	mcrrmi	0, 3, r3, ip, cr4
     4c8:	312f302a 	teqcc	pc, sl, lsr #32
     4cc:	0231312c 	eorseq	r3, r1, #11
     4d0:	01010002 	tsteq	r1, r2
     4d4:	000000ff 	strdeq	r0, [r0], -pc	; <UNPREDICTABLE>
     4d8:	00850002 	addeq	r0, r5, r2
     4dc:	01020000 	mrseq	r0, (UNDEF: 2)
     4e0:	000d0efb 	strdeq	r0, [sp], -fp
     4e4:	01010101 	tsteq	r1, r1, lsl #2
     4e8:	01000000 	mrseq	r0, (UNDEF: 0)
     4ec:	61010000 	mrsvs	r0, (UNDEF: 1)
     4f0:	2f686372 	svccs	0x00686372
     4f4:	2f6d7261 	svccs	0x006d7261
     4f8:	6863616d 	stmdavs	r3!, {r0, r2, r3, r5, r6, r8, sp, lr}^
     4fc:	6e75732d 	cdpvs	3, 7, cr7, cr5, cr13, {1}
     500:	702f6978 	eorvc	r6, pc, r8, ror r9	; <UNPREDICTABLE>
     504:	74732f6d 	ldrbtvc	r2, [r3], #-3949	; 0xf6d
     508:	62646e61 	rsbvs	r6, r4, #1552	; 0x610
     50c:	2e2e2f79 	mcrcs	15, 1, r2, cr14, cr9, {3}
     510:	63726100 	cmnvs	r2, #0
     514:	72612f68 	rsbvc	r2, r1, #416	; 0x1a0
     518:	616d2f6d 	cmnvs	sp, sp, ror #30
     51c:	732d6863 	teqvc	sp, #6488064	; 0x630000
     520:	69786e75 	ldmdbvs	r8!, {r0, r2, r4, r5, r6, r9, sl, fp, sp, lr}^
     524:	2f6d702f 	svccs	0x006d702f
     528:	6e617473 	mcrvs	4, 3, r7, cr1, cr3, {3}
     52c:	2f796264 	svccs	0x00796264
     530:	2e2f2e2e 	cdpcs	14, 2, cr2, cr15, cr14, {1}
     534:	656d0000 	strbvs	r0, [sp, #-0]!
     538:	69745f6d 	ldmdbvs	r4!, {r0, r2, r3, r5, r6, r8, r9, sl, fp, ip, lr}^
     53c:	676e696d 	strbvs	r6, [lr, -sp, ror #18]!
     540:	0100632e 	tsteq	r0, lr, lsr #6
     544:	6d700000 	ldclvs	0, cr0, [r0, #-0]
     548:	7079745f 	rsbsvc	r7, r9, pc, asr r4
     54c:	682e7365 	stmdavs	lr!, {r0, r2, r5, r6, r8, r9, ip, sp, lr}
     550:	00000100 	andeq	r0, r0, r0, lsl #2
     554:	645f6d70 	ldrbvs	r6, [pc], #-3440	; 55c <__resume1_start+0x55c>
     558:	67756265 	ldrbvs	r6, [r5, -r5, ror #4]!
     55c:	0200682e 	andeq	r6, r0, #3014656	; 0x2e0000
     560:	00000000 	andeq	r0, r0, r0
     564:	06280205 	strteq	r0, [r8], -r5, lsl #4
     568:	0b030001 	bleq	c0574 <__bss_end+0xad428>
     56c:	09031401 	stmdbeq	r3, {r0, sl, ip}
     570:	31302f66 	teqcc	r0, r6, ror #30
     574:	31314d32 	teqcc	r1, r2, lsr sp
     578:	314c8514 	cmpcc	ip, r4, lsl r5
     57c:	31848515 	orrcc	r8, r4, r5, lsl r5
     580:	15313015 	ldrne	r3, [r1, #-21]!
     584:	312f312f 	teqcc	pc, pc, lsr #2
     588:	032e7003 	teqeq	lr, #3
     58c:	4b844a17 	blmi	fe112df0 <__bss_end+0xfe0ffca4>
     590:	03362e34 	teqeq	r6, #832	; 0x340
     594:	302f8232 	eorcc	r8, pc, r2, lsr r2	; <UNPREDICTABLE>
     598:	032e4c03 	teqeq	lr, #768	; 0x300
     59c:	30034a57 	andcc	r4, r3, r7, asr sl
     5a0:	2e79032e 	cdpcs	3, 7, cr0, cr9, cr14, {1}
     5a4:	032f4d35 	teqeq	pc, #3392	; 0xd40
     5a8:	4e667fa7 	cdpmi	15, 6, cr7, cr6, cr7, {5}
     5ac:	4a1e034d 	bmi	7812e8 <__bss_end+0x76e19c>
     5b0:	032e3803 	teqeq	lr, #196608	; 0x30000
     5b4:	4d139e28 	ldcmi	14, cr9, [r3, #-160]	; 0xffffff60
     5b8:	2e21030f 	cdpcs	3, 2, cr0, cr1, cr15, {0}
     5bc:	66090314 			; <UNDEFINED> instruction: 0x66090314
     5c0:	3231302f 	eorscc	r3, r1, #47	; 0x2f
     5c4:	a431314d 	ldrtge	r3, [r1], #-333	; 0x14d
     5c8:	312f3031 	teqcc	pc, r1, lsr r0	; <UNPREDICTABLE>
     5cc:	3031a44e 	eorscc	sl, r1, lr, asr #8
     5d0:	0402312f 	streq	r3, [r2], #-303	; 0x12f
     5d4:	ac010100 	stfges	f0, [r1], {-0}
     5d8:	02000000 	andeq	r0, r0, #0
     5dc:	00007f00 	andeq	r7, r0, r0, lsl #30
     5e0:	fb010200 	blx	40dea <__bss_end+0x2dc9e>
     5e4:	01000d0e 	tsteq	r0, lr, lsl #26
     5e8:	00010101 	andeq	r0, r1, r1, lsl #2
     5ec:	00010000 	andeq	r0, r1, r0
     5f0:	72610100 	rsbvc	r0, r1, #0
     5f4:	612f6863 	teqvs	pc, r3, ror #16
     5f8:	6d2f6d72 	stcvs	13, cr6, [pc, #-456]!	; 438 <__resume1_start+0x438>
     5fc:	2d686361 	stclcs	3, cr6, [r8, #-388]!	; 0xfffffe7c
     600:	786e7573 	stmdavc	lr!, {r0, r1, r4, r5, r6, r8, sl, ip, sp, lr}^
     604:	6d702f69 	ldclvs	15, cr2, [r0, #-420]!	; 0xfffffe5c
     608:	6174732f 	cmnvs	r4, pc, lsr #6
     60c:	7962646e 	stmdbvc	r2!, {r1, r2, r3, r5, r6, sl, sp, lr}^
     610:	002e2e2f 	eoreq	r2, lr, pc, lsr #28
     614:	68637261 	stmdavs	r3!, {r0, r5, r6, r9, ip, sp, lr}^
     618:	6d72612f 	ldfvse	f6, [r2, #-188]!	; 0xffffff44
     61c:	63616d2f 	cmnvs	r1, #3008	; 0xbc0
     620:	75732d68 	ldrbvc	r2, [r3, #-3432]!	; 0xd68
     624:	2f69786e 	svccs	0x0069786e
     628:	732f6d70 	teqvc	pc, #7168	; 0x1c00
     62c:	646e6174 	strbtvs	r6, [lr], #-372	; 0x174
     630:	2e2f7962 	cdpcs	9, 2, cr7, cr15, cr2, {3}
     634:	002e2f2e 	eoreq	r2, lr, lr, lsr #30
     638:	6d656d00 	stclvs	13, cr6, [r5, #-0]
     63c:	756d6d5f 	strbvc	r6, [sp, #-3423]!	; 0xd5f
     640:	2e63705f 	mcrcs	0, 3, r7, cr3, cr15, {2}
     644:	00010063 	andeq	r0, r1, r3, rrx
     648:	2e6d7000 	cdpcs	0, 6, cr7, cr13, cr0, {0}
     64c:	00020068 	andeq	r0, r2, r8, rrx
     650:	5f6d7000 	svcpl	0x006d7000
     654:	65707974 	ldrbvs	r7, [r0, #-2420]!	; 0x974
     658:	00682e73 	rsbeq	r2, r8, r3, ror lr
     65c:	00000001 	andeq	r0, r0, r1
     660:	00020500 	andeq	r0, r2, r0, lsl #10
     664:	19000108 	stmdbne	r0, {r3, r8}
     668:	4f4d4c14 	svcmi	0x004d4c14
     66c:	4d4d4b4b 	vstrmi	d20, [sp, #-300]	; 0xfffffed4
     670:	4c4c1631 	mcrrmi	6, 3, r1, ip, cr1
     674:	4b2f4b4e 	blmi	bd33b4 <__bss_end+0xbc0268>
     678:	131313bb 	tstne	r3, #-335544318	; 0xec000002
     67c:	2f2f4c32 	svccs	0x002f4c32
     680:	0202312f 	andeq	r3, r2, #-1073741813	; 0xc000000b
     684:	ab010100 	blge	40a8c <__bss_end+0x2d940>
     688:	02000001 	andeq	r0, r0, #1
     68c:	00004900 	andeq	r4, r0, r0, lsl #18
     690:	fb010200 	blx	40e9a <__bss_end+0x2dd4e>
     694:	01000d0e 	tsteq	r0, lr, lsl #26
     698:	00010101 	andeq	r0, r1, r1, lsl #2
     69c:	00010000 	andeq	r0, r1, r0
     6a0:	72610100 	rsbvc	r0, r1, #0
     6a4:	612f6863 	teqvs	pc, r3, ror #16
     6a8:	6d2f6d72 	stcvs	13, cr6, [pc, #-456]!	; 4e8 <__resume1_start+0x4e8>
     6ac:	2d686361 	stclcs	3, cr6, [r8, #-388]!	; 0xfffffe7c
     6b0:	786e7573 	stmdavc	lr!, {r0, r1, r4, r5, r6, r8, sl, ip, sp, lr}^
     6b4:	6d702f69 	ldclvs	15, cr2, [r0, #-420]!	; 0xfffffe5c
     6b8:	6174732f 	cmnvs	r4, pc, lsr #6
     6bc:	7962646e 	stmdbvc	r2!, {r1, r2, r3, r5, r6, sl, sp, lr}^
     6c0:	002e2e2f 	eoreq	r2, lr, pc, lsr #28
     6c4:	6d656d00 	stclvs	13, cr6, [r5, #-0]
     6c8:	756d6d5f 	strbvc	r6, [sp, #-3423]!	; 0xd5f
     6cc:	5f63705f 	svcpl	0x0063705f
     6d0:	2e6d7361 	cdpcs	3, 6, cr7, cr13, cr1, {3}
     6d4:	00010053 	andeq	r0, r1, r3, asr r0
     6d8:	05000000 	streq	r0, [r0, #-0]
     6dc:	0108a002 	tsteq	r8, r2
     6e0:	010a0300 	mrseq	r0, (UNDEF: 58)
     6e4:	2f332f2f 	svccs	0x00332f2f
     6e8:	332f332f 	teqcc	pc, #-1140850688	; 0xbc000000
     6ec:	6613032f 	ldrvs	r0, [r3], -pc, lsr #6
     6f0:	2f2f2f2f 	svccs	0x002f2f2f
     6f4:	2f2f302f 	svccs	0x002f302f
     6f8:	2f2f2f2f 	svccs	0x002f2f2f
     6fc:	2f2f2f2f 	svccs	0x002f2f2f
     700:	2f2f2f2f 	svccs	0x002f2f2f
     704:	2f2f3030 	svccs	0x002f3030
     708:	2f2f2f2f 	svccs	0x002f2f2f
     70c:	302f2f30 	eorcc	r2, pc, r0, lsr pc	; <UNPREDICTABLE>
     710:	302f2f30 	eorcc	r2, pc, r0, lsr pc	; <UNPREDICTABLE>
     714:	2f2f2f33 	svccs	0x002f2f33
     718:	2f332f2f 	svccs	0x00332f2f
     71c:	2f2f2f2f 	svccs	0x002f2f2f
     720:	2f2f302f 	svccs	0x002f302f
     724:	2f2f2f2f 	svccs	0x002f2f2f
     728:	2f2f2f2f 	svccs	0x002f2f2f
     72c:	2f2f2f2f 	svccs	0x002f2f2f
     730:	2f2f3030 	svccs	0x002f3030
     734:	2f2f2f2f 	svccs	0x002f2f2f
     738:	302f2f30 	eorcc	r2, pc, r0, lsr pc	; <UNPREDICTABLE>
     73c:	2f2f2f30 	svccs	0x002f2f30
     740:	2f2f342f 	svccs	0x002f342f
     744:	2f2f2f2f 	svccs	0x002f2f2f
     748:	2f332f2f 	svccs	0x00332f2f
     74c:	2f2f2f2f 	svccs	0x002f2f2f
     750:	2f332f2f 	svccs	0x00332f2f
     754:	2f2f2f2f 	svccs	0x002f2f2f
     758:	2f2f332f 	svccs	0x002f332f
     75c:	2f2f2f2f 	svccs	0x002f2f2f
     760:	2f2f2f34 	svccs	0x002f2f34
     764:	332f2f2f 	teqcc	pc, #188	; 0xbc
     768:	2f2f2f2f 	svccs	0x002f2f2f
     76c:	332f2f2f 	teqcc	pc, #188	; 0xbc
     770:	2f2f2f2f 	svccs	0x002f2f2f
     774:	0a032f2f 	beq	cc438 <__bss_end+0xb92ec>
     778:	2f2f2f2e 	svccs	0x002f2f2e
     77c:	2f342f2f 	svccs	0x00342f2f
     780:	2f2f2f2f 	svccs	0x002f2f2f
     784:	2f2f332f 	svccs	0x002f332f
     788:	2f2f2f2f 	svccs	0x002f2f2f
     78c:	2f2e0903 	svccs	0x002e0903
     790:	2f303030 	svccs	0x00303030
     794:	332f2f2f 	teqcc	pc, #188	; 0xbc
     798:	2f2f2f30 	svccs	0x002f2f30
     79c:	2f2f2f2f 	svccs	0x002f2f2f
     7a0:	2f2f2f31 	svccs	0x002f2f31
     7a4:	2f2f2f2f 	svccs	0x002f2f2f
     7a8:	2f2f2f2f 	svccs	0x002f2f2f
     7ac:	2f2f2f2f 	svccs	0x002f2f2f
     7b0:	2f2f2f2f 	svccs	0x002f2f2f
     7b4:	2f2f2f2f 	svccs	0x002f2f2f
     7b8:	2f2f2f2f 	svccs	0x002f2f2f
     7bc:	2f2f2f2f 	svccs	0x002f2f2f
     7c0:	2f2f2f2f 	svccs	0x002f2f2f
     7c4:	2f2f2f2f 	svccs	0x002f2f2f
     7c8:	2f2f2f30 	svccs	0x002f2f30
     7cc:	2f2f2f2f 	svccs	0x002f2f2f
     7d0:	2f2f2f2f 	svccs	0x002f2f2f
     7d4:	2f312f2f 	svccs	0x00312f2f
     7d8:	0a032f30 	beq	cc4a0 <__bss_end+0xb9354>
     7dc:	2f2f2f2e 	svccs	0x002f2f2e
     7e0:	2f2f3050 	svccs	0x002f3050
     7e4:	2f2f3430 	svccs	0x002f3430
     7e8:	2f30f82f 	svccs	0x0030f82f
     7ec:	0d03302f 	stceq	0, cr3, [r3, #-188]	; 0xffffff44
     7f0:	302f2f2e 	eorcc	r2, pc, lr, lsr #30
     7f4:	2f820c03 	svccs	0x00820c03
     7f8:	2f2f2f2f 	svccs	0x002f2f2f
     7fc:	6d2f502f 	stcvs	0, cr5, [pc, #-188]!	; 748 <__resume1_start+0x748>
     800:	30302f2f 	eorscc	r2, r0, pc, lsr #30
     804:	2f302f2f 	svccs	0x00302f2f
     808:	7cac0330 	stcvc	3, cr0, [ip], #192	; 0xc0
     80c:	3103352e 	tstcc	r3, lr, lsr #10
     810:	e603312e 	str	r3, [r3], -lr, lsr #2
     814:	30302e01 	eorscc	r2, r0, r1, lsl #28
     818:	30303230 	eorscc	r3, r0, r0, lsr r2
     81c:	30303030 	eorscc	r3, r0, r0, lsr r0
     820:	30303030 	eorscc	r3, r0, r0, lsr r0
     824:	30303030 	eorscc	r3, r0, r0, lsr r0
     828:	30303030 	eorscc	r3, r0, r0, lsr r0
     82c:	30303130 	eorscc	r3, r0, r0, lsr r1
     830:	00020230 	andeq	r0, r2, r0, lsr r2
     834:	01210101 	teqeq	r1, r1, lsl #2
     838:	00020000 	andeq	r0, r2, r0
     83c:	00000081 	andeq	r0, r0, r1, lsl #1
     840:	0efb0102 	cdpeq	1, 15, cr0, cr11, cr2, {0}
     844:	0101000d 	tsteq	r1, sp
     848:	00000101 	andeq	r0, r0, r1, lsl #2
     84c:	00000100 	andeq	r0, r0, r0, lsl #2
     850:	63726101 	cmnvs	r2, #1073741824	; 0x40000000
     854:	72612f68 	rsbvc	r2, r1, #416	; 0x1a0
     858:	616d2f6d 	cmnvs	sp, sp, ror #30
     85c:	732d6863 	teqvc	sp, #6488064	; 0x630000
     860:	69786e75 	ldmdbvs	r8!, {r0, r2, r4, r5, r6, r9, sl, fp, sp, lr}^
     864:	2f6d702f 	svccs	0x006d702f
     868:	6e617473 	mcrvs	4, 3, r7, cr1, cr3, {3}
     86c:	2f796264 	svccs	0x00796264
     870:	61002e2e 	tstvs	r0, lr, lsr #28
     874:	2f686372 	svccs	0x00686372
     878:	2f6d7261 	svccs	0x006d7261
     87c:	6863616d 	stmdavs	r3!, {r0, r2, r3, r5, r6, r8, sp, lr}^
     880:	6e75732d 	cdpvs	3, 7, cr7, cr5, cr13, {1}
     884:	702f6978 	eorvc	r6, pc, r8, ror r9	; <UNPREDICTABLE>
     888:	74732f6d 	ldrbtvc	r2, [r3], #-3949	; 0xf6d
     88c:	62646e61 	rsbvs	r6, r4, #1552	; 0x610
     890:	2e2e2f79 	mcrcs	15, 1, r2, cr14, cr9, {3}
     894:	00002e2f 	andeq	r2, r0, pc, lsr #28
     898:	5f6d656d 	svcpl	0x006d656d
     89c:	2e757063 	cdpcs	0, 7, cr7, cr5, cr3, {3}
     8a0:	00010063 	andeq	r0, r1, r3, rrx
     8a4:	6d656d00 	stclvs	13, cr6, [r5, #-0]
     8a8:	7570635f 	ldrbvc	r6, [r0, #-863]!	; 0x35f
     8ac:	0200682e 	andeq	r6, r0, #3014656	; 0x2e0000
     8b0:	6d700000 	ldclvs	0, cr0, [r0, #-0]
     8b4:	7079745f 	rsbsvc	r7, r9, pc, asr r4
     8b8:	682e7365 	stmdavs	lr!, {r0, r2, r5, r6, r8, r9, ip, sp, lr}
     8bc:	00000100 	andeq	r0, r0, r0, lsl #2
     8c0:	02050000 	andeq	r0, r5, #0
     8c4:	00010de0 	andeq	r0, r1, r0, ror #27
     8c8:	01018903 	tsteq	r1, r3, lsl #18
     8cc:	4a100316 	bmi	40152c <__bss_end+0x3ee3e0>
     8d0:	4b4b504b 	blmi	12d4a04 <__bss_end+0x12c18b8>
     8d4:	4b4b4e4e 	blmi	12d4214 <__bss_end+0x12c10c8>
     8d8:	4e4b4e4b 	cdpmi	14, 4, cr4, cr11, cr11, {2}
     8dc:	4b4b4b4e 	blmi	12d361c <__bss_end+0x12c04d0>
     8e0:	4b4a0b03 	blmi	12834f4 <__bss_end+0x12703a8>
     8e4:	4b4b4b4b 	blmi	12d3618 <__bss_end+0x12c04cc>
     8e8:	4a14034b 	bmi	50161c <__bss_end+0x4ee4d0>
     8ec:	4a16034b 	bmi	581620 <__bss_end+0x56e4d4>
     8f0:	4b4b524b 	blmi	12d5224 <__bss_end+0x12c20d8>
     8f4:	1434514b 	ldrtne	r5, [r4], #-331	; 0x14b
     8f8:	4e4a0e03 	cdpmi	14, 4, cr0, cr10, cr3, {0}
     8fc:	4b2f2f4b 	blmi	bcc630 <__bss_end+0xbb94e4>
     900:	2f4b2f2f 	svccs	0x004b2f2f
     904:	4b4d4c32 	blmi	13539d4 <__bss_end+0x1340888>
     908:	4b4b4b4b 	blmi	12d363c <__bss_end+0x12c04f0>
     90c:	034b524b 	movteq	r5, #45643	; 0xb24b
     910:	504b4a16 	subpl	r4, fp, r6, lsl sl
     914:	514b4b4b 	cmppl	fp, fp, asr #22
     918:	14332f2f 	ldrtne	r2, [r3], #-3887	; 0xf2f
     91c:	34312f68 	ldrtcc	r2, [r1], #-3944	; 0xf68
     920:	4a0b0315 	bmi	2c157c <__bss_end+0x2ae430>
     924:	2f4b4b67 	svccs	0x004b4b67
     928:	2f30322f 	svccs	0x0030322f
     92c:	2f2f3030 	svccs	0x002f3030
     930:	302f302f 	eorcc	r3, pc, pc, lsr #32
     934:	032f2f31 	teqeq	pc, #196	; 0xc4
     938:	03672e0d 	cmneq	r7, #208	; 0xd0
     93c:	344b6612 	strbcc	r6, [fp], #-1554	; 0x612
     940:	302f2f2f 	eorcc	r2, pc, pc, lsr #30
     944:	1332312f 	teqne	r2, #-1073741813	; 0xc000000b
     948:	1333114b 	teqne	r3, #-1073741806	; 0xc0000012
     94c:	1332114b 	teqne	r2, #-1073741806	; 0xc0000012
     950:	30153184 	andscc	r3, r5, r4, lsl #3
     954:	0202302f 	andeq	r3, r2, #47	; 0x2f
     958:	ba010100 	blt	40d60 <__bss_end+0x2dc14>
     95c:	02000001 	andeq	r0, r0, #1
     960:	00006b00 	andeq	r6, r0, r0, lsl #22
     964:	fb010200 	blx	4116e <__bss_end+0x2e022>
     968:	01000d0e 	tsteq	r0, lr, lsl #26
     96c:	00010101 	andeq	r0, r1, r1, lsl #2
     970:	00010000 	andeq	r0, r1, r0
     974:	72610100 	rsbvc	r0, r1, #0
     978:	612f6863 	teqvs	pc, r3, ror #16
     97c:	6d2f6d72 	stcvs	13, cr6, [pc, #-456]!	; 7bc <__resume1_start+0x7bc>
     980:	2d686361 	stclcs	3, cr6, [r8, #-388]!	; 0xfffffe7c
     984:	786e7573 	stmdavc	lr!, {r0, r1, r4, r5, r6, r8, sl, ip, sp, lr}^
     988:	6d702f69 	ldclvs	15, cr2, [r0, #-420]!	; 0xfffffe5c
     98c:	6174732f 	cmnvs	r4, pc, lsr #6
     990:	7962646e 	stmdbvc	r2!, {r1, r2, r3, r5, r6, sl, sp, lr}^
     994:	002e2e2f 	eoreq	r2, lr, pc, lsr #28
     998:	6d656d00 	stclvs	13, cr6, [r5, #-0]
     99c:	7265735f 	rsbvc	r7, r5, #2080374785	; 0x7c000001
     9a0:	2e6c6169 	powcsez	f6, f4, #1.0
     9a4:	00010063 	andeq	r0, r1, r3, rrx
     9a8:	5f6d7000 	svcpl	0x006d7000
     9ac:	65707974 	ldrbvs	r7, [r0, #-2420]!	; 0x974
     9b0:	00682e73 	rsbeq	r2, r8, r3, ror lr
     9b4:	6d000001 	stcvs	0, cr0, [r0, #-4]
     9b8:	635f6d65 	cmpvs	pc, #6464	; 0x1940
     9bc:	2d756d63 	ldclcs	13, cr6, [r5, #-396]!	; 0xfffffe74
     9c0:	396e7573 	stmdbcc	lr!, {r0, r1, r4, r5, r6, r8, sl, ip, sp, lr}^
     9c4:	70317769 	eorsvc	r7, r1, r9, ror #14
     9c8:	00682e31 	rsbeq	r2, r8, r1, lsr lr
     9cc:	00000001 	andeq	r0, r0, r1
     9d0:	bc020500 	cfstr32lt	mvfx0, [r2], {-0}
     9d4:	03000110 	movweq	r0, #272	; 0x110
     9d8:	2e0100ed 	cdpcs	0, 0, cr0, cr1, cr13, {7}
     9dc:	0c033236 	sfmeq	f3, 4, [r3], {54}	; 0x36
     9e0:	4a74032e 	bmi	1d016a0 <__bss_end+0x1cee554>
     9e4:	dd2e0c03 	stcle	12, cr0, [lr, #-12]!
     9e8:	352e7903 	strcc	r7, [lr, #-2307]!	; 0x903
     9ec:	842e1803 	strthi	r1, [lr], #-2051	; 0x803
     9f0:	364d2f67 	strbcc	r2, [sp], -r7, ror #30
     9f4:	4c2e7803 	stcmi	8, cr7, [lr], #-12
     9f8:	2e5b036c 	cdpcs	3, 5, cr0, cr11, cr12, {3}
     9fc:	30302a32 	eorscc	r2, r0, r2, lsr sl
     a00:	2e780332 	mrccs	3, 3, r0, cr8, cr2, {1}
     a04:	76034c36 			; <UNDEFINED> instruction: 0x76034c36
     a08:	0336302e 	teqeq	r6, #46	; 0x2e
     a0c:	03342e7a 	teqeq	r4, #1952	; 0x7a0
     a10:	038200e6 	orreq	r0, r2, #230	; 0xe6
     a14:	27032e5f 	smlsdcs	r3, pc, lr, r2	; <UNPREDICTABLE>
     a18:	2e59034a 	cdpcs	3, 5, cr0, cr9, cr10, {2}
     a1c:	6625034c 	strtvs	r0, [r5], -ip, asr #6
     a20:	2f2d6731 	svccs	0x002d6731
     a24:	2e0e032f 	cdpcs	3, 0, cr0, cr14, cr15, {1}
     a28:	032e7203 	teqeq	lr, #805306368	; 0x30000000
     a2c:	73032e0e 	movwvc	r2, #15886	; 0x3e0e
     a30:	2f2c4d2e 	svccs	0x002c4d2e
     a34:	2d302f2d 	ldccs	15, cr2, [r0, #-180]!	; 0xffffff4c
     a38:	4e4c312f 	dvfmiep	f3, f4, #10.0
     a3c:	2e140330 	mrccs	3, 0, r0, cr4, cr0, {1}
     a40:	002d6715 	eoreq	r6, sp, r5, lsl r7
     a44:	32010402 	andcc	r0, r1, #33554432	; 0x2000000
     a48:	03667803 	cmneq	r6, #196608	; 0x30000
     a4c:	032f2e71 	teqeq	pc, #1808	; 0x710
     a50:	03502e18 	cmpeq	r0, #384	; 0x180
     a54:	03672e61 	cmneq	r7, #1552	; 0x610
     a58:	0b034a16 	bleq	d32b8 <__bss_end+0xc016c>
     a5c:	4a5e0366 	bmi	17817fc <__bss_end+0x176e6b0>
     a60:	66210367 	strtvs	r0, [r1], -r7, ror #6
     a64:	2a164d2f 	bcs	593f28 <__bss_end+0x580ddc>
     a68:	032d4b32 	teqeq	sp, #51200	; 0xc800
     a6c:	02002e0b 	andeq	r2, r0, #176	; 0xb0
     a70:	79030104 	stmdbvc	r3, {r2, r8}
     a74:	0666064a 	strbteq	r0, [r6], -sl, asr #12
     a78:	032e5b03 	teqeq	lr, #3072	; 0xc00
     a7c:	5b032e25 	blpl	cc318 <__bss_end+0xb91cc>
     a80:	24039f4a 	strcs	r9, [r3], #-3914	; 0xf4a
     a84:	4a5e034a 	bmi	17817b4 <__bss_end+0x176e668>
     a88:	4c4a2403 	cfstrdmi	mvd2, [sl], {3}
     a8c:	9e0a032a 	cdpls	3, 0, cr0, cr10, cr10, {1}
     a90:	2e7f8803 	cdpcs	8, 7, cr8, cr15, cr3, {0}
     a94:	4a00ff03 	bmi	406a8 <__bss_end+0x2d55c>
     a98:	2e7f8103 	expcse	f0, f3
     a9c:	00fd034c 	rscseq	r0, sp, ip, asr #6
     aa0:	2d673166 	stfcse	f3, [r7, #-408]!	; 0xfffffe68
     aa4:	0d032f2f 	stceq	15, cr2, [r3, #-188]	; 0xffffff44
     aa8:	2e73032e 	cdpcs	3, 7, cr0, cr3, cr14, {1}
     aac:	032e0d03 	teqeq	lr, #192	; 0xc0
     ab0:	2c4d2e74 	mcrrcs	14, 7, r2, sp, cr4
     ab4:	302f2d2f 	eorcc	r2, pc, pc, lsr #26
     ab8:	4c312f2d 	ldcmi	15, cr2, [r1], #-180	; 0xffffff4c
     abc:	1431304d 	ldrtne	r3, [r1], #-77	; 0x4d
     ac0:	4c4d4ca0 	mcrrmi	12, 10, r4, sp, cr0
     ac4:	152e2103 	strne	r2, [lr, #-259]!	; 0x103
     ac8:	02002d67 	andeq	r2, r0, #6592	; 0x19c0
     acc:	03320104 	teqeq	r2, #1
     ad0:	65036678 	strvs	r6, [r3, #-1656]	; 0x678
     ad4:	24032f2e 	strcs	r2, [r3], #-3886	; 0xf2e
     ad8:	5503502e 	strpl	r5, [r3, #-46]	; 0x2e
     adc:	2203672e 	andcs	r6, r3, #12058624	; 0xb80000
     ae0:	660b034a 	strvs	r0, [fp], -sl, asr #6
     ae4:	674a5203 	strbvs	r5, [sl, -r3, lsl #4]
     ae8:	2f662d03 	svccs	0x00662d03
     aec:	322a164e 	eorcc	r1, sl, #81788928	; 0x4e00000
     af0:	0b032d4b 	bleq	cc024 <__bss_end+0xb8ed8>
     af4:	0402002e 	streq	r0, [r2], #-46	; 0x2e
     af8:	4a790301 	bmi	1e41704 <__bss_end+0x1e2e5b8>
     afc:	03066606 	movweq	r6, #26118	; 0x6606
     b00:	32032e4e 	andcc	r2, r3, #1248	; 0x4e0
     b04:	4a4e032e 	bmi	13817c4 <__bss_end+0x136e678>
     b08:	4a31039f 	bmi	c4198c <__bss_end+0xc2e840>
     b0c:	034a5103 	movteq	r5, #41219	; 0xa103
     b10:	2a4c4a31 	bcs	13133dc <__bss_end+0x1300290>
     b14:	01000a02 	tsteq	r0, r2, lsl #20
     b18:	0002f901 	andeq	pc, r2, r1, lsl #18
     b1c:	c5000200 	strgt	r0, [r0, #-512]	; 0x200
     b20:	02000000 	andeq	r0, r0, #0
     b24:	0d0efb01 	vstreq	d15, [lr, #-4]
     b28:	01010100 	mrseq	r0, (UNDEF: 17)
     b2c:	00000001 	andeq	r0, r0, r1
     b30:	01000001 	tsteq	r0, r1
     b34:	68637261 	stmdavs	r3!, {r0, r5, r6, r9, ip, sp, lr}^
     b38:	6d72612f 	ldfvse	f6, [r2, #-188]!	; 0xffffff44
     b3c:	63616d2f 	cmnvs	r1, #3008	; 0xbc0
     b40:	75732d68 	ldrbvc	r2, [r3, #-3432]!	; 0xd68
     b44:	2f69786e 	svccs	0x0069786e
     b48:	732f6d70 	teqvc	pc, #7168	; 0x1c00
     b4c:	646e6174 	strbtvs	r6, [lr], #-372	; 0x174
     b50:	2e2f7962 	cdpcs	9, 2, cr7, cr15, cr2, {3}
     b54:	772f002e 	strvc	r0, [pc, -lr, lsr #32]!
     b58:	2f6b726f 	svccs	0x006b726f
     b5c:	2f6b6473 	svccs	0x006b6473
     b60:	2f303861 	svccs	0x00303861
     b64:	68746967 	ldmdavs	r4!, {r0, r1, r2, r5, r6, r8, fp, sp, lr}^
     b68:	742f6275 	strtvc	r6, [pc], #-629	; b70 <__resume1_start+0xb70>
     b6c:	736c6f6f 	cmnvc	ip, #444	; 0x1bc
     b70:	6f72632f 	svcvs	0x0072632f
     b74:	6f637373 	svcvs	0x00637373
     b78:	6c69706d 	stclvs	0, cr7, [r9], #-436	; 0xfffffe4c
     b7c:	622f7265 	eorvs	r7, pc, #1342177286	; 0x50000006
     b80:	2e2f6e69 	cdpcs	14, 2, cr6, cr15, cr9, {3}
     b84:	696c2f2e 	stmdbvs	ip!, {r1, r2, r3, r5, r8, r9, sl, fp, sp}^
     b88:	63672f62 	cmnvs	r7, #392	; 0x188
     b8c:	72612f63 	rsbvc	r2, r1, #396	; 0x18c
     b90:	696c2d6d 	stmdbvs	ip!, {r0, r2, r3, r5, r6, r8, sl, fp, sp}^
     b94:	2d78756e 	cfldr64cs	mvdx7, [r8, #-440]!	; 0xfffffe48
     b98:	65756e67 	ldrbvs	r6, [r5, #-3687]!	; 0xe67
     b9c:	2f696261 	svccs	0x00696261
     ba0:	2e362e34 	mrccs	14, 1, r2, cr6, cr4, {1}
     ba4:	6e692f33 	mcrvs	15, 3, r2, cr9, cr3, {1}
     ba8:	64756c63 	ldrbtvs	r6, [r5], #-3171	; 0xc63
     bac:	6d000065 	stcvs	0, cr0, [r0, #-404]	; 0xfffffe6c
     bb0:	705f6d65 	subsvc	r6, pc, r5, ror #26
     bb4:	746e6972 	strbtvc	r6, [lr], #-2418	; 0x972
     bb8:	00632e6b 	rsbeq	r2, r3, fp, ror #28
     bbc:	70000001 	andvc	r0, r0, r1
     bc0:	79745f6d 	ldmdbvc	r4!, {r0, r2, r3, r5, r6, r8, r9, sl, fp, ip, lr}^
     bc4:	2e736570 	mrccs	5, 3, r6, cr3, cr0, {3}
     bc8:	00010068 	andeq	r0, r1, r8, rrx
     bcc:	64747300 	ldrbtvs	r7, [r4], #-768	; 0x300
     bd0:	2e677261 	cdpcs	2, 6, cr7, cr7, cr1, {3}
     bd4:	00020068 	andeq	r0, r2, r8, rrx
     bd8:	75623c00 	strbvc	r3, [r2, #-3072]!	; 0xc00
     bdc:	2d746c69 	ldclcs	12, cr6, [r4, #-420]!	; 0xfffffe5c
     be0:	003e6e69 	eorseq	r6, lr, r9, ror #28
     be4:	00000000 	andeq	r0, r0, r0
     be8:	f8020500 			; <UNDEFINED> instruction: 0xf8020500
     bec:	03000114 	movweq	r0, #276	; 0x114
     bf0:	340101ce 	strcc	r0, [r1], #-462	; 0x1ce
     bf4:	2c882a2c 	vstmiacs	r8, {s4-s47}
     bf8:	7a032fa3 	bvc	cca8c <__bss_end+0xb9940>
     bfc:	522b332e 	eorpl	r3, fp, #-1207959552	; 0xb8000000
     c00:	02040200 	andeq	r0, r4, #0
     c04:	04020031 	streq	r0, [r2], #-49	; 0x31
     c08:	02008302 	andeq	r8, r0, #134217728	; 0x8000000
     c0c:	002d0204 	eoreq	r0, sp, r4, lsl #4
     c10:	4b020402 	blmi	81c20 <__bss_end+0x6ead4>
     c14:	02040200 	andeq	r0, r4, #0
     c18:	0402002d 	streq	r0, [r2], #-45	; 0x2d
     c1c:	02002f02 	andeq	r2, r0, #8
     c20:	032a0204 	teqeq	sl, #1073741824	; 0x40000000
     c24:	17036671 	smlsdxne	r3, r1, r6, r6
     c28:	04020066 	streq	r0, [r2], #-102	; 0x66
     c2c:	002e0602 	eoreq	r0, lr, r2, lsl #12
     c30:	06020402 	streq	r0, [r2], -r2, lsl #8
     c34:	04020030 	streq	r0, [r2], #-48	; 0x30
     c38:	69332c02 	ldmdbvs	r3!, {r1, sl, fp, sp}
     c3c:	8200fe03 	andhi	pc, r0, #48	; 0x30
     c40:	852b2d32 	strhi	r2, [fp, #-3378]!	; 0xd32
     c44:	2e78038a 	cdpcs	3, 7, cr0, cr8, cr10, {4}
     c48:	ed03312f 	stfs	f3, [r3, #-188]	; 0xffffff44
     c4c:	93032e7d 	movwls	r2, #15997	; 0x3e7d
     c50:	ed032e02 	stc	14, cr2, [r3, #-8]
     c54:	03302e7d 	teqeq	r0, #2000	; 0x7d0
     c58:	03820289 	orreq	r0, r2, #-1879048184	; 0x90000008
     c5c:	032e7df7 	teqeq	lr, #15808	; 0x3dc0
     c60:	032e0289 	teqeq	lr, #-1879048184	; 0x90000008
     c64:	522e7df7 	eorpl	r7, lr, #15808	; 0x3dc0
     c68:	034cbc46 	movteq	fp, #52294	; 0xcc46
     c6c:	032e028e 	teqeq	lr, #-536870904	; 0xe0000008
     c70:	36827ea8 	strcc	r7, [r2], r8, lsr #29
     c74:	2e7a032c 	cdpcs	3, 7, cr0, cr10, cr12, {1}
     c78:	032f876c 	teqeq	pc, #28311552	; 0x1b00000
     c7c:	2b332e7a 	blcs	ccc66c <__bss_end+0xcb9520>
     c80:	032e1203 	teqeq	lr, #805306368	; 0x30000000
     c84:	032d2e7a 	teqeq	sp, #1952	; 0x7a0
     c88:	14032e70 	strne	r2, [r3], #-3696	; 0xe70
     c8c:	31474d2e 	cmpcc	r7, lr, lsr #26
     c90:	31633163 	cmncc	r3, r3, ror #2
     c94:	2e090363 	cdpcs	3, 0, cr0, cr9, cr3, {3}
     c98:	032e7703 	teqeq	lr, #786432	; 0xc0000
     c9c:	5d032e0c 	stcpl	14, cr2, [r3, #-48]	; 0xffffffd0
     ca0:	66250366 	strtvs	r0, [r5], -r6, ror #6
     ca4:	5b032c4c 	blpl	cbddc <__bss_end+0xb8c90>
     ca8:	2e2a034a 	cdpcs	3, 2, cr0, cr10, cr10, {2}
     cac:	9e390369 	cdpls	3, 3, cr0, cr9, cr9, {3}
     cb0:	03660c03 	cmneq	r6, #768	; 0x300
     cb4:	0c032e74 	stceq	14, cr2, [r3], {116}	; 0x74
     cb8:	48302d2e 	ldmdami	r0!, {r1, r2, r3, r5, r8, sl, fp, sp}
     cbc:	00c10330 	sbceq	r0, r1, r0, lsr r3
     cc0:	2e68032e 	cdpcs	3, 6, cr0, cr8, cr14, {1}
     cc4:	4c2e5503 	cfstr32mi	mvfx5, [lr], #-12
     cc8:	2e00cb03 	vmlacs.f64	d12, d0, d3
     ccc:	2e7fb503 	cdpcs	5, 7, cr11, cr15, cr3, {0}
     cd0:	00c6034c 	sbceq	r0, r6, ip, asr #6
     cd4:	7fba032e 	svcvc	0x00ba032e
     cd8:	2f69312e 	svccs	0x0069312e
     cdc:	2e090329 	cdpcs	3, 0, cr0, cr9, cr9, {1}
     ce0:	c103342a 	tstgt	r3, sl, lsr #8
     ce4:	01340200 	teqeq	r4, r0, lsl #4
     ce8:	31302c30 	teqcc	r0, r0, lsr ip
     cec:	039e5403 	orrseq	r5, lr, #50331648	; 0x3000000
     cf0:	03d67de6 	bicseq	r7, r6, #14720	; 0x3980
     cf4:	0366029b 	cmneq	r6, #-1342177271	; 0xb0000009
     cf8:	032e7de5 	teqeq	lr, #14656	; 0x3940
     cfc:	0382029c 	orreq	r0, r2, #-1073741815	; 0xc0000009
     d00:	03d67df5 	bicseq	r7, r6, #15680	; 0x3d40
     d04:	2f82028d 	svccs	0x0082028d
     d08:	032e0b03 	teqeq	lr, #3072	; 0xc00
     d0c:	032e7fb9 	teqeq	lr, #740	; 0x2e4
     d10:	032e00c7 	teqeq	lr, #199	; 0xc7
     d14:	03667fb9 	cmneq	r6, #740	; 0x2e4
     d18:	032e7eae 	teqeq	lr, #2784	; 0xae0
     d1c:	ac03826f 	sfmge	f0, 1, [r3], {111}	; 0x6f
     d20:	032ff202 	msreq	CPSR_fsxc, #536870912	; 0x20000000
     d24:	f0032e63 			; <UNDEFINED> instruction: 0xf0032e63
     d28:	9103d67d 	tstls	r3, sp, ror r6
     d2c:	ef036602 	svc	0x00036602
     d30:	92032e7d 	andls	r2, r3, #2000	; 0x7d0
     d34:	ff038202 			; <UNDEFINED> instruction: 0xff038202
     d38:	8d03d67d 	stchi	6, cr13, [r3, #-500]	; 0xfffffe0c
     d3c:	9f508202 	svcls	0x00508202
     d40:	2f2e0d03 	svccs	0x002e0d03
     d44:	03825203 	orreq	r5, r2, #805306368	; 0x30000000
     d48:	03ba7dfb 			; <UNDEFINED> instruction: 0x03ba7dfb
     d4c:	03660286 	cmneq	r6, #1610612744	; 0x60000008
     d50:	032e7dfa 	teqeq	lr, #16000	; 0x3e80
     d54:	03820287 	orreq	r0, r2, #1879048200	; 0x70000008
     d58:	03d67e8a 	bicseq	r7, r6, #2208	; 0x8a0
     d5c:	0382028d 	orreq	r0, r2, #-805306360	; 0xd0000008
     d60:	0c03663b 	stceq	6, cr6, [r3], {59}	; 0x3b
     d64:	2e740366 	cdpcs	3, 7, cr0, cr4, cr6, {3}
     d68:	2d2e0c03 	stccs	12, cr0, [lr, #-12]!
     d6c:	03304830 	teqeq	r0, #3145728	; 0x300000
     d70:	032e00c1 	teqeq	lr, #193	; 0xc1
     d74:	55032e68 	strpl	r2, [r3, #-3688]	; 0xe68
     d78:	cb034c2e 	blgt	d3e38 <__bss_end+0xc0cec>
     d7c:	b5032e00 	strlt	r2, [r3, #-3584]	; 0xe00
     d80:	034c2e7f 	movteq	r2, #52863	; 0xce7f
     d84:	032e00c6 	teqeq	lr, #198	; 0xc6
     d88:	312e7fba 			; <UNDEFINED> instruction: 0x312e7fba
     d8c:	03292f69 	teqeq	r9, #420	; 0x1a4
     d90:	342a2e09 	strtcc	r2, [sl], #-3593	; 0xe09
     d94:	0200c103 	andeq	ip, r0, #-1073741824	; 0xc0000000
     d98:	2c300134 	ldfcss	f0, [r0], #-208	; 0xffffff30
     d9c:	54033130 	strpl	r3, [r3], #-304	; 0x130
     da0:	7cf1039e 	ldclvc	3, cr0, [r1], #632	; 0x278
     da4:	039003d6 	orrseq	r0, r0, #1476395011	; 0x58000003
     da8:	7cf00366 	ldclvc	3, cr0, [r0], #408	; 0x198
     dac:	0391032e 	orrseq	r0, r1, #-1207959552	; 0xb8000000
     db0:	7d800382 	stcvc	3, cr0, [r0, #520]	; 0x208
     db4:	038203d6 	orreq	r0, r2, #1476395011	; 0x58000003
     db8:	0b032f82 	bleq	ccbc8 <__bss_end+0xb9a7c>
     dbc:	7fb9032e 	svcvc	0x00b9032e
     dc0:	00c7032e 	sbceq	r0, r7, lr, lsr #6
     dc4:	7fb9032e 	svcvc	0x00b9032e
     dc8:	7db90366 	ldcvc	3, cr0, [r9, #408]!	; 0x198
     dcc:	826f032e 	rsbhi	r0, pc, #-1207959552	; 0xb8000000
     dd0:	f203a103 	vrhadd.s8	d10, d3, d3
     dd4:	2e63032f 	cdpcs	3, 6, cr0, cr3, cr15, {1}
     dd8:	d67cfb03 	ldrbtle	pc, [ip], -r3, lsl #22	; <UNPREDICTABLE>
     ddc:	66038603 	strvs	r8, [r3], -r3, lsl #12
     de0:	2e7cfa03 	vaddcs.f32	s31, s24, s6
     de4:	82038703 	andhi	r8, r3, #786432	; 0xc0000
     de8:	d67d8a03 	ldrbtle	r8, [sp], -r3, lsl #20
     dec:	82038203 	andhi	r8, r3, #805306368	; 0x30000000
     df0:	0d039f50 	stceq	15, cr9, [r3, #-320]	; 0xfffffec0
     df4:	52032f2e 	andpl	r2, r3, #184	; 0xb8
     df8:	7d860382 	stcvc	3, cr0, [r6, #520]	; 0x208
     dfc:	02fb03ba 	rscseq	r0, fp, #-402653182	; 0xe8000002
     e00:	7d850366 	stcvc	3, cr0, [r5, #408]	; 0x198
     e04:	02fc032e 	rscseq	r0, ip, #-1207959552	; 0xb8000000
     e08:	7d950382 	ldcvc	3, cr0, [r5, #520]	; 0x208
     e0c:	038203d6 	orreq	r0, r2, #1476395011	; 0x58000003
     e10:	00060282 	andeq	r0, r6, r2, lsl #5
     e14:	00a90101 	adceq	r0, r9, r1, lsl #2
     e18:	00020000 	andeq	r0, r2, r0
     e1c:	00000045 	andeq	r0, r0, r5, asr #32
     e20:	0efb0102 	cdpeq	1, 15, cr0, cr11, cr2, {0}
     e24:	0101000d 	tsteq	r1, sp
     e28:	00000101 	andeq	r0, r0, r1, lsl #2
     e2c:	00000100 	andeq	r0, r0, r0, lsl #2
     e30:	63726101 	cmnvs	r2, #1073741824	; 0x40000000
     e34:	72612f68 	rsbvc	r2, r1, #416	; 0x1a0
     e38:	616d2f6d 	cmnvs	sp, sp, ror #30
     e3c:	732d6863 	teqvc	sp, #6488064	; 0x630000
     e40:	69786e75 	ldmdbvs	r8!, {r0, r2, r4, r5, r6, r9, sl, fp, sp, lr}^
     e44:	2f6d702f 	svccs	0x006d702f
     e48:	6e617473 	mcrvs	4, 3, r7, cr1, cr3, {3}
     e4c:	2f796264 	svccs	0x00796264
     e50:	00002e2e 	andeq	r2, r0, lr, lsr #28
     e54:	5f6d656d 	svcpl	0x006d656d
     e58:	6c766964 	ldclvs	9, cr6, [r6], #-400	; 0xfffffe70
     e5c:	532e6269 	teqpl	lr, #-1879048186	; 0x90000006
     e60:	00000100 	andeq	r0, r0, r0, lsl #2
     e64:	02050000 	andeq	r0, r5, #0
     e68:	00011ce4 	andeq	r1, r1, r4, ror #25
     e6c:	2f010e03 	svccs	0x00010e03
     e70:	2f2f302f 	svccs	0x002f302f
     e74:	2f302f2f 	svccs	0x00302f2f
     e78:	032f2f34 	teqeq	pc, #208	; 0xd0
     e7c:	2f2e00d5 	svccs	0x002e00d5
     e80:	2f332f2f 	svccs	0x00332f2f
     e84:	2f2f2f2f 	svccs	0x002f2f2f
     e88:	2e02302f 	cdpcs	0, 0, cr3, cr2, cr15, {1}
     e8c:	2f302f14 	svccs	0x00302f14
     e90:	2f4c302f 	svccs	0x004c302f
     e94:	2f2f2f34 	svccs	0x002f2f34
     e98:	2f2f2f2f 	svccs	0x002f2f2f
     e9c:	2f2f2f2f 	svccs	0x002f2f2f
     ea0:	142e0230 	strtne	r0, [lr], #-560	; 0x230
     ea4:	2f302f2f 	svccs	0x00302f2f
     ea8:	2f2f302f 	svccs	0x002f302f
     eac:	2f4c302f 	svccs	0x004c302f
     eb0:	2f332f2f 	svccs	0x00332f2f
     eb4:	2f2f2f2f 	svccs	0x002f2f2f
     eb8:	2f2f2f33 	svccs	0x002f2f33
     ebc:	02022f2f 	andeq	r2, r2, #188	; 0xbc
     ec0:	82010100 	andhi	r0, r1, #0
     ec4:	02000000 	andeq	r0, r0, #0
     ec8:	00005400 	andeq	r5, r0, r0, lsl #8
     ecc:	fb010200 	blx	416d6 <__bss_end+0x2e58a>
     ed0:	01000d0e 	tsteq	r0, lr, lsl #26
     ed4:	00010101 	andeq	r0, r1, r1, lsl #2
     ed8:	00010000 	andeq	r0, r1, r0
     edc:	72610100 	rsbvc	r0, r1, #0
     ee0:	612f6863 	teqvs	pc, r3, ror #16
     ee4:	6d2f6d72 	stcvs	13, cr6, [pc, #-456]!	; d24 <__resume1_start+0xd24>
     ee8:	2d686361 	stclcs	3, cr6, [r8, #-388]!	; 0xfffffe7c
     eec:	786e7573 	stmdavc	lr!, {r0, r1, r4, r5, r6, r8, sl, ip, sp, lr}^
     ef0:	6d702f69 	ldclvs	15, cr2, [r0, #-420]!	; 0xfffffe5c
     ef4:	6174732f 	cmnvs	r4, pc, lsr #6
     ef8:	7962646e 	stmdbvc	r2!, {r1, r2, r3, r5, r6, sl, sp, lr}^
     efc:	002e2e2f 	eoreq	r2, lr, pc, lsr #28
     f00:	6d656d00 	stclvs	13, cr6, [r5, #-0]
     f04:	7669645f 			; <UNDEFINED> instruction: 0x7669645f
     f08:	6362696c 	cmnvs	r2, #1769472	; 0x1b0000
     f0c:	0100632e 	tsteq	r0, lr, lsr #6
     f10:	6d700000 	ldclvs	0, cr0, [r0, #-0]
     f14:	7079745f 	rsbsvc	r7, r9, pc, asr r4
     f18:	682e7365 	stmdavs	lr!, {r0, r2, r5, r6, r8, r9, ip, sp, lr}
     f1c:	00000100 	andeq	r0, r0, r0, lsl #2
     f20:	02050000 	andeq	r0, r5, #0
     f24:	00011ec0 	andeq	r1, r1, r0, asr #29
     f28:	114b1315 	cmpne	fp, r5, lsl r3
     f2c:	2b311732 	blcs	c46bfc <__bss_end+0xc33ab0>
     f30:	01040200 	mrseq	r0, R12_usr
     f34:	064a0634 			; <UNDEFINED> instruction: 0x064a0634
     f38:	0b032b31 	bleq	cbc04 <__bss_end+0xb8ab8>
     f3c:	33302b4a 	teqcc	r0, #75776	; 0x12800
     f40:	4d30342a 	cfldrsmi	mvf3, [r0, #-168]!	; 0xffffff58
     f44:	01000402 	tsteq	r0, r2, lsl #8
     f48:	0000f401 	andeq	pc, r0, r1, lsl #8
     f4c:	5d000200 	sfmpl	f0, 4, [r0, #-0]
     f50:	02000000 	andeq	r0, r0, #0
     f54:	0d0efb01 	vstreq	d15, [lr, #-4]
     f58:	01010100 	mrseq	r0, (UNDEF: 17)
     f5c:	00000001 	andeq	r0, r0, r1
     f60:	01000001 	tsteq	r0, r1
     f64:	68637261 	stmdavs	r3!, {r0, r5, r6, r9, ip, sp, lr}^
     f68:	6d72612f 	ldfvse	f6, [r2, #-188]!	; 0xffffff44
     f6c:	63616d2f 	cmnvs	r1, #3008	; 0xbc0
     f70:	75732d68 	ldrbvc	r2, [r3, #-3432]!	; 0xd68
     f74:	2f69786e 	svccs	0x0069786e
     f78:	732f6d70 	teqvc	pc, #7168	; 0x1c00
     f7c:	646e6174 	strbtvs	r6, [lr], #-372	; 0x174
     f80:	2e2f7962 	cdpcs	9, 2, cr7, cr15, cr2, {3}
     f84:	6d00002e 	stcvs	0, cr0, [r0, #-184]	; 0xffffff48
     f88:	695f6d65 	ldmdbvs	pc, {r0, r2, r5, r6, r8, sl, fp, sp, lr}^	; <UNPREDICTABLE>
     f8c:	632e746e 	teqvs	lr, #1845493760	; 0x6e000000
     f90:	00000100 	andeq	r0, r0, r0, lsl #2
     f94:	745f6d70 	ldrbvc	r6, [pc], #-3440	; f9c <__resume1_start+0xf9c>
     f98:	73657079 	cmnvc	r5, #121	; 0x79
     f9c:	0100682e 	tsteq	r0, lr, lsr #16
     fa0:	656d0000 	strbvs	r0, [sp, #-0]!
     fa4:	6e695f6d 	cdpvs	15, 6, cr5, cr9, cr13, {3}
     fa8:	00682e74 	rsbeq	r2, r8, r4, ror lr
     fac:	00000001 	andeq	r0, r0, r1
     fb0:	18020500 	stmdane	r2, {r8, sl}
     fb4:	0300011f 	movweq	r0, #287	; 0x11f
     fb8:	2f140122 	svccs	0x00140122
     fbc:	032e0a03 	teqeq	lr, #12288	; 0x3000
     fc0:	2d312e73 	ldccs	14, cr2, [r1, #-460]!	; 0xfffffe34
     fc4:	2e0b032f 	cdpcs	3, 0, cr0, cr11, cr15, {1}
     fc8:	2e75032d 	cdpcs	3, 7, cr0, cr5, cr13, {1}
     fcc:	0402002f 	streq	r0, [r2], #-47	; 0x2f
     fd0:	4a0b0302 	bmi	2c1be0 <__bss_end+0x2aea94>
     fd4:	02040200 	andeq	r0, r4, #0
     fd8:	064a062d 	strbeq	r0, [sl], -sp, lsr #12
     fdc:	032e0b03 	teqeq	lr, #3072	; 0xc00
     fe0:	0c032e75 	stceq	14, cr2, [r3], {117}	; 0x75
     fe4:	02002d2e 	andeq	r2, r0, #2944	; 0xb80
     fe8:	002f0204 	eoreq	r0, pc, r4, lsl #4
     fec:	2d020402 	cfstrscs	mvf0, [r2, #-8]
     ff0:	4c2c304e 	stcmi	0, cr3, [ip], #-312	; 0xfffffec8
     ff4:	034f2f4c 	movteq	r2, #65356	; 0xff4c
     ff8:	2c14820f 	lfmcs	f0, 1, [r4], {15}
     ffc:	02002b33 	andeq	r2, r0, #52224	; 0xcc00
    1000:	00a20204 	adceq	r0, r2, r4, lsl #4
    1004:	4b020402 	blmi	82014 <__bss_end+0x6eec8>
    1008:	02040200 	andeq	r0, r4, #0
    100c:	0f036c80 	svceq	0x00036c80
    1010:	322d1382 	eorcc	r1, sp, #134217730	; 0x8000002
    1014:	2b322a32 	blcs	c8b8e4 <__bss_end+0xc78798>
    1018:	322a322d 	eorcc	r3, sl, #-805306366	; 0xd0000002
    101c:	7a03312b 	bvc	cd4d0 <__bss_end+0xba384>
    1020:	0b03302e 	bleq	cd0e0 <__bss_end+0xb9f94>
    1024:	2e76032e 	cdpcs	3, 7, cr0, cr6, cr14, {1}
    1028:	0f036d31 	svceq	0x00036d31
    102c:	4d31144a 	cfldrsmi	mvf1, [r1, #-296]!	; 0xfffffed8
    1030:	2f2b312b 	svccs	0x002b312b
    1034:	29302c30 	ldmdbcs	r0!, {r4, r5, sl, fp, sp}
    1038:	4b352c33 	blmi	d4c10c <__bss_end+0xd38fc0>
    103c:	01000802 	tsteq	r0, r2, lsl #16
    1040:	0000cb01 	andeq	ip, r0, r1, lsl #22
    1044:	5d000200 	sfmpl	f0, 4, [r0, #-0]
    1048:	02000000 	andeq	r0, r0, #0
    104c:	0d0efb01 	vstreq	d15, [lr, #-4]
    1050:	01010100 	mrseq	r0, (UNDEF: 17)
    1054:	00000001 	andeq	r0, r0, r1
    1058:	01000001 	tsteq	r0, r1
    105c:	68637261 	stmdavs	r3!, {r0, r5, r6, r9, ip, sp, lr}^
    1060:	6d72612f 	ldfvse	f6, [r2, #-188]!	; 0xffffff44
    1064:	63616d2f 	cmnvs	r1, #3008	; 0xbc0
    1068:	75732d68 	ldrbvc	r2, [r3, #-3432]!	; 0xd68
    106c:	2f69786e 	svccs	0x0069786e
    1070:	732f6d70 	teqvc	pc, #7168	; 0x1c00
    1074:	646e6174 	strbtvs	r6, [lr], #-372	; 0x174
    1078:	2e2f7962 	cdpcs	9, 2, cr7, cr15, cr2, {3}
    107c:	6d00002e 	stcvs	0, cr0, [r0, #-184]	; 0xffffff48
    1080:	745f6d65 	ldrbvc	r6, [pc], #-3429	; 1088 <__resume1_start+0x1088>
    1084:	632e726d 	teqvs	lr, #-805306362	; 0xd0000006
    1088:	00000100 	andeq	r0, r0, r0, lsl #2
    108c:	745f6d70 	ldrbvc	r6, [pc], #-3440	; 1094 <__resume1_start+0x1094>
    1090:	73657079 	cmnvc	r5, #121	; 0x79
    1094:	0100682e 	tsteq	r0, lr, lsr #16
    1098:	656d0000 	strbvs	r0, [sp, #-0]!
    109c:	6d745f6d 	ldclvs	15, cr5, [r4, #-436]!	; 0xfffffe4c
    10a0:	00682e72 	rsbeq	r2, r8, r2, ror lr
    10a4:	00000001 	andeq	r0, r0, r1
    10a8:	a4020500 	strge	r0, [r2], #-1280	; 0x500
    10ac:	03000120 	movweq	r0, #288	; 0x120
    10b0:	03180111 	tsteq	r8, #1073741828	; 0x40000004
    10b4:	03342e7a 	teqeq	r4, #1952	; 0x7a0
    10b8:	85312e7a 	ldrhi	r2, [r1, #-3706]!	; 0xe7a
    10bc:	032e0903 	teqeq	lr, #49152	; 0xc000
    10c0:	322a2e78 	eorcc	r2, sl, #1920	; 0x780
    10c4:	4b4b4b2f 	blmi	12d3d88 <__bss_end+0x12c0c3c>
    10c8:	0f034d4b 	svceq	0x00034d4b
    10cc:	3064144a 	rsbcc	r1, r4, sl, asr #8
    10d0:	032e0903 	teqeq	lr, #49152	; 0xc000
    10d4:	4b2f2e77 	blmi	bccab8 <__bss_end+0xbb996c>
    10d8:	4b4b4b4b 	blmi	12d3e0c <__bss_end+0x12c0cc0>
    10dc:	2e0f034d 	cdpcs	3, 0, cr0, cr15, cr13, {2}
    10e0:	2c302c16 	ldccs	12, cr2, [r0], #-88	; 0xffffffa8
    10e4:	2e790351 	mrccs	3, 3, r0, cr9, cr1, {2}
    10e8:	312b2f30 	teqcc	fp, r0, lsr pc
    10ec:	0f034d2f 	svceq	0x00034d2f
    10f0:	2933132e 	ldmdbcs	r3!, {r1, r2, r3, r5, r8, r9, ip}
    10f4:	2f2c2f4b 	svccs	0x002c2f4b
    10f8:	1203312f 	andne	r3, r3, #-1073741813	; 0xc000000b
    10fc:	68bb152e 	ldmvs	fp!, {r1, r2, r3, r5, r8, sl, ip}
    1100:	0369694d 	cmneq	r9, #1261568	; 0x134000
    1104:	bb142e12 	bllt	50c954 <__bss_end+0x4f9808>
    1108:	02676969 	rsbeq	r6, r7, #1720320	; 0x1a4000
    110c:	01010002 	tsteq	r1, r2
    1110:	0000008b 	andeq	r0, r0, fp, lsl #1
    1114:	00630002 	rsbeq	r0, r3, r2
    1118:	01020000 	mrseq	r0, (UNDEF: 2)
    111c:	000d0efb 	strdeq	r0, [sp], -fp
    1120:	01010101 	tsteq	r1, r1, lsl #2
    1124:	01000000 	mrseq	r0, (UNDEF: 0)
    1128:	61010000 	mrsvs	r0, (UNDEF: 1)
    112c:	2f686372 	svccs	0x00686372
    1130:	2f6d7261 	svccs	0x006d7261
    1134:	6863616d 	stmdavs	r3!, {r0, r2, r3, r5, r6, r8, sp, lr}^
    1138:	6e75732d 	cdpvs	3, 7, cr7, cr5, cr13, {1}
    113c:	702f6978 	eorvc	r6, pc, r8, ror r9	; <UNPREDICTABLE>
    1140:	74732f6d 	ldrbtvc	r2, [r3], #-3949	; 0xf6d
    1144:	62646e61 	rsbvs	r6, r4, #1552	; 0x610
    1148:	2e2e2f79 	mcrcs	15, 1, r2, cr14, cr9, {3}
    114c:	656d0000 	strbvs	r0, [sp, #-0]!
    1150:	6d745f6d 	ldclvs	15, cr5, [r4, #-436]!	; 0xfffffe4c
    1154:	706d7473 	rsbvc	r7, sp, r3, ror r4
    1158:	0100632e 	tsteq	r0, lr, lsr #6
    115c:	6d700000 	ldclvs	0, cr0, [r0, #-0]
    1160:	7079745f 	rsbsvc	r7, r9, pc, asr r4
    1164:	682e7365 	stmdavs	lr!, {r0, r2, r5, r6, r8, r9, ip, sp, lr}
    1168:	00000100 	andeq	r0, r0, r0, lsl #2
    116c:	5f6d656d 	svcpl	0x006d656d
    1170:	74736d74 	ldrbtvc	r6, [r3], #-3444	; 0xd74
    1174:	682e706d 	stmdavs	lr!, {r0, r2, r3, r5, r6, ip, sp, lr}
    1178:	00000100 	andeq	r0, r0, r0, lsl #2
    117c:	02050000 	andeq	r0, r5, #0
    1180:	00012240 	andeq	r2, r1, r0, asr #4
    1184:	15011103 	strne	r1, [r1, #-259]	; 0x103
    1188:	2b4d312b 	blcs	134d63c <__bss_end+0x133a4f0>
    118c:	4d2f2a51 	vstmdbmi	pc!, {s4-s84}
    1190:	142e0f03 	strtne	r0, [lr], #-3843	; 0xf03
    1194:	2a323064 	bcs	c8d32c <__bss_end+0xc7a1e0>
    1198:	02024d2f 	andeq	r4, r2, #3008	; 0xbc0
    119c:	f3010100 	vrhadd.u8	d0, d1, d0
    11a0:	02000000 	andeq	r0, r0, #0
    11a4:	00005700 	andeq	r5, r0, r0, lsl #14
    11a8:	fb010200 	blx	419b2 <__bss_end+0x2e866>
    11ac:	01000d0e 	tsteq	r0, lr, lsl #26
    11b0:	00010101 	andeq	r0, r1, r1, lsl #2
    11b4:	00010000 	andeq	r0, r1, r0
    11b8:	72610100 	rsbvc	r0, r1, #0
    11bc:	612f6863 	teqvs	pc, r3, ror #16
    11c0:	6d2f6d72 	stcvs	13, cr6, [pc, #-456]!	; 1000 <__resume1_start+0x1000>
    11c4:	2d686361 	stclcs	3, cr6, [r8, #-388]!	; 0xfffffe7c
    11c8:	786e7573 	stmdavc	lr!, {r0, r1, r4, r5, r6, r8, sl, ip, sp, lr}^
    11cc:	6d702f69 	ldclvs	15, cr2, [r0, #-420]!	; 0xfffffe5c
    11d0:	6174732f 	cmnvs	r4, pc, lsr #6
    11d4:	7962646e 	stmdbvc	r2!, {r1, r2, r3, r5, r6, sl, sp, lr}^
    11d8:	002e2e2f 	eoreq	r2, lr, pc, lsr #28
    11dc:	6d656d00 	stclvs	13, cr6, [r5, #-0]
    11e0:	7377685f 	cmnvc	r7, #6225920	; 0x5f0000
    11e4:	6c6e6970 	stclvs	9, cr6, [lr], #-448	; 0xfffffe40
    11e8:	2e6b636f 	cdpcs	3, 6, cr6, cr11, cr15, {3}
    11ec:	00010063 	andeq	r0, r1, r3, rrx
    11f0:	5f6d7000 	svcpl	0x006d7000
    11f4:	65707974 	ldrbvs	r7, [r0, #-2420]!	; 0x974
    11f8:	00682e73 	rsbeq	r2, r8, r3, ror lr
    11fc:	00000001 	andeq	r0, r0, r1
    1200:	98020500 	stmdals	r2, {r8, sl}
    1204:	03000122 	movweq	r0, #290	; 0x122
    1208:	130100c7 	movwne	r0, #4295	; 0x10c7
    120c:	032e0b03 	teqeq	lr, #3072	; 0xc00
    1210:	83332e77 	teqhi	r3, #1904	; 0x770
    1214:	2e0e0369 	cdpcs	3, 0, cr0, cr14, cr9, {3}
    1218:	2e7fb503 	cdpcs	5, 7, cr11, cr15, cr3, {0}
    121c:	4a00d303 	bmi	35e30 <__bss_end+0x22ce4>
    1220:	31473147 	cmpcc	r7, r7, asr #2
    1224:	0c039b69 	stceq	11, cr9, [r3], {105}	; 0x69
    1228:	7fbf0366 	svcvc	0x00bf0366
    122c:	2e3b034a 	cdpcs	3, 3, cr0, cr11, cr10, {2}
    1230:	032f4f4b 	teqeq	pc, #300	; 0x12c
    1234:	0314660e 	tsteq	r4, #14680064	; 0xe00000
    1238:	032e7fae 	teqeq	lr, #696	; 0x2b8
    123c:	032e00d2 	teqeq	lr, #210	; 0xd2
    1240:	03667fae 	cmneq	r6, #696	; 0x2b8
    1244:	032e00d2 	teqeq	lr, #210	; 0xd2
    1248:	032e7fae 	teqeq	lr, #696	; 0x2b8
    124c:	032e00d2 	teqeq	lr, #210	; 0xd2
    1250:	032e7fae 	teqeq	lr, #696	; 0x2b8
    1254:	032e00d8 	teqeq	lr, #216	; 0xd8
    1258:	fc034a0e 	stc2	10, cr4, [r3], {14}
    125c:	8c03017e 	stfhis	f0, [r3], {126}	; 0x7e
    1260:	312b4a01 	teqcc	fp, r1, lsl #20
    1264:	9b693147 	blls	1a4d788 <__bss_end+0x1a3a63c>
    1268:	03660c03 	cmneq	r6, #768	; 0x300
    126c:	034a7f86 	movteq	r7, #44934	; 0xaf86
    1270:	4f2e00f5 	svcmi	0x002e00f5
    1274:	4a0e032f 	bmi	381f38 <__bss_end+0x36edec>
    1278:	7ef50314 	mrcvc	3, 7, r0, cr5, cr4, {0}
    127c:	018b032e 	orreq	r0, fp, lr, lsr #6
    1280:	7ef5032e 	cdpvc	3, 15, cr0, cr5, cr14, {1}
    1284:	018b0366 	orreq	r0, fp, r6, ror #6
    1288:	7ef5034a 	cdpvc	3, 15, cr0, cr5, cr10, {2}
    128c:	0191032e 	orrseq	r0, r1, lr, lsr #6
    1290:	0002022e 	andeq	r0, r2, lr, lsr #4
    1294:	022b0101 	eoreq	r0, fp, #1073741824	; 0x40000000
    1298:	00020000 	andeq	r0, r2, r0
    129c:	00000075 	andeq	r0, r0, r5, ror r0
    12a0:	0efb0102 	cdpeq	1, 15, cr0, cr11, cr2, {0}
    12a4:	0101000d 	tsteq	r1, sp
    12a8:	00000101 	andeq	r0, r0, r1, lsl #2
    12ac:	00000100 	andeq	r0, r0, r0, lsl #2
    12b0:	63726101 	cmnvs	r2, #1073741824	; 0x40000000
    12b4:	72612f68 	rsbvc	r2, r1, #416	; 0x1a0
    12b8:	616d2f6d 	cmnvs	sp, sp, ror #30
    12bc:	732d6863 	teqvc	sp, #6488064	; 0x630000
    12c0:	69786e75 	ldmdbvs	r8!, {r0, r2, r4, r5, r6, r9, sl, fp, sp, lr}^
    12c4:	2f6d702f 	svccs	0x006d702f
    12c8:	6e617473 	mcrvs	4, 3, r7, cr1, cr3, {3}
    12cc:	2f796264 	svccs	0x00796264
    12d0:	00002e2e 	andeq	r2, r0, lr, lsr #28
    12d4:	5f6d656d 	svcpl	0x006d656d
    12d8:	2e6b6c63 	cdpcs	12, 6, cr6, cr11, cr3, {3}
    12dc:	00010063 	andeq	r0, r1, r3, rrx
    12e0:	5f6d7000 	svcpl	0x006d7000
    12e4:	65707974 	ldrbvs	r7, [r0, #-2420]!	; 0x974
    12e8:	00682e73 	rsbeq	r2, r8, r3, ror lr
    12ec:	6d000001 	stcvs	0, cr0, [r0, #-4]
    12f0:	635f6d65 	cmpvs	pc, #6464	; 0x1940
    12f4:	2d756d63 	ldclcs	13, cr6, [r5, #-396]!	; 0xfffffe74
    12f8:	396e7573 	stmdbcc	lr!, {r0, r1, r4, r5, r6, r8, sl, ip, sp, lr}^
    12fc:	70317769 	eorsvc	r7, r1, r9, ror #14
    1300:	00682e31 	rsbeq	r2, r8, r1, lsr lr
    1304:	6d000001 	stcvs	0, cr0, [r0, #-4]
    1308:	635f6d65 	cmpvs	pc, #6464	; 0x1940
    130c:	682e6b6c 	stmdavs	lr!, {r2, r3, r5, r6, r8, r9, fp, sp, lr}
    1310:	00000100 	andeq	r0, r0, r0, lsl #2
    1314:	02050000 	andeq	r0, r5, #0
    1318:	00012400 	andeq	r2, r1, r0, lsl #8
    131c:	13011503 	movwne	r1, #5379	; 0x1503
    1320:	30484c2f 	subcc	r4, r8, pc, lsr #24
    1324:	0332302c 	teqeq	r2, #44	; 0x2c
    1328:	4b144a11 	blmi	513b74 <__bss_end+0x500a28>
    132c:	4a03d003 	bmi	f5340 <__bss_end+0xe21f4>
    1330:	2f302b15 	svccs	0x00302b15
    1334:	00c3032d 	sbceq	r0, r3, sp, lsr #6
    1338:	7fbe032e 	svcvc	0x00be032e
    133c:	4b4b362e 	blmi	12cebfc <__bss_end+0x12bbab0>
    1340:	4b4b4c4b 	blmi	12d4474 <__bss_end+0x12c1328>
    1344:	4c4b4b4b 	mcrrmi	11, 4, r4, fp, cr11
    1348:	4c4b4b4c 	mcrrmi	11, 4, r4, fp, cr12
    134c:	4b4b4b4b 	blmi	12d4080 <__bss_end+0x12c0f34>
    1350:	4b4b4d4b 	blmi	12d4884 <__bss_end+0x12c1738>
    1354:	4b4b4c4b 	blmi	12d4488 <__bss_end+0x12c133c>
    1358:	4b4b4b4b 	blmi	12d408c <__bss_end+0x12c0f40>
    135c:	4b4c4b4b 	blmi	1314090 <__bss_end+0x1300f44>
    1360:	4b4b4b4b 	blmi	12d4094 <__bss_end+0x12c0f48>
    1364:	4b4b4b4b 	blmi	12d4098 <__bss_end+0x12c0f4c>
    1368:	4b4c4b4b 	blmi	131409c <__bss_end+0x1300f50>
    136c:	2e12034d 	cdpcs	3, 1, cr0, cr2, cr13, {2}
    1370:	314b332e 	cmpcc	fp, lr, lsr #6
    1374:	032e0a03 	teqeq	lr, #12288	; 0x3000
    1378:	674b2e76 	smlsldxvs	r2, fp, r6, lr
    137c:	67676768 	strbvs	r6, [r7, -r8, ror #14]!
    1380:	0a032f69 	beq	cd12c <__bss_end+0xb9fe0>
    1384:	2e76032e 	cdpcs	3, 7, cr0, cr6, cr14, {1}
    1388:	674c674b 	strbvs	r6, [ip, -fp, asr #14]
    138c:	2f696767 	svccs	0x00696767
    1390:	4b2d2f4b 	blmi	b4d0c4 <__bss_end+0xb39f78>
    1394:	4b2d2f2f 	blmi	b4d058 <__bss_end+0xb39f0c>
    1398:	4b2d2f2f 	blmi	b4d05c <__bss_end+0xb39f10>
    139c:	4b2d2f30 	blmi	b4d064 <__bss_end+0xb39f18>
    13a0:	4b2d2f2f 	blmi	b4d064 <__bss_end+0xb39f18>
    13a4:	4b2d2f2f 	blmi	b4d068 <__bss_end+0xb39f1c>
    13a8:	2f2d6731 	svccs	0x002d6731
    13ac:	2d2f4b2f 	fstmdbxcs	pc!, {d4-d26}	;@ Deprecated
    13b0:	2d2f2f4b 	stccs	15, cr2, [pc, #-300]!	; 128c <__resume1_start+0x128c>
    13b4:	2d2f2f4b 	stccs	15, cr2, [pc, #-300]!	; 1290 <__resume1_start+0x1290>
    13b8:	2d2f314b 	stfcss	f3, [pc, #-300]!	; 1294 <__resume1_start+0x1294>
    13bc:	2f4c2f67 	svccs	0x004c2f67
    13c0:	2f30672d 	svccs	0x0030672d
    13c4:	4c2f4b2d 	stcmi	11, cr4, [pc], #-180	; 1318 <__resume1_start+0x1318>
    13c8:	304c2c30 	subcc	r2, ip, r0, lsr ip
    13cc:	2f4b2d2f 	svccs	0x004b2d2f
    13d0:	672b314c 	strvs	r3, [fp, -ip, asr #2]!
    13d4:	302f8383 	eorcc	r8, pc, r3, lsl #7
    13d8:	2f83672c 	svccs	0x0083672c
    13dc:	2e780336 	mrccs	3, 3, r0, cr8, cr6, {1}
    13e0:	6767674b 	strbvs	r6, [r7, -fp, asr #14]!
    13e4:	2f686767 	svccs	0x00686767
    13e8:	2f4b2d2f 	svccs	0x004b2d2f
    13ec:	674b2a32 	smlaldxvs	r2, fp, r2, sl
    13f0:	2c302f68 	ldccs	15, cr2, [r0], #-416	; 0xfffffe60
    13f4:	7df4034c 	ldclvc	3, cr0, [r4, #304]!	; 0x130
    13f8:	2c312f2e 	ldccs	15, cr2, [r1], #-184	; 0xffffff48
    13fc:	2f302c30 	svccs	0x00302c30
    1400:	312f2f2f 	teqcc	pc, pc, lsr #30
    1404:	2f2f3067 	svccs	0x002f3067
    1408:	2f2f6831 	svccs	0x002f6831
    140c:	674c302f 	strbvs	r3, [ip, -pc, lsr #32]
    1410:	2f2f2f4b 	svccs	0x002f2f4b
    1414:	2f4b6730 	svccs	0x004b6730
    1418:	2f312f2f 	svccs	0x00312f2f
    141c:	2f2f312f 	svccs	0x002f312f
    1420:	2f2f4c30 	svccs	0x002f4c30
    1424:	032f2f2f 	teqeq	pc, #188	; 0xbc
    1428:	4c4a01d4 	stfmie	f0, [sl], {212}	; 0xd4
    142c:	134a0f03 	movtne	r0, #44803	; 0xaf03
    1430:	034f2b35 	movteq	r2, #64309	; 0xfb35
    1434:	31312e78 	teqcc	r1, r8, ror lr
    1438:	4a0e0331 	bmi	382104 <__bss_end+0x36efb8>
    143c:	304c3113 	subcc	r3, ip, r3, lsl r1
    1440:	302e7a03 	eorcc	r7, lr, r3, lsl #20
    1444:	10033130 	andne	r3, r3, r0, lsr r1
    1448:	0365134a 	cmneq	r5, #671088641	; 0x28000001
    144c:	7a034a0a 	bvc	d3c7c <__bss_end+0xc0b30>
    1450:	302f2b2e 	eorcc	r2, pc, lr, lsr #22
    1454:	4d4b674b 	stclmi	7, cr6, [fp, #-300]	; 0xfffffed4
    1458:	134a0f03 	movtne	r0, #44803	; 0xaf03
    145c:	362d2f65 	strtcc	r2, [sp], -r5, ror #30
    1460:	2f2e7a03 	svccs	0x002e7a03
    1464:	2f2b2f2f 	svccs	0x002b2f2f
    1468:	03312f2f 	teqeq	r1, #188	; 0xbc
    146c:	2c154a0e 	ldccs	10, cr4, [r5], {14}
    1470:	1c032f49 	stcne	15, cr2, [r3], {73}	; 0x49
    1474:	2e64032e 	cdpcs	3, 6, cr0, cr4, cr14, {1}
    1478:	4b4b2f30 	blmi	12cd140 <__bss_end+0x12b9ff4>
    147c:	4c4b4b4d 	mcrrmi	11, 4, r4, fp, cr13
    1480:	4b4c4b4b 	blmi	13141b4 <__bss_end+0x1301068>
    1484:	2e790352 	mrccs	3, 3, r0, cr9, cr2, {2}
    1488:	304b2f50 	subcc	r2, fp, r0, asr pc
    148c:	132e0f03 	teqne	lr, #12
    1490:	10032f65 	andne	r2, r3, r5, ror #30
    1494:	2e71032e 	cdpcs	3, 7, cr0, cr1, cr14, {1}
    1498:	4b4b4b4b 	blmi	12d41cc <__bss_end+0x12c1080>
    149c:	4b4b4b4b 	blmi	12d41d0 <__bss_end+0x12c1084>
    14a0:	4b4b4b4b 	blmi	12d41d4 <__bss_end+0x12c1088>
    14a4:	2e0e034d 	cdpcs	3, 0, cr0, cr14, cr13, {2}
    14a8:	2e78031a 	mrccs	3, 3, r0, cr8, cr10, {0}
    14ac:	322a4e36 	eorcc	r4, sl, #864	; 0x360
    14b0:	032e0d03 	teqeq	lr, #192	; 0xc0
    14b4:	2d326677 	ldccs	6, cr6, [r2, #-476]!	; 0xfffffe24
    14b8:	4b2f2f2c 	blmi	bcd170 <__bss_end+0xbba024>
    14bc:	2933322a 	ldmdbcs	r3!, {r1, r3, r5, r9, ip, sp}
    14c0:	01000402 	tsteq	r0, r2, lsl #8
    14c4:	Address 0x000014c4 is out of bounds.


Disassembly of section .debug_str:

00000000 <.debug_str>:
       0:	676e6f6c 	strbvs	r6, [lr, -ip, ror #30]!
       4:	6e6f6c20 	cdpvs	12, 6, cr6, cr15, cr0, {1}
       8:	6e692067 	cdpvs	0, 6, cr2, cr9, cr7, {3}
       c:	525f0074 	subspl	r0, pc, #116	; 0x74
      10:	6d757365 	ldclvs	3, cr7, [r5, #-404]!	; 0xfffffe6c
      14:	69665f65 	stmdbvs	r6!, {r0, r2, r5, r6, r8, r9, sl, fp, ip, lr}^
      18:	685f656c 	ldmdavs	pc, {r2, r3, r5, r6, r8, sl, sp, lr}^	; <UNPREDICTABLE>
      1c:	00646165 	rsbeq	r6, r4, r5, ror #2
      20:	656c6966 	strbvs	r6, [ip, #-2406]!	; 0x966
      24:	6165685f 	cmnvs	r5, pc, asr r8
      28:	73765f64 	cmnvc	r6, #400	; 0x190
      2c:	656c006e 	strbvs	r0, [ip, #-110]!	; 0x6e
      30:	6874676e 	ldmdavs	r4!, {r1, r2, r3, r5, r6, r8, r9, sl, sp, lr}^
      34:	62757000 	rsbsvs	r7, r5, #0
      38:	6165685f 	cmnvs	r5, pc, asr r8
      3c:	73765f64 	cmnvc	r6, #400	; 0x190
      40:	772f006e 	strvc	r0, [pc, -lr, rrx]!
      44:	2f6b726f 	svccs	0x006b726f
      48:	2f6b6473 	svccs	0x006b6473
      4c:	2f303861 	svccs	0x00303861
      50:	68746967 	ldmdavs	r4!, {r0, r1, r2, r5, r6, r8, fp, sp, lr}^
      54:	6c2f6275 	sfmvs	f6, 4, [pc], #-468	; fffffe88 <__bss_end+0xfffecd3c>
      58:	78756e69 	ldmdavc	r5!, {r0, r3, r5, r6, r9, sl, fp, sp, lr}^
      5c:	342e332d 	strtcc	r3, [lr], #-813	; 0x32d
      60:	6e6f6c00 	cdpvs	12, 6, cr6, cr15, cr0, {0}
      64:	6f6c2067 	svcvs	0x006c2067
      68:	7520676e 	strvc	r6, [r0, #-1902]!	; 0x76e
      6c:	6769736e 	strbvs	r7, [r9, -lr, ror #6]!
      70:	2064656e 	rsbcs	r6, r4, lr, ror #10
      74:	00746e69 	rsbseq	r6, r4, r9, ror #28
      78:	68637261 	stmdavs	r3!, {r0, r5, r6, r9, ip, sp, lr}^
      7c:	6d72612f 	ldfvse	f6, [r2, #-188]!	; 0xffffff44
      80:	63616d2f 	cmnvs	r1, #3008	; 0xbc0
      84:	75732d68 	ldrbvc	r2, [r3, #-3432]!	; 0xd68
      88:	2f69786e 	svccs	0x0069786e
      8c:	732f6d70 	teqvc	pc, #7168	; 0x1c00
      90:	646e6174 	strbtvs	r6, [lr], #-372	; 0x174
      94:	732f7962 	teqvc	pc, #1605632	; 0x188000
      98:	72657075 	rsbvc	r7, r5, #117	; 0x75
      9c:	7365722f 	cmnvc	r5, #-268435454	; 0xf0000002
      a0:	2f656d75 	svccs	0x00656d75
      a4:	75736572 	ldrbvc	r6, [r3, #-1394]!	; 0x572
      a8:	685f656d 	ldmdavs	pc, {r0, r2, r3, r5, r6, r8, sl, sp, lr}^	; <UNPREDICTABLE>
      ac:	2e646165 	powcssz	f6, f4, f5
      b0:	65520063 	ldrbvs	r0, [r2, #-99]	; 0x63
      b4:	656d7573 	strbvs	r7, [sp, #-1395]!	; 0x573
      b8:	6e73765f 	mrcvs	6, 3, r7, cr3, cr15, {2}
      bc:	67616d00 	strbvs	r6, [r1, -r0, lsl #26]!
      c0:	70006369 	andvc	r6, r0, r9, ror #6
      c4:	685f6275 	ldmdavs	pc, {r0, r2, r4, r5, r6, r9, sp, lr}^	; <UNPREDICTABLE>
      c8:	5f646165 	svcpl	0x00646165
      cc:	657a6973 	ldrbvs	r6, [sl, #-2419]!	; 0x973
      d0:	736e7500 	cmnvc	lr, #0
      d4:	656e6769 	strbvs	r6, [lr, #-1897]!	; 0x769
      d8:	68632064 	stmdavs	r3!, {r2, r5, r6, sp}^
      dc:	6a007261 	bvs	1ca68 <__bss_end+0x991c>
      e0:	5f706d75 	svcpl	0x00706d75
      e4:	74736e69 	ldrbtvc	r6, [r3], #-3689	; 0xe69
      e8:	74637572 	strbtvc	r7, [r3], #-1394	; 0x572
      ec:	006e6f69 	rsbeq	r6, lr, r9, ror #30
      f0:	63656863 	cmnvs	r5, #6488064	; 0x630000
      f4:	75735f6b 	ldrbvc	r5, [r3, #-3947]!	; 0xf6b
      f8:	6873006d 	ldmdavs	r3!, {r0, r2, r3, r5, r6}^
      fc:	2074726f 	rsbscs	r7, r4, pc, ror #4
     100:	69736e75 	ldmdbvs	r3!, {r0, r2, r4, r5, r6, r9, sl, fp, sp, lr}^
     104:	64656e67 	strbtvs	r6, [r5], #-3687	; 0xe67
     108:	746e6920 	strbtvc	r6, [lr], #-2336	; 0x920
     10c:	554e4700 	strbpl	r4, [lr, #-1792]	; 0x700
     110:	34204320 	strtcc	r4, [r0], #-800	; 0x320
     114:	332e362e 	teqcc	lr, #48234496	; 0x2e00000
     118:	31303220 	teqcc	r0, r0, lsr #4
     11c:	30323032 	eorscc	r3, r2, r2, lsr r0
     120:	70282031 	eorvc	r2, r8, r1, lsr r0
     124:	65726572 	ldrbvs	r6, [r2, #-1394]!	; 0x572
     128:	7361656c 	cmnvc	r1, #452984832	; 0x1b000000
     12c:	65002965 	strvs	r2, [r0, #-2405]	; 0x965
     130:	5f4e4f47 	svcpl	0x004e4f47
     134:	006e7376 	rsbeq	r7, lr, r6, ror r3
     138:	74616c70 	strbtvc	r6, [r1], #-3184	; 0xc70
     13c:	6d726f66 	ldclvs	15, cr6, [r2, #-408]!	; 0xfffffe68
     140:	6f687300 	svcvs	0x00687300
     144:	69207472 	stmdbvs	r0!, {r1, r4, r5, r6, sl, ip, sp, lr}
     148:	7200746e 	andvc	r7, r0, #1845493760	; 0x6e000000
     14c:	6d757365 	ldclvs	3, cr7, [r5, #-404]!	; 0xfffffe6c
     150:	65685f65 	strbvs	r5, [r8, #-3941]!	; 0xf65
     154:	72006461 	andvc	r6, r0, #1627389952	; 0x61000000
     158:	6d757365 	ldclvs	3, cr7, [r5, #-404]!	; 0xfffffe6c
     15c:	69665f65 	stmdbvs	r6!, {r0, r2, r5, r6, r8, r9, sl, fp, ip, lr}^
     160:	685f656c 	ldmdavs	pc, {r2, r3, r5, r6, r8, sl, sp, lr}^	; <UNPREDICTABLE>
     164:	5f646165 	svcpl	0x00646165
     168:	72610074 	rsbvc	r0, r1, #116	; 0x74
     16c:	612f6863 	teqvs	pc, r3, ror #16
     170:	6d2f6d72 	stcvs	13, cr6, [pc, #-456]!	; ffffffb0 <__bss_end+0xfffece64>
     174:	2d686361 	stclcs	3, cr6, [r8, #-388]!	; 0xfffffe7c
     178:	786e7573 	stmdavc	lr!, {r0, r1, r4, r5, r6, r8, sl, ip, sp, lr}^
     17c:	6d702f69 	ldclvs	15, cr2, [r0, #-420]!	; 0xfffffe5c
     180:	6174732f 	cmnvs	r4, pc, lsr #6
     184:	7962646e 	stmdbvc	r2!, {r1, r2, r3, r5, r6, sl, sp, lr}^
     188:	7075732f 	rsbsvc	r7, r5, pc, lsr #6
     18c:	632f7265 	teqvs	pc, #1342177286	; 0x50000006
     190:	6f6d6d6f 	svcvs	0x006d6d6f
     194:	00632e6e 	rsbeq	r2, r3, lr, ror #28
     198:	5f706d74 	svcpl	0x00706d74
     19c:	00747364 	rsbseq	r7, r4, r4, ror #6
     1a0:	5f706d74 	svcpl	0x00706d74
     1a4:	00637273 	rsbeq	r7, r3, r3, ror r2
     1a8:	5f6d656d 	svcpl	0x006d656d
     1ac:	636d656d 	cmnvs	sp, #457179136	; 0x1b400000
     1b0:	61007970 	tstvs	r0, r0, ror r9
     1b4:	2f686372 	svccs	0x00686372
     1b8:	2f6d7261 	svccs	0x006d7261
     1bc:	6863616d 	stmdavs	r3!, {r0, r2, r3, r5, r6, r8, sp, lr}^
     1c0:	6e75732d 	cdpvs	3, 7, cr7, cr5, cr13, {1}
     1c4:	702f6978 	eorvc	r6, pc, r8, ror r9	; <UNPREDICTABLE>
     1c8:	74732f6d 	ldrbtvc	r2, [r3], #-3949	; 0xf6d
     1cc:	62646e61 	rsbvs	r6, r4, #1552	; 0x610
     1d0:	75732f79 	ldrbvc	r2, [r3, #-3961]!	; 0xf79
     1d4:	2f726570 	svccs	0x00726570
     1d8:	65707573 	ldrbvs	r7, [r0, #-1395]!	; 0x573
     1dc:	77745f72 			; <UNDEFINED> instruction: 0x77745f72
     1e0:	00632e69 	rsbeq	r2, r3, r9, ror #28
     1e4:	68637261 	stmdavs	r3!, {r0, r5, r6, r9, ip, sp, lr}^
     1e8:	6d72612f 	ldfvse	f6, [r2, #-188]!	; 0xffffff44
     1ec:	63616d2f 	cmnvs	r1, #3008	; 0xbc0
     1f0:	75732d68 	ldrbvc	r2, [r3, #-3432]!	; 0xd68
     1f4:	2f69786e 	svccs	0x0069786e
     1f8:	732f6d70 	teqvc	pc, #7168	; 0x1c00
     1fc:	646e6174 	strbtvs	r6, [lr], #-372	; 0x174
     200:	732f7962 	teqvc	pc, #1605632	; 0x188000
     204:	72657075 	rsbvc	r7, r5, #117	; 0x75
     208:	7075732f 	rsbsvc	r7, r5, pc, lsr #6
     20c:	635f7265 	cmpvs	pc, #1342177286	; 0x50000006
     210:	6b636f6c 	blvs	18dbfc8 <__bss_end+0x18c8e7c>
     214:	6100632e 	tstvs	r0, lr, lsr #6
     218:	2f686372 	svccs	0x00686372
     21c:	2f6d7261 	svccs	0x006d7261
     220:	6863616d 	stmdavs	r3!, {r0, r2, r3, r5, r6, r8, sp, lr}^
     224:	6e75732d 	cdpvs	3, 7, cr7, cr5, cr13, {1}
     228:	702f6978 	eorvc	r6, pc, r8, ror r9	; <UNPREDICTABLE>
     22c:	74732f6d 	ldrbtvc	r2, [r3], #-3949	; 0xf6d
     230:	62646e61 	rsbvs	r6, r4, #1552	; 0x610
     234:	75732f79 	ldrbvc	r2, [r3, #-3961]!	; 0xf79
     238:	2f726570 	svccs	0x00726570
     23c:	65707573 	ldrbvs	r7, [r0, #-1395]!	; 0x573
     240:	6f705f72 	svcvs	0x00705f72
     244:	2e726577 	mrccs	5, 3, r6, cr2, cr7, {3}
     248:	72610063 	rsbvc	r0, r1, #99	; 0x63
     24c:	612f6863 	teqvs	pc, r3, ror #16
     250:	6d2f6d72 	stcvs	13, cr6, [pc, #-456]!	; 90 <__resume1_start+0x90>
     254:	2d686361 	stclcs	3, cr6, [r8, #-388]!	; 0xfffffe7c
     258:	786e7573 	stmdavc	lr!, {r0, r1, r4, r5, r6, r8, sl, ip, sp, lr}^
     25c:	6d702f69 	ldclvs	15, cr2, [r0, #-420]!	; 0xfffffe5c
     260:	6174732f 	cmnvs	r4, pc, lsr #6
     264:	7962646e 	stmdbvc	r2!, {r1, r2, r3, r5, r6, sl, sp, lr}^
     268:	7075732f 	rsbsvc	r7, r5, pc, lsr #6
     26c:	732f7265 	teqvc	pc, #1342177286	; 0x50000006
     270:	72657075 	rsbvc	r7, r5, #117	; 0x75
     274:	7570635f 	ldrbvc	r6, [r0, #-863]!	; 0x35f
     278:	00632e73 	rsbeq	r2, r3, r3, ror lr
     27c:	5f4c4c50 	svcpl	0x004c4c50
     280:	5f555047 	svcpl	0x00555047
     284:	5f474643 	svcpl	0x00474643
     288:	5f474552 	svcpl	0x00474552
     28c:	6c500074 	mrrcvs	0, 7, r0, r0, cr4	; <UNPREDICTABLE>
     290:	64445f6c 	strbvs	r5, [r4], #-3948	; 0xf6c
     294:	69425f72 	stmdbvs	r2, {r1, r4, r5, r6, r8, r9, sl, fp, ip, lr}^
     298:	63007361 	movwvs	r7, #865	; 0x361
     29c:	5f317570 	svcpl	0x00317570
     2a0:	65736572 	ldrbvs	r6, [r3, #-1394]!	; 0x572
     2a4:	65640074 	strbvs	r0, [r4, #-116]!	; 0x74
     2a8:	5f677562 	svcpl	0x00677562
     2ac:	6b73616d 	blvs	1cd8868 <__bss_end+0x1cc571c>
     2b0:	69636300 	stmdbvs	r3!, {r8, r9, sp, lr}^
     2b4:	5f303034 	svcpl	0x00303034
     2b8:	5f6b6c63 	svcpl	0x006b6c63
     2bc:	5f766964 	svcpl	0x00766964
     2c0:	69746172 	ldmdbvs	r4!, {r1, r4, r5, r6, r8, sp, lr}^
     2c4:	7764006f 	strbvc	r0, [r4, -pc, rrx]!
     2c8:	006c6176 	rsbeq	r6, ip, r6, ror r1
     2cc:	65766173 	ldrbvs	r6, [r6, #-371]!	; 0x173
     2d0:	75725f64 	ldrbvc	r5, [r2, #-3940]!	; 0xf64
     2d4:	6d69746e 	cfstrdvs	mvd7, [r9, #-440]!	; 0xfffffe48
     2d8:	6f635f65 	svcvs	0x00635f65
     2dc:	7865746e 	stmdavc	r5!, {r1, r2, r3, r5, r6, sl, ip, sp, lr}^
     2e0:	76735f74 	uhsub16vc	r5, r3, r4
     2e4:	61770063 	cmnvs	r7, r3, rrx
     2e8:	625f6576 	subsvs	r6, pc, #494927872	; 0x1d800000
     2ec:	5000746f 	andpl	r7, r0, pc, ror #8
     2f0:	415f4c4c 	cmpmi	pc, ip, asr #24
     2f4:	4f494455 	svcmi	0x00494455
     2f8:	5441505f 	strbpl	r5, [r1], #-95	; 0x5f
     2fc:	4746435f 	smlsldmi	r4, r6, pc, r3	; <UNPREDICTABLE>
     300:	4745525f 	smlsldmi	r5, r5, pc, r2	; <UNPREDICTABLE>
     304:	7300745f 	movwvc	r7, #1119	; 0x45f
     308:	665f7270 			; <UNDEFINED> instruction: 0x665f7270
     30c:	5f716572 	svcpl	0x00716572
     310:	65646f6d 	strbvs	r6, [r4, #-3949]!	; 0xf6d
     314:	4c4c5000 	marmi	acc0, r5, ip
     318:	5244445f 	subpl	r4, r4, #1593835520	; 0x5f000000
     31c:	4149425f 	cmpmi	r9, pc, asr r2
     320:	45525f53 	ldrbmi	r5, [r2, #-3923]	; 0xf53
     324:	00745f47 	rsbseq	r5, r4, r7, asr #30
     328:	4c435447 	cfstrdmi	mvd5, [r3], {71}	; 0x47
     32c:	46435f4b 	strbmi	r5, [r3], -fp, asr #30
     330:	45525f47 	ldrbmi	r5, [r2, #-3911]	; 0xf47
     334:	00745f47 	rsbseq	r5, r4, r7, asr #30
     338:	5f6c6c70 	svcpl	0x006c6c70
     33c:	74736f70 	ldrbtvc	r6, [r3], #-3952	; 0xf70
     340:	5f766964 	svcpl	0x00766964
     344:	6c70006d 	ldclvs	0, cr0, [r0], #-436	; 0xfffffe4c
     348:	6f705f6c 	svcvs	0x00705f6c
     34c:	69647473 	stmdbvs	r4!, {r0, r1, r4, r5, r6, sl, ip, sp, lr}^
     350:	00705f76 	rsbseq	r5, r0, r6, ror pc
     354:	5f6b6c43 	svcpl	0x006b6c43
     358:	6274754f 	rsbsvs	r7, r4, #331350016	; 0x13c00000
     35c:	62746100 	rsbsvs	r6, r4, #0
     360:	70615f30 	rsbvc	r5, r1, r0, lsr pc
     364:	6c635f62 	stclvs	15, cr5, [r3], #-392	; 0xfffffe78
     368:	69645f6b 	stmdbvs	r4!, {r0, r1, r3, r5, r6, r8, r9, sl, fp, ip, lr}^
     36c:	4c500076 	mrrcmi	0, 7, r0, r0, cr6	; <UNPREDICTABLE>
     370:	31435f4c 	cmpcc	r3, ip, asr #30
     374:	4746435f 	smlsldmi	r4, r6, pc, r3	; <UNPREDICTABLE>
     378:	4745525f 	smlsldmi	r5, r5, pc, r2	; <UNPREDICTABLE>
     37c:	5000745f 	andpl	r7, r0, pc, asr r4
     380:	505f6c6c 	subspl	r6, pc, ip, ror #24
     384:	70697265 	rsbvc	r7, r9, r5, ror #4
     388:	435f3268 	cmpmi	pc, #-2147483642	; 0x80000006
     38c:	41006766 	tstmi	r0, r6, ror #14
     390:	5f306978 	svcpl	0x00306978
     394:	00676643 	rsbeq	r6, r7, r3, asr #12
     398:	5f6c6c50 	svcpl	0x006c6c50
     39c:	69646556 	stmdbvs	r4!, {r1, r2, r4, r6, r8, sl, sp, lr}^
     3a0:	425f326f 	subsmi	r3, pc, #-268435450	; 0xf0000006
     3a4:	00736169 	rsbseq	r6, r3, r9, ror #2
     3a8:	5f6c6c70 	svcpl	0x006c6c70
     3ac:	5f6d6473 	svcpl	0x006d6473
     3b0:	50006e65 	andpl	r6, r0, r5, ror #28
     3b4:	435f6c6c 	cmpmi	pc, #27648	; 0x6c00
     3b8:	66435f31 			; <UNDEFINED> instruction: 0x66435f31
     3bc:	61730067 	cmnvs	r3, r7, rrx
     3c0:	5f646576 	svcpl	0x00646576
     3c4:	5f756d6d 	svcpl	0x00756d6d
     3c8:	74617473 	strbtvc	r7, [r1], #-1139	; 0x473
     3cc:	4c500065 	mrrcmi	0, 6, r0, r0, cr5	; <UNPREDICTABLE>
     3d0:	4f4c5f4c 	svcmi	0x004c5f4c
     3d4:	435f4b43 	cmpmi	pc, #68608	; 0x10c00
     3d8:	525f4746 	subspl	r4, pc, #18350080	; 0x1180000
     3dc:	5f304745 	svcpl	0x00304745
     3e0:	54410074 	strbpl	r0, [r1], #-116	; 0x74
     3e4:	4c435f53 	mcrrmi	15, 5, r5, r3, cr3
     3e8:	45525f4b 	ldrbmi	r5, [r2, #-3915]	; 0xf4b
     3ec:	00745f47 	rsbseq	r5, r4, r7, asr #30
     3f0:	5f6c6c70 	svcpl	0x006c6c70
     3f4:	00766964 	rsbseq	r6, r6, r4, ror #18
     3f8:	33757063 	cmncc	r5, #99	; 0x63
     3fc:	7365725f 	cmnvc	r5, #-268435451	; 0xf0000005
     400:	50007465 	andpl	r7, r0, r5, ror #8
     404:	565f4c4c 	ldrbpl	r4, [pc], -ip, asr #24
     408:	4f454449 	svcmi	0x00454449
     40c:	49425f31 	stmdbmi	r2, {r0, r4, r5, r8, r9, sl, fp, ip, lr}^
     410:	525f5341 	subspl	r5, pc, #67108865	; 0x4000001
     414:	745f4745 	ldrbvc	r4, [pc], #-1861	; 41c <__resume1_start+0x41c>
     418:	6b6c6300 	blvs	1b19020 <__bss_end+0x1b05ed4>
     41c:	7669645f 			; <UNDEFINED> instruction: 0x7669645f
     420:	7461725f 	strbtvc	r7, [r1], #-607	; 0x25f
     424:	6d5f6f69 	ldclvs	15, cr6, [pc, #-420]	; 288 <__resume1_start+0x288>
     428:	6c6c7000 	stclvs	0, cr7, [ip], #-0
     42c:	6361665f 	cmnvs	r1, #99614720	; 0x5f00000
     430:	5f726f74 	svcpl	0x00726f74
     434:	6c500074 	mrrcvs	0, 7, r0, r0, cr4	; <UNPREDICTABLE>
     438:	31435f6c 	cmpcc	r3, ip, ror #30
     43c:	6169425f 	cmnvs	r9, pc, asr r2
     440:	6c700073 	ldclvs	0, cr0, [r0], #-460	; 0xfffffe34
     444:	70635f6c 	rsbvc	r5, r3, ip, ror #30
     448:	7274635f 	rsbsvc	r6, r4, #2080374785	; 0x7c000001
     44c:	5f5f006c 	svcpl	0x005f006c
     450:	5f737362 	svcpl	0x00737362
     454:	00646e65 	rsbeq	r6, r4, r5, ror #28
     458:	65736572 	ldrbvs	r6, [r3, #-1394]!	; 0x572
     45c:	64657672 	strbtvs	r7, [r5], #-1650	; 0x672
     460:	65720031 	ldrbvs	r0, [r2, #-49]!	; 0x31
     464:	76726573 			; <UNDEFINED> instruction: 0x76726573
     468:	00346465 	eorseq	r6, r4, r5, ror #8
     46c:	5f6f6376 	svcpl	0x006f6376
     470:	6e696167 	powvsez	f6, f1, f7
     474:	7274635f 	rsbsvc	r6, r4, #2080374785	; 0x7c000001
     478:	7063006c 	rsbvc	r0, r3, ip, rrx
     47c:	31635f75 	smccc	13813	; 0x35f5
     480:	6b6c635f 	blvs	1b19204 <__bss_end+0x1b060b8>
     484:	6372735f 	cmnvs	r2, #2080374785	; 0x7c000001
     488:	6c65735f 	stclvs	3, cr7, [r5], #-380	; 0xfffffe84
     48c:	6c6c5000 	stclvs	0, cr5, [ip], #-0
     490:	6469565f 	strbtvs	r5, [r9], #-1631	; 0x65f
     494:	5f316f65 	svcpl	0x00316f65
     498:	00676643 	rsbeq	r6, r7, r3, asr #12
     49c:	5f6c6c50 	svcpl	0x006c6c50
     4a0:	545f3043 	ldrbpl	r3, [pc], #-67	; 4a8 <__resume1_start+0x4a8>
     4a4:	72006e75 	andvc	r6, r0, #1872	; 0x750
     4a8:	6d757365 	ldclvs	3, cr7, [r5, #-404]!	; 0xfffffe6c
     4ac:	635f3165 	cmpvs	pc, #1073741849	; 0x40000019
     4b0:	7261705f 	rsbvc	r7, r1, #95	; 0x5f
     4b4:	69730074 	ldmdbvs	r3!, {r2, r4, r5, r6}^
     4b8:	65645f67 	strbvs	r5, [r4, #-3943]!	; 0xf67
     4bc:	705f746c 	subsvc	r7, pc, ip, ror #8
     4c0:	655f7461 	ldrbvs	r7, [pc, #-1121]	; 67 <__resume1_start+0x67>
     4c4:	6c70006e 	ldclvs	0, cr0, [r0], #-440	; 0xfffffe48
     4c8:	69625f6c 	stmdbvs	r2!, {r2, r3, r5, r6, r8, r9, sl, fp, ip, lr}^
     4cc:	635f7361 	cmpvs	pc, #-2080374783	; 0x84000001
     4d0:	50007275 	andpl	r7, r0, r5, ror r2
     4d4:	54535f4d 	ldrbpl	r5, [r3], #-3917	; 0xf4d
     4d8:	42444e41 	submi	r4, r4, #1040	; 0x410
     4dc:	52505f59 	subspl	r5, r0, #356	; 0x164
     4e0:	5f544e49 	svcpl	0x00544e49
     4e4:	5f554343 	svcpl	0x00554343
     4e8:	54415453 	strbpl	r5, [r1], #-1107	; 0x453
     4ec:	50005355 	andpl	r5, r0, r5, asr r3
     4f0:	445f6c6c 	ldrbmi	r6, [pc], #-3180	; 4f8 <__resume1_start+0x4f8>
     4f4:	505f7264 	subspl	r7, pc, r4, ror #4
     4f8:	435f7461 	cmpmi	pc, #1627389952	; 0x61000000
     4fc:	50006766 	andpl	r6, r0, r6, ror #14
     500:	54535f4d 	ldrbpl	r5, [r3], #-3917	; 0xf4d
     504:	42444e41 	submi	r4, r4, #1040	; 0x410
     508:	52505f59 	subspl	r5, r0, #356	; 0x164
     50c:	5f544e49 	svcpl	0x00544e49
     510:	55534552 	ldrbpl	r4, [r3, #-1362]	; 0x552
     514:	495f454d 	ldmdbmi	pc, {r0, r2, r3, r6, r8, sl, lr}^	; <UNPREDICTABLE>
     518:	54535f4f 	ldrbpl	r5, [r3], #-3919	; 0xf4f
     51c:	53555441 	cmppl	r5, #1090519040	; 0x41000000
     520:	62684100 	rsbvs	r4, r8, #0
     524:	66435f32 			; <UNDEFINED> instruction: 0x66435f32
     528:	61460067 	cmpvs	r6, r7, rrx
     52c:	726f7463 	rsbvc	r7, pc, #1660944384	; 0x63000000
     530:	4c50004b 	mrrcmi	0, 4, r0, r0, cr11	; <UNPREDICTABLE>
     534:	30435f4c 	subcc	r5, r3, ip, asr #30
     538:	4746435f 	smlsldmi	r4, r6, pc, r3	; <UNPREDICTABLE>
     53c:	4745525f 	smlsldmi	r5, r5, pc, r2	; <UNPREDICTABLE>
     540:	4600745f 			; <UNDEFINED> instruction: 0x4600745f
     544:	6f746361 	svcvs	0x00746361
     548:	46004d72 			; <UNDEFINED> instruction: 0x46004d72
     54c:	6f746361 	svcvs	0x00746361
     550:	46004e72 			; <UNDEFINED> instruction: 0x46004e72
     554:	6f746361 	svcvs	0x00746361
     558:	64005072 	strvs	r5, [r0], #-114	; 0x72
     55c:	64697669 	strbtvs	r7, [r9], #-1641	; 0x669
     560:	6d5f7265 	lfmvs	f7, 2, [pc, #-404]	; 3d4 <__resume1_start+0x3d4>
     564:	76696400 	strbtvc	r6, [r9], -r0, lsl #8
     568:	72656469 	rsbvc	r6, r5, #1761607680	; 0x69000000
     56c:	69006e5f 	stmdbvs	r0, {r0, r1, r2, r3, r4, r6, r9, sl, fp, sp, lr}
     570:	7865646e 	stmdavc	r5!, {r1, r2, r3, r5, r6, sl, sp, lr}^
     574:	6c6c5000 	stclvs	0, cr5, [ip], #-0
     578:	6469565f 	strbtvs	r5, [r9], #-1631	; 0x65f
     57c:	5f316f65 	svcpl	0x00316f65
     580:	5f746150 	svcpl	0x00746150
     584:	00676643 	rsbeq	r6, r7, r3, asr #12
     588:	5f6c6c50 	svcpl	0x006c6c50
     58c:	425f6544 	subsmi	r6, pc, #285212672	; 0x11000000
     590:	00736169 	rsbseq	r6, r3, r9, ror #2
     594:	70737573 	rsbsvc	r7, r3, r3, ror r5
     598:	5f646e65 	svcpl	0x00646e65
     59c:	616c6564 	cmnvs	ip, r4, ror #10
     5a0:	736d5f79 	cmnvc	sp, #484	; 0x1e4
     5a4:	69634300 	stmdbvs	r3!, {r8, r9, lr}^
     5a8:	5f303034 	svcpl	0x00303034
     5ac:	00676643 	rsbeq	r6, r7, r3, asr #12
     5b0:	5f4c4c50 	svcpl	0x004c4c50
     5b4:	425f3143 	subsmi	r3, pc, #-1073741808	; 0xc0000010
     5b8:	5f534149 	svcpl	0x00534149
     5bc:	5f474552 	svcpl	0x00474552
     5c0:	4c430074 	mcrrmi	0, 7, r0, r3, cr4
     5c4:	554f5f4b 	strbpl	r5, [pc, #-3915]	; fffff681 <__bss_end+0xfffec535>
     5c8:	525f4254 	subspl	r4, pc, #1073741829	; 0x40000005
     5cc:	745f4745 	ldrbvc	r4, [pc], #-1861	; 5d4 <__resume1_start+0x5d4>
     5d0:	6f637600 	svcvs	0x00637600
     5d4:	7473725f 	ldrbtvc	r7, [r3], #-607	; 0x25f
     5d8:	625f5f00 	subsvs	r5, pc, #0
     5dc:	735f7373 	cmpvc	pc, #-872415231	; 0xcc000001
     5e0:	74726174 	ldrbtvc	r6, [r2], #-372	; 0x174
     5e4:	4c4c5000 	marmi	acc0, r5, ip
     5e8:	4449565f 	strbmi	r5, [r9], #-1631	; 0x65f
     5ec:	5f324f45 	svcpl	0x00324f45
     5f0:	5f544150 	svcpl	0x00544150
     5f4:	5f474643 	svcpl	0x00474643
     5f8:	5f474552 	svcpl	0x00474552
     5fc:	4c500074 	mrrcmi	0, 7, r0, r0, cr4	; <UNPREDICTABLE>
     600:	49565f4c 	ldmdbmi	r6, {r2, r3, r6, r8, r9, sl, fp, ip, lr}^
     604:	314f4544 	cmpcc	pc, r4, asr #10
     608:	5441505f 	strbpl	r5, [r1], #-95	; 0x5f
     60c:	4746435f 	smlsldmi	r4, r6, pc, r3	; <UNPREDICTABLE>
     610:	4745525f 	smlsldmi	r5, r5, pc, r2	; <UNPREDICTABLE>
     614:	7300745f 	movwvc	r7, #1119	; 0x45f
     618:	705f7465 	subsvc	r7, pc, r5, ror #8
     61c:	43006c6c 	movwmi	r6, #3180	; 0xc6c
     620:	435f5550 	cmpmi	pc, #335544320	; 0x14000000
     624:	535f4b4c 	cmppl	pc, #77824	; 0x13000
     628:	525f4352 	subspl	r4, pc, #1207959553	; 0x48000001
     62c:	745f4745 	ldrbvc	r4, [pc], #-1861	; 634 <__resume1_start+0x634>
     630:	6c6c5000 	stclvs	0, cr5, [ip], #-0
     634:	5f65565f 	svcpl	0x0065565f
     638:	73616942 	cmnvc	r1, #1081344	; 0x108000
     63c:	5f4d5000 	svcpl	0x004d5000
     640:	4e415453 	mcrmi	4, 2, r5, cr1, cr3, {2}
     644:	5f594244 	svcpl	0x00594244
     648:	4e495250 	mcrmi	2, 2, r5, cr9, cr0, {2}
     64c:	4f495f54 	svcmi	0x00495f54
     650:	4154535f 	cmpmi	r4, pc, asr r3
     654:	00535554 	subseq	r5, r3, r4, asr r5
     658:	5f4c4c50 	svcpl	0x004c4c50
     65c:	435f4556 	cmpmi	pc, #360710144	; 0x15800000
     660:	525f4746 	subspl	r4, pc, #18350080	; 0x1180000
     664:	745f4745 	ldrbvc	r4, [pc], #-1861	; 66c <__resume1_start+0x66c>
     668:	62686100 	rsbvs	r6, r8, #0
     66c:	6c635f31 	stclvs	15, cr5, [r3], #-196	; 0xffffff3c
     670:	72735f6b 	rsbsvc	r5, r3, #428	; 0x1ac
     674:	65735f63 	ldrbvs	r5, [r3, #-3939]!	; 0xf63
     678:	4841006c 	stmdami	r1, {r2, r3, r5, r6}^
     67c:	435f3242 	cmpmi	pc, #536870916	; 0x20000004
     680:	525f4746 	subspl	r4, pc, #18350080	; 0x1180000
     684:	745f4745 	ldrbvc	r4, [pc], #-1861	; 68c <__resume1_start+0x68c>
     688:	62704100 	rsbsvs	r4, r0, #0
     68c:	66435f30 			; <UNDEFINED> instruction: 0x66435f30
     690:	6c630067 	stclvs	0, cr0, [r3], #-412	; 0xfffffe64
     694:	756f5f6b 	strbvc	r5, [pc, #-3947]!	; fffff731 <__bss_end+0xfffec5e5>
     698:	6e655f74 	mcrvs	15, 3, r5, cr5, cr4, {3}
     69c:	4c4c5000 	marmi	acc0, r5, ip
     6a0:	5f31435f 	svcpl	0x0031435f
     6a4:	5f4e5554 	svcpl	0x004e5554
     6a8:	5f474552 	svcpl	0x00474552
     6ac:	74610074 	strbtvc	r0, [r1], #-116	; 0x74
     6b0:	615f3162 	cmpvs	pc, r2, ror #2
     6b4:	635f6270 	cmpvs	pc, #7
     6b8:	645f6b6c 	ldrbvs	r6, [pc], #-2924	; 6c0 <__resume1_start+0x6c0>
     6bc:	61007669 	tstvs	r0, r9, ror #12
     6c0:	5f316978 	svcpl	0x00316978
     6c4:	5f6b6c63 	svcpl	0x006b6c63
     6c8:	5f766964 	svcpl	0x00766964
     6cc:	69746172 	ldmdbvs	r4!, {r1, r4, r5, r6, r8, sp, lr}^
     6d0:	6c50006f 	mrrcvs	0, 6, r0, r0, cr15	; <UNPREDICTABLE>
     6d4:	73495f6c 	movtvc	r5, #40812	; 0x9f6c
     6d8:	61505f70 	cmpvs	r0, r0, ror pc
     6dc:	66435f74 			; <UNDEFINED> instruction: 0x66435f74
     6e0:	74670067 	strbtvc	r0, [r7], #-103	; 0x67
     6e4:	5f6b6c63 	svcpl	0x006b6c63
     6e8:	5f6b6c63 	svcpl	0x006b6c63
     6ec:	5f766964 	svcpl	0x00766964
     6f0:	69746172 	ldmdbvs	r4!, {r1, r4, r5, r6, r8, sp, lr}^
     6f4:	6c50006f 	mrrcvs	0, 6, r0, r0, cr15	; <UNPREDICTABLE>
     6f8:	64445f6c 	strbvs	r5, [r4], #-3948	; 0xf6c
     6fc:	66435f72 			; <UNDEFINED> instruction: 0x66435f72
     700:	61640067 	cmnvs	r4, r7, rrx
     704:	77007263 	strvc	r7, [r0, -r3, ror #4]
     708:	5f657661 	svcpl	0x00657661
     70c:	70657473 	rsbvc	r7, r5, r3, ror r4
     710:	62706100 	rsbsvs	r6, r0, #0
     714:	6c635f30 	stclvs	15, cr5, [r3], #-192	; 0xffffff40
     718:	72735f6b 	rsbsvc	r5, r3, #428	; 0x1ac
     71c:	65735f63 	ldrbvs	r5, [r3, #-3939]!	; 0xf63
     720:	7261006c 	rsbvc	r0, r1, #108	; 0x6c
     724:	612f6863 	teqvs	pc, r3, ror #16
     728:	6d2f6d72 	stcvs	13, cr6, [pc, #-456]!	; 568 <__resume1_start+0x568>
     72c:	2d686361 	stclcs	3, cr6, [r8, #-388]!	; 0xfffffe7c
     730:	786e7573 	stmdavc	lr!, {r0, r1, r4, r5, r6, r8, sl, ip, sp, lr}^
     734:	6d702f69 	ldclvs	15, cr2, [r0, #-420]!	; 0xfffffe5c
     738:	6174732f 	cmnvs	r4, pc, lsr #6
     73c:	7962646e 	stmdbvc	r2!, {r1, r2, r3, r5, r6, sl, sp, lr}^
     740:	7075732f 	rsbsvc	r7, r5, pc, lsr #6
     744:	722f7265 	eorvc	r7, pc, #1342177286	; 0x50000006
     748:	6d757365 	ldclvs	3, cr7, [r5, #-404]!	; 0xfffffe6c
     74c:	65722f65 	ldrbvs	r2, [r2, #-3941]!	; 0xf65
     750:	656d7573 	strbvs	r7, [sp, #-1395]!	; 0x573
     754:	5f635f31 	svcpl	0x00635f31
     758:	74726170 	ldrbtvc	r6, [r2], #-368	; 0x170
     75c:	5000632e 	andpl	r6, r0, lr, lsr #6
     760:	54535f4d 	ldrbpl	r5, [r3], #-3917	; 0xf4d
     764:	42444e41 	submi	r4, r4, #1040	; 0x410
     768:	52505f59 	subspl	r5, r0, #356	; 0x164
     76c:	5f544e49 	svcpl	0x00544e49
     770:	55425447 	strbpl	r5, [r2, #-1095]	; 0x447
     774:	45525f53 	ldrbmi	r5, [r2, #-3923]	; 0xf53
     778:	6c430047 	mcrrvs	0, 4, r0, r3, cr7
     77c:	754f5f6b 	strbvc	r5, [pc, #-3947]	; fffff819 <__bss_end+0xfffec6cd>
     780:	50006174 	andpl	r6, r0, r4, ror r1
     784:	4c5f6c6c 	mrrcmi	12, 6, r6, pc, cr12	; <UNPREDICTABLE>
     788:	5f6b636f 	svcpl	0x006b636f
     78c:	5f676643 	svcpl	0x00676643
     790:	6c500031 	mrrcvs	0, 3, r0, r0, cr1	; <UNPREDICTABLE>
     794:	70475f6c 	subvc	r5, r7, ip, ror #30
     798:	61505f75 	cmpvs	r0, r5, ror pc
     79c:	66435f74 			; <UNDEFINED> instruction: 0x66435f74
     7a0:	4d500067 	ldclmi	0, cr0, [r0, #-412]	; 0xfffffe64
     7a4:	4154535f 	cmpmi	r4, pc, asr r3
     7a8:	5942444e 	stmdbpl	r2, {r1, r2, r3, r6, sl, lr}^
     7ac:	4952505f 	ldmdbmi	r2, {r0, r1, r2, r3, r4, r6, ip, lr}^
     7b0:	535f544e 	cmppl	pc, #1308622848	; 0x4e000000
     7b4:	444e4154 	strbmi	r4, [lr], #-340	; 0x154
     7b8:	67005942 	strvs	r5, [r0, -r2, asr #18]
     7bc:	6b6c6374 	blvs	1b19594 <__bss_end+0x1b06448>
     7c0:	6372735f 	cmnvs	r2, #2080374785	; 0x7c000001
     7c4:	6c65735f 	stclvs	3, cr7, [r5], #-380	; 0xfffffe84
     7c8:	6b6c6300 	blvs	1b193d0 <__bss_end+0x1b06284>
     7cc:	7461725f 	strbtvc	r7, [r1], #-607	; 0x25f
     7d0:	63006d5f 	movwvs	r6, #3423	; 0xd5f
     7d4:	725f6b6c 	subsvc	r6, pc, #110592	; 0x1b000
     7d8:	6e5f7461 	cdpvs	4, 5, cr7, cr15, cr1, {3}
     7dc:	4c4c5000 	marmi	acc0, r5, ip
     7e0:	5245505f 	subpl	r5, r5, #95	; 0x5f
     7e4:	32485049 	subcc	r5, r8, #73	; 0x49
     7e8:	4746435f 	smlsldmi	r4, r6, pc, r3	; <UNPREDICTABLE>
     7ec:	4745525f 	smlsldmi	r5, r5, pc, r2	; <UNPREDICTABLE>
     7f0:	7000745f 	andvc	r7, r0, pc, asr r4
     7f4:	6c5f6c6c 	mrrcvs	12, 6, r6, pc, cr12	; <UNPREDICTABLE>
     7f8:	5f6b636f 	svcpl	0x006b636f
     7fc:	656d6974 	strbvs	r6, [sp, #-2420]!	; 0x974
     800:	4c4c5000 	marmi	acc0, r5, ip
     804:	5053495f 	subspl	r4, r3, pc, asr r9
     808:	5441505f 	strbpl	r5, [r1], #-95	; 0x5f
     80c:	4746435f 	smlsldmi	r4, r6, pc, r3	; <UNPREDICTABLE>
     810:	4745525f 	smlsldmi	r5, r5, pc, r2	; <UNPREDICTABLE>
     814:	6100745f 	tstvs	r0, pc, asr r4
     818:	5f316270 	svcpl	0x00316270
     81c:	5f6b6c63 	svcpl	0x006b6c63
     820:	5f637273 	svcpl	0x00637273
     824:	006c6573 	rsbeq	r6, ip, r3, ror r5
     828:	31626841 	cmncc	r2, r1, asr #16
     82c:	6766435f 			; <UNDEFINED> instruction: 0x6766435f
     830:	72647300 	rsbvc	r7, r4, #0
     834:	5f6c6c70 	svcpl	0x006c6c70
     838:	00647075 	rsbeq	r7, r4, r5, ror r0
     83c:	63646364 	cmnvs	r4, #-1879048191	; 0x90000001
     840:	63640032 	cmnvs	r4, #50	; 0x32
     844:	00336364 	eorseq	r6, r3, r4, ror #6
     848:	5f6c6c50 	svcpl	0x006c6c50
     84c:	69726550 	ldmdbvs	r2!, {r4, r6, r8, sl, sp, lr}^
     850:	5f316870 	svcpl	0x00316870
     854:	00676643 	rsbeq	r6, r7, r3, asr #12
     858:	5f6b6c63 	svcpl	0x006b6c63
     85c:	6373696d 	cmnvs	r3, #1785856	; 0x1b4000
     860:	5f4d5000 	svcpl	0x004d5000
     864:	4e415453 	mcrmi	4, 2, r5, cr1, cr3, {2}
     868:	5f594244 	svcpl	0x00594244
     86c:	4e495250 	mcrmi	2, 2, r5, cr9, cr0, {2}
     870:	45525f54 	ldrbmi	r5, [r2, #-3924]	; 0xf54
     874:	454d5553 	strbmi	r5, [sp, #-1363]	; 0x553
     878:	6c6c5000 	stclvs	0, cr5, [ip], #-0
     87c:	5f65445f 	svcpl	0x0065445f
     880:	5f746150 	svcpl	0x00746150
     884:	00676643 	rsbeq	r6, r7, r3, asr #12
     888:	5f6c6c50 	svcpl	0x006c6c50
     88c:	435f3043 	cmpmi	pc, #67	; 0x43
     890:	50006766 	andpl	r6, r0, r6, ror #14
     894:	565f4c4c 	ldrbpl	r4, [pc], -ip, asr #24
     898:	4f454449 	svcmi	0x00454449
     89c:	46435f32 			; <UNDEFINED> instruction: 0x46435f32
     8a0:	45525f47 	ldrbmi	r5, [r2, #-3911]	; 0xf47
     8a4:	00745f47 	rsbseq	r5, r4, r7, asr #30
     8a8:	33755f5f 	cmncc	r5, #380	; 0x17c
     8ac:	78610032 	stmdavc	r1!, {r1, r4, r5}^
     8b0:	635f3069 	cmpvs	pc, #105	; 0x69
     8b4:	645f6b6c 	ldrbvs	r6, [pc], #-2924	; 8bc <__resume1_start+0x8bc>
     8b8:	725f7669 	subsvc	r7, pc, #110100480	; 0x6900000
     8bc:	6f697461 	svcvs	0x00697461
     8c0:	6c6c5000 	stclvs	0, cr5, [ip], #-0
     8c4:	7570475f 	ldrbvc	r4, [r0, #-1887]!	; 0x75f
     8c8:	6766435f 			; <UNDEFINED> instruction: 0x6766435f
     8cc:	4c4c5000 	marmi	acc0, r5, ip
     8d0:	5f30435f 	svcpl	0x0030435f
     8d4:	5f4e5554 	svcpl	0x004e5554
     8d8:	5f474552 	svcpl	0x00474552
     8dc:	6c500074 	mrrcvs	0, 7, r0, r0, cr4	; <UNPREDICTABLE>
     8e0:	65565f6c 	ldrbvs	r5, [r6, #-3948]	; 0xf6c
     8e4:	6766435f 			; <UNDEFINED> instruction: 0x6766435f
     8e8:	6c6c5000 	stclvs	0, cr5, [ip], #-0
     8ec:	7265505f 	rsbvc	r5, r5, #95	; 0x5f
     8f0:	32687069 	rsbcc	r7, r8, #105	; 0x69
     8f4:	6169425f 	cmnvs	r9, pc, asr r2
     8f8:	4c500073 	mrrcmi	0, 7, r0, r0, cr3	; <UNPREDICTABLE>
     8fc:	45445f4c 	strbmi	r5, [r4, #-3916]	; 0xf4c
     900:	5441505f 	strbpl	r5, [r1], #-95	; 0x5f
     904:	4746435f 	smlsldmi	r4, r6, pc, r3	; <UNPREDICTABLE>
     908:	4745525f 	smlsldmi	r5, r5, pc, r2	; <UNPREDICTABLE>
     90c:	5000745f 	andpl	r7, r0, pc, asr r4
     910:	565f4c4c 	ldrbpl	r4, [pc], -ip, asr #24
     914:	4f454449 	svcmi	0x00454449
     918:	49425f32 	stmdbmi	r2, {r1, r4, r5, r8, r9, sl, fp, ip, lr}^
     91c:	525f5341 	subspl	r5, pc, #67108865	; 0x4000001
     920:	745f4745 	ldrbvc	r4, [pc], #-1861	; 928 <__resume1_start+0x928>
     924:	74696200 	strbtvc	r6, [r9], #-512	; 0x200
     928:	50410073 	subpl	r0, r1, r3, ror r0
     92c:	435f3142 	cmpmi	pc, #-2147483632	; 0x80000010
     930:	525f4746 	subspl	r4, pc, #18350080	; 0x1180000
     934:	745f4745 	ldrbvc	r4, [pc], #-1861	; 93c <__resume1_start+0x93c>
     938:	4c4c5000 	marmi	acc0, r5, ip
     93c:	5245505f 	subpl	r5, r5, #95	; 0x5f
     940:	32485049 	subcc	r5, r8, #73	; 0x49
     944:	5441505f 	strbpl	r5, [r1], #-95	; 0x5f
     948:	4746435f 	smlsldmi	r4, r6, pc, r3	; <UNPREDICTABLE>
     94c:	4745525f 	smlsldmi	r5, r5, pc, r2	; <UNPREDICTABLE>
     950:	4100745f 	tstmi	r0, pc, asr r4
     954:	435f7374 	cmpmi	pc, #-805306367	; 0xd0000001
     958:	50006b6c 	andpl	r6, r0, ip, ror #22
     95c:	445f4c4c 	ldrbmi	r4, [pc], #-3148	; 964 <__resume1_start+0x964>
     960:	505f5244 	subspl	r5, pc, r4, asr #4
     964:	435f5441 	cmpmi	pc, #1090519040	; 0x41000000
     968:	525f4746 	subspl	r4, pc, #18350080	; 0x1180000
     96c:	745f4745 	ldrbvc	r4, [pc], #-1861	; 974 <__resume1_start+0x974>
     970:	6c6c5000 	stclvs	0, cr5, [ip], #-0
     974:	7073495f 	rsbsvc	r4, r3, pc, asr r9
     978:	6766435f 			; <UNDEFINED> instruction: 0x6766435f
     97c:	4c4c5000 	marmi	acc0, r5, ip
     980:	434f4c5f 	movtmi	r4, #64607	; 0xfc5f
     984:	46435f4b 	strbmi	r5, [r3], -fp, asr #30
     988:	45525f47 	ldrbmi	r5, [r2, #-3911]	; 0xf47
     98c:	745f3147 	ldrbvc	r3, [pc], #-327	; 994 <__resume1_start+0x994>
     990:	73657200 	cmnvc	r5, #0
     994:	5f656d75 	svcpl	0x00656d75
     998:	6e696f70 	mcrvs	15, 3, r6, cr9, cr0, {3}
     99c:	00726574 	rsbseq	r6, r2, r4, ror r5
     9a0:	5f6c6c50 	svcpl	0x006c6c50
     9a4:	65646956 	strbvs	r6, [r4, #-2390]!	; 0x956
     9a8:	505f326f 	subspl	r3, pc, pc, ror #4
     9ac:	435f7461 	cmpmi	pc, #1627389952	; 0x61000000
     9b0:	41006766 	tstmi	r0, r6, ror #14
     9b4:	5f304958 	svcpl	0x00304958
     9b8:	5f474643 	svcpl	0x00474643
     9bc:	5f474552 	svcpl	0x00474552
     9c0:	4c500074 	mrrcmi	0, 7, r0, r0, cr4	; <UNPREDICTABLE>
     9c4:	55415f4c 	strbpl	r5, [r1, #-3916]	; 0xf4c
     9c8:	5f4f4944 	svcpl	0x004f4944
     9cc:	5f474643 	svcpl	0x00474643
     9d0:	5f474552 	svcpl	0x00474552
     9d4:	5f630074 	svcpl	0x00630074
     9d8:	6e695f62 	cdpvs	15, 6, cr5, cr9, cr2, {3}
     9dc:	5f4d5000 	svcpl	0x004d5000
     9e0:	4e415453 	mcrmi	4, 2, r5, cr1, cr3, {2}
     9e4:	5f594244 	svcpl	0x00594244
     9e8:	4e495250 	mcrmi	2, 2, r5, cr9, cr0, {2}
     9ec:	41435f54 	cmpmi	r3, r4, asr pc
     9f0:	5f454843 	svcpl	0x00454843
     9f4:	5f424c54 	svcpl	0x00424c54
     9f8:	5353494d 	cmppl	r3, #1261568	; 0x134000
     9fc:	6c6c5000 	stclvs	0, cr5, [ip], #-0
     a00:	6465565f 	strbtvs	r5, [r5], #-1631	; 0x65f
     a04:	5f316f69 	svcpl	0x00316f69
     a08:	73616942 	cmnvc	r1, #1081344	; 0x108000
     a0c:	42484100 	submi	r4, r8, #0
     a10:	46435f31 			; <UNDEFINED> instruction: 0x46435f31
     a14:	45525f47 	ldrbmi	r5, [r2, #-3911]	; 0xf47
     a18:	00745f47 	rsbseq	r5, r4, r7, asr #30
     a1c:	5f757063 	svcpl	0x00757063
     a20:	50006469 	andpl	r6, r0, r9, ror #8
     a24:	505f6c6c 	subspl	r6, pc, ip, ror #24
     a28:	70697265 	rsbvc	r7, r9, r5, ror #4
     a2c:	505f3168 	subspl	r3, pc, r8, ror #2
     a30:	435f7461 	cmpmi	pc, #1627389952	; 0x61000000
     a34:	50006766 	andpl	r6, r0, r6, ror #14
     a38:	565f4c4c 	ldrbpl	r4, [pc], -ip, asr #24
     a3c:	49425f45 	stmdbmi	r2, {r0, r2, r6, r8, r9, sl, fp, ip, lr}^
     a40:	525f5341 	subspl	r5, pc, #67108865	; 0x4000001
     a44:	745f4745 	ldrbvc	r4, [pc], #-1861	; a4c <__resume1_start+0xa4c>
     a48:	75706300 	ldrbvc	r6, [r0, #-768]!	; 0x300
     a4c:	65725f32 	ldrbvs	r5, [r2, #-3890]!	; 0xf32
     a50:	00746573 	rsbseq	r6, r4, r3, ror r5
     a54:	5f6c6c50 	svcpl	0x006c6c50
     a58:	69647541 	stmdbvs	r4!, {r0, r6, r8, sl, ip, sp, lr}^
     a5c:	66435f6f 	strbvs	r5, [r3], -pc, ror #30
     a60:	70730067 	rsbsvc	r0, r3, r7, rrx
     a64:	6361625f 	cmnvs	r1, #-268435451	; 0xf0000005
     a68:	0070756b 	rsbseq	r7, r0, fp, ror #10
     a6c:	5f757043 	svcpl	0x00757043
     a70:	5f6b6c43 	svcpl	0x006b6c43
     a74:	00637253 	rsbeq	r7, r3, r3, asr r2
     a78:	65736572 	ldrbvs	r6, [r3, #-1394]!	; 0x572
     a7c:	64657672 	strbtvs	r7, [r5], #-1650	; 0x672
     a80:	4c500035 	mrrcmi	0, 3, r0, r0, cr5	; <UNPREDICTABLE>
     a84:	45505f4c 	ldrbmi	r5, [r0, #-3916]	; 0xf4c
     a88:	48504952 	ldmdami	r0, {r1, r4, r6, r8, fp, lr}^
     a8c:	49425f31 	stmdbmi	r2, {r0, r4, r5, r8, r9, sl, fp, ip, lr}^
     a90:	525f5341 	subspl	r5, pc, #67108865	; 0x4000001
     a94:	745f4745 	ldrbvc	r4, [pc], #-1861	; a9c <__resume1_start+0xa9c>
     a98:	62686100 	rsbvs	r6, r8, #0
     a9c:	6c635f32 	stclvs	15, cr5, [r3], #-200	; 0xffffff38
     aa0:	69645f6b 	stmdbvs	r4!, {r0, r1, r3, r5, r6, r8, r9, sl, fp, ip, lr}^
     aa4:	61725f76 	cmnvs	r2, r6, ror pc
     aa8:	006f6974 	rsbeq	r6, pc, r4, ror r9	; <UNPREDICTABLE>
     aac:	5f6c6c50 	svcpl	0x006c6c50
     ab0:	435f6544 	cmpmi	pc, #285212672	; 0x11000000
     ab4:	50006766 	andpl	r6, r0, r6, ror #14
     ab8:	505f4c4c 	subspl	r4, pc, ip, asr #24
     abc:	50495245 	subpl	r5, r9, r5, asr #4
     ac0:	505f3148 	subspl	r3, pc, r8, asr #2
     ac4:	435f5441 	cmpmi	pc, #1090519040	; 0x41000000
     ac8:	525f4746 	subspl	r4, pc, #18350080	; 0x1180000
     acc:	745f4745 	ldrbvc	r4, [pc], #-1861	; ad4 <__resume1_start+0xad4>
     ad0:	4c4c5000 	marmi	acc0, r5, ip
     ad4:	4455415f 	ldrbmi	r4, [r5], #-351	; 0x15f
     ad8:	425f4f49 	subsmi	r4, pc, #292	; 0x124
     adc:	5f534149 	svcpl	0x00534149
     ae0:	5f474552 	svcpl	0x00474552
     ae4:	68610074 	stmdavs	r1!, {r2, r4, r5, r6}^
     ae8:	635f3162 	cmpvs	pc, #-2147483624	; 0x80000018
     aec:	645f6b6c 	ldrbvs	r6, [pc], #-2924	; af4 <__resume1_start+0xaf4>
     af0:	725f7669 	subsvc	r7, pc, #110100480	; 0x6900000
     af4:	6f697461 	svcvs	0x00697461
     af8:	70786100 	rsbsvc	r6, r8, r0, lsl #2
     afc:	6576655f 	ldrbvs	r6, [r6, #-1375]!	; 0x55f
     b00:	5000746e 	andpl	r7, r0, lr, ror #8
     b04:	435f6c6c 	cmpmi	pc, #27648	; 0x6c00
     b08:	69425f30 	stmdbvs	r2, {r4, r5, r8, r9, sl, fp, ip, lr}^
     b0c:	41007361 	tstmi	r0, r1, ror #6
     b10:	5f304250 	svcpl	0x00304250
     b14:	5f474643 	svcpl	0x00474643
     b18:	5f474552 	svcpl	0x00474552
     b1c:	6c500074 	mrrcvs	0, 7, r0, r0, cr4	; <UNPREDICTABLE>
     b20:	65565f6c 	ldrbvs	r5, [r6, #-3948]	; 0xf6c
     b24:	7461505f 	strbtvc	r5, [r1], #-95	; 0x5f
     b28:	6766435f 			; <UNDEFINED> instruction: 0x6766435f
     b2c:	75706300 	ldrbvc	r6, [r0, #-768]!	; 0x300
     b30:	5f30635f 	svcpl	0x0030635f
     b34:	5f6b6c63 	svcpl	0x006b6c63
     b38:	5f637273 	svcpl	0x00637273
     b3c:	006c6573 	rsbeq	r6, ip, r3, ror r5
     b40:	5f4c4c50 	svcpl	0x004c4c50
     b44:	49524550 	ldmdbmi	r2, {r4, r6, r8, sl, lr}^
     b48:	5f314850 	svcpl	0x00314850
     b4c:	5f474643 	svcpl	0x00474643
     b50:	5f474552 	svcpl	0x00474552
     b54:	52540074 	subspl	r0, r4, #116	; 0x74
     b58:	5f454341 	svcpl	0x00454341
     b5c:	5f4b4c43 	svcpl	0x004b4c43
     b60:	5f474552 	svcpl	0x00474552
     b64:	63730074 	cmnvs	r3, #116	; 0x74
     b68:	675f6b6c 	ldrbvs	r6, [pc, -ip, ror #22]
     b6c:	6e697461 	cdpvs	4, 6, cr7, cr9, cr1, {3}
     b70:	5f630067 	svcpl	0x00630067
     b74:	756f5f62 	strbvc	r5, [pc, #-3938]!	; fffffc1a <__bss_end+0xfffecace>
     b78:	4c500074 	mrrcmi	0, 7, r0, r0, cr4	; <UNPREDICTABLE>
     b7c:	45445f4c 	strbmi	r5, [r4, #-3916]	; 0xf4c
     b80:	4149425f 	cmpmi	r9, pc, asr r2
     b84:	45525f53 	ldrbmi	r5, [r2, #-3923]	; 0xf53
     b88:	00745f47 	rsbseq	r5, r4, r7, asr #30
     b8c:	5f6c6c50 	svcpl	0x006c6c50
     b90:	69647541 	stmdbvs	r4!, {r0, r6, r8, sl, ip, sp, lr}^
     b94:	61505f6f 	cmpvs	r0, pc, ror #30
     b98:	66435f74 			; <UNDEFINED> instruction: 0x66435f74
     b9c:	4c430067 	mcrrmi	0, 6, r0, r3, cr7
     ba0:	554f5f4b 	strbpl	r5, [pc, #-3915]	; fffffc5d <__bss_end+0xfffecb11>
     ba4:	525f4154 	subspl	r4, pc, #21
     ba8:	745f4745 	ldrbvc	r4, [pc], #-1861	; bb0 <__resume1_start+0xbb0>
     bac:	6b6c6300 	blvs	1b197b4 <__bss_end+0x1b06668>
     bb0:	7669645f 			; <UNDEFINED> instruction: 0x7669645f
     bb4:	6300745f 	movwvs	r7, #1119	; 0x45f
     bb8:	6d5f6b6c 	vldrvs	d22, [pc, #-432]	; a10 <__resume1_start+0xa10>
     bbc:	5f637369 	svcpl	0x00637369
     bc0:	4c500074 	mrrcmi	0, 7, r0, r0, cr4	; <UNPREDICTABLE>
     bc4:	49565f4c 	ldmdbmi	r6, {r2, r3, r6, r8, r9, sl, fp, ip, lr}^
     bc8:	314f4544 	cmpcc	pc, r4, asr #10
     bcc:	4746435f 	smlsldmi	r4, r6, pc, r3	; <UNPREDICTABLE>
     bd0:	4745525f 	smlsldmi	r5, r5, pc, r2	; <UNPREDICTABLE>
     bd4:	7600745f 			; <UNDEFINED> instruction: 0x7600745f
     bd8:	725f6f63 	subsvc	r6, pc, #396	; 0x18c
     bdc:	635f676e 	cmpvs	pc, #28835840	; 0x1b80000
     be0:	006c7274 	rsbeq	r7, ip, r4, ror r2
     be4:	30424841 	subcc	r4, r2, r1, asr #16
     be8:	4746435f 	smlsldmi	r4, r6, pc, r3	; <UNPREDICTABLE>
     bec:	4745525f 	smlsldmi	r5, r5, pc, r2	; <UNPREDICTABLE>
     bf0:	6300745f 	movwvs	r7, #1119	; 0x45f
     bf4:	30346963 	eorscc	r6, r4, r3, ror #18
     bf8:	6c635f30 	stclvs	15, cr5, [r3], #-192	; 0xffffff40
     bfc:	72735f6b 	rsbsvc	r5, r3, #428	; 0x1ac
     c00:	65735f63 	ldrbvs	r5, [r3, #-3939]!	; 0xf63
     c04:	7447006c 	strbvc	r0, [r7], #-108	; 0x6c
     c08:	5f6b6c63 	svcpl	0x006b6c63
     c0c:	00676643 	rsbeq	r6, r7, r3, asr #12
     c10:	5f4c4c50 	svcpl	0x004c4c50
     c14:	5f505349 	svcpl	0x00505349
     c18:	53414942 	movtpl	r4, #6466	; 0x1942
     c1c:	4745525f 	smlsldmi	r5, r5, pc, r2	; <UNPREDICTABLE>
     c20:	6100745f 	tstvs	r0, pc, asr r4
     c24:	5f306268 	svcpl	0x00306268
     c28:	5f6b6c63 	svcpl	0x006b6c63
     c2c:	5f766964 	svcpl	0x00766964
     c30:	69746172 	ldmdbvs	r4!, {r1, r4, r5, r6, r8, sp, lr}^
     c34:	7061006f 	rsbvc	r0, r1, pc, rrx
     c38:	635f3062 	cmpvs	pc, #98	; 0x62
     c3c:	645f6b6c 	ldrbvs	r6, [pc], #-2924	; c44 <__resume1_start+0xc44>
     c40:	725f7669 	subsvc	r7, pc, #110100480	; 0x6900000
     c44:	6f697461 	svcvs	0x00697461
     c48:	69784100 	ldmdbvs	r8!, {r8, lr}^
     c4c:	66435f31 			; <UNDEFINED> instruction: 0x66435f31
     c50:	65720067 	ldrbvs	r0, [r2, #-103]!	; 0x67
     c54:	76726573 			; <UNDEFINED> instruction: 0x76726573
     c58:	00306465 	eorseq	r6, r0, r5, ror #8
     c5c:	646f5f63 	strbtvs	r5, [pc], #-3939	; c64 <__resume1_start+0xc64>
     c60:	73657200 	cmnvc	r5, #0
     c64:	65767265 	ldrbvs	r7, [r6, #-613]!	; 0x265
     c68:	72003264 	andvc	r3, r0, #1073741830	; 0x40000006
     c6c:	72657365 	rsbvc	r7, r5, #-1811939327	; 0x94000001
     c70:	33646576 	cmncc	r4, #494927872	; 0x1d800000
     c74:	6c6c5000 	stclvs	0, cr5, [ip], #-0
     c78:	636f4c5f 	cmnvs	pc, #24320	; 0x5f00
     c7c:	66435f6b 	strbvs	r5, [r3], -fp, ror #30
     c80:	6c700067 	ldclvs	0, cr0, [r0], #-412	; 0xfffffe64
     c84:	756f5f6c 	strbvc	r5, [pc, #-3948]!	; fffffd20 <__bss_end+0xfffecbd4>
     c88:	78655f74 	stmdavc	r5!, {r2, r4, r5, r6, r8, r9, sl, fp, ip, lr}^
     c8c:	69645f74 	stmdbvs	r4!, {r2, r4, r5, r6, r8, r9, sl, fp, ip, lr}^
     c90:	72007076 	andvc	r7, r0, #118	; 0x76
     c94:	72657365 	rsbvc	r7, r5, #-1811939327	; 0x94000001
     c98:	36646576 			; <UNDEFINED> instruction: 0x36646576
     c9c:	73657200 	cmnvc	r5, #0
     ca0:	65767265 	ldrbvs	r7, [r6, #-613]!	; 0x265
     ca4:	63003764 	movwvs	r3, #1892	; 0x764
     ca8:	00726361 	rsbseq	r6, r2, r1, ror #6
     cac:	5f727770 	svcpl	0x00727770
     cb0:	00676572 	rsbeq	r6, r7, r2, ror r5
     cb4:	5f61766d 	svcpl	0x0061766d
     cb8:	72646461 	rsbvc	r6, r4, #1627389952	; 0x61000000
     cbc:	6c6c5000 	stclvs	0, cr5, [ip], #-0
     cc0:	7570475f 	ldrbvc	r4, [r0, #-1887]!	; 0x75f
     cc4:	6169425f 	cmnvs	r9, pc, asr r2
     cc8:	4d500073 	ldclmi	0, cr0, [r0, #-460]	; 0xfffffe34
     ccc:	4154535f 	cmpmi	r4, pc, asr r3
     cd0:	5942444e 	stmdbpl	r2, {r1, r2, r3, r6, sl, lr}^
     cd4:	4952505f 	ldmdbmi	r2, {r0, r1, r2, r3, r4, r6, ip, lr}^
     cd8:	435f544e 	cmpmi	pc, #1308622848	; 0x4e000000
     cdc:	30344943 	eorscc	r4, r4, r3, asr #18
     ce0:	45525f30 	ldrbmi	r5, [r2, #-3888]	; 0xf30
     ce4:	5f5f0047 	svcpl	0x005f0047
     ce8:	70003875 	andvc	r3, r0, r5, ror r8
     cec:	645f6c6c 	ldrbvs	r6, [pc], #-3180	; cf4 <__resume1_start+0xcf4>
     cf0:	00317669 	eorseq	r7, r1, r9, ror #12
     cf4:	5f6c6c70 	svcpl	0x006c6c70
     cf8:	32766964 	rsbscc	r6, r6, #1638400	; 0x190000
     cfc:	4c4c5000 	marmi	acc0, r5, ip
     d00:	5f30435f 	svcpl	0x0030435f
     d04:	53414942 	movtpl	r4, #6466	; 0x1942
     d08:	4745525f 	smlsldmi	r5, r5, pc, r2	; <UNPREDICTABLE>
     d0c:	7000745f 	andvc	r7, r0, pc, asr r4
     d10:	655f6c6c 	ldrbvs	r6, [pc, #-3180]	; ac <__resume1_start+0xac>
     d14:	6c62616e 	stfvse	f6, [r2], #-440	; 0xfffffe48
     d18:	74740065 	ldrbtvc	r0, [r4], #-101	; 0x65
     d1c:	72305f62 	eorsvc	r5, r0, #392	; 0x188
     d20:	49584100 	ldmdbmi	r8, {r8, lr}^
     d24:	46435f31 			; <UNDEFINED> instruction: 0x46435f31
     d28:	45525f47 	ldrbmi	r5, [r2, #-3911]	; 0xf47
     d2c:	00745f47 	rsbseq	r5, r4, r7, asr #30
     d30:	63627474 	cmnvs	r2, #1946157056	; 0x74000000
     d34:	6d430072 	stclvs	0, cr0, [r3, #-456]	; 0xfffffe38
     d38:	67655275 			; <UNDEFINED> instruction: 0x67655275
     d3c:	5f4d5000 	svcpl	0x004d5000
     d40:	4e415453 	mcrmi	4, 2, r5, cr1, cr3, {2}
     d44:	5f594244 	svcpl	0x00594244
     d48:	54534554 	ldrbpl	r4, [r3], #-1364	; 0x554
     d4c:	6c6c5000 	stclvs	0, cr5, [ip], #-0
     d50:	6469565f 	strbtvs	r5, [r9], #-1631	; 0x65f
     d54:	5f326f65 	svcpl	0x00326f65
     d58:	00676643 	rsbeq	r6, r7, r3, asr #12
     d5c:	5f6c6c50 	svcpl	0x006c6c50
     d60:	545f3143 	ldrbpl	r3, [pc], #-323	; d68 <__resume1_start+0xd68>
     d64:	63006e75 	movwvs	r6, #3701	; 0xe75
     d68:	6f5f6b6c 	svcvs	0x005f6b6c
     d6c:	735f7475 	cmpvc	pc, #1962934272	; 0x75000000
     d70:	735f6372 	cmpvc	pc, #-939524095	; 0xc8000001
     d74:	50006c65 	andpl	r6, r0, r5, ror #24
     d78:	505f6c6c 	subspl	r6, pc, ip, ror #24
     d7c:	70697265 	rsbvc	r7, r9, r5, ror #4
     d80:	425f3168 	subsmi	r3, pc, #26
     d84:	00736169 	rsbseq	r6, r3, r9, ror #2
     d88:	32626861 	rsbcc	r6, r2, #6356992	; 0x610000
     d8c:	6b6c635f 	blvs	1b19b10 <__bss_end+0x1b069c4>
     d90:	6372735f 	cmnvs	r2, #2080374785	; 0x7c000001
     d94:	6c65735f 	stclvs	3, cr7, [r5], #-380	; 0xfffffe84
     d98:	72726e00 	rsbsvc	r6, r2, #0
     d9c:	6c700072 	ldclvs	0, cr0, [r0], #-456	; 0xfffffe38
     da0:	61665f6c 	cmnvs	r6, ip, ror #30
     da4:	726f7463 	rsbvc	r7, pc, #1660944384	; 0x63000000
     da8:	74006e5f 	strvc	r6, [r0], #-3679	; 0xe5f
     dac:	7450706d 	ldrbvc	r7, [r0], #-109	; 0x6d
     db0:	68410072 	stmdavs	r1, {r1, r4, r5, r6}^
     db4:	435f3062 	cmpmi	pc, #98	; 0x62
     db8:	6d006766 	stcvs	7, cr6, [r0, #-408]	; 0xfffffe68
     dbc:	705f6d65 	subsvc	r6, pc, r5, ror #26
     dc0:	5f617261 	svcpl	0x00617261
     dc4:	6f666e69 	svcvs	0x00666e69
     dc8:	635f5f00 	cmpvs	pc, #0
     dcc:	5f756d63 	svcpl	0x00756d63
     dd0:	5f676572 	svcpl	0x00676572
     dd4:	7473696c 	ldrbtvc	r6, [r3], #-2412	; 0x96c
     dd8:	4300745f 	movwmi	r7, #1119	; 0x45f
     ddc:	30344943 	eorscc	r4, r4, r3, asr #18
     de0:	46435f30 			; <UNDEFINED> instruction: 0x46435f30
     de4:	45525f47 	ldrbmi	r5, [r2, #-3911]	; 0xf47
     de8:	00745f47 	rsbseq	r5, r4, r7, asr #30
     dec:	5f737973 	svcpl	0x00737973
     df0:	6e657665 	cdpvs	6, 6, cr7, cr5, cr5, {3}
     df4:	6c500074 	mrrcvs	0, 7, r0, r0, cr4	; <UNPREDICTABLE>
     df8:	65505f6c 	ldrbvs	r5, [r0, #-3948]	; 0xf6c
     dfc:	68706972 	ldmdavs	r0!, {r1, r4, r5, r6, r8, fp, sp, lr}^
     e00:	61505f32 	cmpvs	r0, r2, lsr pc
     e04:	66435f74 			; <UNDEFINED> instruction: 0x66435f74
     e08:	4c500067 	mrrcmi	0, 6, r0, r0, cr7	; <UNPREDICTABLE>
     e0c:	45565f4c 	ldrbmi	r5, [r6, #-3916]	; 0xf4c
     e10:	5441505f 	strbpl	r5, [r1], #-95	; 0x5f
     e14:	4746435f 	smlsldmi	r4, r6, pc, r3	; <UNPREDICTABLE>
     e18:	4745525f 	smlsldmi	r5, r5, pc, r2	; <UNPREDICTABLE>
     e1c:	7400745f 	strvc	r7, [r0], #-1119	; 0x45f
     e20:	315f6274 	cmpcc	pc, r4, ror r2	; <UNPREDICTABLE>
     e24:	68610072 	stmdavs	r1!, {r1, r4, r5, r6}^
     e28:	635f3062 	cmpvs	pc, #98	; 0x62
     e2c:	735f6b6c 	cmpvc	pc, #110592	; 0x1b000
     e30:	735f6372 	cmpvc	pc, #-939524095	; 0xc8000001
     e34:	50006c65 	andpl	r6, r0, r5, ror #24
     e38:	415f6c6c 	cmpmi	pc, ip, ror #24
     e3c:	6f696475 	svcvs	0x00696475
     e40:	6169425f 	cmnvs	r9, pc, asr r2
     e44:	65720073 	ldrbvs	r0, [r2, #-115]!	; 0x73
     e48:	72003073 	andvc	r3, r0, #115	; 0x73
     e4c:	00317365 	eorseq	r7, r1, r5, ror #6
     e50:	32736572 	rsbscc	r6, r3, #478150656	; 0x1c800000
     e54:	73657200 	cmnvc	r5, #0
     e58:	5f630033 	svcpl	0x00630033
     e5c:	0031646f 	eorseq	r6, r1, pc, ror #8
     e60:	5f746e63 	svcpl	0x00746e63
     e64:	5f746e69 	svcpl	0x00746e69
     e68:	6c727463 	cfldrdvs	mvd7, [r2], #-396	; 0xfffffe74
     e6c:	5f4d5000 	svcpl	0x004d5000
     e70:	4e415453 	mcrmi	4, 2, r5, cr1, cr3, {2}
     e74:	5f594244 	svcpl	0x00594244
     e78:	42414e45 	submi	r4, r1, #1104	; 0x450
     e7c:	4a5f454c 	bmi	17d23b4 <__bss_end+0x17bf268>
     e80:	00474154 	subeq	r4, r7, r4, asr r1
     e84:	5f4c4c50 	svcpl	0x004c4c50
     e88:	4b434f4c 	blmi	10d4bc0 <__bss_end+0x10c1a74>
     e8c:	4154535f 	cmpmi	r4, pc, asr r3
     e90:	5f535554 	svcpl	0x00535554
     e94:	5f474552 	svcpl	0x00474552
     e98:	4c500074 	mrrcmi	0, 7, r0, r0, cr4	; <UNPREDICTABLE>
     e9c:	45505f4c 	ldrbmi	r5, [r0, #-3916]	; 0xf4c
     ea0:	48504952 	ldmdami	r0, {r1, r4, r6, r8, fp, lr}^
     ea4:	49425f32 	stmdbmi	r2, {r1, r4, r5, r8, r9, sl, fp, ip, lr}^
     ea8:	525f5341 	subspl	r5, pc, #67108865	; 0x4000001
     eac:	745f4745 	ldrbvc	r4, [pc], #-1861	; eb4 <__resume1_start+0xeb4>
     eb0:	61725400 	cmnvs	r2, r0, lsl #8
     eb4:	435f6563 	cmpmi	pc, #415236096	; 0x18c00000
     eb8:	70006b6c 	andvc	r6, r0, ip, ror #22
     ebc:	625f6c6c 	subsvs	r6, pc, #27648	; 0x6c00
     ec0:	5f736169 	svcpl	0x00736169
     ec4:	6c727463 	cfldrdvs	mvd7, [r2], #-396	; 0xfffffe74
     ec8:	4c4c5000 	marmi	acc0, r5, ip
     ecc:	5550475f 	ldrbpl	r4, [r0, #-1887]	; 0x75f
     ed0:	5441505f 	strbpl	r5, [r1], #-95	; 0x5f
     ed4:	4746435f 	smlsldmi	r4, r6, pc, r3	; <UNPREDICTABLE>
     ed8:	4745525f 	smlsldmi	r5, r5, pc, r2	; <UNPREDICTABLE>
     edc:	5000745f 	andpl	r7, r0, pc, asr r4
     ee0:	445f4c4c 	ldrbmi	r4, [pc], #-3148	; ee8 <__resume1_start+0xee8>
     ee4:	46435f45 	strbmi	r5, [r3], -r5, asr #30
     ee8:	45525f47 	ldrbmi	r5, [r2, #-3911]	; 0xf47
     eec:	00745f47 	rsbseq	r5, r4, r7, asr #30
     ef0:	72737363 	rsbsvc	r7, r3, #-1946157055	; 0x8c000001
     ef4:	5f4d5000 	svcpl	0x004d5000
     ef8:	4e415453 	mcrmi	4, 2, r5, cr1, cr3, {2}
     efc:	5f594244 	svcpl	0x00594244
     f00:	4e495250 	mcrmi	2, 2, r5, cr9, cr0, {2}
     f04:	50435f54 	subpl	r5, r3, r4, asr pc
     f08:	495f5355 	ldmdbmi	pc, {r0, r2, r4, r6, r8, r9, ip, lr}^	; <UNPREDICTABLE>
     f0c:	54535f4f 	ldrbpl	r5, [r3], #-3919	; 0xf4f
     f10:	53555441 	cmppl	r5, #1090519040	; 0x41000000
     f14:	435f5f00 	cmpmi	pc, #0
     f18:	5f554d43 	svcpl	0x00554d43
     f1c:	5f474552 	svcpl	0x00474552
     f20:	5453494c 	ldrbpl	r4, [r3], #-2380	; 0x94c
     f24:	4c4c5000 	marmi	acc0, r5, ip
     f28:	5053495f 	subspl	r4, r3, pc, asr r9
     f2c:	4746435f 	smlsldmi	r4, r6, pc, r3	; <UNPREDICTABLE>
     f30:	4745525f 	smlsldmi	r5, r5, pc, r2	; <UNPREDICTABLE>
     f34:	5000745f 	andpl	r7, r0, pc, asr r4
     f38:	475f4c4c 	ldrbmi	r4, [pc, -ip, asr #24]
     f3c:	425f5550 	subsmi	r5, pc, #335544320	; 0x14000000
     f40:	5f534149 	svcpl	0x00534149
     f44:	5f474552 	svcpl	0x00474552
     f48:	70410074 	subvc	r0, r1, r4, ror r0
     f4c:	435f3162 	cmpmi	pc, #-2147483624	; 0x80000018
     f50:	50006766 	andpl	r6, r0, r6, ror #14
     f54:	495f6c6c 	ldmdbmi	pc, {r2, r3, r5, r6, sl, fp, sp, lr}^	; <UNPREDICTABLE>
     f58:	425f7073 	subsmi	r7, pc, #115	; 0x73
     f5c:	00736169 	rsbseq	r6, r3, r9, ror #2
     f60:	5f4c4c50 	svcpl	0x004c4c50
     f64:	5f524444 	svcpl	0x00524444
     f68:	5f474643 	svcpl	0x00474643
     f6c:	5f474552 	svcpl	0x00474552
     f70:	77610074 			; <UNDEFINED> instruction: 0x77610074
     f74:	6d656d5f 	stclvs	13, cr6, [r5, #-380]!	; 0xfffffe84
     f78:	7261705f 	rsbvc	r7, r1, #95	; 0x5f
     f7c:	6c500061 	mrrcvs	0, 6, r0, r0, cr1	; <UNPREDICTABLE>
     f80:	6f4c5f6c 	svcvs	0x004c5f6c
     f84:	535f6b63 	cmppl	pc, #101376	; 0x18c00
     f88:	75746174 	ldrbvc	r6, [r4, #-372]!	; 0x174
     f8c:	72700073 	rsbsvc	r0, r0, #115	; 0x73
     f90:	6c007272 	sfmvs	f7, 4, [r0], {114}	; 0x72
     f94:	5f706f6f 	svcpl	0x00706f6f
     f98:	67616c66 	strbvs	r6, [r1, -r6, ror #24]!
     f9c:	61747300 	cmnvs	r4, r0, lsl #6
     fa0:	5f737574 	svcpl	0x00737574
     fa4:	00676572 	rsbeq	r6, r7, r2, ror r5
     fa8:	79737562 	ldmdbvc	r3!, {r1, r5, r6, r8, sl, ip, sp, lr}^
     fac:	6961775f 	stmdbvs	r1!, {r0, r1, r2, r3, r4, r6, r8, r9, sl, ip, sp, lr}^
     fb0:	676e6974 			; <UNDEFINED> instruction: 0x676e6974
     fb4:	73657200 	cmnvc	r5, #0
     fb8:	65767265 	ldrbvs	r7, [r6, #-613]!	; 0x265
     fbc:	61640064 	cmnvs	r4, r4, rrx
     fc0:	775f6174 			; <UNDEFINED> instruction: 0x775f6174
     fc4:	72770072 	rsbsvc	r0, r7, #114	; 0x72
     fc8:	6c75705f 	ldclvs	0, cr7, [r5], #-380	; 0xfffffe84
     fcc:	73006573 	movwvc	r6, #1395	; 0x573
     fd0:	75746174 	ldrbvc	r6, [r4, #-372]!	; 0x174
     fd4:	65725f73 	ldrbvs	r5, [r2, #-3955]!	; 0xf73
     fd8:	61705f67 	cmnvs	r0, r7, ror #30
     fdc:	706d745f 	rsbvc	r7, sp, pc, asr r4
     fe0:	656c6300 	strbvs	r6, [ip, #-768]!	; 0x300
     fe4:	6d5f7261 	lfmvs	f7, 2, [pc, #-388]	; e68 <__resume1_start+0xe68>
     fe8:	665f6d65 	ldrbvs	r6, [pc], -r5, ror #26
     fec:	0067616c 	rsbeq	r6, r7, ip, ror #2
     ff0:	74617473 	strbtvc	r7, [r1], #-1139	; 0x473
     ff4:	725f7375 	subsvc	r7, pc, #-738197503	; 0xd4000001
     ff8:	705f6765 	subsvc	r6, pc, r5, ror #14
     ffc:	61730061 	cmnvs	r3, r1, rrx
    1000:	6d5f6576 	cfldr64vs	mvdx6, [pc, #-472]	; e30 <__resume1_start+0xe30>
    1004:	735f6d65 	cmpvc	pc, #6464	; 0x1940
    1008:	75746174 	ldrbvc	r6, [r4, #-372]!	; 0x174
    100c:	61640073 	smcvs	16387	; 0x4003
    1010:	6d006174 	stfvss	f6, [r0, #-464]	; 0xfffffe30
    1014:	735f6d65 	cmpvc	pc, #6464	; 0x1940
    1018:	75746174 	ldrbvc	r6, [r4, #-372]!	; 0x174
    101c:	6e695f73 	mcrvs	15, 3, r5, cr9, cr3, {3}
    1020:	6e5f7469 	cdpvs	4, 5, cr7, cr15, cr9, {3}
    1024:	756d6d6f 	strbvc	r6, [sp, #-3439]!	; 0xd6f
    1028:	6f687300 	svcvs	0x00687300
    102c:	656d5f77 	strbvs	r5, [sp, #-3959]!	; 0xf77
    1030:	74735f6d 	ldrbtvc	r5, [r3], #-3949	; 0xf6d
    1034:	73757461 	cmnvc	r5, #1627389952	; 0x61000000
    1038:	5f6f6900 	svcpl	0x006f6900
    103c:	68676968 	stmdavs	r7!, {r3, r5, r6, r8, fp, sp, lr}^
    1040:	725f5f00 	subsvc	r5, pc, #0
    1044:	6372705f 	cmnvs	r2, #95	; 0x5f
    1048:	69705f6d 	ldmdbvs	r0!, {r0, r2, r3, r5, r6, r8, r9, sl, fp, ip, lr}^
    104c:	61705f6f 	cmnvs	r0, pc, ror #30
    1050:	6f685f64 	svcvs	0x00685f64
    1054:	6400646c 	strvs	r6, [r0], #-1132	; 0x46c
    1058:	5f617461 	svcpl	0x00617461
    105c:	72006472 	andvc	r6, r0, #1912602624	; 0x72000000
    1060:	735f6765 	cmpvc	pc, #26476544	; 0x1940000
    1064:	5f006c65 	svcpl	0x00006c65
    1068:	705f725f 	subsvc	r7, pc, pc, asr r2	; <UNPREDICTABLE>
    106c:	705f6f69 	subsvc	r6, pc, r9, ror #30
    1070:	685f6461 	ldmdavs	pc, {r0, r5, r6, sl, sp, lr}^	; <UNPREDICTABLE>
    1074:	00646c6f 	rsbeq	r6, r4, pc, ror #24
    1078:	5f6d656d 	svcpl	0x006d656d
    107c:	74617473 	strbtvc	r7, [r1], #-1139	; 0x473
    1080:	655f7375 	ldrbvs	r7, [pc, #-885]	; d13 <__resume1_start+0xd13>
    1084:	00746978 	rsbseq	r6, r4, r8, ror r9
    1088:	695f6f69 	ldmdbvs	pc, {r0, r3, r5, r6, r8, r9, sl, fp, sp, lr}^	; <UNPREDICTABLE>
    108c:	0074696e 	rsbseq	r6, r4, lr, ror #18
    1090:	68637261 	stmdavs	r3!, {r0, r5, r6, r9, ip, sp, lr}^
    1094:	6d72612f 	ldfvse	f6, [r2, #-188]!	; 0xffffff44
    1098:	63616d2f 	cmnvs	r1, #3008	; 0xbc0
    109c:	75732d68 	ldrbvc	r2, [r3, #-3432]!	; 0xd68
    10a0:	2f69786e 	svccs	0x0069786e
    10a4:	732f6d70 	teqvc	pc, #7168	; 0x1c00
    10a8:	646e6174 	strbtvs	r6, [lr], #-372	; 0x174
    10ac:	2e2f7962 	cdpcs	9, 2, cr7, cr15, cr2, {3}
    10b0:	6d702f2e 	ldclvs	15, cr2, [r0, #-184]!	; 0xffffff48
    10b4:	6265645f 	rsbvs	r6, r5, #1593835520	; 0x5f000000
    10b8:	632e6775 	teqvs	lr, #30670848	; 0x1d40000
    10bc:	76617300 	strbtvc	r7, [r1], -r0, lsl #6
    10c0:	656d5f65 	strbvs	r5, [sp, #-3941]!	; 0xf65
    10c4:	74735f6d 	ldrbtvc	r5, [r3], #-3949	; 0xf6d
    10c8:	73757461 	cmnvc	r5, #1627389952	; 0x61000000
    10cc:	6d6f6e5f 	stclvs	14, cr6, [pc, #-380]!	; f58 <__resume1_start+0xf58>
    10d0:	6700756d 	strvs	r7, [r0, -sp, ror #10]
    10d4:	6d5f7465 	cfldrdvs	mvd7, [pc, #-404]	; f48 <__resume1_start+0xf48>
    10d8:	735f6d65 	cmpvc	pc, #6464	; 0x1940
    10dc:	75746174 	ldrbvc	r6, [r4, #-372]!	; 0x174
    10e0:	656d0073 	strbvs	r0, [sp, #-115]!	; 0x73
    10e4:	74735f6d 	ldrbtvc	r5, [r3], #-3949	; 0xf6d
    10e8:	73757461 	cmnvc	r5, #1627389952	; 0x61000000
    10ec:	656c635f 	strbvs	r6, [ip, #-863]!	; 0x35f
    10f0:	73007261 	movwvc	r7, #609	; 0x261
    10f4:	75746174 	ldrbvc	r6, [r4, #-372]!	; 0x174
    10f8:	65725f73 	ldrbvs	r5, [r2, #-3955]!	; 0xf73
    10fc:	6d745f67 	ldclvs	15, cr5, [r4, #-412]!	; 0xfffffe64
    1100:	656d0070 	strbvs	r0, [sp, #-112]!	; 0x70
    1104:	74735f6d 	ldrbtvc	r5, [r3], #-3949	; 0xf6d
    1108:	73757461 	cmnvc	r5, #1627389952	; 0x61000000
    110c:	696e695f 	stmdbvs	lr!, {r0, r1, r2, r3, r4, r6, r8, fp, sp, lr}^
    1110:	72700074 	rsbsvc	r0, r0, #116	; 0x74
    1114:	5f746e69 	svcpl	0x00746e69
    1118:	67616c66 	strbvs	r6, [r1, -r6, ror #24]!
    111c:	5f6f6900 	svcpl	0x006f6900
    1120:	74696e69 	strbtvc	r6, [r9], #-3689	; 0xe69
    1124:	776f6c5f 			; <UNDEFINED> instruction: 0x776f6c5f
    1128:	76617300 	strbtvc	r7, [r1], -r0, lsl #6
    112c:	656d5f65 	strbvs	r5, [sp, #-3941]!	; 0xf65
    1130:	6c665f6d 	stclvs	15, cr5, [r6], #-436	; 0xfffffe4c
    1134:	69006761 	stmdbvs	r0, {r0, r5, r6, r8, r9, sl, sp, lr}
    1138:	6e695f6f 	cdpvs	15, 6, cr5, cr9, cr15, {3}
    113c:	685f7469 	ldmdavs	pc, {r0, r3, r5, r6, sl, ip, sp, lr}^	; <UNPREDICTABLE>
    1140:	00686769 	rsbeq	r6, r8, r9, ror #14
    1144:	68637261 	stmdavs	r3!, {r0, r5, r6, r9, ip, sp, lr}^
    1148:	6d72612f 	ldfvse	f6, [r2, #-188]!	; 0xffffff44
    114c:	63616d2f 	cmnvs	r1, #3008	; 0xbc0
    1150:	75732d68 	ldrbvc	r2, [r3, #-3432]!	; 0xd68
    1154:	2f69786e 	svccs	0x0069786e
    1158:	732f6d70 	teqvc	pc, #7168	; 0x1c00
    115c:	646e6174 	strbtvs	r6, [lr], #-372	; 0x174
    1160:	2e2f7962 	cdpcs	9, 2, cr7, cr15, cr2, {3}
    1164:	656d2f2e 	strbvs	r2, [sp, #-3886]!	; 0xf2e
    1168:	69745f6d 	ldmdbvs	r4!, {r0, r2, r3, r5, r6, r8, r9, sl, fp, ip, lr}^
    116c:	676e696d 	strbvs	r6, [lr, -sp, ror #18]!
    1170:	4900632e 	stmdbmi	r0, {r1, r2, r3, r5, r8, r9, sp, lr}
    1174:	4341435f 	movtmi	r4, #4959	; 0x135f
    1178:	4d5f4548 	cfldr64mi	mvdx4, [pc, #-288]	; 1060 <__resume1_start+0x1060>
    117c:	00535349 	subseq	r5, r3, r9, asr #6
    1180:	6e657665 	cdpvs	6, 6, cr7, cr5, cr5, {3}
    1184:	6e635f74 	mcrvs	15, 3, r5, cr3, cr4, {3}
    1188:	61620074 	smcvs	8196	; 0x2004
    118c:	70756b63 	rsbsvc	r6, r5, r3, ror #22
    1190:	7265705f 	rsbvc	r7, r5, #95	; 0x5f
    1194:	6f635f66 	svcvs	0x00635f66
    1198:	65746e75 	ldrbvs	r6, [r4, #-3701]!	; 0xe75
    119c:	6e655f72 	mcrvs	15, 3, r5, cr5, cr2, {3}
    11a0:	656c6261 	strbvs	r6, [ip, #-609]!	; 0x261
    11a4:	6765725f 			; <UNDEFINED> instruction: 0x6765725f
    11a8:	545f4900 	ldrbpl	r4, [pc], #-2304	; 11b0 <__resume1_start+0x11b0>
    11ac:	4d5f424c 	lfmmi	f4, 2, [pc, #-304]	; 1084 <__resume1_start+0x1084>
    11b0:	00535349 	subseq	r5, r3, r9, asr #6
    11b4:	6e756f63 	cdpvs	15, 7, cr6, cr5, cr3, {3}
    11b8:	5f726574 	svcpl	0x00726574
    11bc:	62616e65 	rsbvs	r6, r1, #1616	; 0x650
    11c0:	7400656c 	strvc	r6, [r0], #-1388	; 0x56c
    11c4:	65677261 	strbvs	r7, [r7, #-609]!	; 0x261
    11c8:	65720074 	ldrbvs	r0, [r2, #-116]!	; 0x74
    11cc:	5f746573 	svcpl	0x00746573
    11d0:	6e756f63 	cdpvs	15, 7, cr6, cr5, cr3, {3}
    11d4:	00726574 	rsbseq	r6, r2, r4, ror r5
    11d8:	6b636162 	blvs	18d9768 <__bss_end+0x18c661c>
    11dc:	705f7075 	subsvc	r7, pc, r5, ror r0	; <UNPREDICTABLE>
    11e0:	63667265 	cmnvs	r6, #1342177286	; 0x50000006
    11e4:	746e756f 	strbtvc	r7, [lr], #-1391	; 0x56f
    11e8:	64007265 	strvs	r7, [r0], #-613	; 0x265
    11ec:	79616c65 	stmdbvc	r1!, {r0, r2, r5, r6, sl, fp, sp, lr}^
    11f0:	0073755f 	rsbseq	r7, r3, pc, asr r5
    11f4:	33735f5f 	cmncc	r3, #380	; 0x17c
    11f8:	73750032 	cmnvc	r5, #50	; 0x32
    11fc:	746e635f 	strbtvc	r6, [lr], #-863	; 0x35f
    1200:	696e6900 	stmdbvs	lr!, {r8, fp, sp, lr}^
    1204:	65705f74 	ldrbvs	r5, [r0, #-3956]!	; 0xf74
    1208:	6f636672 	svcvs	0x00636672
    120c:	65746e75 	ldrbvs	r6, [r4, #-3701]!	; 0xe75
    1210:	69007372 	stmdbvs	r0, {r1, r4, r5, r6, r8, r9, ip, sp, lr}
    1214:	5f74696e 	svcpl	0x0074696e
    1218:	6e657665 	cdpvs	6, 6, cr7, cr5, cr5, {3}
    121c:	6f635f74 	svcvs	0x00635f74
    1220:	65746e75 	ldrbvs	r6, [r4, #-3701]!	; 0xe75
    1224:	6e650072 	mcrvs	0, 3, r0, cr5, cr2, {3}
    1228:	656c6261 	strbvs	r6, [ip, #-609]!	; 0x261
    122c:	7669645f 			; <UNDEFINED> instruction: 0x7669645f
    1230:	72656469 	rsbvc	r6, r5, #1761607680	; 0x69000000
    1234:	61686300 	cmnvs	r8, r0, lsl #6
    1238:	5f65676e 	svcpl	0x0065676e
    123c:	746e7572 	strbtvc	r7, [lr], #-1394	; 0x572
    1240:	5f656d69 	svcpl	0x00656d69
    1244:	00766e65 	rsbseq	r6, r6, r5, ror #28
    1248:	7265766f 	rsbvc	r7, r5, #116391936	; 0x6f00000
    124c:	64616568 	strbtvs	r6, [r1], #-1384	; 0x568
    1250:	74656700 	strbtvc	r6, [r5], #-1792	; 0x700
    1254:	6379635f 	cmnvs	r9, #2080374785	; 0x7c000001
    1258:	6f63656c 	svcvs	0x0063656c
    125c:	00746e75 	rsbseq	r6, r4, r5, ror lr
    1260:	65707974 	ldrbvs	r7, [r0, #-2420]!	; 0x974
    1264:	5f6f6400 	svcpl	0x006f6400
    1268:	65736572 	ldrbvs	r6, [r3, #-1394]!	; 0x572
    126c:	6e630074 	mcrvs	0, 3, r0, cr3, cr4, {3}
    1270:	00726574 	rsbseq	r6, r2, r4, ror r5
    1274:	5f746573 	svcpl	0x00746573
    1278:	6e657665 	cdpvs	6, 6, cr7, cr5, cr5, {3}
    127c:	6f635f74 	svcvs	0x00635f74
    1280:	65746e75 	ldrbvs	r6, [r4, #-3701]!	; 0xe75
    1284:	616d0072 	smcvs	53250	; 0xd002
    1288:	5f686374 	svcpl	0x00686374
    128c:	6e657665 	cdpvs	6, 6, cr7, cr5, cr5, {3}
    1290:	6f635f74 	svcvs	0x00635f74
    1294:	65746e75 	ldrbvs	r6, [r4, #-3701]!	; 0xe75
    1298:	5f440072 	svcpl	0x00440072
    129c:	48434143 	stmdami	r3, {r0, r1, r6, r8, lr}^
    12a0:	494d5f45 	stmdbmi	sp, {r0, r2, r6, r8, r9, sl, fp, ip, lr}^
    12a4:	44005353 	strmi	r5, [r0], #-851	; 0x353
    12a8:	424c545f 	submi	r5, ip, #1593835520	; 0x5f000000
    12ac:	53494d5f 	movtpl	r4, #40287	; 0x9d5f
    12b0:	61620053 	qdsubvs	r0, r3, r2
    12b4:	70756b63 	rsbsvc	r6, r5, r3, ror #22
    12b8:	7265705f 	rsbvc	r7, r5, #95	; 0x5f
    12bc:	6f635f66 	svcvs	0x00635f66
    12c0:	65746e75 	ldrbvs	r6, [r4, #-3701]!	; 0xe75
    12c4:	74635f72 	strbtvc	r5, [r3], #-3954	; 0xf72
    12c8:	725f6c72 	subsvc	r6, pc, #29184	; 0x7200
    12cc:	72006765 	andvc	r6, r0, #26476544	; 0x1940000
    12d0:	6f747365 	svcvs	0x00747365
    12d4:	705f6572 	subsvc	r6, pc, r2, ror r5	; <UNPREDICTABLE>
    12d8:	63667265 	cmnvs	r6, #1342177286	; 0x50000006
    12dc:	746e756f 	strbtvc	r7, [lr], #-1391	; 0x56f
    12e0:	67007265 	strvs	r7, [r0, -r5, ror #4]
    12e4:	655f7465 	ldrbvs	r7, [pc, #-1125]	; e87 <__resume1_start+0xe87>
    12e8:	746e6576 	strbtvc	r6, [lr], #-1398	; 0x576
    12ec:	756f635f 	strbvc	r6, [pc, #-863]!	; f95 <__resume1_start+0xf95>
    12f0:	7265746e 	rsbvc	r7, r5, #1845493760	; 0x6e000000
    12f4:	756f6300 	strbvc	r6, [pc, #-768]!	; ffc <__resume1_start+0xffc>
    12f8:	7265746e 	rsbvc	r7, r5, #1845493760	; 0x6e000000
    12fc:	7079745f 	rsbsvc	r7, r9, pc, asr r4
    1300:	00655f65 	rsbeq	r5, r5, r5, ror #30
    1304:	68637261 	stmdavs	r3!, {r0, r5, r6, r9, ip, sp, lr}^
    1308:	6d72612f 	ldfvse	f6, [r2, #-188]!	; 0xffffff44
    130c:	63616d2f 	cmnvs	r1, #3008	; 0xbc0
    1310:	75732d68 	ldrbvc	r2, [r3, #-3432]!	; 0xd68
    1314:	2f69786e 	svccs	0x0069786e
    1318:	732f6d70 	teqvc	pc, #7168	; 0x1c00
    131c:	646e6174 	strbtvs	r6, [lr], #-372	; 0x174
    1320:	2e2f7962 	cdpcs	9, 2, cr7, cr15, cr2, {3}
    1324:	656d2f2e 	strbvs	r2, [sp, #-3886]!	; 0xf2e
    1328:	6d6d5f6d 	stclvs	15, cr5, [sp, #-436]!	; 0xfffffe4c
    132c:	63705f75 	cmnvs	r0, #468	; 0x1d4
    1330:	7200632e 	andvc	r6, r0, #-1207959552	; 0xb8000000
    1334:	6f747365 	svcvs	0x00747365
    1338:	6d5f6572 	cfldr64vs	mvdx6, [pc, #-456]	; 1178 <__resume1_start+0x1178>
    133c:	735f756d 	cmpvc	pc, #457179136	; 0x1b400000
    1340:	65746174 	ldrbvs	r6, [r4, #-372]!	; 0x174
    1344:	76617300 	strbtvc	r7, [r1], -r0, lsl #6
    1348:	6d6d5f65 	stclvs	15, cr5, [sp, #-404]!	; 0xfffffe6c
    134c:	74735f75 	ldrbtvc	r5, [r3], #-3957	; 0xf75
    1350:	00657461 	rsbeq	r7, r5, r1, ror #8
    1354:	70746f70 	rsbsvc	r6, r4, r0, ror pc
    1358:	69006469 	stmdbvs	r0, {r0, r3, r5, r6, sl, sp, lr}
    135c:	7261665f 	rsbvc	r6, r1, #99614720	; 0x5f00000
    1360:	63637300 	cmnvs	r3, #0
    1364:	00726766 	rsbseq	r6, r2, r6, ror #14
    1368:	5f746573 	svcpl	0x00746573
    136c:	72706f63 	rsbsvc	r6, r0, #396	; 0x18c
    1370:	65645f6f 	strbvs	r5, [r4, #-3951]!	; 0xf6f
    1374:	6c756166 	ldfvse	f6, [r5], #-408	; 0xfffffe68
    1378:	65690074 	strbvs	r0, [r9, #-116]!	; 0x74
    137c:	64007263 	strvs	r7, [r0], #-611	; 0x263
    1380:	7273665f 	rsbsvc	r6, r3, #99614720	; 0x5f00000
    1384:	76617300 	strbtvc	r7, [r1], -r0, lsl #6
    1388:	735f6465 	cmpvc	pc, #1694498816	; 0x65000000
    138c:	5f727370 	svcpl	0x00727370
    1390:	00746261 	rsbseq	r6, r4, r1, ror #4
    1394:	65766173 	ldrbvs	r6, [r6, #-371]!	; 0x173
    1398:	70735f64 	rsbsvc	r5, r3, r4, ror #30
    139c:	6d5f7273 	lfmvs	f7, 2, [pc, #-460]	; 11d8 <__resume1_start+0x11d8>
    13a0:	73006e6f 	movwvc	r6, #3695	; 0xe6f
    13a4:	67626463 	strbvs	r6, [r2, -r3, ror #8]!
    13a8:	6c626e65 	stclvs	14, cr6, [r2], #-404	; 0xfffffe6c
    13ac:	61730072 	cmnvs	r3, r2, ror r0
    13b0:	5f646576 	svcpl	0x00646576
    13b4:	746e6f63 	strbtvc	r6, [lr], #-3939	; 0xf63
    13b8:	5f747865 	svcpl	0x00747865
    13bc:	5f333172 	svcpl	0x00333172
    13c0:	00716966 	rsbseq	r6, r1, r6, ror #18
    13c4:	65766173 	ldrbvs	r6, [r6, #-371]!	; 0x173
    13c8:	6f635f64 	svcvs	0x00635f64
    13cc:	7865746e 	stmdavc	r5!, {r1, r2, r3, r5, r6, sl, ip, sp, lr}^
    13d0:	31725f74 	cmncc	r2, r4, ror pc
    13d4:	72695f33 	rsbvc	r5, r9, #204	; 0xcc
    13d8:	65720071 	ldrbvs	r0, [r2, #-113]!	; 0x71
    13dc:	726f7473 	rsbvc	r7, pc, #1929379840	; 0x73000000
    13e0:	72705f65 	rsbsvc	r5, r0, #404	; 0x194
    13e4:	7365636f 	cmnvc	r5, #-1140850687	; 0xbc000001
    13e8:	5f726f73 	svcpl	0x00726f73
    13ec:	72627474 	rsbvc	r7, r2, #1946157056	; 0x74000000
    13f0:	61730030 	cmnvs	r3, r0, lsr r0
    13f4:	5f646576 	svcpl	0x00646576
    13f8:	72737073 	rsbsvc	r7, r3, #115	; 0x73
    13fc:	6376735f 	cmnvs	r6, #2080374785	; 0x7c000001
    1400:	73696400 	cmnvc	r9, #0
    1404:	656c6261 	strbvs	r6, [ip, #-609]!	; 0x261
    1408:	6361635f 	cmnvs	r1, #2080374785	; 0x7c000001
    140c:	695f6568 	ldmdbvs	pc, {r3, r5, r6, r8, sl, sp, lr}^	; <UNPREDICTABLE>
    1410:	6c61766e 	stclvs	6, cr7, [r1], #-440	; 0xfffffe48
    1414:	74616469 	strbtvc	r6, [r1], #-1129	; 0x469
    1418:	5f5f0065 	svcpl	0x005f0065
    141c:	74736572 	ldrbtvc	r6, [r3], #-1394	; 0x572
    1420:	5f65726f 	svcpl	0x0065726f
    1424:	636f7270 	cmnvs	pc, #7
    1428:	6f737365 	svcvs	0x00737365
    142c:	74735f72 	ldrbtvc	r5, [r3], #-3954	; 0xf72
    1430:	00657461 	rsbeq	r7, r5, r1, ror #8
    1434:	72736569 	rsbsvc	r6, r3, #440401920	; 0x1a400000
    1438:	76617300 	strbtvc	r7, [r1], -r0, lsl #6
    143c:	735f6465 	cmpvc	pc, #1694498816	; 0x65000000
    1440:	5f727370 	svcpl	0x00727370
    1444:	00716966 	rsbseq	r6, r1, r6, ror #18
    1448:	72736370 	rsbsvc	r6, r3, #-1073741823	; 0xc0000001
    144c:	78746300 	ldmdavc	r4!, {r8, r9, sp, lr}^
    1450:	61730074 	cmnvs	r3, r4, ror r0
    1454:	5f646576 	svcpl	0x00646576
    1458:	72737073 	rsbsvc	r7, r3, #115	; 0x73
    145c:	7172695f 	cmnvc	r2, pc, asr r9
    1460:	615f6400 	cmpvs	pc, r0, lsl #8
    1464:	00727366 	rsbseq	r7, r2, r6, ror #6
    1468:	65766173 	ldrbvs	r6, [r6, #-371]!	; 0x173
    146c:	6f635f64 	svcvs	0x00635f64
    1470:	7865746e 	stmdavc	r5!, {r1, r2, r3, r5, r6, sl, ip, sp, lr}^
    1474:	72750074 	rsbsvc	r0, r5, #116	; 0x74
    1478:	69707477 	ldmdbvs	r0!, {r0, r1, r2, r4, r5, r6, sl, ip, sp, lr}^
    147c:	6f6e0064 	svcvs	0x006e0064
    1480:	6163736e 	cmnvs	r3, lr, ror #6
    1484:	72746363 	rsbsvc	r6, r4, #-1946157055	; 0x8c000001
    1488:	6300726c 	movwvs	r7, #620	; 0x26c
    148c:	00726365 	rsbseq	r6, r2, r5, ror #6
    1490:	5f746573 	svcpl	0x00746573
    1494:	72627474 	rsbvc	r7, r2, #1946157056	; 0x74000000
    1498:	72750030 	rsbsvc	r0, r5, #48	; 0x30
    149c:	6970746f 	ldmdbvs	r0!, {r0, r1, r2, r3, r5, r6, sl, ip, sp, lr}^
    14a0:	72610064 	rsbvc	r0, r1, #100	; 0x64
    14a4:	612f6863 	teqvs	pc, r3, ror #16
    14a8:	6d2f6d72 	stcvs	13, cr6, [pc, #-456]!	; 12e8 <__resume1_start+0x12e8>
    14ac:	2d686361 	stclcs	3, cr6, [r8, #-388]!	; 0xfffffe7c
    14b0:	786e7573 	stmdavc	lr!, {r0, r1, r4, r5, r6, r8, sl, ip, sp, lr}^
    14b4:	6d702f69 	ldclvs	15, cr2, [r0, #-420]!	; 0xfffffe5c
    14b8:	6174732f 	cmnvs	r4, pc, lsr #6
    14bc:	7962646e 	stmdbvc	r2!, {r1, r2, r3, r5, r6, sl, sp, lr}^
    14c0:	2f2e2e2f 	svccs	0x002e2e2f
    14c4:	5f6d656d 	svcpl	0x006d656d
    14c8:	2e757063 	cdpcs	0, 7, cr7, cr5, cr3, {3}
    14cc:	5f5f0063 	svcpl	0x005f0063
    14d0:	65766173 	ldrbvs	r6, [r6, #-371]!	; 0x173
    14d4:	6f72705f 	svcvs	0x0072705f
    14d8:	73736563 	cmnvc	r3, #415236096	; 0x18c00000
    14dc:	735f726f 	cmpvc	pc, #-268435450	; 0xf0000006
    14e0:	65746174 	ldrbvs	r6, [r4, #-372]!	; 0x174
    14e4:	73636600 	cmnvc	r3, #0
    14e8:	61730065 	cmnvs	r3, r5, rrx
    14ec:	5f646576 	svcpl	0x00646576
    14f0:	746e6f63 	strbtvc	r6, [lr], #-3939	; 0xf63
    14f4:	5f747865 	svcpl	0x00747865
    14f8:	5f333172 	svcpl	0x00333172
    14fc:	00646e75 	rsbeq	r6, r4, r5, ror lr
    1500:	65766173 	ldrbvs	r6, [r6, #-371]!	; 0x173
    1504:	6f635f64 	svcvs	0x00635f64
    1508:	7865746e 	stmdavc	r5!, {r1, r2, r3, r5, r6, sl, ip, sp, lr}^
    150c:	31725f74 	cmncc	r2, r4, ror pc
    1510:	76735f32 	uhasxvc	r5, r3, r2
    1514:	61730063 	cmnvs	r3, r3, rrx
    1518:	5f646576 	svcpl	0x00646576
    151c:	72737063 	rsbsvc	r7, r3, #99	; 0x63
    1520:	6376735f 	cmnvs	r6, #2080374785	; 0x7c000001
    1524:	73666f00 	cmnvc	r6, #0
    1528:	6d700072 	ldclvs	0, cr0, [r0, #-456]!	; 0xfffffe38
    152c:	746e6f63 	strbtvc	r6, [lr], #-3939	; 0xf63
    1530:	726c6f72 	rsbvc	r6, ip, #456	; 0x1c8
    1534:	73656300 	cmnvc	r5, #0
    1538:	65640072 	strbvs	r0, [r4, #-114]!	; 0x72
    153c:	6c756166 	ldfvse	f6, [r5], #-408	; 0xfffffe68
    1540:	6f635f74 	svcvs	0x00635f74
    1544:	5f6f7270 	svcpl	0x006f7270
    1548:	756c6176 	strbvc	r6, [ip, #-374]!	; 0x176
    154c:	5f690065 	svcpl	0x00690065
    1550:	00727366 	rsbseq	r7, r2, r6, ror #6
    1554:	61665f64 	cmnvs	r6, r4, ror #30
    1558:	766d0072 			; <UNDEFINED> instruction: 0x766d0072
    155c:	00726162 	rsbseq	r6, r2, r2, ror #2
    1560:	6f636d70 	svcvs	0x00636d70
    1564:	72746e75 	rsbsvc	r6, r4, #1872	; 0x750
    1568:	615f6900 	cmpvs	pc, r0, lsl #18
    156c:	00727366 	rsbseq	r7, r2, r6, ror #6
    1570:	65766173 	ldrbvs	r6, [r6, #-371]!	; 0x173
    1574:	70735f64 	rsbsvc	r5, r3, r4, ror #30
    1578:	755f7273 	ldrbvc	r7, [pc, #-627]	; 130d <__resume1_start+0x130d>
    157c:	7300646e 	movwvc	r6, #1134	; 0x46e
    1580:	64657661 	strbtvs	r7, [r5], #-1633	; 0x661
    1584:	6e6f635f 	mcrvs	3, 3, r6, cr15, cr15, {2}
    1588:	74786574 	ldrbtvc	r6, [r8], #-1396	; 0x574
    158c:	3331725f 	teqcc	r1, #-268435451	; 0xf0000005
    1590:	7462615f 	strbtvc	r6, [r2], #-351	; 0x15f
    1594:	76617300 	strbtvc	r7, [r1], -r0, lsl #6
    1598:	655f6465 	ldrbvs	r6, [pc, #-1125]	; 113b <__resume1_start+0x113b>
    159c:	7974706d 	ldmdbvc	r4!, {r0, r2, r3, r5, r6, ip, sp, lr}^
    15a0:	6e6f635f 	mcrvs	3, 3, r6, cr15, cr15, {2}
    15a4:	74786574 	ldrbtvc	r6, [r8], #-1396	; 0x574
    15a8:	6376735f 	cmnvs	r6, #2080374785	; 0x7c000001
    15ac:	76617300 	strbtvc	r7, [r1], -r0, lsl #6
    15b0:	635f6465 	cmpvs	pc, #1694498816	; 0x65000000
    15b4:	65746e6f 	ldrbvs	r6, [r4, #-3695]!	; 0xe6f
    15b8:	725f7478 	subsvc	r7, pc, #2013265920	; 0x78000000
    15bc:	735f3331 	cmpvc	pc, #-1006632960	; 0xc4000000
    15c0:	73007379 	movwvc	r7, #889	; 0x379
    15c4:	64657661 	strbtvs	r7, [r5], #-1633	; 0x661
    15c8:	6e6f635f 	mcrvs	3, 3, r6, cr15, cr15, {2}
    15cc:	74786574 	ldrbtvc	r6, [r8], #-1396	; 0x574
    15d0:	3331725f 	teqcc	r1, #-268435451	; 0xf0000005
    15d4:	6e6f6d5f 	mcrvs	13, 3, r6, cr15, cr15, {2}
    15d8:	74657300 	strbtvc	r7, [r5], #-768	; 0x300
    15dc:	7265735f 	rsbvc	r7, r5, #2080374785	; 0x7c000001
    15e0:	5f6c6169 	svcpl	0x006c6169
    15e4:	6f697067 	svcvs	0x00697067
    15e8:	63616200 	cmnvs	r1, #0
    15ec:	5f70756b 	svcpl	0x0070756b
    15f0:	5f756363 	svcpl	0x00756363
    15f4:	74726175 	ldrbtvc	r6, [r2], #-373	; 0x175
    15f8:	72657300 	rsbvc	r7, r5, #0
    15fc:	5f6c6169 	svcpl	0x006c6169
    1600:	73746567 	cmnvc	r4, #432013312	; 0x19c00000
    1604:	63327000 	teqvs	r2, #0
    1608:	73006b6c 	movwvc	r6, #2924	; 0xb6c
    160c:	61697265 	cmnvs	r9, r5, ror #4
    1610:	6e695f6c 	cdpvs	15, 6, cr5, cr9, cr12, {3}
    1614:	62007469 	andvs	r7, r0, #1761607680	; 0x69000000
    1618:	756b6361 	strbvc	r6, [fp, #-865]!	; 0x361
    161c:	70675f70 	rsbvc	r5, r7, r0, ror pc
    1620:	755f6f69 	ldrbvc	r6, [pc, #-3945]	; 6bf <__resume1_start+0x6bf>
    1624:	00747261 	rsbseq	r7, r4, r1, ror #4
    1628:	69726573 	ldmdbvs	r2!, {r0, r1, r4, r5, r6, r8, sl, sp, lr}^
    162c:	695f6c61 	ldmdbvs	pc, {r0, r5, r6, sl, fp, sp, lr}^	; <UNPREDICTABLE>
    1630:	5f74696e 	svcpl	0x0074696e
    1634:	6d6d6f6e 	stclvs	15, cr6, [sp, #-440]!	; 0xfffffe48
    1638:	65730075 	ldrbvs	r0, [r3, #-117]!	; 0x75
    163c:	6c616972 	stclvs	9, cr6, [r1], #-456	; 0xfffffe38
    1640:	7475705f 	ldrbtvc	r7, [r5], #-95	; 0x5f
    1644:	6f6e5f73 	svcvs	0x006e5f73
    1648:	00756d6d 	rsbseq	r6, r5, sp, ror #26
    164c:	69726573 	ldmdbvs	r2!, {r0, r1, r4, r5, r6, r8, sl, sp, lr}^
    1650:	705f6c61 	subsvc	r6, pc, r1, ror #24
    1654:	635f7475 	cmpvs	pc, #1962934272	; 0x75000000
    1658:	5f726168 	svcpl	0x00726168
    165c:	6d6d6f6e 	stclvs	15, cr6, [sp, #-440]!	; 0xfffffe48
    1660:	65730075 	ldrbvs	r0, [r3, #-117]!	; 0x75
    1664:	6c616972 	stclvs	9, cr6, [r1], #-456	; 0xfffffe38
    1668:	7475705f 	ldrbtvc	r7, [r5], #-95	; 0x5f
    166c:	6168635f 	cmnvs	r8, pc, asr r3
    1670:	65730072 	ldrbvs	r0, [r3, #-114]!	; 0x72
    1674:	6c616972 	stclvs	9, cr6, [r1], #-456	; 0xfffffe38
    1678:	7465675f 	strbtvc	r6, [r5], #-1887	; 0x75f
    167c:	6168635f 	cmnvs	r8, pc, asr r3
    1680:	65730072 	ldrbvs	r0, [r3, #-114]!	; 0x72
    1684:	6c616972 	stclvs	9, cr6, [r1], #-456	; 0xfffffe38
    1688:	696e695f 	stmdbvs	lr!, {r0, r1, r2, r3, r4, r6, r8, fp, sp, lr}^
    168c:	5f646574 	svcpl	0x00646574
    1690:	67616c66 	strbvs	r6, [r1, -r6, ror #24]!
    1694:	75636300 	strbvc	r6, [r3, #-768]!	; 0x300
    1698:	6765725f 			; <UNDEFINED> instruction: 0x6765725f
    169c:	756d6d00 	strbvc	r6, [sp, #-3328]!	; 0xd00
    16a0:	616c665f 	cmnvs	ip, pc, asr r6
    16a4:	65730067 	ldrbvs	r0, [r3, #-103]!	; 0x67
    16a8:	6c616972 	stclvs	9, cr6, [r1], #-456	; 0xfffffe38
    16ac:	7465675f 	strbtvc	r6, [r5], #-1887	; 0x75f
    16b0:	6f6e5f73 	svcvs	0x006e5f73
    16b4:	00756d6d 	rsbseq	r6, r5, sp, ror #26
    16b8:	6b636162 	blvs	18d9c48 <__bss_end+0x18c6afc>
    16bc:	635f7075 	cmpvs	pc, #117	; 0x75
    16c0:	755f7563 	ldrbvc	r7, [pc, #-1379]	; 1165 <__resume1_start+0x1165>
    16c4:	5f747261 	svcpl	0x00747261
    16c8:	65736572 	ldrbvs	r6, [r3, #-1394]!	; 0x572
    16cc:	65730074 	ldrbvs	r0, [r3, #-116]!	; 0x74
    16d0:	6c616972 	stclvs	9, cr6, [r1], #-456	; 0xfffffe38
    16d4:	7475705f 	ldrbtvc	r7, [r5], #-95	; 0x5f
    16d8:	72610073 	rsbvc	r0, r1, #115	; 0x73
    16dc:	612f6863 	teqvs	pc, r3, ror #16
    16e0:	6d2f6d72 	stcvs	13, cr6, [pc, #-456]!	; 1520 <__resume1_start+0x1520>
    16e4:	2d686361 	stclcs	3, cr6, [r8, #-388]!	; 0xfffffe7c
    16e8:	786e7573 	stmdavc	lr!, {r0, r1, r4, r5, r6, r8, sl, ip, sp, lr}^
    16ec:	6d702f69 	ldclvs	15, cr2, [r0, #-420]!	; 0xfffffe5c
    16f0:	6174732f 	cmnvs	r4, pc, lsr #6
    16f4:	7962646e 	stmdbvc	r2!, {r1, r2, r3, r5, r6, sl, sp, lr}^
    16f8:	2f2e2e2f 	svccs	0x002e2e2f
    16fc:	5f6d656d 	svcpl	0x006d656d
    1700:	69726573 	ldmdbvs	r2!, {r0, r1, r4, r5, r6, r8, sl, sp, lr}^
    1704:	632e6c61 	teqvs	lr, #24832	; 0x6100
    1708:	72657300 	rsbvc	r7, r5, #0
    170c:	5f6c6169 	svcpl	0x006c6169
    1710:	5f746567 	svcpl	0x00746567
    1714:	72616863 	rsbvc	r6, r1, #6488064	; 0x630000
    1718:	6d6f6e5f 	stclvs	14, cr6, [pc, #-380]!	; 15a4 <__resume1_start+0x15a4>
    171c:	7000756d 	andvc	r7, r0, sp, ror #10
    1720:	0074726f 	rsbseq	r7, r4, pc, ror #4
    1724:	69726573 	ldmdbvs	r2!, {r0, r1, r4, r5, r6, r8, sl, sp, lr}^
    1728:	655f6c61 	ldrbvs	r6, [pc, #-3169]	; acf <__resume1_start+0xacf>
    172c:	00746978 	rsbseq	r6, r4, r8, ror r9
    1730:	5f637273 	svcpl	0x00637273
    1734:	71657266 	cmnvc	r5, r6, ror #4
    1738:	74657300 	strbtvc	r7, [r5], #-768	; 0x300
    173c:	7265735f 	rsbvc	r7, r5, #2080374785	; 0x7c000001
    1740:	5f6c6169 	svcpl	0x006c6169
    1744:	006b6c63 	rsbeq	r6, fp, r3, ror #24
    1748:	63727370 	cmnvs	r2, #-1073741823	; 0xc0000001
    174c:	7a697300 	bvc	1a5e354 <__bss_end+0x1a4b208>
    1750:	00745f65 	rsbseq	r5, r4, r5, ror #30
    1754:	73677261 	cmnvc	r7, #268435462	; 0x10000006
    1758:	67696400 	strbvs	r6, [r9, -r0, lsl #8]!
    175c:	735f7469 	cmpvc	pc, #1761607680	; 0x69000000
    1760:	6e697274 	mcrvs	2, 3, r7, cr9, cr4, {3}
    1764:	72610067 	rsbvc	r0, r1, #103	; 0x67
    1768:	612f6863 	teqvs	pc, r3, ror #16
    176c:	6d2f6d72 	stcvs	13, cr6, [pc, #-456]!	; 15ac <__resume1_start+0x15ac>
    1770:	2d686361 	stclcs	3, cr6, [r8, #-388]!	; 0xfffffe7c
    1774:	786e7573 	stmdavc	lr!, {r0, r1, r4, r5, r6, r8, sl, ip, sp, lr}^
    1778:	6d702f69 	ldclvs	15, cr2, [r0, #-420]!	; 0xfffffe5c
    177c:	6174732f 	cmnvs	r4, pc, lsr #6
    1780:	7962646e 	stmdbvc	r2!, {r1, r2, r3, r5, r6, sl, sp, lr}^
    1784:	2f2e2e2f 	svccs	0x002e2e2f
    1788:	5f6d656d 	svcpl	0x006d656d
    178c:	6e697270 	mcrvs	2, 3, r7, cr9, cr0, {3}
    1790:	632e6b74 	teqvs	lr, #118784	; 0x1d000
    1794:	62656400 	rsbvs	r6, r5, #0
    1798:	65676775 	strbvs	r6, [r7, #-1909]!	; 0x775
    179c:	75625f72 	strbvc	r5, [r2, #-3954]!	; 0xf72
    17a0:	72656666 	rsbvc	r6, r5, #106954752	; 0x6600000
    17a4:	65647000 	strbvs	r7, [r4, #-0]!
    17a8:	73007473 	movwvc	r7, #1139	; 0x473
    17ac:	6b636174 	blvs	18d9d84 <__bss_end+0x18c6c38>
    17b0:	675f5f00 	ldrbvs	r5, [pc, -r0, lsl #30]
    17b4:	5f63756e 	svcpl	0x0063756e
    17b8:	6c5f6176 	ldfvse	f6, [pc], {118}	; 0x76
    17bc:	00747369 	rsbseq	r7, r4, r9, ror #6
    17c0:	61765f5f 	cmnvs	r6, pc, asr pc
    17c4:	73696c5f 	cmnvc	r9, #24320	; 0x5f00
    17c8:	72700074 	rsbsvc	r0, r0, #116	; 0x74
    17cc:	5f746e69 	svcpl	0x00746e69
    17d0:	67696c61 	strbvs	r6, [r9, -r1, ror #24]!
    17d4:	7473006e 	ldrbtvc	r0, [r3], #-110	; 0x6e
    17d8:	79706372 	ldmdbvc	r0!, {r1, r4, r5, r6, r8, r9, sp, lr}^
    17dc:	6f746900 	svcvs	0x00746900
    17e0:	74730061 	ldrbtvc	r0, [r3], #-97	; 0x61
    17e4:	61636e72 	smcvs	14050	; 0x36e2
    17e8:	6f660074 	svcvs	0x00660074
    17ec:	74616d72 	strbtvc	r6, [r1], #-3442	; 0xd72
    17f0:	72747300 	rsbsvc	r7, r4, #0
    17f4:	006e656c 	rsbeq	r6, lr, ip, ror #10
    17f8:	70615f5f 	rsbvc	r5, r1, pc, asr pc
    17fc:	6c696600 	stclvs	6, cr6, [r9], #-0
    1800:	68635f6c 	stmdavs	r3!, {r2, r3, r5, r6, r8, r9, sl, fp, ip, lr}^
    1804:	6f747500 	svcvs	0x00747500
    1808:	72700061 	rsbsvc	r0, r0, #97	; 0x61
    180c:	6b746e69 	blvs	1d1d1b8 <__bss_end+0x1d0a06c>
    1810:	64617200 	strbtvs	r7, [r1], #-512	; 0x200
    1814:	70007869 	andvc	r7, r0, r9, ror #16
    1818:	746e6972 	strbtvc	r6, [lr], #-2418	; 0x972
    181c:	6f6e5f6b 	svcvs	0x006e5f6b
    1820:	00756d6d 	rsbseq	r6, r5, sp, ror #26
    1824:	6167656e 	cmnvs	r7, lr, ror #10
    1828:	65766974 	ldrbvs	r6, [r6, #-2420]!	; 0x974
    182c:	6d5f5f00 	ldclvs	15, cr5, [pc, #-0]	; 1834 <__resume1_start+0x1834>
    1830:	645f6d65 	ldrbvs	r6, [pc], #-3429	; 1838 <__resume1_start+0x1838>
    1834:	00307669 	eorseq	r7, r0, r9, ror #12
    1838:	51706d74 	cmnpl	r0, r4, ror sp
    183c:	00746f75 	rsbseq	r6, r4, r5, ror pc
    1840:	69766964 	ldmdbvs	r6!, {r2, r5, r6, r8, fp, sp, lr}^
    1844:	726f6973 	rsbvc	r6, pc, #1884160	; 0x1cc000
    1848:	76696400 	strbtvc	r6, [r9], -r0, lsl #8
    184c:	6e656469 	cdpvs	4, 6, cr6, cr5, cr9, {3}
    1850:	61720064 	cmnvs	r2, r4, rrx
    1854:	696c5f77 	stmdbvs	ip!, {r0, r1, r2, r4, r5, r6, r8, r9, sl, fp, ip, lr}^
    1858:	64755f62 	ldrbtvs	r5, [r5], #-3938	; 0xf62
    185c:	74007669 	strvc	r7, [r0], #-1641	; 0x669
    1860:	6944706d 	stmdbvs	r4, {r0, r2, r3, r5, r6, ip, sp, lr}^
    1864:	72610076 	rsbvc	r0, r1, #118	; 0x76
    1868:	612f6863 	teqvs	pc, r3, ror #16
    186c:	6d2f6d72 	stcvs	13, cr6, [pc, #-456]!	; 16ac <__resume1_start+0x16ac>
    1870:	2d686361 	stclcs	3, cr6, [r8, #-388]!	; 0xfffffe7c
    1874:	786e7573 	stmdavc	lr!, {r0, r1, r4, r5, r6, r8, sl, ip, sp, lr}^
    1878:	6d702f69 	ldclvs	15, cr2, [r0, #-420]!	; 0xfffffe5c
    187c:	6174732f 	cmnvs	r4, pc, lsr #6
    1880:	7962646e 	stmdbvc	r2!, {r1, r2, r3, r5, r6, sl, sp, lr}^
    1884:	2f2e2e2f 	svccs	0x002e2e2f
    1888:	5f6d656d 	svcpl	0x006d656d
    188c:	6c766964 	ldclvs	9, cr6, [r6], #-400	; 0xfffffe70
    1890:	2e636269 	cdpcs	2, 6, cr6, cr3, cr9, {3}
    1894:	68730063 	ldmdavs	r3!, {r0, r1, r5, r6}^
    1898:	00746669 	rsbseq	r6, r4, r9, ror #12
    189c:	5f6d656d 	svcpl	0x006d656d
    18a0:	5f746e69 	svcpl	0x00746e69
    18a4:	74697865 	strbtvc	r7, [r9], #-2149	; 0x865
    18a8:	746e6900 	strbtvc	r6, [lr], #-2304	; 0x900
    18ac:	75727265 	ldrbvc	r7, [r2, #-613]!	; 0x265
    18b0:	735f7470 	cmpvc	pc, #1879048192	; 0x70000000
    18b4:	6372756f 	cmnvs	r2, #465567744	; 0x1bc00000
    18b8:	00655f65 	rsbeq	r5, r5, r5, ror #30
    18bc:	5f6d656d 	svcpl	0x006d656d
    18c0:	72657571 	rsbvc	r7, r5, #473956352	; 0x1c400000
    18c4:	6e695f79 	mcrvs	15, 3, r5, cr9, cr9, {3}
    18c8:	72610074 	rsbvc	r0, r1, #116	; 0x74
    18cc:	612f6863 	teqvs	pc, r3, ror #16
    18d0:	6d2f6d72 	stcvs	13, cr6, [pc, #-456]!	; 1710 <__resume1_start+0x1710>
    18d4:	2d686361 	stclcs	3, cr6, [r8, #-388]!	; 0xfffffe7c
    18d8:	786e7573 	stmdavc	lr!, {r0, r1, r4, r5, r6, r8, sl, ip, sp, lr}^
    18dc:	6d702f69 	ldclvs	15, cr2, [r0, #-420]!	; 0xfffffe5c
    18e0:	6174732f 	cmnvs	r4, pc, lsr #6
    18e4:	7962646e 	stmdbvc	r2!, {r1, r2, r3, r5, r6, sl, sp, lr}^
    18e8:	2f2e2e2f 	svccs	0x002e2e2f
    18ec:	5f6d656d 	svcpl	0x006d656d
    18f0:	2e746e69 	cdpcs	14, 7, cr6, cr4, cr9, {3}
    18f4:	4e490063 	cdpmi	0, 4, cr0, cr9, cr3, {3}
    18f8:	4f535f54 	svcmi	0x00535f54
    18fc:	45435255 	strbmi	r5, [r3, #-597]	; 0x255
    1900:	554f545f 	strbpl	r5, [pc, #-1119]	; 14a9 <__resume1_start+0x14a9>
    1904:	4e504843 	cdpmi	8, 5, cr4, cr0, cr3, {2}
    1908:	6947004c 	stmdbvs	r7, {r2, r3, r6}^
    190c:	69444363 	stmdbvs	r4, {r0, r1, r5, r6, r8, r9, lr}^
    1910:	49006373 	stmdbmi	r0, {r0, r1, r4, r5, r6, r8, r9, sp, lr}
    1914:	535f544e 	cmppl	pc, #1308622848	; 0x4e000000
    1918:	4352554f 	cmpmi	r2, #331350016	; 0x13c00000
    191c:	534d5f45 	movtpl	r5, #57157	; 0xdf45
    1920:	4f425f47 	svcmi	0x00425f47
    1924:	656d0058 	strbvs	r0, [sp, #-88]!	; 0x58
    1928:	6e695f6d 	cdpvs	15, 6, cr5, cr9, cr13, {3}
    192c:	6e695f74 	mcrvs	15, 3, r5, cr9, cr4, {3}
    1930:	49007469 	stmdbmi	r0, {r0, r3, r5, r6, sl, ip, sp, lr}
    1934:	535f544e 	cmppl	pc, #1308622848	; 0x4e000000
    1938:	4352554f 	cmpmi	r2, #331350016	; 0x13c00000
    193c:	49545f45 	ldmdbmi	r4, {r0, r2, r6, r8, r9, sl, fp, ip, lr}^
    1940:	3052454d 	subscc	r4, r2, sp, asr #10
    1944:	544e4900 	strbpl	r4, [lr], #-2304	; 0x900
    1948:	554f535f 	strbpl	r5, [pc, #-863]	; 15f1 <__resume1_start+0x15f1>
    194c:	5f454352 	svcpl	0x00454352
    1950:	454d4954 	strbmi	r4, [sp, #-2388]	; 0x954
    1954:	49003152 	stmdbmi	r0, {r1, r4, r6, r8, ip, sp}
    1958:	535f544e 	cmppl	pc, #1308622848	; 0x4e000000
    195c:	4352554f 	cmpmi	r2, #331350016	; 0x13c00000
    1960:	58455f45 	stmdapl	r5, {r0, r2, r6, r8, r9, sl, fp, ip, lr}^
    1964:	494d4e54 	stmdbmi	sp, {r2, r4, r6, r9, sl, fp, lr}^
    1968:	616e6500 	cmnvs	lr, r0, lsl #10
    196c:	5f656c62 	svcpl	0x00656c62
    1970:	00746962 	rsbseq	r6, r4, r2, ror #18
    1974:	75736572 	ldrbvc	r6, [r3, #-1394]!	; 0x572
    1978:	4900746c 	stmdbmi	r0, {r2, r3, r5, r6, sl, ip, sp, lr}
    197c:	535f544e 	cmppl	pc, #1308622848	; 0x4e000000
    1980:	4352554f 	cmpmi	r2, #331350016	; 0x13c00000
    1984:	524c5f45 	subpl	r5, ip, #276	; 0x114
    1988:	00434441 	subeq	r4, r3, r1, asr #8
    198c:	47706d74 			; <UNDEFINED> instruction: 0x47706d74
    1990:	74007072 	strvc	r7, [r0], #-114	; 0x72
    1994:	7253706d 	subsvc	r7, r3, #109	; 0x6d
    1998:	656d0063 	strbvs	r0, [sp, #-99]!	; 0x63
    199c:	6e655f6d 	cdpvs	15, 6, cr5, cr5, cr13, {3}
    19a0:	656c6261 	strbvs	r6, [ip, #-609]!	; 0x261
    19a4:	746e695f 	strbtvc	r6, [lr], #-2399	; 0x95f
    19a8:	63694700 	cmnvs	r9, #0
    19ac:	73694444 	cmnvc	r9, #1140850688	; 0x44000000
    19b0:	44570063 	ldrbmi	r0, [r7], #-99	; 0x63
    19b4:	5f31676f 	svcpl	0x0031676f
    19b8:	5f717249 	svcpl	0x00717249
    19bc:	00617453 	rsbeq	r7, r1, r3, asr r4
    19c0:	31737641 	cmncc	r3, r1, asr #12
    19c4:	00746e43 	rsbseq	r6, r4, r3, asr #28
    19c8:	43746e49 	cmnmi	r4, #1168	; 0x490
    19cc:	54006c74 	strpl	r6, [r0], #-3188	; 0xc74
    19d0:	4930726d 	ldmdbmi	r0!, {r0, r2, r3, r5, r6, r9, ip, sp, lr}
    19d4:	6156746e 	cmpvs	r6, lr, ror #8
    19d8:	4457006c 	ldrbmi	r0, [r7], #-108	; 0x6c
    19dc:	5f31676f 	svcpl	0x0031676f
    19e0:	6c727443 	cfldrdvs	mvd7, [r2], #-268	; 0xfffffef4
    19e4:	6765525f 			; <UNDEFINED> instruction: 0x6765525f
    19e8:	726d5400 	rsbvc	r5, sp, #0
    19ec:	6c744331 	ldclvs	3, cr4, [r4], #-196	; 0xffffff3c
    19f0:	726d5400 	rsbvc	r5, sp, #0
    19f4:	746e4330 	strbtvc	r4, [lr], #-816	; 0x330
    19f8:	006c6156 	rsbeq	r6, ip, r6, asr r1
    19fc:	35726d54 	ldrbcc	r6, [r2, #-3412]!	; 0xd54
    1a00:	006c7443 	rsbeq	r7, ip, r3, asr #8
    1a04:	32726d54 	rsbscc	r6, r2, #5376	; 0x1500
    1a08:	56746e49 	ldrbtpl	r6, [r4], -r9, asr #28
    1a0c:	5f006c61 	svcpl	0x00006c61
    1a10:	6d656d5f 	stclvs	13, cr6, [r5, #-380]!	; 0xfffffe84
    1a14:	726d745f 	rsbvc	r7, sp, #1593835520	; 0x5f000000
    1a18:	6765725f 			; <UNDEFINED> instruction: 0x6765725f
    1a1c:	5400745f 	strpl	r7, [r0], #-1119	; 0x45f
    1a20:	4332726d 	teqmi	r2, #-805306362	; 0xd0000006
    1a24:	6156746e 	cmpvs	r6, lr, ror #8
    1a28:	6157006c 	cmpvs	r7, ip, rrx
    1a2c:	44686374 	strbtmi	r6, [r8], #-884	; 0x374
    1a30:	5f31676f 	svcpl	0x0031676f
    1a34:	5f717249 	svcpl	0x00717249
    1a38:	425f6e45 	subsmi	r6, pc, #1104	; 0x450
    1a3c:	6d006b61 	vstrvs	d6, [r0, #-388]	; 0xfffffe7c
    1a40:	745f6d65 	ldrbvc	r6, [pc], #-3429	; 1a48 <__resume1_start+0x1a48>
    1a44:	655f726d 	ldrbvs	r7, [pc, #-621]	; 17df <__resume1_start+0x17df>
    1a48:	00746978 	rsbseq	r6, r4, r8, ror r9
    1a4c:	68637261 	stmdavs	r3!, {r0, r5, r6, r9, ip, sp, lr}^
    1a50:	6d72612f 	ldfvse	f6, [r2, #-188]!	; 0xffffff44
    1a54:	63616d2f 	cmnvs	r1, #3008	; 0xbc0
    1a58:	75732d68 	ldrbvc	r2, [r3, #-3432]!	; 0xd68
    1a5c:	2f69786e 	svccs	0x0069786e
    1a60:	732f6d70 	teqvc	pc, #7168	; 0x1c00
    1a64:	646e6174 	strbtvs	r6, [lr], #-372	; 0x174
    1a68:	2e2f7962 	cdpcs	9, 2, cr7, cr15, cr2, {3}
    1a6c:	656d2f2e 	strbvs	r2, [sp, #-3886]!	; 0xf2e
    1a70:	6d745f6d 	ldclvs	15, cr5, [r4, #-436]!	; 0xfffffe4c
    1a74:	00632e72 	rsbeq	r2, r3, r2, ror lr
    1a78:	34726d54 	ldrbtcc	r6, [r2], #-3412	; 0xd54
    1a7c:	56746e49 	ldrbtpl	r6, [r4], -r9, asr #28
    1a80:	54006c61 	strpl	r6, [r0], #-3169	; 0xc61
    1a84:	4334726d 	teqmi	r4, #-805306362	; 0xd0000006
    1a88:	6156746e 	cmpvs	r6, lr, ror #8
    1a8c:	6157006c 	cmpvs	r7, ip, rrx
    1a90:	44686374 	strbtmi	r6, [r8], #-884	; 0x374
    1a94:	5f31676f 	svcpl	0x0031676f
    1a98:	666e6f43 	strbtvs	r6, [lr], -r3, asr #30
    1a9c:	525f6769 	subspl	r6, pc, #27525120	; 0x1a40000
    1aa0:	425f6765 	subsmi	r6, pc, #26476544	; 0x1940000
    1aa4:	72006b61 	andvc	r6, r0, #99328	; 0x18400
    1aa8:	72657365 	rsbvc	r7, r5, #-1811939327	; 0x94000001
    1aac:	38646576 	stmdacc	r4!, {r1, r2, r4, r5, r6, r8, sl, sp, lr}^
    1ab0:	726d5400 	rsbvc	r5, sp, #0
    1ab4:	6c744332 	ldclvs	3, cr4, [r4], #-200	; 0xffffff38
    1ab8:	6f445700 	svcvs	0x00445700
    1abc:	4d5f3167 	ldfmie	f3, [pc, #-412]	; 1928 <__resume1_start+0x1928>
    1ac0:	5f65646f 	svcpl	0x0065646f
    1ac4:	00676552 	rsbeq	r6, r7, r2, asr r5
    1ac8:	63746157 	cmnvs	r4, #-1073741803	; 0xc0000015
    1acc:	676f4468 	strbvs	r4, [pc, -r8, ror #8]!
    1ad0:	6f4d5f31 	svcvs	0x004d5f31
    1ad4:	65525f64 	ldrbvs	r5, [r2, #-3940]	; 0xf64
    1ad8:	61425f67 	cmpvs	r2, r7, ror #30
    1adc:	656d006b 	strbvs	r0, [sp, #-107]!	; 0x6b
    1ae0:	6d745f6d 	ldclvs	15, cr5, [r4, #-436]!	; 0xfffffe4c
    1ae4:	6e655f72 	mcrvs	15, 3, r5, cr5, cr2, {3}
    1ae8:	656c6261 	strbvs	r6, [ip, #-609]!	; 0x261
    1aec:	7461775f 	strbtvc	r7, [r1], #-1887	; 0x75f
    1af0:	6f646863 	svcvs	0x00646863
    1af4:	656d0067 	strbvs	r0, [sp, #-103]!	; 0x67
    1af8:	6d745f6d 	ldclvs	15, cr5, [r4, #-436]!	; 0xfffffe4c
    1afc:	6e695f72 	mcrvs	15, 3, r5, cr9, cr2, {3}
    1b00:	57007469 	strpl	r7, [r0, -r9, ror #8]
    1b04:	31676f44 	cmncc	r7, r4, asr #30
    1b08:	7172495f 	cmnvc	r2, pc, asr r9
    1b0c:	006e455f 	rsbeq	r4, lr, pc, asr r5
    1b10:	5f6d656d 	svcpl	0x006d656d
    1b14:	5f726d74 	svcpl	0x00726d74
    1b18:	74736572 	ldrbtvc	r6, [r3], #-1394	; 0x572
    1b1c:	0065726f 	rsbeq	r7, r5, pc, ror #4
    1b20:	454d5f5f 	strbmi	r5, [sp, #-3935]	; 0xf5f
    1b24:	4d545f4d 	ldclmi	15, cr5, [r4, #-308]	; 0xfffffecc
    1b28:	45525f52 	ldrbmi	r5, [r2, #-3922]	; 0xf52
    1b2c:	656d0047 	strbvs	r0, [sp, #-71]!	; 0x47
    1b30:	6d745f6d 	ldclvs	15, cr5, [r4, #-436]!	; 0xfffffe4c
    1b34:	69645f72 	stmdbvs	r4!, {r1, r4, r5, r6, r8, r9, sl, fp, ip, lr}^
    1b38:	6c626173 	stfvse	f6, [r2], #-460	; 0xfffffe34
    1b3c:	61775f65 	cmnvs	r7, r5, ror #30
    1b40:	64686374 	strbtvs	r6, [r8], #-884	; 0x374
    1b44:	5400676f 	strpl	r6, [r0], #-1903	; 0x76f
    1b48:	4931726d 	ldmdbmi	r1!, {r0, r2, r3, r5, r6, r9, ip, sp, lr}
    1b4c:	6156746e 	cmpvs	r6, lr, ror #8
    1b50:	7470006c 	ldrbtvc	r0, [r0], #-108	; 0x6c
    1b54:	735f726d 	cmpvc	pc, #-805306362	; 0xd0000006
    1b58:	65746174 	ldrbvs	r6, [r4, #-372]!	; 0x174
    1b5c:	73764100 	cmnvc	r6, #0
    1b60:	00766944 	rsbseq	r6, r6, r4, asr #18
    1b64:	33726d54 	cmncc	r2, #5376	; 0x1500
    1b68:	006c7443 	rsbeq	r7, ip, r3, asr #8
    1b6c:	43737641 	cmnmi	r3, #68157440	; 0x4100000
    1b70:	49006c74 	stmdbmi	r0, {r2, r4, r5, r6, sl, fp, sp, lr}
    1b74:	7453746e 	ldrbvc	r7, [r3], #-1134	; 0x46e
    1b78:	6d540061 	ldclvs	0, cr0, [r4, #-388]	; 0xfffffe7c
    1b7c:	6e433172 	mcrvs	1, 2, r3, cr3, cr2, {3}
    1b80:	6c615674 	stclvs	6, cr5, [r1], #-464	; 0xfffffe30
    1b84:	726d5400 	rsbvc	r5, sp, #0
    1b88:	746e4933 	strbtvc	r4, [lr], #-2355	; 0x933
    1b8c:	006c6156 	rsbeq	r6, ip, r6, asr r1
    1b90:	676f4457 			; <UNDEFINED> instruction: 0x676f4457
    1b94:	66435f31 			; <UNDEFINED> instruction: 0x66435f31
    1b98:	65525f67 	ldrbvs	r5, [r2, #-3943]	; 0xf67
    1b9c:	76410067 	strbvc	r0, [r1], -r7, rrx
    1ba0:	6e433073 	mcrvs	0, 2, r3, cr3, cr3, {3}
    1ba4:	6d540074 	ldclvs	0, cr0, [r4, #-464]	; 0xfffffe30
    1ba8:	6e493572 	mcrvs	5, 2, r3, cr9, cr2, {3}
    1bac:	6c615674 	stclvs	6, cr5, [r1], #-464	; 0xfffffe30
    1bb0:	726d5400 	rsbvc	r5, sp, #0
    1bb4:	746e4335 	strbtvc	r4, [lr], #-821	; 0x335
    1bb8:	006c6156 	rsbeq	r6, ip, r6, asr r1
    1bbc:	52726d54 	rsbspl	r6, r2, #5376	; 0x1500
    1bc0:	54006765 	strpl	r6, [r0], #-1893	; 0x765
    1bc4:	4330726d 	teqmi	r0, #-805306362	; 0xd0000006
    1bc8:	54006c74 	strpl	r6, [r0], #-3188	; 0xc74
    1bcc:	4334726d 	teqmi	r4, #-805306362	; 0xd0000006
    1bd0:	6d006c74 	stcvs	12, cr6, [r0, #-464]	; 0xfffffe30
    1bd4:	745f6d65 	ldrbvc	r6, [pc], #-3429	; 1bdc <__resume1_start+0x1bdc>
    1bd8:	735f726d 	cmpvc	pc, #-805306362	; 0xd0000006
    1bdc:	00657661 	rsbeq	r7, r5, r1, ror #12
    1be0:	454d5f5f 	strbmi	r5, [sp, #-3935]	; 0xf5f
    1be4:	4d545f4d 	ldclmi	15, cr5, [r4, #-308]	; 0xfffffecc
    1be8:	504d5453 	subpl	r5, sp, r3, asr r4
    1bec:	4745525f 	smlsldmi	r5, r5, pc, r2	; <UNPREDICTABLE>
    1bf0:	6d5f5f00 	ldclvs	15, cr5, [pc, #-0]	; 1bf8 <__resume1_start+0x1bf8>
    1bf4:	745f6d65 	ldrbvc	r6, [pc], #-3429	; 1bfc <__resume1_start+0x1bfc>
    1bf8:	6d74736d 	ldclvs	3, cr7, [r4, #-436]!	; 0xfffffe4c
    1bfc:	65725f70 	ldrbvs	r5, [r2, #-3952]!	; 0xf70
    1c00:	00745f67 	rsbseq	r5, r4, r7, ror #30
    1c04:	74736d54 	ldrbtvc	r6, [r3], #-3412	; 0xd54
    1c08:	6552706d 	ldrbvs	r7, [r2, #-109]	; 0x6d
    1c0c:	6c430067 	mcrrvs	0, 6, r0, r3, cr7
    1c10:	65747375 	ldrbvs	r7, [r4, #-885]!	; 0x375
    1c14:	74433072 	strbvc	r3, [r3], #-114	; 0x72
    1c18:	65526c72 	ldrbvs	r6, [r2, #-3186]	; 0xc72
    1c1c:	6d003167 	stfvss	f3, [r0, #-412]	; 0xfffffe64
    1c20:	745f6d65 	ldrbvc	r6, [pc], #-3429	; 1c28 <__resume1_start+0x1c28>
    1c24:	6d74736d 	ldclvs	3, cr7, [r4, #-436]!	; 0xfffffe4c
    1c28:	65725f70 	ldrbvs	r5, [r2, #-3952]!	; 0xf70
    1c2c:	726f7473 	rsbvc	r7, pc, #1929379840	; 0x73000000
    1c30:	656d0065 	strbvs	r0, [sp, #-101]!	; 0x65
    1c34:	6d745f6d 	ldclvs	15, cr5, [r4, #-436]!	; 0xfffffe4c
    1c38:	706d7473 	rsbvc	r7, sp, r3, ror r4
    1c3c:	7661735f 			; <UNDEFINED> instruction: 0x7661735f
    1c40:	74700065 	ldrbtvc	r0, [r0], #-101	; 0x65
    1c44:	6d74736d 	ldclvs	3, cr7, [r4, #-436]!	; 0xfffffe4c
    1c48:	74735f70 	ldrbtvc	r5, [r3], #-3952	; 0xf70
    1c4c:	00657461 	rsbeq	r7, r5, r1, ror #8
    1c50:	68637261 	stmdavs	r3!, {r0, r5, r6, r9, ip, sp, lr}^
    1c54:	6d72612f 	ldfvse	f6, [r2, #-188]!	; 0xffffff44
    1c58:	63616d2f 	cmnvs	r1, #3008	; 0xbc0
    1c5c:	75732d68 	ldrbvc	r2, [r3, #-3432]!	; 0xd68
    1c60:	2f69786e 	svccs	0x0069786e
    1c64:	732f6d70 	teqvc	pc, #7168	; 0x1c00
    1c68:	646e6174 	strbtvs	r6, [lr], #-372	; 0x174
    1c6c:	2e2f7962 	cdpcs	9, 2, cr7, cr15, cr2, {3}
    1c70:	656d2f2e 	strbvs	r2, [sp, #-3886]!	; 0xf2e
    1c74:	6d745f6d 	ldclvs	15, cr5, [r4, #-436]!	; 0xfffffe4c
    1c78:	706d7473 	rsbvc	r7, sp, r3, ror r4
    1c7c:	6800632e 	stmdavs	r0, {r1, r2, r3, r5, r8, r9, sp, lr}
    1c80:	69707377 	ldmdbvs	r0!, {r0, r1, r2, r4, r5, r6, r8, r9, ip, sp, lr}^
    1c84:	6e755f6e 	cdpvs	15, 7, cr5, cr5, cr14, {3}
    1c88:	6b636f6c 	blvs	18dda40 <__bss_end+0x18ca8f4>
    1c8c:	6d6f6e5f 	stclvs	14, cr6, [pc, #-380]!	; 1b18 <__resume1_start+0x1b18>
    1c90:	6600756d 	strvs	r7, [r0], -sp, ror #10
    1c94:	7367616c 	cmnvc	r7, #27
    1c98:	73706300 	cmnvc	r0, #0
    1c9c:	61625f72 	smcvs	9714	; 0x25f2
    1ca0:	70756b63 	rsbsvc	r6, r5, r3, ror #22
    1ca4:	70786500 	rsbsvc	r6, r8, r0, lsl #10
    1ca8:	00657269 	rsbeq	r7, r5, r9, ror #4
    1cac:	70737768 	rsbsvc	r7, r3, r8, ror #14
    1cb0:	6c5f6e69 	mrrcvs	14, 6, r6, pc, cr9	; <UNPREDICTABLE>
    1cb4:	5f6b636f 	svcpl	0x006b636f
    1cb8:	656d6974 	strbvs	r6, [sp, #-2420]!	; 0x974
    1cbc:	0074756f 	rsbseq	r7, r4, pc, ror #10
    1cc0:	70737768 	rsbsvc	r7, r3, r8, ror #14
    1cc4:	6c5f6e69 	mrrcvs	14, 6, r6, pc, cr9	; <UNPREDICTABLE>
    1cc8:	5f6b636f 	svcpl	0x006b636f
    1ccc:	656d6974 	strbvs	r6, [sp, #-2420]!	; 0x974
    1cd0:	5f74756f 	svcpl	0x0074756f
    1cd4:	6d6d6f6e 	stclvs	15, cr6, [sp, #-440]!	; 0xfffffe48
    1cd8:	77680075 			; <UNDEFINED> instruction: 0x77680075
    1cdc:	68006469 	stmdavs	r0, {r0, r3, r5, r6, sl, sp, lr}
    1ce0:	69707377 	ldmdbvs	r0!, {r0, r1, r2, r4, r5, r6, r8, r9, ip, sp, lr}^
    1ce4:	636f6c6e 	cmnvs	pc, #28160	; 0x6e00
    1ce8:	6e695f6b 	cdpvs	15, 6, cr5, cr9, cr11, {3}
    1cec:	68007469 	stmdavs	r0, {r0, r3, r5, r6, sl, ip, sp, lr}
    1cf0:	69707377 	ldmdbvs	r0!, {r0, r1, r2, r4, r5, r6, r8, r9, ip, sp, lr}^
    1cf4:	6e755f6e 	cdpvs	15, 7, cr5, cr5, cr14, {3}
    1cf8:	6b636f6c 	blvs	18ddab0 <__bss_end+0x18ca964>
    1cfc:	63726100 	cmnvs	r2, #0
    1d00:	72612f68 	rsbvc	r2, r1, #416	; 0x1a0
    1d04:	616d2f6d 	cmnvs	sp, sp, ror #30
    1d08:	732d6863 	teqvc	sp, #6488064	; 0x630000
    1d0c:	69786e75 	ldmdbvs	r8!, {r0, r2, r4, r5, r6, r9, sl, fp, sp, lr}^
    1d10:	2f6d702f 	svccs	0x006d702f
    1d14:	6e617473 	mcrvs	4, 3, r7, cr1, cr3, {3}
    1d18:	2f796264 	svccs	0x00796264
    1d1c:	6d2f2e2e 	stcvs	14, cr2, [pc, #-184]!	; 1c6c <__resume1_start+0x1c6c>
    1d20:	685f6d65 	ldmdavs	pc, {r0, r2, r5, r6, r8, sl, fp, sp, lr}^	; <UNPREDICTABLE>
    1d24:	69707377 	ldmdbvs	r0!, {r0, r1, r2, r4, r5, r6, r8, r9, ip, sp, lr}^
    1d28:	636f6c6e 	cmnvs	pc, #28160	; 0x6e00
    1d2c:	00632e6b 	rsbeq	r2, r3, fp, ror #28
    1d30:	5f6d656d 	svcpl	0x006d656d
    1d34:	61636f6c 	cmnvs	r3, ip, ror #30
    1d38:	72695f6c 	rsbvc	r5, r9, #432	; 0x1b0
    1d3c:	61735f71 	cmnvs	r3, r1, ror pc
    1d40:	6d006576 	cfstr32vs	mvfx6, [r0, #-472]	; 0xfffffe28
    1d44:	6c5f6d65 	mrrcvs	13, 6, r6, pc, cr5	; <UNPREDICTABLE>
    1d48:	6c61636f 	stclvs	3, cr6, [r1], #-444	; 0xfffffe44
    1d4c:	7172695f 	cmnvc	r2, pc, asr r9
    1d50:	7365725f 	cmnvc	r5, #-268435451	; 0xf0000005
    1d54:	65726f74 	ldrbvs	r6, [r2, #-3956]!	; 0xf74
    1d58:	5f657600 	svcpl	0x00657600
    1d5c:	006b6c63 	rsbeq	r6, fp, r3, ror #24
    1d60:	30697363 	rsbcc	r7, r9, r3, ror #6
    1d64:	6c636d5f 	stclvs	13, cr6, [r3], #-380	; 0xfffffe84
    1d68:	7375006b 	cmnvc	r5, #107	; 0x6b
    1d6c:	79687062 	stmdbvc	r8!, {r1, r5, r6, ip, sp, lr}^
    1d70:	66635f30 	uqasxvs	r5, r3, r0
    1d74:	61730067 	cmnvs	r3, r7, rrx
    1d78:	635f6174 	cmpvs	pc, #29
    1d7c:	73006b6c 	movwvc	r6, #2924	; 0xb6c
    1d80:	635f3064 	cmpvs	pc, #100	; 0x64
    1d84:	73006b6c 	movwvc	r6, #2924	; 0xb6c
    1d88:	635f3264 	cmpvs	pc, #1073741830	; 0x40000006
    1d8c:	61006b6c 	tstvs	r0, ip, ror #22
    1d90:	2f686372 	svccs	0x00686372
    1d94:	2f6d7261 	svccs	0x006d7261
    1d98:	6863616d 	stmdavs	r3!, {r0, r2, r3, r5, r6, r8, sp, lr}^
    1d9c:	6e75732d 	cdpvs	3, 7, cr7, cr5, cr13, {1}
    1da0:	702f6978 	eorvc	r6, pc, r8, ror r9	; <UNPREDICTABLE>
    1da4:	74732f6d 	ldrbtvc	r2, [r3], #-3949	; 0xf6d
    1da8:	62646e61 	rsbvs	r6, r4, #1552	; 0x610
    1dac:	2e2e2f79 	mcrcs	15, 1, r2, cr14, cr9, {3}
    1db0:	6d656d2f 	stclvs	13, cr6, [r5, #-188]!	; 0xffffff44
    1db4:	6b6c635f 	blvs	1b1ab38 <__bss_end+0x1b079ec>
    1db8:	6100632e 	tstvs	r0, lr, lsr #6
    1dbc:	5f316270 	svcpl	0x00316270
    1dc0:	00747372 	rsbseq	r7, r4, r2, ror r3
    1dc4:	31626861 	cmncc	r2, r1, ror #16
    1dc8:	7461675f 	strbtvc	r6, [r1], #-1887	; 0x75f
    1dcc:	00676e69 	rsbeq	r6, r7, r9, ror #28
    1dd0:	5f6d656d 	svcpl	0x006d656d
    1dd4:	5f6b6c63 	svcpl	0x006b6c63
    1dd8:	74696e69 	strbtvc	r6, [r9], #-3689	; 0xe69
    1ddc:	6d656d00 	stclvs	13, cr6, [r5, #-0]
    1de0:	6b6c635f 	blvs	1b1ab64 <__bss_end+0x1b07a18>
    1de4:	7465735f 	strbtvc	r7, [r5], #-863	; 0x35f
    1de8:	73696d5f 	cmnvc	r9, #6080	; 0x17c0
    1dec:	696d0063 	stmdbvs	sp!, {r0, r1, r5, r6}^
    1df0:	685f6970 	ldmdavs	pc, {r4, r5, r6, r8, fp, sp, lr}^	; <UNPREDICTABLE>
    1df4:	635f6973 	cmpvs	pc, #1884160	; 0x1cc000
    1df8:	61006b6c 	tstvs	r0, ip, ror #22
    1dfc:	635f7376 	cmpvs	pc, #-671088639	; 0xd8000001
    1e00:	6d006b6c 	vstrvs	d6, [r0, #-432]	; 0xfffffe50
    1e04:	635f6d65 	cmpvs	pc, #6464	; 0x1940
    1e08:	675f6b6c 	ldrbvs	r6, [pc, -ip, ror #22]
    1e0c:	635f7465 	cmpvs	pc, #1694498816	; 0x65000000
    1e10:	665f7570 			; <UNDEFINED> instruction: 0x665f7570
    1e14:	00716572 	rsbseq	r6, r1, r2, ror r5
    1e18:	696d6468 	stmdbvs	sp!, {r3, r5, r6, sl, sp, lr}^
    1e1c:	6c63735f 	stclvs	3, cr7, [r3], #-380	; 0xfffffe84
    1e20:	616e006b 	cmnvs	lr, fp, rrx
    1e24:	5f30646e 	svcpl	0x0030646e
    1e28:	6b6c6373 	blvs	1b1abfc <__bss_end+0x1b07ab0>
    1e2c:	66635f31 	uqasxvs	r5, r3, r1
    1e30:	68610067 	stmdavs	r1!, {r0, r1, r2, r5, r6}^
    1e34:	725f3262 	subsvc	r3, pc, #536870918	; 0x20000006
    1e38:	73007473 	movwvc	r7, #1139	; 0x473
    1e3c:	6c635f73 	stclvs	15, cr5, [r3], #-460	; 0xfffffe34
    1e40:	656d006b 	strbvs	r0, [sp, #-107]!	; 0x6b
    1e44:	6c635f6d 	stclvs	15, cr5, [r3], #-436	; 0xfffffe4c
    1e48:	65735f6b 	ldrbvs	r5, [r3, #-3947]!	; 0xf6b
    1e4c:	6c705f74 	ldclvs	15, cr5, [r0], #-464	; 0xfffffe30
    1e50:	61665f6c 	cmnvs	r6, ip, ror #30
    1e54:	726f7463 	rsbvc	r7, pc, #1660944384	; 0x63000000
    1e58:	6d656d00 	stclvs	13, cr6, [r5, #-0]
    1e5c:	6b6c635f 	blvs	1b1abe0 <__bss_end+0x1b07a94>
    1e60:	7465675f 	strbtvc	r6, [r5], #-1887	; 0x75f
    1e64:	6c6c705f 	stclvs	0, cr7, [ip], #-380	; 0xfffffe84
    1e68:	6361665f 	cmnvs	r1, #99614720	; 0x5f00000
    1e6c:	00726f74 	rsbseq	r6, r2, r4, ror pc
    1e70:	5f6d6363 	svcpl	0x006d6363
    1e74:	00676572 	rsbeq	r6, r7, r2, ror r5
    1e78:	5f697363 	svcpl	0x00697363
    1e7c:	5f707369 	svcpl	0x00707369
    1e80:	006b6c63 	rsbeq	r6, fp, r3, ror #24
    1e84:	5f676572 	svcpl	0x00676572
    1e88:	006c6176 	rsbeq	r6, ip, r6, ror r1
    1e8c:	64756164 	ldrbtvs	r6, [r5], #-356	; 0x164
    1e90:	5f316f69 	svcpl	0x00316f69
    1e94:	006b6c63 	rsbeq	r6, fp, r3, ror #24
    1e98:	646e616e 	strbtvs	r6, [lr], #-366	; 0x16e
    1e9c:	63735f31 	cmnvs	r3, #196	; 0xc4
    1ea0:	5f306b6c 	svcpl	0x00306b6c
    1ea4:	00676663 	rsbeq	r6, r7, r3, ror #12
    1ea8:	635f706d 	cmpvs	pc, #109	; 0x6d
    1eac:	6d006b6c 	vstrvs	d6, [r0, #-432]	; 0xfffffe50
    1eb0:	635f6d65 	cmpvs	pc, #6464	; 0x1940
    1eb4:	675f6b6c 	ldrbvs	r6, [pc, -ip, ror #22]
    1eb8:	6d5f7465 	cfldrdvs	mvd7, [pc, #-404]	; 1d2c <__resume1_start+0x1d2c>
    1ebc:	00637369 	rsbeq	r7, r3, r9, ror #6
    1ec0:	5f316473 	svcpl	0x00316473
    1ec4:	006b6c63 	rsbeq	r6, fp, r3, ror #24
    1ec8:	30627061 	rsbcc	r7, r2, r1, rrx
    1ecc:	7473725f 	ldrbtvc	r7, [r3], #-607	; 0x25f
    1ed0:	73657200 	cmnvc	r5, #0
    1ed4:	65767265 	ldrbvs	r7, [r6, #-613]!	; 0x265
    1ed8:	00303164 	eorseq	r3, r0, r4, ror #2
    1edc:	65736572 	ldrbvs	r6, [r3, #-1394]!	; 0x572
    1ee0:	64657672 	strbtvs	r7, [r5], #-1650	; 0x672
    1ee4:	73003131 	movwvc	r3, #305	; 0x131
    1ee8:	5f316970 	svcpl	0x00316970
    1eec:	006b6c63 	rsbeq	r6, fp, r3, ror #24
    1ef0:	5f6d6363 	svcpl	0x006d6363
    1ef4:	5f646f6d 	svcpl	0x00646f6d
    1ef8:	5f676572 	svcpl	0x00676572
    1efc:	6b636162 	blvs	18da48c <__bss_end+0x18c7340>
    1f00:	6d007075 	stcvs	0, cr7, [r0, #-468]	; 0xfffffe2c
    1f04:	635f6d65 	cmpvs	pc, #6464	; 0x1940
    1f08:	735f6b6c 	cmpvc	pc, #110592	; 0x1b000
    1f0c:	69647465 	stmdbvs	r4!, {r0, r2, r5, r6, sl, ip, sp, lr}^
    1f10:	696d0076 	stmdbvs	sp!, {r1, r2, r4, r5, r6}^
    1f14:	635f6970 	cmpvs	pc, #1835008	; 0x1c0000
    1f18:	635f6973 	cmpvs	pc, #1884160	; 0x1cc000
    1f1c:	5f006766 	svcpl	0x00006766
    1f20:	6d63635f 	stclvs	3, cr6, [r3, #-380]!	; 0xfffffe84
    1f24:	6f6d5f75 	svcvs	0x006d5f75
    1f28:	65725f64 	ldrbvs	r5, [r2, #-3940]!	; 0xf64
    1f2c:	696c5f67 	stmdbvs	ip!, {r0, r1, r2, r5, r6, r8, r9, sl, fp, ip, lr}^
    1f30:	745f7473 	ldrbvc	r7, [pc], #-1139	; 1f38 <__resume1_start+0x1f38>
    1f34:	6d656d00 	stclvs	13, cr6, [r5, #-0]
    1f38:	6b6c635f 	blvs	1b1acbc <__bss_end+0x1b07b70>
    1f3c:	7465675f 	strbtvc	r6, [r5], #-1887	; 0x75f
    1f40:	00766964 	rsbseq	r6, r6, r4, ror #18
    1f44:	43435f5f 	movtmi	r5, #16223	; 0x3f5f
    1f48:	4d5f554d 	cfldr64mi	mvdx5, [pc, #-308]	; 1e1c <__resume1_start+0x1e1c>
    1f4c:	525f444f 	subspl	r4, pc, #1325400064	; 0x4f000000
    1f50:	4c5f4745 	mrrcmi	7, 4, r4, pc, cr5	; <UNPREDICTABLE>
    1f54:	00545349 	subseq	r5, r4, r9, asr #6
    1f58:	5f757067 	svcpl	0x00757067
    1f5c:	5f6d656d 	svcpl	0x006d656d
    1f60:	006b6c63 	rsbeq	r6, fp, r3, ror #24
    1f64:	5f6d656d 	svcpl	0x006d656d
    1f68:	5f746567 	svcpl	0x00746567
    1f6c:	61006162 	tstvs	r0, r2, ror #2
    1f70:	5f373963 	svcpl	0x00373963
    1f74:	006b6c63 	rsbeq	r6, fp, r3, ror #24
    1f78:	52756d43 	rsbspl	r6, r5, #4288	; 0x10c0
    1f7c:	415f6765 	cmpmi	pc, r5, ror #14
    1f80:	5f306978 	svcpl	0x00306978
    1f84:	5f676643 	svcpl	0x00676643
    1f88:	00706d74 	rsbseq	r6, r0, r4, ror sp
    1f8c:	30627061 	rsbcc	r7, r2, r1, rrx
    1f90:	7461675f 	strbtvc	r6, [r1], #-1887	; 0x75f
    1f94:	00676e69 	rsbeq	r6, r7, r9, ror #28
    1f98:	5f6d656d 	svcpl	0x006d656d
    1f9c:	5f6b6c63 	svcpl	0x006b6c63
    1fa0:	65766173 	ldrbvs	r6, [r6, #-371]!	; 0x173
    1fa4:	6d646800 	stclvs	8, cr6, [r4, #-0]
    1fa8:	6c735f69 	ldclvs	15, cr5, [r3], #-420	; 0xfffffe5c
    1fac:	635f776f 	cmpvs	pc, #29097984	; 0x1bc0000
    1fb0:	00306b6c 	eorseq	r6, r0, ip, ror #22
    1fb4:	5f6d6363 	svcpl	0x006d6363
    1fb8:	5f676572 	svcpl	0x00676572
    1fbc:	6b636162 	blvs	18da54c <__bss_end+0x18c7400>
    1fc0:	6c007075 	stcvs	0, cr7, [r0], {117}	; 0x75
    1fc4:	5f316463 	svcpl	0x00316463
    1fc8:	006b6c63 	rsbeq	r6, fp, r3, ror #24
    1fcc:	52756d43 	rsbspl	r6, r5, #4288	; 0x10c0
    1fd0:	435f6765 	cmpmi	pc, #26476544	; 0x1940000
    1fd4:	435f7570 	cmpmi	pc, #469762048	; 0x1c000000
    1fd8:	535f6b6c 	cmppl	pc, #110592	; 0x1b000
    1fdc:	745f6372 	ldrbvc	r6, [pc], #-882	; 1fe4 <__resume1_start+0x1fe4>
    1fe0:	6e00706d 	cdpvs	0, 0, cr7, cr0, cr13, {3}
    1fe4:	30646e61 	rsbcc	r6, r4, r1, ror #28
    1fe8:	6c63735f 	stclvs	3, cr7, [r3], #-380	; 0xfffffe84
    1fec:	635f306b 	cmpvs	pc, #107	; 0x6b
    1ff0:	6e006766 	cdpvs	7, 0, cr6, cr0, cr6, {3}
    1ff4:	31646e61 	cmncc	r4, r1, ror #28
    1ff8:	6c63735f 	stclvs	3, cr7, [r3], #-380	; 0xfffffe84
    1ffc:	635f316b 	cmpvs	pc, #-1073741798	; 0xc000001a
    2000:	61006766 	tstvs	r0, r6, ror #14
    2004:	5f316268 	svcpl	0x00316268
    2008:	00747372 	rsbseq	r7, r4, r2, ror r3
    200c:	31697363 	cmncc	r9, r3, ror #6
    2010:	6c636d5f 	stclvs	13, cr6, [r3], #-380	; 0xfffffe84
    2014:	6564006b 	strbvs	r0, [r4, #-107]!	; 0x6b
    2018:	6c63735f 	stclvs	3, cr7, [r3], #-380	; 0xfffffe84
    201c:	66635f6b 	strbtvs	r5, [r3], -fp, ror #30
    2020:	64660067 	strbtvs	r0, [r6], #-103	; 0x67
    2024:	6b6c635f 	blvs	1b1ada8 <__bss_end+0x1b07c5c>
    2028:	33647300 	cmncc	r4, #0
    202c:	6b6c635f 	blvs	1b1adb0 <__bss_end+0x1b07c64>
    2030:	75616400 	strbvc	r6, [r1, #-1024]!	; 0x400
    2034:	306f6964 	rsbcc	r6, pc, r4, ror #18
    2038:	6b6c635f 	blvs	1b1adbc <__bss_end+0x1b07c70>
    203c:	62686100 	rsbvs	r6, r8, #0
    2040:	61675f30 	cmnvs	r7, r0, lsr pc
    2044:	676e6974 			; <UNDEFINED> instruction: 0x676e6974
    2048:	74657300 	strbtvc	r7, [r5], #-768	; 0x300
    204c:	676e6974 			; <UNDEFINED> instruction: 0x676e6974
    2050:	6268615f 	rsbvs	r6, r8, #-1073741801	; 0xc0000017
    2054:	61705f30 	cmnvs	r0, r0, lsr pc
    2058:	6d006172 	stfvss	f6, [r0, #-456]	; 0xfffffe38
    205c:	5f697069 	svcpl	0x00697069
    2060:	5f697364 	svcpl	0x00697364
    2064:	306b6c63 	rsbcc	r6, fp, r3, ror #24
    2068:	70696d00 	rsbvc	r6, r9, r0, lsl #26
    206c:	73645f69 	cmnvc	r4, #420	; 0x1a4
    2070:	6c635f69 	stclvs	15, cr5, [r3], #-420	; 0xfffffe5c
    2074:	7300316b 	movwvc	r3, #363	; 0x16b
    2078:	5f336970 	svcpl	0x00336970
    207c:	006b6c63 	rsbeq	r6, fp, r3, ror #24
    2080:	69647073 	stmdbvs	r4!, {r0, r1, r4, r5, r6, ip, sp, lr}^
    2084:	6c635f66 	stclvs	15, cr5, [r3], #-408	; 0xfffffe68
    2088:	6572006b 	ldrbvs	r0, [r2, #-107]!	; 0x6b
    208c:	76726573 			; <UNDEFINED> instruction: 0x76726573
    2090:	00396465 	eorseq	r6, r9, r5, ror #8
    2094:	5f6d656d 	svcpl	0x006d656d
    2098:	5f6b6c63 	svcpl	0x006b6c63
    209c:	74736572 	ldrbtvc	r6, [r3], #-1394	; 0x572
    20a0:	0065726f 	rsbeq	r7, r5, pc, ror #4
    20a4:	32626861 	rsbcc	r6, r2, #6356992	; 0x610000
    20a8:	7461675f 	strbtvc	r6, [r1], #-1887	; 0x75f
    20ac:	00676e69 	rsbeq	r6, r7, r9, ror #28
    20b0:	30697073 	rsbcc	r7, r9, r3, ror r0
    20b4:	6b6c635f 	blvs	1b1ae38 <__bss_end+0x1b07cec>
    20b8:	62706100 	rsbsvs	r6, r0, #0
    20bc:	61675f31 	cmnvs	r7, r1, lsr pc
    20c0:	676e6974 			; <UNDEFINED> instruction: 0x676e6974
    20c4:	6b6c6300 	blvs	1b1accc <__bss_end+0x1b07b80>
    20c8:	6174735f 	cmnvs	r4, pc, asr r3
    20cc:	63006574 	movwvs	r6, #1396	; 0x574
    20d0:	745f7269 	ldrbvc	r7, [pc], #-617	; 20d8 <__resume1_start+0x20d8>
    20d4:	6c635f78 	stclvs	15, cr5, [r3], #-480	; 0xfffffe20
    20d8:	6363006b 	cmnvs	r3, #107	; 0x6b
    20dc:	6f6d5f6d 	svcvs	0x006d5f6d
    20e0:	65725f64 	ldrbvs	r5, [r2, #-3940]!	; 0xf64
    20e4:	70670067 	rsbvc	r0, r7, r7, rrx
    20e8:	6f635f75 	svcvs	0x00635f75
    20ec:	635f6572 	cmpvs	pc, #478150656	; 0x1c800000
    20f0:	73006b6c 	movwvc	r6, #2924	; 0xb6c
    20f4:	5f326970 	svcpl	0x00326970
    20f8:	006b6c63 	rsbeq	r6, fp, r3, ror #24
    20fc:	615f7067 	cmpvs	pc, r7, rrx
    2100:	7a006364 	bvc	1ae98 <__bss_end+0x7d4c>
    2104:	5f726371 	svcpl	0x00726371
    2108:	00306863 	eorseq	r6, r0, r3, ror #16
    210c:	7263717a 	rsbvc	r7, r3, #-2147483618	; 0x8000001e
    2110:	3168635f 	cmncc	r8, pc, asr r3
    2114:	756d4300 	strbvc	r4, [sp, #-768]!	; 0x300
    2118:	5f676552 	svcpl	0x00676552
    211c:	5f6c6c50 	svcpl	0x006c6c50
    2120:	435f3043 	cmpmi	pc, #67	; 0x43
    2124:	745f6766 	ldrbvc	r6, [pc], #-1894	; 212c <__resume1_start+0x212c>
    2128:	6400706d 	strvs	r7, [r0], #-109	; 0x6d
    212c:	5f6d6172 	svcpl	0x006d6172
    2130:	00676663 	rsbeq	r6, r7, r3, ror #12
    2134:	635f7374 	cmpvs	pc, #-805306367	; 0xd0000001
    2138:	6c006b6c 	stcvs	11, cr6, [r0], {108}	; 0x6c
    213c:	5f306463 	svcpl	0x00306463
    2140:	006b6c63 	rsbeq	r6, fp, r3, ror #24
    2144:	5f757067 	svcpl	0x00757067
    2148:	5f697861 	svcpl	0x00697861
    214c:	006b6c63 	rsbeq	r6, fp, r3, ror #24
    2150:	7366646d 	cmnvc	r6, #1828716544	; 0x6d000000
    2154:	6b6c635f 	blvs	1b1aed8 <__bss_end+0x1b07d8c>
    2158:	70646500 	rsbvc	r6, r4, r0, lsl #10
    215c:	6c63735f 	stclvs	3, cr7, [r3], #-380	; 0xfffffe84
    2160:	66635f6b 	strbtvs	r5, [r3], -fp, ror #30
    2164:	68610067 	stmdavs	r1!, {r0, r1, r2, r5, r6}^
    2168:	725f3062 	subsvc	r3, pc, #98	; 0x62
    216c:	Address 0x0000216c is out of bounds.


Disassembly of section .comment:

00000000 <.comment>:
   0:	3a434347 	bcc	10d0d24 <__bss_end+0x10bdbd8>
   4:	72632820 	rsbvc	r2, r3, #2097152	; 0x200000
   8:	7473736f 	ldrbtvc	r7, [r3], #-879	; 0x36f
   c:	2d6c6f6f 	stclcs	15, cr6, [ip, #-444]!	; 0xfffffe44
  10:	6c20474e 	stcvs	7, cr4, [r0], #-312	; 0xfffffec8
  14:	72616e69 	rsbvc	r6, r1, #1680	; 0x690
  18:	2e312d6f 	cdpcs	13, 3, cr2, cr1, cr15, {3}
  1c:	312e3331 	teqcc	lr, r1, lsr r3
  20:	3130322d 	teqcc	r0, sp, lsr #4
  24:	32302e32 	eorscc	r2, r0, #800	; 0x320
  28:	3130322d 	teqcc	r0, sp, lsr #4
  2c:	32323032 	eorscc	r3, r2, #50	; 0x32
  30:	202d2032 	eorcs	r2, sp, r2, lsr r0
  34:	616e694c 	cmnvs	lr, ip, asr #18
  38:	47206f72 			; <UNDEFINED> instruction: 0x47206f72
  3c:	32204343 	eorcc	r4, r0, #201326593	; 0xc000001
  40:	2e323130 	mrccs	1, 1, r3, cr2, cr0, {1}
  44:	20293230 	eorcs	r3, r9, r0, lsr r2
  48:	2e362e34 	mrccs	14, 1, r2, cr6, cr4, {1}
  4c:	30322033 	eorscc	r2, r2, r3, lsr r0
  50:	32303231 	eorscc	r3, r0, #268435459	; 0x10000003
  54:	28203130 	stmdacs	r0!, {r4, r5, r8, ip, sp}
  58:	72657270 	rsbvc	r7, r5, #7
  5c:	61656c65 	cmnvs	r5, r5, ror #24
  60:	00296573 	eoreq	r6, r9, r3, ror r5

Disassembly of section .ARM.attributes:

00000000 <.ARM.attributes>:
   0:	00003241 	andeq	r3, r0, r1, asr #4
   4:	61656100 	cmnvs	r5, r0, lsl #2
   8:	01006962 	tsteq	r0, r2, ror #18
   c:	00000028 	andeq	r0, r0, r8, lsr #32
  10:	412d3705 	teqmi	sp, r5, lsl #14
  14:	070a0600 	streq	r0, [sl, -r0, lsl #12]
  18:	09010841 	stmdbeq	r1, {r0, r6, fp}
  1c:	12040a02 	andne	r0, r4, #8192	; 0x2000
  20:	15011404 	strne	r1, [r1, #-1028]	; 0x404
  24:	18031701 	stmdane	r3, {r0, r8, r9, sl, ip}
  28:	1b021a01 	blne	86834 <__bss_end+0x736e8>
  2c:	22021e03 	andcs	r1, r2, #48	; 0x30
  30:	Address 0x00000030 is out of bounds.


Disassembly of section .debug_aranges:

00000000 <.debug_aranges>:
   0:	0000001c 	andeq	r0, r0, ip, lsl r0
   4:	01400002 	cmpeq	r0, r2
   8:	00040000 	andeq	r0, r4, r0
   c:	00000000 	andeq	r0, r0, r0
  10:	00010030 	andeq	r0, r1, r0, lsr r0
  14:	0000004c 	andeq	r0, r0, ip, asr #32
	...
  20:	0000001c 	andeq	r0, r0, ip, lsl r0
  24:	01bb0002 			; <UNDEFINED> instruction: 0x01bb0002
  28:	00040000 	andeq	r0, r4, r0
  2c:	00000000 	andeq	r0, r0, r0
  30:	0001007c 	andeq	r0, r1, ip, ror r0
  34:	00000028 	andeq	r0, r0, r8, lsr #32
	...
  40:	0000001c 	andeq	r0, r0, ip, lsl r0
  44:	02e90002 	rsceq	r0, r9, #2
  48:	00040000 	andeq	r0, r4, r0
  4c:	00000000 	andeq	r0, r0, r0
  50:	000100a4 	andeq	r0, r1, r4, lsr #1
  54:	00000028 	andeq	r0, r0, r8, lsr #32
	...
  60:	0000001c 	andeq	r0, r0, ip, lsl r0
  64:	04900002 	ldreq	r0, [r0], #2
  68:	00040000 	andeq	r0, r4, r0
  6c:	00000000 	andeq	r0, r0, r0
  70:	000100cc 	andeq	r0, r1, ip, asr #1
  74:	00000218 	andeq	r0, r0, r8, lsl r2
	...
  80:	0000001c 	andeq	r0, r0, ip, lsl r0
  84:	2e660002 	cdpcs	0, 6, cr0, cr6, cr2, {0}
  88:	00040000 	andeq	r0, r4, r0
  8c:	00000000 	andeq	r0, r0, r0
  90:	000102e4 	andeq	r0, r1, r4, ror #5
  94:	00000344 	andeq	r0, r0, r4, asr #6
	...
  a0:	0000001c 	andeq	r0, r0, ip, lsl r0
  a4:	31d20002 	bicscc	r0, r2, r2
  a8:	00040000 	andeq	r0, r4, r0
  ac:	00000000 	andeq	r0, r0, r0
  b0:	00010628 	andeq	r0, r1, r8, lsr #12
  b4:	000001bc 			; <UNDEFINED> instruction: 0x000001bc
	...
  c0:	0000001c 	andeq	r0, r0, ip, lsl r0
  c4:	36430002 	strbcc	r0, [r3], -r2
  c8:	00040000 	andeq	r0, r4, r0
  cc:	00000000 	andeq	r0, r0, r0
  d0:	00010800 	andeq	r0, r1, r0, lsl #16
  d4:	000000a0 	andeq	r0, r0, r0, lsr #1
	...
  e0:	0000001c 	andeq	r0, r0, ip, lsl r0
  e4:	378b0002 	strcc	r0, [fp, r2]
  e8:	00040000 	andeq	r0, r4, r0
  ec:	00000000 	andeq	r0, r0, r0
  f0:	000108a0 	andeq	r0, r1, r0, lsr #17
  f4:	00000528 	andeq	r0, r0, r8, lsr #10
	...
 100:	0000001c 	andeq	r0, r0, ip, lsl r0
 104:	38030002 	stmdacc	r3, {r1}
 108:	00040000 	andeq	r0, r4, r0
 10c:	00000000 	andeq	r0, r0, r0
 110:	00010de0 	andeq	r0, r1, r0, ror #27
 114:	000002dc 	ldrdeq	r0, [r0], -ip
	...
 120:	0000001c 	andeq	r0, r0, ip, lsl r0
 124:	3d230002 	stccc	0, cr0, [r3, #-8]!
 128:	00040000 	andeq	r0, r4, r0
 12c:	00000000 	andeq	r0, r0, r0
 130:	000110bc 	strheq	r1, [r1], -ip
 134:	0000043c 	andeq	r0, r0, ip, lsr r4
	...
 140:	0000001c 	andeq	r0, r0, ip, lsl r0
 144:	67d10002 	ldrbvs	r0, [r1, r2]
 148:	00040000 	andeq	r0, r4, r0
 14c:	00000000 	andeq	r0, r0, r0
 150:	000114f8 	strdeq	r1, [r1], -r8
 154:	000007ec 	andeq	r0, r0, ip, ror #15
	...
 160:	0000001c 	andeq	r0, r0, ip, lsl r0
 164:	6fa80002 	svcvs	0x00a80002
 168:	00040000 	andeq	r0, r4, r0
 16c:	00000000 	andeq	r0, r0, r0
 170:	00011ce4 	andeq	r1, r1, r4, ror #25
 174:	000001dc 	ldrdeq	r0, [r0], -ip
	...
 180:	0000001c 	andeq	r0, r0, ip, lsl r0
 184:	701c0002 	andsvc	r0, ip, r2
 188:	00040000 	andeq	r0, r4, r0
 18c:	00000000 	andeq	r0, r0, r0
 190:	00011ec0 	andeq	r1, r1, r0, asr #29
 194:	00000058 	andeq	r0, r0, r8, asr r0
	...
 1a0:	0000001c 	andeq	r0, r0, ip, lsl r0
 1a4:	710f0002 	tstvc	pc, r2
 1a8:	00040000 	andeq	r0, r4, r0
 1ac:	00000000 	andeq	r0, r0, r0
 1b0:	00011f18 	andeq	r1, r1, r8, lsl pc
 1b4:	0000018c 	andeq	r0, r0, ip, lsl #3
	...
 1c0:	0000001c 	andeq	r0, r0, ip, lsl r0
 1c4:	72ee0002 	rscvc	r0, lr, #2
 1c8:	00040000 	andeq	r0, r4, r0
 1cc:	00000000 	andeq	r0, r0, r0
 1d0:	000120a4 	andeq	r2, r1, r4, lsr #1
 1d4:	0000019c 	muleq	r0, ip, r1
	...
 1e0:	0000001c 	andeq	r0, r0, ip, lsl r0
 1e4:	76db0002 	ldrbvc	r0, [fp], r2
 1e8:	00040000 	andeq	r0, r4, r0
 1ec:	00000000 	andeq	r0, r0, r0
 1f0:	00012240 	andeq	r2, r1, r0, asr #4
 1f4:	00000058 	andeq	r0, r0, r8, asr r0
	...
 200:	0000001c 	andeq	r0, r0, ip, lsl r0
 204:	78210002 	stmdavc	r1!, {r1}
 208:	00040000 	andeq	r0, r4, r0
 20c:	00000000 	andeq	r0, r0, r0
 210:	00012298 	muleq	r1, r8, r2
 214:	00000168 	andeq	r0, r0, r8, ror #2
	...
 220:	0000001c 	andeq	r0, r0, ip, lsl r0
 224:	7ab00002 	bvc	fec00234 <__bss_end+0xfebed0e8>
 228:	00040000 	andeq	r0, r4, r0
 22c:	00000000 	andeq	r0, r0, r0
 230:	00012400 	andeq	r2, r1, r0, lsl #8
 234:	00000868 	andeq	r0, r0, r8, ror #16
	...

Disassembly of section .debug_loc:

00000000 <.debug_loc>:
       0:	00000000 	andeq	r0, r0, r0
       4:	00000014 	andeq	r0, r0, r4, lsl r0
       8:	00500001 	subseq	r0, r0, r1
	...
      14:	14000000 	strne	r0, [r0], #-0
      18:	01000000 	mrseq	r0, (UNDEF: 0)
      1c:	00005100 	andeq	r5, r0, r0, lsl #2
	...
      28:	00040000 	andeq	r0, r4, r0
      2c:	00010000 	andeq	r0, r1, r0
      30:	00000452 	andeq	r0, r0, r2, asr r4
      34:	00000800 	andeq	r0, r0, r0, lsl #16
      38:	72000300 	andvc	r0, r0, #0
      3c:	00089f7d 	andeq	r9, r8, sp, ror pc
      40:	00140000 	andseq	r0, r4, r0
      44:	00010000 	andeq	r0, r1, r0
      48:	00000052 	andeq	r0, r0, r2, asr r0
      4c:	00000000 	andeq	r0, r0, r0
      50:	00000800 	andeq	r0, r0, r0, lsl #16
      54:	00001400 	andeq	r1, r0, r0, lsl #8
      58:	51000100 	mrspl	r0, (UNDEF: 16)
	...
      68:	00000004 	andeq	r0, r0, r4
      6c:	007d0002 	rsbseq	r0, sp, r2
      70:	00000004 	andeq	r0, r0, r4
      74:	000000e8 	andeq	r0, r0, r8, ror #1
      78:	087d0002 	ldmdaeq	sp!, {r1}^
	...
      84:	000000e8 	andeq	r0, r0, r8, ror #1
      88:	000000ec 	andeq	r0, r0, ip, ror #1
      8c:	007d0002 	rsbseq	r0, sp, r2
      90:	000000ec 	andeq	r0, r0, ip, ror #1
      94:	00000218 	andeq	r0, r0, r8, lsl r2
      98:	107d0002 	rsbsne	r0, sp, r2
	...
      a4:	00000128 	andeq	r0, r0, r8, lsr #2
      a8:	0000012b 	andeq	r0, r0, fp, lsr #2
      ac:	2b500001 	blcs	14000b8 <__bss_end+0x13ecf6c>
      b0:	d0000001 	andle	r0, r0, r1
      b4:	01000001 	tsteq	r0, r1
      b8:	02005400 	andeq	r5, r0, #0
      bc:	02180000 	andseq	r0, r8, #0
      c0:	00010000 	andeq	r0, r1, r0
      c4:	00000054 	andeq	r0, r0, r4, asr r0
      c8:	00000000 	andeq	r0, r0, r0
      cc:	0000e800 	andeq	lr, r0, r0, lsl #16
      d0:	0000f000 	andeq	pc, r0, r0
      d4:	30000200 	andcc	r0, r0, r0, lsl #4
      d8:	0000f09f 	muleq	r0, pc, r0	; <UNPREDICTABLE>
      dc:	0000f400 	andeq	pc, r0, r0, lsl #8
      e0:	70000500 	andvc	r0, r0, r0, lsl #10
      e4:	9f1a3300 	svcls	0x001a3300
      e8:	000000f4 	strdeq	r0, [r0], -r4
      ec:	0000011c 	andeq	r0, r0, ip, lsl r1
      f0:	1c500001 	mrrcne	0, 0, r0, r0, cr1	; <UNPREDICTABLE>
      f4:	1f000001 	svcne	0x00000001
      f8:	02000001 	andeq	r0, r0, #1
      fc:	d07c7300 	rsbsle	r7, ip, r0, lsl #6
     100:	00000001 	andeq	r0, r0, r1
     104:	01000002 	tsteq	r0, r2
     108:	00005000 	andeq	r5, r0, r0
	...
     114:	00040000 	andeq	r0, r4, r0
     118:	00020000 	andeq	r0, r2, r0
     11c:	0004007d 	andeq	r0, r4, sp, ror r0
     120:	00200000 	eoreq	r0, r0, r0
     124:	00020000 	andeq	r0, r2, r0
     128:	0000087d 	andeq	r0, r0, sp, ror r8
     12c:	00000000 	andeq	r0, r0, r0
     130:	00700000 	rsbseq	r0, r0, r0
     134:	00740000 	rsbseq	r0, r4, r0
     138:	00020000 	andeq	r0, r2, r0
     13c:	0074007d 	rsbseq	r0, r4, sp, ror r0
     140:	01000000 	mrseq	r0, (UNDEF: 0)
     144:	00020000 	andeq	r0, r2, r0
     148:	0000087d 	andeq	r0, r0, sp, ror r8
     14c:	00000000 	andeq	r0, r0, r0
     150:	00700000 	rsbseq	r0, r0, r0
     154:	009c0000 	addseq	r0, ip, r0
     158:	00020000 	andeq	r0, r2, r0
     15c:	00009f31 	andeq	r9, r0, r1, lsr pc
     160:	00000000 	andeq	r0, r0, r0
     164:	01040000 	mrseq	r0, (UNDEF: 4)
     168:	01080000 	mrseq	r0, (UNDEF: 8)
     16c:	00020000 	andeq	r0, r2, r0
     170:	0108007d 	tsteq	r8, sp, ror r0
     174:	010c0000 	mrseq	r0, (UNDEF: 12)
     178:	00020000 	andeq	r0, r2, r0
     17c:	010c047d 	tsteq	ip, sp, ror r4
     180:	01900000 	orrseq	r0, r0, r0
     184:	00020000 	andeq	r0, r2, r0
     188:	0000107d 	andeq	r1, r0, sp, ror r0
     18c:	00000000 	andeq	r0, r0, r0
     190:	01040000 	mrseq	r0, (UNDEF: 4)
     194:	01180000 	tsteq	r8, r0
     198:	00010000 	andeq	r0, r1, r0
     19c:	00011850 	andeq	r1, r1, r0, asr r8
     1a0:	00019000 	andeq	r9, r1, r0
     1a4:	91000200 	mrsls	r0, R8_usr
     1a8:	0000006c 	andeq	r0, r0, ip, rrx
     1ac:	00000000 	andeq	r0, r0, r0
     1b0:	00019000 	andeq	r9, r1, r0
     1b4:	00019400 	andeq	r9, r1, r0, lsl #8
     1b8:	7d000200 	sfmvc	f0, 4, [r0, #-0]
     1bc:	00019400 	andeq	r9, r1, r0, lsl #8
     1c0:	0001dc00 	andeq	sp, r1, r0, lsl #24
     1c4:	7d000200 	sfmvc	f0, 4, [r0, #-0]
     1c8:	00000008 	andeq	r0, r0, r8
     1cc:	00000000 	andeq	r0, r0, r0
     1d0:	00019000 	andeq	r9, r1, r0
     1d4:	0001d400 	andeq	sp, r1, r0, lsl #8
     1d8:	30000200 	andcc	r0, r0, r0, lsl #4
     1dc:	0001d49f 	muleq	r1, pc, r4	; <UNPREDICTABLE>
     1e0:	0001dc00 	andeq	sp, r1, r0, lsl #24
     1e4:	03000c00 	movweq	r0, #3072	; 0xc00
     1e8:	00012d84 	andeq	r2, r1, r4, lsl #27
     1ec:	24480194 	strbcs	r0, [r8], #-404	; 0x194
     1f0:	009f2548 	addseq	r2, pc, r8, asr #10
     1f4:	00000000 	andeq	r0, r0, r0
     1f8:	dc000000 	stcle	0, cr0, [r0], {-0}
     1fc:	e0000001 	and	r0, r0, r1
     200:	02000001 	andeq	r0, r0, #1
     204:	e0007d00 	and	r7, r0, r0, lsl #26
     208:	44000001 	strmi	r0, [r0], #-1
     20c:	02000002 	andeq	r0, r0, #2
     210:	00107d00 	andseq	r7, r0, r0, lsl #26
     214:	00000000 	andeq	r0, r0, r0
     218:	dc000000 	stcle	0, cr0, [r0], {-0}
     21c:	e8000001 	stmda	r0, {r0}
     220:	02000001 	andeq	r0, r0, #1
     224:	309f3100 	addscc	r3, pc, r0, lsl #2
     228:	44000002 	strmi	r0, [r0], #-2
     22c:	01000002 	tsteq	r0, r2
     230:	00005500 	andeq	r5, r0, r0, lsl #10
     234:	00000000 	andeq	r0, r0, r0
     238:	01dc0000 	bicseq	r0, ip, r0
     23c:	01e80000 	mvneq	r0, r0
     240:	00020000 	andeq	r0, r2, r0
     244:	021c9f30 	andseq	r9, ip, #192	; 0xc0
     248:	022f0000 	eoreq	r0, pc, #0
     24c:	000c0000 	andeq	r0, ip, r0
     250:	012d8403 	teqeq	sp, r3, lsl #8
     254:	48019400 	stmdami	r1, {sl, ip, pc}
     258:	9f254824 	svcls	0x00254824
	...
     264:	00000244 	andeq	r0, r0, r4, asr #4
     268:	00000248 	andeq	r0, r0, r8, asr #4
     26c:	007d0002 	rsbseq	r0, sp, r2
     270:	00000248 	andeq	r0, r0, r8, asr #4
     274:	0000024c 	andeq	r0, r0, ip, asr #4
     278:	087d0002 	ldmdaeq	sp!, {r1}^
     27c:	0000024c 	andeq	r0, r0, ip, asr #4
     280:	000002c8 	andeq	r0, r0, r8, asr #5
     284:	107d0002 	rsbsne	r0, sp, r2
	...
     290:	00000244 	andeq	r0, r0, r4, asr #4
     294:	00000258 	andeq	r0, r0, r8, asr r2
     298:	58500001 	ldmdapl	r0, {r0}^
     29c:	c8000002 	stmdagt	r0, {r1}
     2a0:	02000002 	andeq	r0, r0, #2
     2a4:	006c9100 	rsbeq	r9, ip, r0, lsl #2
     2a8:	00000000 	andeq	r0, r0, r0
     2ac:	10000000 	andne	r0, r0, r0
     2b0:	14000003 	strne	r0, [r0], #-3
     2b4:	02000003 	andeq	r0, r0, #3
     2b8:	14007d00 	strne	r7, [r0], #-3328	; 0xd00
     2bc:	44000003 	strmi	r0, [r0], #-3
     2c0:	02000003 	andeq	r0, r0, #3
     2c4:	00107d00 	andseq	r7, r0, r0, lsl #26
     2c8:	00000000 	andeq	r0, r0, r0
     2cc:	10000000 	andne	r0, r0, r0
     2d0:	28000003 	stmdacs	r0, {r0, r1}
     2d4:	01000003 	tsteq	r0, r3
     2d8:	00005000 	andeq	r5, r0, r0
     2dc:	00000000 	andeq	r0, r0, r0
     2e0:	032c0000 	teqeq	ip, #0
     2e4:	033c0000 	teqeq	ip, #0
     2e8:	00010000 	andeq	r0, r1, r0
     2ec:	00033c56 	andeq	r3, r3, r6, asr ip
     2f0:	00034400 	andeq	r4, r3, r0, lsl #8
     2f4:	55000100 	strpl	r0, [r0, #-256]	; 0x100
	...
     304:	00000008 	andeq	r0, r0, r8
     308:	00500001 	subseq	r0, r0, r1
	...
     314:	0c000000 	stceq	0, cr0, [r0], {-0}
     318:	02000000 	andeq	r0, r0, #0
     31c:	0c9f3100 	ldfeqs	f3, [pc], {0}
     320:	14000000 	strne	r0, [r0], #-0
     324:	01000000 	mrseq	r0, (UNDEF: 0)
     328:	00145000 	andseq	r5, r4, r0
     32c:	00180000 	andseq	r0, r8, r0
     330:	00050000 	andeq	r0, r5, r0
     334:	21400070 	hvccs	0
     338:	0000189f 	muleq	r0, pc, r8	; <UNPREDICTABLE>
     33c:	00001c00 	andeq	r1, r0, r0, lsl #24
     340:	50000100 	andpl	r0, r0, r0, lsl #2
     344:	0000001c 	andeq	r0, r0, ip, lsl r0
     348:	0000002c 	andeq	r0, r0, ip, lsr #32
     34c:	049e0006 	ldreq	r0, [lr], #6
     350:	8000000f 	andhi	r0, r0, pc
	...
     35c:	00000074 	andeq	r0, r0, r4, ror r0
     360:	00000078 	andeq	r0, r0, r8, ror r0
     364:	9f300002 	svcls	0x00300002
     368:	00000078 	andeq	r0, r0, r8, ror r0
     36c:	0000007c 	andeq	r0, r0, ip, ror r0
     370:	00730005 	rsbseq	r0, r3, r5
     374:	7c9f2134 	ldfvcs	f2, [pc], {52}	; 0x34
     378:	84000000 	strhi	r0, [r0], #-0
     37c:	01000000 	mrseq	r0, (UNDEF: 0)
     380:	00005300 	andeq	r5, r0, r0, lsl #6
     384:	00000000 	andeq	r0, r0, r0
     388:	00840000 	addeq	r0, r4, r0
     38c:	00880000 	addeq	r0, r8, r0
     390:	00020000 	andeq	r0, r2, r0
     394:	0088007d 	addeq	r0, r8, sp, ror r0
     398:	00ac0000 	adceq	r0, ip, r0
     39c:	00020000 	andeq	r0, r2, r0
     3a0:	0000087d 	andeq	r0, r0, sp, ror r8
     3a4:	00000000 	andeq	r0, r0, r0
     3a8:	00840000 	addeq	r0, r4, r0
     3ac:	008c0000 	addeq	r0, ip, r0
     3b0:	00020000 	andeq	r0, r2, r0
     3b4:	00009f30 	andeq	r9, r0, r0, lsr pc
     3b8:	00000000 	andeq	r0, r0, r0
     3bc:	008c0000 	addeq	r0, ip, r0
     3c0:	00980000 	addseq	r0, r8, r0
     3c4:	00010000 	andeq	r0, r1, r0
     3c8:	00000053 	andeq	r0, r0, r3, asr r0
     3cc:	00000000 	andeq	r0, r0, r0
     3d0:	00009000 	andeq	r9, r0, r0
     3d4:	0000a300 	andeq	sl, r0, r0, lsl #6
     3d8:	52000100 	andpl	r0, r0, #0
	...
     3e4:	000000ac 	andeq	r0, r0, ip, lsr #1
     3e8:	000000b0 	strheq	r0, [r0], -r0	; <UNPREDICTABLE>
     3ec:	007d0002 	rsbseq	r0, sp, r2
     3f0:	000000b0 	strheq	r0, [r0], -r0	; <UNPREDICTABLE>
     3f4:	0000012c 	andeq	r0, r0, ip, lsr #2
     3f8:	107d0002 	rsbsne	r0, sp, r2
	...
     404:	000000ac 	andeq	r0, r0, ip, lsr #1
     408:	000000bc 	strheq	r0, [r0], -ip
     40c:	bc500001 	mrrclt	0, 0, r0, r0, cr1	; <UNPREDICTABLE>
     410:	c4000000 	strgt	r0, [r0], #-0
     414:	01000000 	mrseq	r0, (UNDEF: 0)
     418:	00d05500 	sbcseq	r5, r0, r0, lsl #10
     41c:	00e40000 	rsceq	r0, r4, r0
     420:	00010000 	andeq	r0, r1, r0
     424:	00000055 	andeq	r0, r0, r5, asr r0
     428:	00000000 	andeq	r0, r0, r0
     42c:	0000ac00 	andeq	sl, r0, r0, lsl #24
     430:	0000c400 	andeq	ip, r0, r0, lsl #8
     434:	30000200 	andcc	r0, r0, r0, lsl #4
     438:	0000d09f 	muleq	r0, pc, r0	; <UNPREDICTABLE>
     43c:	0000d800 	andeq	sp, r0, r0, lsl #16
     440:	30000200 	andcc	r0, r0, r0, lsl #4
     444:	0000d89f 	muleq	r0, pc, r8	; <UNPREDICTABLE>
     448:	0000e400 	andeq	lr, r0, r0, lsl #8
     44c:	70000600 	andvc	r0, r0, r0, lsl #12
     450:	1e007501 	cfsh32ne	mvfx7, mvfx0, #1
     454:	0000009f 	muleq	r0, pc, r0	; <UNPREDICTABLE>
     458:	00000000 	andeq	r0, r0, r0
     45c:	0000ac00 	andeq	sl, r0, r0, lsl #24
     460:	0000c400 	andeq	ip, r0, r0, lsl #8
     464:	30000200 	andcc	r0, r0, r0, lsl #4
     468:	0000d09f 	muleq	r0, pc, r0	; <UNPREDICTABLE>
     46c:	0000dc00 	andeq	sp, r0, r0, lsl #24
     470:	30000200 	andcc	r0, r0, r0, lsl #4
     474:	0001109f 	muleq	r1, pc, r0	; <UNPREDICTABLE>
     478:	00011400 	andeq	r1, r1, r0, lsl #8
     47c:	53000100 	movwpl	r0, #256	; 0x100
     480:	00000118 	andeq	r0, r0, r8, lsl r1
     484:	0000011c 	andeq	r0, r0, ip, lsl r1
     488:	00530001 	subseq	r0, r3, r1
     48c:	00000000 	andeq	r0, r0, r0
     490:	ac000000 	stcge	0, cr0, [r0], {-0}
     494:	c4000000 	strgt	r0, [r0], #-0
     498:	02000000 	andeq	r0, r0, #0
     49c:	d09f3000 	addsle	r3, pc, r0
     4a0:	ec000000 	stc	0, cr0, [r0], {-0}
     4a4:	02000000 	andeq	r0, r0, #0
     4a8:	ec9f3000 	ldc	0, cr3, [pc], {0}
     4ac:	2c000000 	stccs	0, cr0, [r0], {-0}
     4b0:	01000001 	tsteq	r0, r1
     4b4:	00005500 	andeq	r5, r0, r0, lsl #10
     4b8:	00000000 	andeq	r0, r0, r0
     4bc:	00ac0000 	adceq	r0, ip, r0
     4c0:	00c40000 	sbceq	r0, r4, r0
     4c4:	00020000 	andeq	r0, r2, r0
     4c8:	00d09f30 	sbcseq	r9, r0, r0, lsr pc
     4cc:	00f00000 	rscseq	r0, r0, r0
     4d0:	00020000 	andeq	r0, r2, r0
     4d4:	00f09f30 	rscseq	r9, r0, r0, lsr pc
     4d8:	00f40000 	rscseq	r0, r4, r0
     4dc:	00010000 	andeq	r0, r1, r0
     4e0:	00000052 	andeq	r0, r0, r2, asr r0
     4e4:	00000000 	andeq	r0, r0, r0
     4e8:	0000fc00 	andeq	pc, r0, r0, lsl #24
     4ec:	00011400 	andeq	r1, r1, r0, lsl #8
     4f0:	30000200 	andcc	r0, r0, r0, lsl #4
     4f4:	0000009f 	muleq	r0, pc, r0	; <UNPREDICTABLE>
     4f8:	00000000 	andeq	r0, r0, r0
     4fc:	0000fc00 	andeq	pc, r0, r0, lsl #24
     500:	00011400 	andeq	r1, r1, r0, lsl #8
     504:	31000200 	mrscc	r0, R8_usr
     508:	0000009f 	muleq	r0, pc, r0	; <UNPREDICTABLE>
     50c:	00000000 	andeq	r0, r0, r0
     510:	0000fc00 	andeq	pc, r0, r0, lsl #24
     514:	00010400 	andeq	r0, r1, r0, lsl #8
     518:	47000200 	strmi	r0, [r0, -r0, lsl #4]
     51c:	0001049f 	muleq	r1, pc, r4	; <UNPREDICTABLE>
     520:	00011400 	andeq	r1, r1, r0, lsl #8
     524:	9e000600 	cfmadd32ls	mvax0, mvfx0, mvfx0, mvfx0
     528:	00000f04 	andeq	r0, r0, r4, lsl #30
     52c:	00000080 	andeq	r0, r0, r0, lsl #1
     530:	00000000 	andeq	r0, r0, r0
     534:	00011800 	andeq	r1, r1, r0, lsl #16
     538:	00011c00 	andeq	r1, r1, r0, lsl #24
     53c:	53000100 	movwpl	r0, #256	; 0x100
	...
     548:	0000012c 	andeq	r0, r0, ip, lsr #2
     54c:	00000134 	andeq	r0, r0, r4, lsr r1
     550:	00500001 	subseq	r0, r0, r1
     554:	00000000 	andeq	r0, r0, r0
     558:	38000000 	stmdacc	r0, {}	; <UNPREDICTABLE>
     55c:	40000001 	andmi	r0, r0, r1
     560:	01000001 	tsteq	r0, r1
     564:	00005000 	andeq	r5, r0, r0
     568:	00000000 	andeq	r0, r0, r0
     56c:	01380000 	teqeq	r8, r0
     570:	01440000 	mrseq	r0, (UNDEF: 68)
     574:	00020000 	andeq	r0, r2, r0
     578:	01449f31 	cmpeq	r4, r1, lsr pc
     57c:	014c0000 	mrseq	r0, (UNDEF: 76)
     580:	00010000 	andeq	r0, r1, r0
     584:	00014c50 	andeq	r4, r1, r0, asr ip
     588:	00015000 	andeq	r5, r1, r0
     58c:	70000500 	andvc	r0, r0, r0, lsl #10
     590:	9f214000 	svcls	0x00214000
     594:	00000150 	andeq	r0, r0, r0, asr r1
     598:	00000154 	andeq	r0, r0, r4, asr r1
     59c:	54500001 	ldrbpl	r0, [r0], #-1
     5a0:	64000001 	strvs	r0, [r0], #-1
     5a4:	06000001 	streq	r0, [r0], -r1
     5a8:	0f049e00 	svceq	0x00049e00
     5ac:	00800000 	addeq	r0, r0, r0
     5b0:	00000000 	andeq	r0, r0, r0
     5b4:	64000000 	strvs	r0, [r0], #-0
     5b8:	74000001 	strvc	r0, [r0], #-1
     5bc:	02000001 	andeq	r0, r0, #1
     5c0:	009f3000 	addseq	r3, pc, r0
     5c4:	00000000 	andeq	r0, r0, r0
     5c8:	90000000 	andls	r0, r0, r0
     5cc:	94000001 	strls	r0, [r0], #-1
     5d0:	01000001 	tsteq	r0, r1
     5d4:	01ac5000 			; <UNDEFINED> instruction: 0x01ac5000
     5d8:	01bc0000 			; <UNDEFINED> instruction: 0x01bc0000
     5dc:	00030000 	andeq	r0, r3, r0
     5e0:	009f0270 	addseq	r0, pc, r0, ror r2	; <UNPREDICTABLE>
     5e4:	00000000 	andeq	r0, r0, r0
     5e8:	90000000 	andls	r0, r0, r0
     5ec:	a4000001 	strge	r0, [r0], #-1
     5f0:	02000001 	andeq	r0, r0, #1
     5f4:	a49f3000 	ldrge	r3, [pc], #0	; 5fc <__resume1_start+0x5fc>
     5f8:	bc000001 	stclt	0, cr0, [r0], {1}
     5fc:	01000001 	tsteq	r0, r1
     600:	00005300 	andeq	r5, r0, r0, lsl #6
     604:	00000000 	andeq	r0, r0, r0
     608:	01900000 	orrseq	r0, r0, r0
     60c:	01ac0000 			; <UNDEFINED> instruction: 0x01ac0000
     610:	00020000 	andeq	r0, r2, r0
     614:	01ac9f30 			; <UNDEFINED> instruction: 0x01ac9f30
     618:	01bc0000 			; <UNDEFINED> instruction: 0x01bc0000
     61c:	00010000 	andeq	r0, r1, r0
     620:	00000050 	andeq	r0, r0, r0, asr r0
     624:	00000000 	andeq	r0, r0, r0
     628:	00019000 	andeq	r9, r1, r0
     62c:	00019400 	andeq	r9, r1, r0, lsl #8
     630:	50000100 	andpl	r0, r0, r0, lsl #2
     634:	00000194 	muleq	r0, r4, r1
     638:	000001bc 			; <UNDEFINED> instruction: 0x000001bc
     63c:	02700003 	rsbseq	r0, r0, #3
     640:	0000009f 	muleq	r0, pc, r0	; <UNPREDICTABLE>
     644:	00000000 	andeq	r0, r0, r0
     648:	0001ec00 	andeq	lr, r1, r0, lsl #24
     64c:	0001f000 	andeq	pc, r1, r0
     650:	72000600 	andvc	r0, r0, #0
     654:	1afc0900 	bne	fff02a5c <__bss_end+0xffeef910>
     658:	0001f09f 	muleq	r1, pc, r0	; <UNPREDICTABLE>
     65c:	0001f800 	andeq	pc, r1, r0, lsl #16
     660:	52000100 	andpl	r0, r0, #0
	...
     66c:	000002cc 	andeq	r0, r0, ip, asr #5
     670:	000002d0 	ldrdeq	r0, [r0], -r0	; <UNPREDICTABLE>
     674:	9f300002 	svcls	0x00300002
     678:	000002d0 	ldrdeq	r0, [r0], -r0	; <UNPREDICTABLE>
     67c:	000002dc 	ldrdeq	r0, [r0], -ip
     680:	00530001 	subseq	r0, r3, r1
	...
     68c:	04000000 	streq	r0, [r0], #-0
     690:	02000000 	andeq	r0, r0, #0
     694:	04007d00 	streq	r7, [r0], #-3328	; 0xd00
     698:	d4000000 	strle	r0, [r0], #-0
     69c:	02000000 	andeq	r0, r0, #0
     6a0:	00107d00 	andseq	r7, r0, r0, lsl #26
	...
     6ac:	0b000000 	bleq	6b4 <__resume1_start+0x6b4>
     6b0:	01000000 	mrseq	r0, (UNDEF: 0)
     6b4:	000b5000 	andeq	r5, fp, r0
     6b8:	00480000 	subeq	r0, r8, r0
     6bc:	00010000 	andeq	r0, r1, r0
     6c0:	00008c54 	andeq	r8, r0, r4, asr ip
     6c4:	00009000 	andeq	r9, r0, r0
     6c8:	54000100 	strpl	r0, [r0], #-256	; 0x100
	...
     6d8:	0000001c 	andeq	r0, r0, ip, lsl r0
     6dc:	9f300002 	svcls	0x00300002
	...
     6e8:	00000040 	andeq	r0, r0, r0, asr #32
     6ec:	00000060 	andeq	r0, r0, r0, rrx
     6f0:	60500001 	subsvs	r0, r0, r1
     6f4:	d4000000 	strle	r0, [r0], #-0
     6f8:	01000000 	mrseq	r0, (UNDEF: 0)
     6fc:	00005500 	andeq	r5, r0, r0, lsl #10
     700:	00000000 	andeq	r0, r0, r0
     704:	00440000 	subeq	r0, r4, r0
     708:	00600000 	rsbeq	r0, r0, r0
     70c:	00060000 	andeq	r0, r6, r0
     710:	0005940c 	andeq	r9, r5, ip, lsl #8
     714:	006c9f06 	rsbeq	r9, ip, r6, lsl #30
     718:	008c0000 	addeq	r0, ip, r0
     71c:	00060000 	andeq	r0, r6, r0
     720:	0005b40c 	andeq	fp, r5, ip, lsl #8
     724:	00009f06 	andeq	r9, r0, r6, lsl #30
     728:	00000000 	andeq	r0, r0, r0
     72c:	000c0000 	andeq	r0, ip, r0
     730:	001c0000 	andseq	r0, ip, r0
     734:	00010000 	andeq	r0, r1, r0
     738:	00000050 	andeq	r0, r0, r0, asr r0
     73c:	00000000 	andeq	r0, r0, r0
     740:	0000d400 	andeq	sp, r0, r0, lsl #8
     744:	0000d800 	andeq	sp, r0, r0, lsl #16
     748:	7d000200 	sfmvc	f0, 4, [r0, #-0]
     74c:	0000d800 	andeq	sp, r0, r0, lsl #16
     750:	00016400 	andeq	r6, r1, r0, lsl #8
     754:	7d000200 	sfmvc	f0, 4, [r0, #-0]
     758:	00000010 	andeq	r0, r0, r0, lsl r0
     75c:	00000000 	andeq	r0, r0, r0
     760:	00011000 	andeq	r1, r1, r0
     764:	00013800 	andeq	r3, r1, r0, lsl #16
     768:	73000500 	movwvc	r0, #1280	; 0x500
     76c:	9f254400 	svcls	0x00254400
	...
     778:	00000114 	andeq	r0, r0, r4, lsl r1
     77c:	00000130 	andeq	r0, r0, r0, lsr r1
     780:	00500001 	subseq	r0, r0, r1
     784:	00000000 	andeq	r0, r0, r0
     788:	fc000000 	stc2	0, cr0, [r0], {-0}
     78c:	04000000 	streq	r0, [r0], #-0
     790:	01000001 	tsteq	r0, r1
     794:	01045000 	mrseq	r5, (UNDEF: 4)
     798:	01140000 	tsteq	r4, r0
     79c:	00050000 	andeq	r0, r5, r0
     7a0:	47e08070 			; <UNDEFINED> instruction: 0x47e08070
     7a4:	0000009f 	muleq	r0, pc, r0	; <UNPREDICTABLE>
     7a8:	00000000 	andeq	r0, r0, r0
     7ac:	00016400 	andeq	r6, r1, r0, lsl #8
     7b0:	00017400 	andeq	r7, r1, r0, lsl #8
     7b4:	50000100 	andpl	r0, r0, r0, lsl #2
     7b8:	00000178 	andeq	r0, r0, r8, ror r1
     7bc:	00000190 	muleq	r0, r0, r1
     7c0:	dc500001 	mrrcle	0, 0, r0, r0, cr1	; <UNPREDICTABLE>
     7c4:	e0000001 	and	r0, r0, r1
     7c8:	01000001 	tsteq	r0, r1
     7cc:	00005000 	andeq	r5, r0, r0
     7d0:	00000000 	andeq	r0, r0, r0
     7d4:	019c0000 	orrseq	r0, ip, r0
     7d8:	01c00000 	biceq	r0, r0, r0
     7dc:	00010000 	andeq	r0, r1, r0
     7e0:	0001c050 	andeq	ip, r1, r0, asr r0
     7e4:	0001c400 	andeq	ip, r1, r0, lsl #8
     7e8:	72000200 	andvc	r0, r0, #0
	...
     7f4:	0001e800 	andeq	lr, r1, r0, lsl #16
     7f8:	0001f000 	andeq	pc, r1, r0
     7fc:	7d000200 	sfmvc	f0, 4, [r0, #-0]
     800:	0001f000 	andeq	pc, r1, r0
     804:	00027000 	andeq	r7, r2, r0
     808:	7d000200 	sfmvc	f0, 4, [r0, #-0]
     80c:	00000004 	andeq	r0, r0, r4
     810:	00000000 	andeq	r0, r0, r0
     814:	0001e800 	andeq	lr, r1, r0, lsl #16
     818:	0001fc00 	andeq	pc, r1, r0, lsl #24
     81c:	50000100 	andpl	r0, r0, r0, lsl #2
	...
     828:	00000208 	andeq	r0, r0, r8, lsl #4
     82c:	0000021c 	andeq	r0, r0, ip, lsl r2
     830:	9f300002 	svcls	0x00300002
     834:	00000260 	andeq	r0, r0, r0, ror #4
     838:	00000270 	andeq	r0, r0, r0, ror r2
     83c:	00540001 	subseq	r0, r4, r1
     840:	00000000 	andeq	r0, r0, r0
     844:	24000000 	strcs	r0, [r0], #-0
     848:	28000002 	stmdacs	r0, {r1}
     84c:	01000002 	tsteq	r0, r2
     850:	02285300 	eoreq	r5, r8, #0
     854:	022c0000 	eoreq	r0, ip, #0
     858:	00030000 	andeq	r0, r3, r0
     85c:	2c9f0173 	ldfcss	f0, [pc], {115}	; 0x73
     860:	40000002 	andmi	r0, r0, r2
     864:	01000002 	tsteq	r0, r2
     868:	00005300 	andeq	r5, r0, r0, lsl #6
     86c:	00000000 	andeq	r0, r0, r0
     870:	02700000 	rsbseq	r0, r0, #0
     874:	02740000 	rsbseq	r0, r4, #0
     878:	00020000 	andeq	r0, r2, r0
     87c:	0274007d 	rsbseq	r0, r4, #125	; 0x7d
     880:	03000000 	movweq	r0, #0
     884:	00020000 	andeq	r0, r2, r0
     888:	0000107d 	andeq	r1, r0, sp, ror r0
     88c:	00000000 	andeq	r0, r0, r0
     890:	02980000 	addseq	r0, r8, #0
     894:	02a00000 	adceq	r0, r0, #0
     898:	00010000 	andeq	r0, r1, r0
     89c:	0002a050 	andeq	sl, r2, r0, asr r0
     8a0:	0002b000 	andeq	fp, r2, r0
     8a4:	70000500 	andvc	r0, r0, r0, lsl #10
     8a8:	9f47e080 	svcls	0x0047e080
	...
     8b4:	000002ac 	andeq	r0, r0, ip, lsr #5
     8b8:	000002d4 	ldrdeq	r0, [r0], -r4
     8bc:	00730005 	rsbseq	r0, r3, r5
     8c0:	009f2544 	addseq	r2, pc, r4, asr #10
     8c4:	00000000 	andeq	r0, r0, r0
     8c8:	b0000000 	andlt	r0, r0, r0
     8cc:	cc000002 	stcgt	0, cr0, [r0], {2}
     8d0:	01000002 	tsteq	r0, r2
     8d4:	00005000 	andeq	r5, r0, r0
     8d8:	00000000 	andeq	r0, r0, r0
     8dc:	03300000 	teqeq	r0, #0
     8e0:	03400000 	movteq	r0, #0
     8e4:	00010000 	andeq	r0, r1, r0
     8e8:	00034450 	andeq	r4, r3, r0, asr r4
     8ec:	00035c00 	andeq	r5, r3, r0, lsl #24
     8f0:	50000100 	andpl	r0, r0, r0, lsl #2
     8f4:	000003a8 	andeq	r0, r0, r8, lsr #7
     8f8:	000003ac 	andeq	r0, r0, ip, lsr #7
     8fc:	00500001 	subseq	r0, r0, r1
     900:	00000000 	andeq	r0, r0, r0
     904:	68000000 	stmdavs	r0, {}	; <UNPREDICTABLE>
     908:	8c000003 	stchi	0, cr0, [r0], {3}
     90c:	01000003 	tsteq	r0, r3
     910:	038c5000 	orreq	r5, ip, #0
     914:	03900000 	orrseq	r0, r0, #0
     918:	00020000 	andeq	r0, r2, r0
     91c:	00000072 	andeq	r0, r0, r2, ror r0
     920:	00000000 	andeq	r0, r0, r0
     924:	03b40000 			; <UNDEFINED> instruction: 0x03b40000
     928:	03bc0000 			; <UNDEFINED> instruction: 0x03bc0000
     92c:	00020000 	andeq	r0, r2, r0
     930:	03bc007d 			; <UNDEFINED> instruction: 0x03bc007d
     934:	043c0000 	ldrteq	r0, [ip], #-0
     938:	00020000 	andeq	r0, r2, r0
     93c:	0000047d 	andeq	r0, r0, sp, ror r4
     940:	00000000 	andeq	r0, r0, r0
     944:	03b40000 			; <UNDEFINED> instruction: 0x03b40000
     948:	03c80000 	biceq	r0, r8, #0
     94c:	00010000 	andeq	r0, r1, r0
     950:	00000050 	andeq	r0, r0, r0, asr r0
     954:	00000000 	andeq	r0, r0, r0
     958:	0003d400 	andeq	sp, r3, r0, lsl #8
     95c:	0003e800 	andeq	lr, r3, r0, lsl #16
     960:	30000200 	andcc	r0, r0, r0, lsl #4
     964:	00042c9f 	muleq	r4, pc, ip	; <UNPREDICTABLE>
     968:	00043c00 	andeq	r3, r4, r0, lsl #24
     96c:	54000100 	strpl	r0, [r0], #-256	; 0x100
	...
     978:	000003f0 	strdeq	r0, [r0], -r0	; <UNPREDICTABLE>
     97c:	000003f4 	strdeq	r0, [r0], -r4
     980:	f4530001 			; <UNDEFINED> instruction: 0xf4530001
     984:	f8000003 			; <UNDEFINED> instruction: 0xf8000003
     988:	03000003 	movweq	r0, #3
     98c:	9f017300 	svcls	0x00017300
     990:	000003f8 	strdeq	r0, [r0], -r8
     994:	0000040c 	andeq	r0, r0, ip, lsl #8
     998:	00530001 	subseq	r0, r3, r1
	...
     9a4:	04000000 	streq	r0, [r0], #-0
     9a8:	02000000 	andeq	r0, r0, #0
     9ac:	04007d00 	streq	r7, [r0], #-3328	; 0xd00
     9b0:	1c000000 	stcne	0, cr0, [r0], {-0}
     9b4:	02000000 	andeq	r0, r0, #0
     9b8:	1c1c7d00 	ldcne	13, cr7, [ip], {-0}
     9bc:	bc000000 	stclt	0, cr0, [r0], {-0}
     9c0:	03000000 	movweq	r0, #0
     9c4:	00c87d00 	sbceq	r7, r8, r0, lsl #26
	...
     9d4:	0000002c 	andeq	r0, r0, ip, lsr #32
     9d8:	2c500001 	mrrccs	0, 0, r0, r0, cr1	; <UNPREDICTABLE>
     9dc:	4c000000 	stcmi	0, cr0, [r0], {-0}
     9e0:	01000000 	mrseq	r0, (UNDEF: 0)
     9e4:	004c5400 	subeq	r5, ip, r0, lsl #8
     9e8:	00500000 	subseq	r0, r0, r0
     9ec:	00010000 	andeq	r0, r1, r0
     9f0:	00007850 	andeq	r7, r0, r0, asr r8
     9f4:	0000ac00 	andeq	sl, r0, r0, lsl #24
     9f8:	50000100 	andpl	r0, r0, r0, lsl #2
	...
     a08:	0000002c 	andeq	r0, r0, ip, lsr #32
     a0c:	2c510001 	mrrccs	0, 0, r0, r1, cr1
     a10:	bc000000 	stclt	0, cr0, [r0], {-0}
     a14:	01000000 	mrseq	r0, (UNDEF: 0)
     a18:	00005700 	andeq	r5, r0, r0, lsl #14
	...
     a24:	002c0000 	eoreq	r0, ip, r0
     a28:	00010000 	andeq	r0, r1, r0
     a2c:	00002c52 	andeq	r2, r0, r2, asr ip
     a30:	0000bc00 	andeq	fp, r0, r0, lsl #24
     a34:	55000100 	strpl	r0, [r0, #-256]	; 0x100
	...
     a40:	0000004c 	andeq	r0, r0, ip, asr #32
     a44:	00000050 	andeq	r0, r0, r0, asr r0
     a48:	80530001 	subshi	r0, r3, r1
     a4c:	84000000 	strhi	r0, [r0], #-0
     a50:	01000000 	mrseq	r0, (UNDEF: 0)
     a54:	00845300 	addeq	r5, r4, r0, lsl #6
     a58:	00900000 	addseq	r0, r0, r0
     a5c:	00010000 	andeq	r0, r1, r0
     a60:	00000058 	andeq	r0, r0, r8, asr r0
     a64:	00000000 	andeq	r0, r0, r0
     a68:	00008400 	andeq	r8, r0, r0, lsl #8
     a6c:	00009000 	andeq	r9, r0, r0
     a70:	30000200 	andcc	r0, r0, r0, lsl #4
     a74:	0000009f 	muleq	r0, pc, r0	; <UNPREDICTABLE>
     a78:	00000000 	andeq	r0, r0, r0
     a7c:	0000bc00 	andeq	fp, r0, r0, lsl #24
     a80:	0000c000 	andeq	ip, r0, r0
     a84:	7d000200 	sfmvc	f0, 4, [r0, #-0]
     a88:	0000c000 	andeq	ip, r0, r0
     a8c:	0000d800 	andeq	sp, r0, r0, lsl #16
     a90:	7d000200 	sfmvc	f0, 4, [r0, #-0]
     a94:	0000d810 	andeq	sp, r0, r0, lsl r8
     a98:	00016400 	andeq	r6, r1, r0, lsl #8
     a9c:	7d000200 	sfmvc	f0, 4, [r0, #-0]
     aa0:	00000028 	andeq	r0, r0, r8, lsr #32
     aa4:	00000000 	andeq	r0, r0, r0
     aa8:	0000bc00 	andeq	fp, r0, r0, lsl #24
     aac:	0000e000 	andeq	lr, r0, r0
     ab0:	50000100 	andpl	r0, r0, r0, lsl #2
     ab4:	000000e0 	andeq	r0, r0, r0, ror #1
     ab8:	00000114 	andeq	r0, r0, r4, lsl r1
     abc:	00550001 	subseq	r0, r5, r1
     ac0:	00000000 	andeq	r0, r0, r0
     ac4:	bc000000 	stclt	0, cr0, [r0], {-0}
     ac8:	e0000000 	and	r0, r0, r0
     acc:	01000000 	mrseq	r0, (UNDEF: 0)
     ad0:	00e05100 	rsceq	r5, r0, r0, lsl #2
     ad4:	01640000 	cmneq	r4, r0
     ad8:	00010000 	andeq	r0, r1, r0
     adc:	00000057 	andeq	r0, r0, r7, asr r0
     ae0:	00000000 	andeq	r0, r0, r0
     ae4:	0000bc00 	andeq	fp, r0, r0, lsl #24
     ae8:	0000e000 	andeq	lr, r0, r0
     aec:	52000100 	andpl	r0, r0, #0
     af0:	000000e0 	andeq	r0, r0, r0, ror #1
     af4:	00000164 	andeq	r0, r0, r4, ror #2
     af8:	00560001 	subseq	r0, r6, r1
	...
     b04:	30000001 	andcc	r0, r0, r1
     b08:	01000001 	tsteq	r0, r1
     b0c:	01305000 	teqeq	r0, r0
     b10:	01480000 	mrseq	r0, (UNDEF: 72)
     b14:	00010000 	andeq	r0, r1, r0
     b18:	00014851 	andeq	r4, r1, r1, asr r8
     b1c:	00014c00 	andeq	r4, r1, r0, lsl #24
     b20:	71000300 	mrsvc	r0, LR_irq
     b24:	014c9f7f 	hvceq	51711	; 0xc9ff
     b28:	01540000 	cmpeq	r4, r0
     b2c:	00010000 	andeq	r0, r1, r0
     b30:	00000051 	andeq	r0, r0, r1, asr r0
     b34:	00000000 	andeq	r0, r0, r0
     b38:	00010000 	andeq	r0, r1, r0
     b3c:	00012c00 	andeq	r2, r1, r0, lsl #24
     b40:	7c000300 	stcvc	3, cr0, [r0], {-0}
     b44:	012c9f70 	teqeq	ip, r0, ror pc
     b48:	01300000 	teqeq	r0, r0
     b4c:	00030000 	andeq	r0, r3, r0
     b50:	009f5491 	umullseq	r5, pc, r1, r4	; <UNPREDICTABLE>
	...
     b5c:	14000001 	strne	r0, [r0], #-1
     b60:	01000001 	tsteq	r0, r1
     b64:	01145500 	tsteq	r4, r0, lsl #10
     b68:	01180000 	tsteq	r8, r0
     b6c:	00010000 	andeq	r0, r1, r0
     b70:	00011853 	andeq	r1, r1, r3, asr r8
     b74:	00012000 	andeq	r2, r1, r0
     b78:	55000100 	strpl	r0, [r0, #-256]	; 0x100
     b7c:	00000120 	andeq	r0, r0, r0, lsr #2
     b80:	00000128 	andeq	r0, r0, r8, lsr #2
     b84:	28530001 	ldmdacs	r3, {r0}^
     b88:	30000001 	andcc	r0, r0, r1
     b8c:	01000001 	tsteq	r0, r1
     b90:	01305500 	teqeq	r0, r0, lsl #10
     b94:	01340000 	teqeq	r4, r0
     b98:	00010000 	andeq	r0, r1, r0
     b9c:	00013453 	andeq	r3, r1, r3, asr r4
     ba0:	00014400 	andeq	r4, r1, r0, lsl #8
     ba4:	55000100 	strpl	r0, [r0, #-256]	; 0x100
     ba8:	00000144 	andeq	r0, r0, r4, asr #2
     bac:	00000154 	andeq	r0, r0, r4, asr r1
     bb0:	00530001 	subseq	r0, r3, r1
	...
     bbc:	14000001 	strne	r0, [r0], #-1
     bc0:	01000001 	tsteq	r0, r1
     bc4:	00005500 	andeq	r5, r0, r0, lsl #10
     bc8:	00000000 	andeq	r0, r0, r0
     bcc:	01640000 	cmneq	r4, r0
     bd0:	01680000 	cmneq	r8, r0
     bd4:	00020000 	andeq	r0, r2, r0
     bd8:	0168007d 	smceq	32781	; 0x800d
     bdc:	017c0000 	cmneq	ip, r0
     be0:	00020000 	andeq	r0, r2, r0
     be4:	017c147d 	cmneq	ip, sp, ror r4
     be8:	024c0000 	subeq	r0, ip, #0
     bec:	00030000 	andeq	r0, r3, r0
     bf0:	0000c07d 	andeq	ip, r0, sp, ror r0
     bf4:	00000000 	andeq	r0, r0, r0
     bf8:	64000000 	strvs	r0, [r0], #-0
     bfc:	84000001 	strhi	r0, [r0], #-1
     c00:	01000001 	tsteq	r0, r1
     c04:	01845000 	orreq	r5, r4, r0
     c08:	01d80000 	bicseq	r0, r8, r0
     c0c:	00010000 	andeq	r0, r1, r0
     c10:	0001d85c 	andeq	sp, r1, ip, asr r8
     c14:	0001e800 	andeq	lr, r1, r0, lsl #16
     c18:	52000100 	andpl	r0, r0, #0
     c1c:	000001e8 	andeq	r0, r0, r8, ror #3
     c20:	000001fc 	strdeq	r0, [r0], -ip
     c24:	005c0001 	subseq	r0, ip, r1
     c28:	00000000 	andeq	r0, r0, r0
     c2c:	64000000 	strvs	r0, [r0], #-0
     c30:	84000001 	strhi	r0, [r0], #-1
     c34:	01000001 	tsteq	r0, r1
     c38:	01845100 	orreq	r5, r4, r0, lsl #2
     c3c:	024c0000 	subeq	r0, ip, #0
     c40:	00010000 	andeq	r0, r1, r0
     c44:	00000056 	andeq	r0, r0, r6, asr r0
     c48:	00000000 	andeq	r0, r0, r0
     c4c:	00016400 	andeq	r6, r1, r0, lsl #8
     c50:	0001a000 	andeq	sl, r1, r0
     c54:	30000200 	andcc	r0, r0, r0, lsl #4
     c58:	0001a09f 	muleq	r1, pc, r0	; <UNPREDICTABLE>
     c5c:	0001b000 	andeq	fp, r1, r0
     c60:	31000200 	mrscc	r0, R8_usr
     c64:	0001b09f 	muleq	r1, pc, r0	; <UNPREDICTABLE>
     c68:	00020400 	andeq	r0, r2, r0, lsl #8
     c6c:	57000100 	strpl	r0, [r0, -r0, lsl #2]
	...
     c78:	000001b0 			; <UNDEFINED> instruction: 0x000001b0
     c7c:	000001c0 	andeq	r0, r0, r0, asr #3
     c80:	9f300002 	svcls	0x00300002
     c84:	000001c0 	andeq	r0, r0, r0, asr #3
     c88:	000001c4 	andeq	r0, r0, r4, asr #3
     c8c:	d8540001 	ldmdale	r4, {r0}^
     c90:	08000001 	stmdaeq	r0, {r0}
     c94:	01000002 	tsteq	r0, r2
     c98:	02085400 	andeq	r5, r8, #0
     c9c:	02300000 	eorseq	r0, r0, #0
     ca0:	00010000 	andeq	r0, r1, r0
     ca4:	00000053 	andeq	r0, r0, r3, asr r0
     ca8:	00000000 	andeq	r0, r0, r0
     cac:	0001fc00 	andeq	pc, r1, r0, lsl #24
     cb0:	00020800 	andeq	r0, r2, r0, lsl #16
     cb4:	30000200 	andcc	r0, r0, r0, lsl #4
     cb8:	0002089f 	muleq	r2, pc, r8	; <UNPREDICTABLE>
     cbc:	00021400 	andeq	r1, r2, r0, lsl #8
     cc0:	57000100 	strpl	r0, [r0, -r0, lsl #2]
	...
     ccc:	0000024c 	andeq	r0, r0, ip, asr #4
     cd0:	00000250 	andeq	r0, r0, r0, asr r2
     cd4:	007d0002 	rsbseq	r0, sp, r2
     cd8:	00000250 	andeq	r0, r0, r0, asr r2
     cdc:	00000254 	andeq	r0, r0, r4, asr r2
     ce0:	107d0002 	rsbsne	r0, sp, r2
     ce4:	00000254 	andeq	r0, r0, r4, asr r2
     ce8:	00000258 	andeq	r0, r0, r8, asr r2
     cec:	307d0002 	rsbscc	r0, sp, r2
     cf0:	00000258 	andeq	r0, r0, r8, asr r2
     cf4:	0000051c 	andeq	r0, r0, ip, lsl r5
     cf8:	c87d0003 	ldmdagt	sp!, {r0, r1}^
	...
     d04:	00024c00 	andeq	r4, r2, r0, lsl #24
     d08:	00026400 	andeq	r6, r2, r0, lsl #8
     d0c:	91000200 	mrsls	r0, R8_usr
     d10:	00026470 	andeq	r6, r2, r0, ror r4
     d14:	00028800 	andeq	r8, r2, r0, lsl #16
     d18:	91000200 	mrsls	r0, R8_usr
     d1c:	00028848 	andeq	r8, r2, r8, asr #16
     d20:	0002a400 	andeq	sl, r2, r0, lsl #8
     d24:	54000100 	strpl	r0, [r0], #-256	; 0x100
     d28:	000002a4 	andeq	r0, r0, r4, lsr #5
     d2c:	000002bc 			; <UNDEFINED> instruction: 0x000002bc
     d30:	01740003 	cmneq	r4, r3
     d34:	0002c49f 	muleq	r2, pc, r4	; <UNPREDICTABLE>
     d38:	00051c00 	andeq	r1, r5, r0, lsl #24
     d3c:	54000100 	strpl	r0, [r0], #-256	; 0x100
	...
     d48:	0000024c 	andeq	r0, r0, ip, asr #4
     d4c:	00000288 	andeq	r0, r0, r8, lsl #5
     d50:	50030006 	andpl	r0, r3, r6
     d54:	9f00012e 	svcls	0x0000012e
     d58:	00000288 	andeq	r0, r0, r8, lsl #5
     d5c:	00000298 	muleq	r0, r8, r2
     d60:	38550001 	ldmdacc	r5, {r0}^
     d64:	50000003 	andpl	r0, r0, r3
     d68:	01000003 	tsteq	r0, r3
     d6c:	03bc5500 			; <UNDEFINED> instruction: 0x03bc5500
     d70:	03c00000 	biceq	r0, r0, #0
     d74:	00010000 	andeq	r0, r1, r0
     d78:	00040c55 	andeq	r0, r4, r5, asr ip
     d7c:	00041000 	andeq	r1, r4, r0
     d80:	55000100 	strpl	r0, [r0, #-256]	; 0x100
     d84:	0000047c 	andeq	r0, r0, ip, ror r4
     d88:	00000480 	andeq	r0, r0, r0, lsl #9
     d8c:	9c550001 	mrrcls	0, 0, r0, r5, cr1
     d90:	a8000004 	stmdage	r0, {r2}
     d94:	03000004 	movweq	r0, #4
     d98:	9f017500 	svcls	0x00017500
     d9c:	000004a8 	andeq	r0, r0, r8, lsr #9
     da0:	000004ac 	andeq	r0, r0, ip, lsr #9
     da4:	14550001 	ldrbne	r0, [r5], #-1
     da8:	1c000005 	stcne	0, cr0, [r0], {5}
     dac:	01000005 	tsteq	r0, r5
     db0:	00005500 	andeq	r5, r0, r0, lsl #10
     db4:	00000000 	andeq	r0, r0, r0
     db8:	03d40000 	bicseq	r0, r4, #0
     dbc:	04100000 	ldreq	r0, [r0], #-0
     dc0:	00040000 	andeq	r0, r4, r0
     dc4:	067fa491 			; <UNDEFINED> instruction: 0x067fa491
	...
     dd0:	000002c0 	andeq	r0, r0, r0, asr #5
     dd4:	0000032c 	andeq	r0, r0, ip, lsr #6
     dd8:	50570001 	subspl	r0, r7, r1
     ddc:	1c000003 	stcne	0, cr0, [r0], {3}
     de0:	01000005 	tsteq	r0, r5
     de4:	00005700 	andeq	r5, r0, r0, lsl #14
     de8:	00000000 	andeq	r0, r0, r0
     dec:	024c0000 	subeq	r0, ip, #0
     df0:	02880000 	addeq	r0, r8, #0
     df4:	00020000 	andeq	r0, r2, r0
     df8:	038c9f30 	orreq	r9, ip, #192	; 0xc0
     dfc:	03a40000 			; <UNDEFINED> instruction: 0x03a40000
     e00:	00010000 	andeq	r0, r1, r0
     e04:	0003a45a 	andeq	sl, r3, sl, asr r4
     e08:	0003c000 	andeq	ip, r3, r0
     e0c:	50000100 	andpl	r0, r0, r0, lsl #2
     e10:	0000044c 	andeq	r0, r0, ip, asr #8
     e14:	00000464 	andeq	r0, r0, r4, ror #8
     e18:	645a0001 	ldrbvs	r0, [sl], #-1
     e1c:	80000004 	andhi	r0, r0, r4
     e20:	01000004 	tsteq	r0, r4
     e24:	04e45000 	strbteq	r5, [r4], #0
     e28:	04fc0000 	ldrbteq	r0, [ip], #0
     e2c:	00010000 	andeq	r0, r1, r0
     e30:	0004fc5a 	andeq	pc, r4, sl, asr ip	; <UNPREDICTABLE>
     e34:	00051c00 	andeq	r1, r5, r0, lsl #24
     e38:	50000100 	andpl	r0, r0, r0, lsl #2
	...
     e44:	0000036c 	andeq	r0, r0, ip, ror #6
     e48:	000003c0 	andeq	r0, r0, r0, asr #7
     e4c:	00560001 	subseq	r0, r6, r1
     e50:	00000000 	andeq	r0, r0, r0
     e54:	6c000000 	stcvs	0, cr0, [r0], {-0}
     e58:	7c000003 	stcvc	0, cr0, [r0], {3}
     e5c:	01000003 	tsteq	r0, r3
     e60:	037c5600 	cmneq	ip, #0
     e64:	03800000 	orreq	r0, r0, #0
     e68:	00010000 	andeq	r0, r1, r0
     e6c:	0003805a 	andeq	r8, r3, sl, asr r0
     e70:	00038c00 	andeq	r8, r3, r0, lsl #24
     e74:	7a000300 	bvc	1a7c <__resume1_start+0x1a7c>
     e78:	00009f7f 	andeq	r9, r0, pc, ror pc
     e7c:	00000000 	andeq	r0, r0, r0
     e80:	03a40000 			; <UNDEFINED> instruction: 0x03a40000
     e84:	03a80000 			; <UNDEFINED> instruction: 0x03a80000
     e88:	00010000 	andeq	r0, r1, r0
     e8c:	00000056 	andeq	r0, r0, r6, asr r0
     e90:	00000000 	andeq	r0, r0, r0
     e94:	0003a400 	andeq	sl, r3, r0, lsl #8
     e98:	0003a800 	andeq	sl, r3, r0, lsl #16
     e9c:	55000100 	strpl	r0, [r0, #-256]	; 0x100
     ea0:	000003a8 	andeq	r0, r0, r8, lsr #7
     ea4:	000003c0 	andeq	r0, r0, r0, asr #7
     ea8:	00510001 	subseq	r0, r1, r1
     eac:	00000000 	andeq	r0, r0, r0
     eb0:	a4000000 	strge	r0, [r0], #-0
     eb4:	bc000003 	stclt	0, cr0, [r0], {3}
     eb8:	01000003 	tsteq	r0, r3
     ebc:	00005500 	andeq	r5, r0, r0, lsl #10
     ec0:	00000000 	andeq	r0, r0, r0
     ec4:	03d40000 	bicseq	r0, r4, #0
     ec8:	03d80000 	bicseq	r0, r8, #0
     ecc:	00040000 	andeq	r0, r4, r0
     ed0:	067fa491 			; <UNDEFINED> instruction: 0x067fa491
	...
     edc:	000003d4 	ldrdeq	r0, [r0], -r4
     ee0:	000003d8 	ldrdeq	r0, [r0], -r8
     ee4:	d8550001 	ldmdale	r5, {r0}^
     ee8:	10000003 	andne	r0, r0, r3
     eec:	01000004 	tsteq	r0, r4
     ef0:	00005100 	andeq	r5, r0, r0, lsl #2
     ef4:	00000000 	andeq	r0, r0, r0
     ef8:	03d40000 	bicseq	r0, r4, #0
     efc:	040c0000 	streq	r0, [ip], #-0
     f00:	00010000 	andeq	r0, r1, r0
     f04:	00000055 	andeq	r0, r0, r5, asr r0
     f08:	00000000 	andeq	r0, r0, r0
     f0c:	0003e800 	andeq	lr, r3, r0, lsl #16
     f10:	0003f800 	andeq	pc, r3, r0, lsl #16
     f14:	91000400 	tstls	r0, r0, lsl #8
     f18:	f8067fa4 			; <UNDEFINED> instruction: 0xf8067fa4
     f1c:	fc000003 	stc2	0, cr0, [r0], {3}
     f20:	01000003 	tsteq	r0, r3
     f24:	03fc5300 	mvnseq	r5, #0
     f28:	04080000 	streq	r0, [r8], #-0
     f2c:	00030000 	andeq	r0, r3, r0
     f30:	009f7f73 	addseq	r7, pc, r3, ror pc	; <UNPREDICTABLE>
     f34:	00000000 	andeq	r0, r0, r0
     f38:	2c000000 	stccs	0, cr0, [r0], {-0}
     f3c:	80000004 	andhi	r0, r0, r4
     f40:	01000004 	tsteq	r0, r4
     f44:	00005600 	andeq	r5, r0, r0, lsl #12
     f48:	00000000 	andeq	r0, r0, r0
     f4c:	042c0000 	strteq	r0, [ip], #-0
     f50:	043c0000 	ldrteq	r0, [ip], #-0
     f54:	00010000 	andeq	r0, r1, r0
     f58:	00043c56 	andeq	r3, r4, r6, asr ip
     f5c:	00044000 	andeq	r4, r4, r0
     f60:	5a000100 	bpl	1368 <__resume1_start+0x1368>
     f64:	00000440 	andeq	r0, r0, r0, asr #8
     f68:	0000044c 	andeq	r0, r0, ip, asr #8
     f6c:	7f7a0003 	svcvc	0x007a0003
     f70:	0000009f 	muleq	r0, pc, r0	; <UNPREDICTABLE>
     f74:	00000000 	andeq	r0, r0, r0
     f78:	00046400 	andeq	r6, r4, r0, lsl #8
     f7c:	00046800 	andeq	r6, r4, r0, lsl #16
     f80:	56000100 	strpl	r0, [r0], -r0, lsl #2
	...
     f8c:	00000464 	andeq	r0, r0, r4, ror #8
     f90:	00000468 	andeq	r0, r0, r8, ror #8
     f94:	68550001 	ldmdavs	r5, {r0}^
     f98:	80000004 	andhi	r0, r0, r4
     f9c:	01000004 	tsteq	r0, r4
     fa0:	00005100 	andeq	r5, r0, r0, lsl #2
     fa4:	00000000 	andeq	r0, r0, r0
     fa8:	04640000 	strbteq	r0, [r4], #-0
     fac:	047c0000 	ldrbteq	r0, [ip], #-0
     fb0:	00010000 	andeq	r0, r1, r0
     fb4:	00000055 	andeq	r0, r0, r5, asr r0
     fb8:	00000000 	andeq	r0, r0, r0
     fbc:	0004c400 	andeq	ip, r4, r0, lsl #8
     fc0:	0004d400 	andeq	sp, r4, r0, lsl #8
     fc4:	56000100 	strpl	r0, [r0], -r0, lsl #2
     fc8:	000004d4 	ldrdeq	r0, [r0], -r4
     fcc:	000004d8 	ldrdeq	r0, [r0], -r8
     fd0:	d85a0001 	ldmdale	sl, {r0}^
     fd4:	e4000004 	str	r0, [r0], #-4
     fd8:	03000004 	movweq	r0, #4
     fdc:	9f7f7a00 	svcls	0x007f7a00
	...
     fe8:	000004fc 	strdeq	r0, [r0], -ip
     fec:	00000500 	andeq	r0, r0, r0, lsl #10
     ff0:	00560001 	subseq	r0, r6, r1
     ff4:	00000000 	andeq	r0, r0, r0
     ff8:	fc000000 	stc2	0, cr0, [r0], {-0}
     ffc:	00000004 	andeq	r0, r0, r4
    1000:	01000005 	tsteq	r0, r5
    1004:	05005500 	streq	r5, [r0, #-1280]	; 0x500
    1008:	051c0000 	ldreq	r0, [ip, #-0]
    100c:	00010000 	andeq	r0, r1, r0
    1010:	00000051 	andeq	r0, r0, r1, asr r0
    1014:	00000000 	andeq	r0, r0, r0
    1018:	0004fc00 	andeq	pc, r4, r0, lsl #24
    101c:	00051400 	andeq	r1, r5, r0, lsl #8
    1020:	55000100 	strpl	r0, [r0, #-256]	; 0x100
	...
    102c:	0000051c 	andeq	r0, r0, ip, lsl r5
    1030:	00000520 	andeq	r0, r0, r0, lsr #10
    1034:	007d0002 	rsbseq	r0, sp, r2
    1038:	00000520 	andeq	r0, r0, r0, lsr #10
    103c:	00000524 	andeq	r0, r0, r4, lsr #10
    1040:	107d0002 	rsbsne	r0, sp, r2
    1044:	00000524 	andeq	r0, r0, r4, lsr #10
    1048:	00000528 	andeq	r0, r0, r8, lsr #10
    104c:	307d0002 	rsbscc	r0, sp, r2
    1050:	00000528 	andeq	r0, r0, r8, lsr #10
    1054:	000007ec 	andeq	r0, r0, ip, ror #15
    1058:	c87d0003 	ldmdagt	sp!, {r0, r1}^
	...
    1064:	00051c00 	andeq	r1, r5, r0, lsl #24
    1068:	00053400 	andeq	r3, r5, r0, lsl #8
    106c:	91000200 	mrsls	r0, R8_usr
    1070:	00053470 	andeq	r3, r5, r0, ror r4
    1074:	00055800 	andeq	r5, r5, r0, lsl #16
    1078:	91000200 	mrsls	r0, R8_usr
    107c:	00055848 	andeq	r5, r5, r8, asr #16
    1080:	00057400 	andeq	r7, r5, r0, lsl #8
    1084:	54000100 	strpl	r0, [r0], #-256	; 0x100
    1088:	00000574 	andeq	r0, r0, r4, ror r5
    108c:	0000058c 	andeq	r0, r0, ip, lsl #11
    1090:	01740003 	cmneq	r4, r3
    1094:	0005949f 	muleq	r5, pc, r4	; <UNPREDICTABLE>
    1098:	0007ec00 	andeq	lr, r7, r0, lsl #24
    109c:	54000100 	strpl	r0, [r0], #-256	; 0x100
	...
    10a8:	0000051c 	andeq	r0, r0, ip, lsl r5
    10ac:	00000558 	andeq	r0, r0, r8, asr r5
    10b0:	50030006 	andpl	r0, r3, r6
    10b4:	9f00012e 	svcls	0x0000012e
    10b8:	00000558 	andeq	r0, r0, r8, asr r5
    10bc:	00000568 	andeq	r0, r0, r8, ror #10
    10c0:	08550001 	ldmdaeq	r5, {r0}^
    10c4:	20000006 	andcs	r0, r0, r6
    10c8:	01000006 	tsteq	r0, r6
    10cc:	068c5500 	streq	r5, [ip], r0, lsl #10
    10d0:	06900000 	ldreq	r0, [r0], r0
    10d4:	00010000 	andeq	r0, r1, r0
    10d8:	0006dc55 	andeq	sp, r6, r5, asr ip
    10dc:	0006e000 	andeq	lr, r6, r0
    10e0:	55000100 	strpl	r0, [r0, #-256]	; 0x100
    10e4:	0000074c 	andeq	r0, r0, ip, asr #14
    10e8:	00000750 	andeq	r0, r0, r0, asr r7
    10ec:	6c550001 	mrrcvs	0, 0, r0, r5, cr1
    10f0:	78000007 	stmdavc	r0, {r0, r1, r2}
    10f4:	03000007 	movweq	r0, #7
    10f8:	9f017500 	svcls	0x00017500
    10fc:	00000778 	andeq	r0, r0, r8, ror r7
    1100:	0000077c 	andeq	r0, r0, ip, ror r7
    1104:	e4550001 	ldrb	r0, [r5], #-1
    1108:	ec000007 	stc	0, cr0, [r0], {7}
    110c:	01000007 	tsteq	r0, r7
    1110:	00005500 	andeq	r5, r0, r0, lsl #10
    1114:	00000000 	andeq	r0, r0, r0
    1118:	06a40000 	strteq	r0, [r4], r0
    111c:	06e00000 	strbteq	r0, [r0], r0
    1120:	00040000 	andeq	r0, r4, r0
    1124:	067fa491 			; <UNDEFINED> instruction: 0x067fa491
	...
    1130:	00000590 	muleq	r0, r0, r5
    1134:	000005fc 	strdeq	r0, [r0], -ip
    1138:	20570001 	subscs	r0, r7, r1
    113c:	ec000006 	stc	0, cr0, [r0], {6}
    1140:	01000007 	tsteq	r0, r7
    1144:	00005700 	andeq	r5, r0, r0, lsl #14
    1148:	00000000 	andeq	r0, r0, r0
    114c:	051c0000 	ldreq	r0, [ip, #-0]
    1150:	05580000 	ldrbeq	r0, [r8, #-0]
    1154:	00020000 	andeq	r0, r2, r0
    1158:	065c9f30 	uasxeq	r9, ip, r0
    115c:	06740000 	ldrbteq	r0, [r4], -r0
    1160:	00010000 	andeq	r0, r1, r0
    1164:	0006745a 	andeq	r7, r6, sl, asr r4
    1168:	00069000 	andeq	r9, r6, r0
    116c:	50000100 	andpl	r0, r0, r0, lsl #2
    1170:	0000071c 	andeq	r0, r0, ip, lsl r7
    1174:	00000734 	andeq	r0, r0, r4, lsr r7
    1178:	345a0001 	ldrbcc	r0, [sl], #-1
    117c:	50000007 	andpl	r0, r0, r7
    1180:	01000007 	tsteq	r0, r7
    1184:	07b45000 	ldreq	r5, [r4, r0]!
    1188:	07cc0000 	strbeq	r0, [ip, r0]
    118c:	00010000 	andeq	r0, r1, r0
    1190:	0007cc5a 	andeq	ip, r7, sl, asr ip
    1194:	0007ec00 	andeq	lr, r7, r0, lsl #24
    1198:	50000100 	andpl	r0, r0, r0, lsl #2
	...
    11a4:	0000063c 	andeq	r0, r0, ip, lsr r6
    11a8:	00000690 	muleq	r0, r0, r6
    11ac:	00560001 	subseq	r0, r6, r1
    11b0:	00000000 	andeq	r0, r0, r0
    11b4:	3c000000 	stccc	0, cr0, [r0], {-0}
    11b8:	4c000006 	stcmi	0, cr0, [r0], {6}
    11bc:	01000006 	tsteq	r0, r6
    11c0:	064c5600 	strbeq	r5, [ip], -r0, lsl #12
    11c4:	06500000 	ldrbeq	r0, [r0], -r0
    11c8:	00010000 	andeq	r0, r1, r0
    11cc:	0006505a 	andeq	r5, r6, sl, asr r0
    11d0:	00065c00 	andeq	r5, r6, r0, lsl #24
    11d4:	7a000300 	bvc	1ddc <__resume1_start+0x1ddc>
    11d8:	00009f7f 	andeq	r9, r0, pc, ror pc
    11dc:	00000000 	andeq	r0, r0, r0
    11e0:	06740000 	ldrbteq	r0, [r4], -r0
    11e4:	06780000 	ldrbteq	r0, [r8], -r0
    11e8:	00010000 	andeq	r0, r1, r0
    11ec:	00000056 	andeq	r0, r0, r6, asr r0
    11f0:	00000000 	andeq	r0, r0, r0
    11f4:	00067400 	andeq	r7, r6, r0, lsl #8
    11f8:	00067800 	andeq	r7, r6, r0, lsl #16
    11fc:	55000100 	strpl	r0, [r0, #-256]	; 0x100
    1200:	00000678 	andeq	r0, r0, r8, ror r6
    1204:	00000690 	muleq	r0, r0, r6
    1208:	00510001 	subseq	r0, r1, r1
    120c:	00000000 	andeq	r0, r0, r0
    1210:	74000000 	strvc	r0, [r0], #-0
    1214:	8c000006 	stchi	0, cr0, [r0], {6}
    1218:	01000006 	tsteq	r0, r6
    121c:	00005500 	andeq	r5, r0, r0, lsl #10
    1220:	00000000 	andeq	r0, r0, r0
    1224:	06a40000 	strteq	r0, [r4], r0
    1228:	06a80000 	strteq	r0, [r8], r0
    122c:	00040000 	andeq	r0, r4, r0
    1230:	067fa491 			; <UNDEFINED> instruction: 0x067fa491
	...
    123c:	000006a4 	andeq	r0, r0, r4, lsr #13
    1240:	000006a8 	andeq	r0, r0, r8, lsr #13
    1244:	a8550001 	ldmdage	r5, {r0}^
    1248:	e0000006 	and	r0, r0, r6
    124c:	01000006 	tsteq	r0, r6
    1250:	00005100 	andeq	r5, r0, r0, lsl #2
    1254:	00000000 	andeq	r0, r0, r0
    1258:	06a40000 	strteq	r0, [r4], r0
    125c:	06dc0000 	ldrbeq	r0, [ip], r0
    1260:	00010000 	andeq	r0, r1, r0
    1264:	00000055 	andeq	r0, r0, r5, asr r0
    1268:	00000000 	andeq	r0, r0, r0
    126c:	0006b800 	andeq	fp, r6, r0, lsl #16
    1270:	0006c800 	andeq	ip, r6, r0, lsl #16
    1274:	91000400 	tstls	r0, r0, lsl #8
    1278:	c8067fa4 	stmdagt	r6, {r2, r5, r7, r8, r9, sl, fp, ip, sp, lr}
    127c:	cc000006 	stcgt	0, cr0, [r0], {6}
    1280:	01000006 	tsteq	r0, r6
    1284:	06cc5300 	strbeq	r5, [ip], r0, lsl #6
    1288:	06d80000 	ldrbeq	r0, [r8], r0
    128c:	00030000 	andeq	r0, r3, r0
    1290:	009f7f73 	addseq	r7, pc, r3, ror pc	; <UNPREDICTABLE>
    1294:	00000000 	andeq	r0, r0, r0
    1298:	fc000000 	stc2	0, cr0, [r0], {-0}
    129c:	50000006 	andpl	r0, r0, r6
    12a0:	01000007 	tsteq	r0, r7
    12a4:	00005600 	andeq	r5, r0, r0, lsl #12
    12a8:	00000000 	andeq	r0, r0, r0
    12ac:	06fc0000 	ldrbteq	r0, [ip], r0
    12b0:	070c0000 	streq	r0, [ip, -r0]
    12b4:	00010000 	andeq	r0, r1, r0
    12b8:	00070c56 	andeq	r0, r7, r6, asr ip
    12bc:	00071000 	andeq	r1, r7, r0
    12c0:	5a000100 	bpl	16c8 <__resume1_start+0x16c8>
    12c4:	00000710 	andeq	r0, r0, r0, lsl r7
    12c8:	0000071c 	andeq	r0, r0, ip, lsl r7
    12cc:	7f7a0003 	svcvc	0x007a0003
    12d0:	0000009f 	muleq	r0, pc, r0	; <UNPREDICTABLE>
    12d4:	00000000 	andeq	r0, r0, r0
    12d8:	00073400 	andeq	r3, r7, r0, lsl #8
    12dc:	00073800 	andeq	r3, r7, r0, lsl #16
    12e0:	56000100 	strpl	r0, [r0], -r0, lsl #2
	...
    12ec:	00000734 	andeq	r0, r0, r4, lsr r7
    12f0:	00000738 	andeq	r0, r0, r8, lsr r7
    12f4:	38550001 	ldmdacc	r5, {r0}^
    12f8:	50000007 	andpl	r0, r0, r7
    12fc:	01000007 	tsteq	r0, r7
    1300:	00005100 	andeq	r5, r0, r0, lsl #2
    1304:	00000000 	andeq	r0, r0, r0
    1308:	07340000 	ldreq	r0, [r4, -r0]!
    130c:	074c0000 	strbeq	r0, [ip, -r0]
    1310:	00010000 	andeq	r0, r1, r0
    1314:	00000055 	andeq	r0, r0, r5, asr r0
    1318:	00000000 	andeq	r0, r0, r0
    131c:	00079400 	andeq	r9, r7, r0, lsl #8
    1320:	0007a400 	andeq	sl, r7, r0, lsl #8
    1324:	56000100 	strpl	r0, [r0], -r0, lsl #2
    1328:	000007a4 	andeq	r0, r0, r4, lsr #15
    132c:	000007a8 	andeq	r0, r0, r8, lsr #15
    1330:	a85a0001 	ldmdage	sl, {r0}^
    1334:	b4000007 	strlt	r0, [r0], #-7
    1338:	03000007 	movweq	r0, #7
    133c:	9f7f7a00 	svcls	0x007f7a00
	...
    1348:	000007cc 	andeq	r0, r0, ip, asr #15
    134c:	000007d0 	ldrdeq	r0, [r0], -r0	; <UNPREDICTABLE>
    1350:	00560001 	subseq	r0, r6, r1
    1354:	00000000 	andeq	r0, r0, r0
    1358:	cc000000 	stcgt	0, cr0, [r0], {-0}
    135c:	d0000007 	andle	r0, r0, r7
    1360:	01000007 	tsteq	r0, r7
    1364:	07d05500 	ldrbeq	r5, [r0, r0, lsl #10]
    1368:	07ec0000 	strbeq	r0, [ip, r0]!
    136c:	00010000 	andeq	r0, r1, r0
    1370:	00000051 	andeq	r0, r0, r1, asr r0
    1374:	00000000 	andeq	r0, r0, r0
    1378:	0007cc00 	andeq	ip, r7, r0, lsl #24
    137c:	0007e400 	andeq	lr, r7, r0, lsl #8
    1380:	55000100 	strpl	r0, [r0, #-256]	; 0x100
	...
    138c:	0000000c 	andeq	r0, r0, ip
    1390:	00000054 	andeq	r0, r0, r4, asr r0
    1394:	00500001 	subseq	r0, r0, r1
    1398:	00000000 	andeq	r0, r0, r0
    139c:	0c000000 	stceq	0, cr0, [r0], {-0}
    13a0:	10000000 	andne	r0, r0, r0
    13a4:	01000000 	mrseq	r0, (UNDEF: 0)
    13a8:	00005100 	andeq	r5, r0, r0, lsl #2
    13ac:	00000000 	andeq	r0, r0, r0
    13b0:	000c0000 	andeq	r0, ip, r0
    13b4:	00200000 	eoreq	r0, r0, r0
    13b8:	00010000 	andeq	r0, r1, r0
    13bc:	00002051 	andeq	r2, r0, r1, asr r0
    13c0:	00002400 	andeq	r2, r0, r0, lsl #8
    13c4:	71000500 	tstvc	r0, r0, lsl #10
    13c8:	9f243100 	svcls	0x00243100
    13cc:	00000024 	andeq	r0, r0, r4, lsr #32
    13d0:	00000028 	andeq	r0, r0, r8, lsr #32
    13d4:	30510001 	subscc	r0, r1, r1
    13d8:	58000000 	stmdapl	r0, {}	; <UNPREDICTABLE>
    13dc:	01000000 	mrseq	r0, (UNDEF: 0)
    13e0:	00005100 	andeq	r5, r0, r0, lsl #2
    13e4:	00000000 	andeq	r0, r0, r0
    13e8:	000c0000 	andeq	r0, ip, r0
    13ec:	00300000 	eorseq	r0, r0, r0
    13f0:	00020000 	andeq	r0, r2, r0
    13f4:	00309f30 	eorseq	r9, r0, r0, lsr pc
    13f8:	00400000 	subeq	r0, r0, r0
    13fc:	00010000 	andeq	r0, r1, r0
    1400:	00004452 	andeq	r4, r0, r2, asr r4
    1404:	00005000 	andeq	r5, r0, r0
    1408:	52000100 	andpl	r0, r0, #0
	...
    1414:	0000000c 	andeq	r0, r0, ip
    1418:	00000020 	andeq	r0, r0, r0, lsr #32
    141c:	9f300002 	svcls	0x00300002
    1420:	00000028 	andeq	r0, r0, r8, lsr #32
    1424:	0000002c 	andeq	r0, r0, ip, lsr #32
    1428:	30530001 	subscc	r0, r3, r1
    142c:	48000000 	stmdami	r0, {}	; <UNPREDICTABLE>
    1430:	01000000 	mrseq	r0, (UNDEF: 0)
    1434:	00005300 	andeq	r5, r0, r0, lsl #6
	...
    1440:	00100000 	andseq	r0, r0, r0
    1444:	00020000 	andeq	r0, r2, r0
    1448:	0010007d 	andseq	r0, r0, sp, ror r0
    144c:	00900000 	addseq	r0, r0, r0
    1450:	00020000 	andeq	r0, r2, r0
    1454:	0000087d 	andeq	r0, r0, sp, ror r8
	...
    1460:	00300000 	eorseq	r0, r0, r0
    1464:	00020000 	andeq	r0, r2, r0
    1468:	006c9f30 	rsbeq	r9, ip, r0, lsr pc
    146c:	007f0000 	rsbseq	r0, pc, r0
    1470:	00010000 	andeq	r0, r1, r0
    1474:	00000051 	andeq	r0, r0, r1, asr r0
    1478:	00000000 	andeq	r0, r0, r0
    147c:	00009000 	andeq	r9, r0, r0
    1480:	00009800 	andeq	r9, r0, r0, lsl #16
    1484:	7d000200 	sfmvc	f0, 4, [r0, #-0]
    1488:	00009800 	andeq	r9, r0, r0, lsl #16
    148c:	0000e400 	andeq	lr, r0, r0, lsl #8
    1490:	7d000200 	sfmvc	f0, 4, [r0, #-0]
    1494:	00000008 	andeq	r0, r0, r8
    1498:	00000000 	andeq	r0, r0, r0
    149c:	00009000 	andeq	r9, r0, r0
    14a0:	0000b000 	andeq	fp, r0, r0
    14a4:	30000200 	andcc	r0, r0, r0, lsl #4
    14a8:	0000cc9f 	muleq	r0, pc, ip	; <UNPREDICTABLE>
    14ac:	0000e400 	andeq	lr, r0, r0, lsl #8
    14b0:	53000100 	movwpl	r0, #256	; 0x100
	...
    14bc:	000000a0 	andeq	r0, r0, r0, lsr #1
    14c0:	000000b4 	strheq	r0, [r0], -r4
    14c4:	74910002 	ldrvc	r0, [r1], #2
    14c8:	000000b4 	strheq	r0, [r0], -r4
    14cc:	000000bc 	strheq	r0, [r0], -ip
    14d0:	bc510001 	mrrclt	0, 0, r0, r1, cr1
    14d4:	e4000000 	str	r0, [r0], #-0
    14d8:	02000000 	andeq	r0, r0, #0
    14dc:	00749100 	rsbseq	r9, r4, r0, lsl #2
    14e0:	00000000 	andeq	r0, r0, r0
    14e4:	e4000000 	str	r0, [r0], #-0
    14e8:	ec000000 	stc	0, cr0, [r0], {-0}
    14ec:	02000000 	andeq	r0, r0, #0
    14f0:	ec007d00 	stc	13, cr7, [r0], {-0}
    14f4:	3c000000 	stccc	0, cr0, [r0], {-0}
    14f8:	02000001 	andeq	r0, r0, #1
    14fc:	00087d00 	andeq	r7, r8, r0, lsl #26
    1500:	00000000 	andeq	r0, r0, r0
    1504:	e4000000 	str	r0, [r0], #-0
    1508:	24000000 	strcs	r0, [r0], #-0
    150c:	01000001 	tsteq	r0, r1
    1510:	00005000 	andeq	r5, r0, r0
    1514:	00000000 	andeq	r0, r0, r0
    1518:	00e40000 	rsceq	r0, r4, r0
    151c:	01240000 	teqeq	r4, r0
    1520:	00050000 	andeq	r0, r5, r0
    1524:	25350070 	ldrcs	r0, [r5, #-112]!	; 0x70
    1528:	0000009f 	muleq	r0, pc, r0	; <UNPREDICTABLE>
    152c:	00000000 	andeq	r0, r0, r0
    1530:	0000e400 	andeq	lr, r0, r0, lsl #8
    1534:	00012400 	andeq	r2, r1, r0, lsl #8
    1538:	70000500 	andvc	r0, r0, r0, lsl #10
    153c:	9f1a4f00 	svcls	0x001a4f00
    1540:	00000124 	andeq	r0, r0, r4, lsr #2
    1544:	0000013c 	andeq	r0, r0, ip, lsr r1
    1548:	00550001 	subseq	r0, r5, r1
    154c:	00000000 	andeq	r0, r0, r0
    1550:	3c000000 	stccc	0, cr0, [r0], {-0}
    1554:	6c000001 	stcvs	0, cr0, [r0], {1}
    1558:	01000001 	tsteq	r0, r1
    155c:	00005000 	andeq	r5, r0, r0
    1560:	00000000 	andeq	r0, r0, r0
    1564:	013c0000 	teqeq	ip, r0
    1568:	01700000 	cmneq	r0, r0
    156c:	00020000 	andeq	r0, r2, r0
    1570:	00009f30 	andeq	r9, r0, r0, lsr pc
    1574:	00000000 	andeq	r0, r0, r0
    1578:	013c0000 	teqeq	ip, r0
    157c:	016c0000 	cmneq	ip, r0
    1580:	00050000 	andeq	r0, r5, r0
    1584:	25350070 	ldrcs	r0, [r5, #-112]!	; 0x70
    1588:	0000009f 	muleq	r0, pc, r0	; <UNPREDICTABLE>
    158c:	00000000 	andeq	r0, r0, r0
    1590:	00013c00 	andeq	r3, r1, r0, lsl #24
    1594:	00016c00 	andeq	r6, r1, r0, lsl #24
    1598:	70000500 	andvc	r0, r0, r0, lsl #10
    159c:	9f1a4f00 	svcls	0x001a4f00
    15a0:	0000016c 	andeq	r0, r0, ip, ror #2
    15a4:	00000184 	andeq	r0, r0, r4, lsl #3
    15a8:	00500001 	subseq	r0, r0, r1
	...
    15b4:	08000000 	stmdaeq	r0, {}	; <UNPREDICTABLE>
    15b8:	02000000 	andeq	r0, r0, #0
    15bc:	08007d00 	stmdaeq	r0, {r8, sl, fp, ip, sp, lr}
    15c0:	64000000 	strvs	r0, [r0], #-0
    15c4:	02000000 	andeq	r0, r0, #0
    15c8:	00047d00 	andeq	r7, r4, r0, lsl #26
	...
    15d4:	28000000 	stmdacs	r0, {}	; <UNPREDICTABLE>
    15d8:	01000000 	mrseq	r0, (UNDEF: 0)
    15dc:	00285000 	eoreq	r5, r8, r0
    15e0:	00640000 	rsbeq	r0, r4, r0
    15e4:	00010000 	andeq	r0, r1, r0
    15e8:	00000053 	andeq	r0, r0, r3, asr r0
    15ec:	00000000 	andeq	r0, r0, r0
    15f0:	00006400 	andeq	r6, r0, r0, lsl #8
    15f4:	00007c00 	andeq	r7, r0, r0, lsl #24
    15f8:	50000100 	andpl	r0, r0, r0, lsl #2
    15fc:	0000007c 	andeq	r0, r0, ip, ror r0
    1600:	000000ac 	andeq	r0, r0, ip, lsr #1
    1604:	00520001 	subseq	r0, r2, r1
	...
    1610:	10000000 	andne	r0, r0, r0
    1614:	01000000 	mrseq	r0, (UNDEF: 0)
    1618:	00105000 	andseq	r5, r0, r0
    161c:	00300000 	eorseq	r0, r0, r0
    1620:	00010000 	andeq	r0, r1, r0
    1624:	00000052 	andeq	r0, r0, r2, asr r0
    1628:	00000000 	andeq	r0, r0, r0
    162c:	00003000 	andeq	r3, r0, r0
    1630:	00004800 	andeq	r4, r0, r0, lsl #16
    1634:	50000100 	andpl	r0, r0, r0, lsl #2
    1638:	00000048 	andeq	r0, r0, r8, asr #32
    163c:	00000050 	andeq	r0, r0, r0, asr r0
    1640:	00520001 	subseq	r0, r2, r1
	...
    164c:	08000000 	stmdaeq	r0, {}	; <UNPREDICTABLE>
    1650:	01000000 	mrseq	r0, (UNDEF: 0)
    1654:	00005000 	andeq	r5, r0, r0
    1658:	00000000 	andeq	r0, r0, r0
    165c:	002c0000 	eoreq	r0, ip, r0
    1660:	00300000 	eorseq	r0, r0, r0
    1664:	00020000 	andeq	r0, r2, r0
    1668:	0030007d 	eorseq	r0, r0, sp, ror r0
    166c:	00a80000 	adceq	r0, r8, r0
    1670:	00020000 	andeq	r0, r2, r0
    1674:	0000087d 	andeq	r0, r0, sp, ror r8
    1678:	00000000 	andeq	r0, r0, r0
    167c:	002c0000 	eoreq	r0, ip, r0
    1680:	00800000 	addeq	r0, r0, r0
    1684:	00010000 	andeq	r0, r1, r0
    1688:	00008450 	andeq	r8, r0, r0, asr r4
    168c:	00008c00 	andeq	r8, r0, r0, lsl #24
    1690:	50000100 	andpl	r0, r0, r0, lsl #2
    1694:	00000098 	muleq	r0, r8, r0
    1698:	0000009c 	muleq	r0, ip, r0
    169c:	00500001 	subseq	r0, r0, r1
    16a0:	00000000 	andeq	r0, r0, r0
    16a4:	2c000000 	stccs	0, cr0, [r0], {-0}
    16a8:	60000000 	andvs	r0, r0, r0
    16ac:	01000000 	mrseq	r0, (UNDEF: 0)
    16b0:	00985100 	addseq	r5, r8, r0, lsl #2
    16b4:	00a80000 	adceq	r0, r8, r0
    16b8:	00010000 	andeq	r0, r1, r0
    16bc:	00000051 	andeq	r0, r0, r1, asr r0
    16c0:	00000000 	andeq	r0, r0, r0
    16c4:	00002c00 	andeq	r2, r0, r0, lsl #24
    16c8:	00006000 	andeq	r6, r0, r0
    16cc:	71000500 	tstvc	r0, r0, lsl #10
    16d0:	9f243a00 	svcls	0x00243a00
    16d4:	00000060 	andeq	r0, r0, r0, rrx
    16d8:	00000068 	andeq	r0, r0, r8, rrx
    16dc:	68510001 	ldmdavs	r1, {r0}^
    16e0:	6c000000 	stcvs	0, cr0, [r0], {-0}
    16e4:	03000000 	movweq	r0, #0
    16e8:	9f7f7100 	svcls	0x007f7100
    16ec:	0000006c 	andeq	r0, r0, ip, rrx
    16f0:	00000070 	andeq	r0, r0, r0, ror r0
    16f4:	70510001 	subsvc	r0, r1, r1
    16f8:	84000000 	strhi	r0, [r0], #-0
    16fc:	03000000 	movweq	r0, #0
    1700:	9f7f7100 	svcls	0x007f7100
    1704:	00000098 	muleq	r0, r8, r0
    1708:	000000a8 	andeq	r0, r0, r8, lsr #1
    170c:	00710005 	rsbseq	r0, r1, r5
    1710:	009f243a 	addseq	r2, pc, sl, lsr r4	; <UNPREDICTABLE>
    1714:	00000000 	andeq	r0, r0, r0
    1718:	38000000 	stmdacc	r0, {}	; <UNPREDICTABLE>
    171c:	8f000000 	svchi	0x00000000
    1720:	01000000 	mrseq	r0, (UNDEF: 0)
    1724:	00985c00 	addseq	r5, r8, r0, lsl #24
    1728:	00a80000 	adceq	r0, r8, r0
    172c:	00010000 	andeq	r0, r1, r0
    1730:	0000005c 	andeq	r0, r0, ip, asr r0
    1734:	00000000 	andeq	r0, r0, r0
    1738:	00008400 	andeq	r8, r0, r0, lsl #8
    173c:	00008f00 	andeq	r8, r0, r0, lsl #30
    1740:	5c000100 	stfpls	f0, [r0], {-0}
	...
    174c:	000000a8 	andeq	r0, r0, r8, lsr #1
    1750:	000000d4 	ldrdeq	r0, [r0], -r4
    1754:	00500001 	subseq	r0, r0, r1
    1758:	00000000 	andeq	r0, r0, r0
    175c:	d8000000 	stmdale	r0, {}	; <UNPREDICTABLE>
    1760:	e4000000 	str	r0, [r0], #-0
    1764:	01000000 	mrseq	r0, (UNDEF: 0)
    1768:	00e45000 	rsceq	r5, r4, r0
    176c:	00ec0000 	rsceq	r0, ip, r0
    1770:	00060000 	andeq	r0, r6, r0
    1774:	80808070 	addhi	r8, r0, r0, ror r0
    1778:	00ec9f7f 	rsceq	r9, ip, pc, ror pc
    177c:	00f00000 	rscseq	r0, r0, r0
    1780:	00060000 	andeq	r0, r6, r0
    1784:	ffdfc070 			; <UNDEFINED> instruction: 0xffdfc070
    1788:	00009f7e 	andeq	r9, r0, lr, ror pc
    178c:	00000000 	andeq	r0, r0, r0
    1790:	00d80000 	sbcseq	r0, r8, r0
    1794:	01000000 	mrseq	r0, (UNDEF: 0)
    1798:	00010000 	andeq	r0, r1, r0
    179c:	00013451 	andeq	r3, r1, r1, asr r4
    17a0:	00014000 	andeq	r4, r1, r0
    17a4:	51000100 	mrspl	r0, (UNDEF: 16)
	...
    17b0:	000000d8 	ldrdeq	r0, [r0], -r8
    17b4:	00000104 	andeq	r0, r0, r4, lsl #2
    17b8:	00710005 	rsbseq	r0, r1, r5
    17bc:	049f243a 	ldreq	r2, [pc], #1082	; 17c4 <__resume1_start+0x17c4>
    17c0:	0c000001 	stceq	0, cr0, [r0], {1}
    17c4:	01000001 	tsteq	r0, r1
    17c8:	010c5100 	mrseq	r5, (UNDEF: 28)
    17cc:	01100000 	tsteq	r0, r0
    17d0:	00030000 	andeq	r0, r3, r0
    17d4:	109f7f71 	addsne	r7, pc, r1, ror pc	; <UNPREDICTABLE>
    17d8:	14000001 	strne	r0, [r0], #-1
    17dc:	01000001 	tsteq	r0, r1
    17e0:	01145100 	tsteq	r4, r0, lsl #2
    17e4:	01280000 	teqeq	r8, r0
    17e8:	00030000 	andeq	r0, r3, r0
    17ec:	349f7f71 	ldrcc	r7, [pc], #3953	; 17f4 <__resume1_start+0x17f4>
    17f0:	40000001 	andmi	r0, r0, r1
    17f4:	05000001 	streq	r0, [r0, #-1]
    17f8:	3a007100 	bcc	1dc00 <__bss_end+0xaab4>
    17fc:	00009f24 	andeq	r9, r0, r4, lsr #30
    1800:	00000000 	andeq	r0, r0, r0
    1804:	01280000 	teqeq	r8, r0
    1808:	01340000 	teqeq	r4, r0
    180c:	00010000 	andeq	r0, r1, r0
    1810:	00000052 	andeq	r0, r0, r2, asr r0
    1814:	00000000 	andeq	r0, r0, r0
    1818:	00014000 	andeq	r4, r1, r0
    181c:	00015000 	andeq	r5, r1, r0
    1820:	50000100 	andpl	r0, r0, r0, lsl #2
    1824:	00000150 	andeq	r0, r0, r0, asr r1
    1828:	00000154 	andeq	r0, r0, r4, asr r1
    182c:	c0720006 	rsbsgt	r0, r2, r6
    1830:	9f7effdf 	svcls	0x007effdf
	...
    1840:	00000018 	andeq	r0, r0, r8, lsl r0
    1844:	00500001 	subseq	r0, r0, r1
    1848:	00000000 	andeq	r0, r0, r0
    184c:	3c000000 	stccc	0, cr0, [r0], {-0}
    1850:	54000000 	strpl	r0, [r0], #-0
    1854:	01000000 	mrseq	r0, (UNDEF: 0)
    1858:	00545000 	subseq	r5, r4, r0
    185c:	01d40000 	bicseq	r0, r4, r0
    1860:	00010000 	andeq	r0, r1, r0
    1864:	00000053 	andeq	r0, r0, r3, asr r0
    1868:	00000000 	andeq	r0, r0, r0
    186c:	0001d400 	andeq	sp, r1, r0, lsl #8
    1870:	0001d800 	andeq	sp, r1, r0, lsl #16
    1874:	7d000200 	sfmvc	f0, 4, [r0, #-0]
    1878:	0001d800 	andeq	sp, r1, r0, lsl #16
    187c:	00060c00 	andeq	r0, r6, r0, lsl #24
    1880:	7d000200 	sfmvc	f0, 4, [r0, #-0]
    1884:	00000018 	andeq	r0, r0, r8, lsl r0
    1888:	00000000 	andeq	r0, r0, r0
    188c:	0001d400 	andeq	sp, r1, r0, lsl #8
    1890:	0001e000 	andeq	lr, r1, r0
    1894:	50000100 	andpl	r0, r0, r0, lsl #2
    1898:	000001e0 	andeq	r0, r0, r0, ror #3
    189c:	00000518 	andeq	r0, r0, r8, lsl r5
    18a0:	00540001 	subseq	r0, r4, r1
    18a4:	00000000 	andeq	r0, r0, r0
    18a8:	0c000000 	stceq	0, cr0, [r0], {-0}
    18ac:	28000005 	stmdacs	r0, {r0, r2}
    18b0:	02000005 	andeq	r0, r0, #5
    18b4:	289f3000 	ldmcs	pc, {ip, sp}	; <UNPREDICTABLE>
    18b8:	77000005 	strvc	r0, [r0, -r5]
    18bc:	01000005 	tsteq	r0, r5
    18c0:	05845300 	streq	r5, [r4, #768]	; 0x300
    18c4:	05880000 	streq	r0, [r8]
    18c8:	00010000 	andeq	r0, r1, r0
    18cc:	00058c52 	andeq	r8, r5, r2, asr ip
    18d0:	0005ac00 	andeq	sl, r5, r0, lsl #24
    18d4:	52000100 	andpl	r0, r0, #0
    18d8:	000005b0 			; <UNDEFINED> instruction: 0x000005b0
    18dc:	000005df 	ldrdeq	r0, [r0], -pc	; <UNPREDICTABLE>
    18e0:	e4520001 	ldrb	r0, [r2], #-1
    18e4:	fb000005 	blx	1902 <__resume1_start+0x1902>
    18e8:	01000005 	tsteq	r0, r5
    18ec:	00005300 	andeq	r5, r0, r0, lsl #6
    18f0:	00000000 	andeq	r0, r0, r0
    18f4:	050c0000 	streq	r0, [ip, #-0]
    18f8:	05600000 	strbeq	r0, [r0, #-0]!
    18fc:	00020000 	andeq	r0, r2, r0
    1900:	05609f30 	strbeq	r9, [r0, #-3888]!	; 0xf30
    1904:	060c0000 	streq	r0, [ip], -r0
    1908:	00010000 	andeq	r0, r1, r0
    190c:	00000057 	andeq	r0, r0, r7, asr r0
    1910:	00000000 	andeq	r0, r0, r0
    1914:	00050c00 	andeq	r0, r5, r0, lsl #24
    1918:	00054400 	andeq	r4, r5, r0, lsl #8
    191c:	30000200 	andcc	r0, r0, r0, lsl #4
    1920:	0005449f 	muleq	r5, pc, r4	; <UNPREDICTABLE>
    1924:	00060c00 	andeq	r0, r6, r0, lsl #24
    1928:	58000100 	stmdapl	r0, {r8}
	...
    1934:	0000060c 	andeq	r0, r0, ip, lsl #12
    1938:	00000620 	andeq	r0, r0, r0, lsr #12
    193c:	00500001 	subseq	r0, r0, r1
    1940:	00000000 	andeq	r0, r0, r0
    1944:	34000000 	strcc	r0, [r0], #-0
    1948:	48000006 	stmdami	r0, {r1, r2}
    194c:	01000006 	tsteq	r0, r6
    1950:	06485000 	strbeq	r5, [r8], -r0
    1954:	065c0000 	ldrbeq	r0, [ip], -r0
    1958:	00010000 	andeq	r0, r1, r0
    195c:	00000052 	andeq	r0, r0, r2, asr r0
    1960:	00000000 	andeq	r0, r0, r0
    1964:	00065c00 	andeq	r5, r6, r0, lsl #24
    1968:	00067000 	andeq	r7, r6, r0
    196c:	7d000200 	sfmvc	f0, 4, [r0, #-0]
    1970:	00067000 	andeq	r7, r6, r0
    1974:	0006ac00 	andeq	sl, r6, r0, lsl #24
    1978:	7d000200 	sfmvc	f0, 4, [r0, #-0]
    197c:	00000004 	andeq	r0, r0, r4
    1980:	00000000 	andeq	r0, r0, r0
    1984:	00065c00 	andeq	r5, r6, r0, lsl #24
    1988:	00067400 	andeq	r7, r6, r0, lsl #8
    198c:	50000100 	andpl	r0, r0, r0, lsl #2
    1990:	00000674 	andeq	r0, r0, r4, ror r6
    1994:	00000698 	muleq	r0, r8, r6
    1998:	00510001 	subseq	r0, r1, r1
    199c:	00000000 	andeq	r0, r0, r0
    19a0:	ac000000 	stcge	0, cr0, [r0], {-0}
    19a4:	bc000006 	stclt	0, cr0, [r0], {6}
    19a8:	02000006 	andeq	r0, r0, #6
    19ac:	bc007d00 	stclt	13, cr7, [r0], {-0}
    19b0:	f0000006 			; <UNDEFINED> instruction: 0xf0000006
    19b4:	02000006 	andeq	r0, r0, #6
    19b8:	00087d00 	andeq	r7, r8, r0, lsl #26
    19bc:	00000000 	andeq	r0, r0, r0
    19c0:	ac000000 	stcge	0, cr0, [r0], {-0}
    19c4:	c8000006 	stmdagt	r0, {r1, r2}
    19c8:	01000006 	tsteq	r0, r6
    19cc:	06c85000 	strbeq	r5, [r8], r0
    19d0:	06f00000 	ldrbteq	r0, [r0], r0
    19d4:	00010000 	andeq	r0, r1, r0
    19d8:	00000051 	andeq	r0, r0, r1, asr r0
    19dc:	00000000 	andeq	r0, r0, r0
    19e0:	0006f000 	andeq	pc, r6, r0
    19e4:	00070800 	andeq	r0, r7, r0, lsl #16
    19e8:	50000100 	andpl	r0, r0, r0, lsl #2
    19ec:	00000708 	andeq	r0, r0, r8, lsl #14
    19f0:	00000770 	andeq	r0, r0, r0, ror r7
    19f4:	00520001 	subseq	r0, r2, r1
    19f8:	00000000 	andeq	r0, r0, r0
    19fc:	88000000 	stmdahi	r0, {}	; <UNPREDICTABLE>
    1a00:	a0000007 	andge	r0, r0, r7
    1a04:	01000007 	tsteq	r0, r7
    1a08:	07a05000 	streq	r5, [r0, r0]!
    1a0c:	080c0000 	stmdaeq	ip, {}	; <UNPREDICTABLE>
    1a10:	00010000 	andeq	r0, r1, r0
    1a14:	00000052 	andeq	r0, r0, r2, asr r0
    1a18:	00000000 	andeq	r0, r0, r0
    1a1c:	00080c00 	andeq	r0, r8, r0, lsl #24
    1a20:	00081400 	andeq	r1, r8, r0, lsl #8
    1a24:	7d000200 	sfmvc	f0, 4, [r0, #-0]
    1a28:	00081400 	andeq	r1, r8, r0, lsl #8
    1a2c:	00086800 	andeq	r6, r8, r0, lsl #16
    1a30:	7d000200 	sfmvc	f0, 4, [r0, #-0]
    1a34:	00000004 	andeq	r0, r0, r4
    1a38:	00000000 	andeq	r0, r0, r0
    1a3c:	00080c00 	andeq	r0, r8, r0, lsl #24
    1a40:	00084400 	andeq	r4, r8, r0, lsl #8
    1a44:	31000200 	mrscc	r0, R8_usr
    1a48:	0008449f 	muleq	r8, pc, r4	; <UNPREDICTABLE>
    1a4c:	00085400 	andeq	r5, r8, r0, lsl #8
    1a50:	50000100 	andpl	r0, r0, r0, lsl #2
	...
    1a5c:	0000080c 	andeq	r0, r0, ip, lsl #16
    1a60:	00000848 	andeq	r0, r0, r8, asr #16
    1a64:	9f310002 	svcls	0x00310002
    1a68:	00000848 	andeq	r0, r0, r8, asr #16
    1a6c:	00000863 	andeq	r0, r0, r3, ror #16
    1a70:	017c0003 	cmneq	ip, r3
    1a74:	0000009f 	muleq	r0, pc, r0	; <UNPREDICTABLE>
    1a78:	00000000 	andeq	r0, r0, r0
    1a7c:	00080c00 	andeq	r0, r8, r0, lsl #24
    1a80:	00085000 	andeq	r5, r8, r0
    1a84:	31000200 	mrscc	r0, R8_usr
    1a88:	0008509f 	muleq	r8, pc, r0	; <UNPREDICTABLE>
    1a8c:	00085c00 	andeq	r5, r8, r0, lsl #24
    1a90:	51000100 	mrspl	r0, (UNDEF: 16)
	...
    1a9c:	0000080c 	andeq	r0, r0, ip, lsl #16
    1aa0:	00000824 	andeq	r0, r0, r4, lsr #16
    1aa4:	9f300002 	svcls	0x00300002
    1aa8:	00000824 	andeq	r0, r0, r4, lsr #16
    1aac:	00000863 	andeq	r0, r0, r3, ror #16
    1ab0:	7c03000c 	stcvc	0, cr0, [r3], {12}
    1ab4:	9400012f 	strls	r0, [r0], #-303	; 0x12f
    1ab8:	48244801 	stmdami	r4!, {r0, fp, lr}
    1abc:	00009f25 	andeq	r9, r0, r5, lsr #30
    1ac0:	00000000 	andeq	r0, r0, r0
    1ac4:	080c0000 	stmdaeq	ip, {}	; <UNPREDICTABLE>
    1ac8:	08280000 	stmdaeq	r8!, {}	; <UNPREDICTABLE>
    1acc:	00020000 	andeq	r0, r2, r0
    1ad0:	08289f30 	stmdaeq	r8!, {r4, r5, r8, r9, sl, fp, ip, pc}
    1ad4:	08340000 	ldmdaeq	r4!, {}	; <UNPREDICTABLE>
    1ad8:	00040000 	andeq	r0, r4, r0
    1adc:	9f5dc00a 	svcls	0x005dc00a
    1ae0:	00000834 	andeq	r0, r0, r4, lsr r8
    1ae4:	00000868 	andeq	r0, r0, r8, ror #16
    1ae8:	9f300002 	svcls	0x00300002
	...

Disassembly of section .debug_frame:

00000000 <.debug_frame>:
   0:	0000000c 	andeq	r0, r0, ip
   4:	ffffffff 			; <UNDEFINED> instruction: 0xffffffff
   8:	7c020001 	stcvc	0, cr0, [r2], {1}
   c:	000d0c0e 	andeq	r0, sp, lr, lsl #24
  10:	0000000c 	andeq	r0, r0, ip
  14:	00000000 	andeq	r0, r0, r0
  18:	0001007c 	andeq	r0, r1, ip, ror r0
  1c:	00000028 	andeq	r0, r0, r8, lsr #32
  20:	0000000c 	andeq	r0, r0, ip
  24:	ffffffff 			; <UNDEFINED> instruction: 0xffffffff
  28:	7c020001 	stcvc	0, cr0, [r2], {1}
  2c:	000d0c0e 	andeq	r0, sp, lr, lsl #24
  30:	00000014 	andeq	r0, r0, r4, lsl r0
  34:	00000020 	andeq	r0, r0, r0, lsr #32
  38:	000100cc 	andeq	r0, r1, ip, asr #1
  3c:	000000e8 	andeq	r0, r0, r8, ror #1
  40:	8e080e42 	cdphi	14, 0, cr0, cr8, cr2, {2}
  44:	00028401 	andeq	r8, r2, r1, lsl #8
  48:	00000018 	andeq	r0, r0, r8, lsl r0
  4c:	00000020 	andeq	r0, r0, r0, lsr #32
  50:	000101b4 			; <UNDEFINED> instruction: 0x000101b4
  54:	00000130 	andeq	r0, r0, r0, lsr r1
  58:	8e100e42 	cdphi	14, 1, cr0, cr0, cr2, {2}
  5c:	85028601 	strhi	r8, [r2, #-1537]	; 0x601
  60:	00048403 	andeq	r8, r4, r3, lsl #8
  64:	0000000c 	andeq	r0, r0, ip
  68:	ffffffff 			; <UNDEFINED> instruction: 0xffffffff
  6c:	7c020001 	stcvc	0, cr0, [r2], {1}
  70:	000d0c0e 	andeq	r0, sp, lr, lsl #24
  74:	00000010 	andeq	r0, r0, r0, lsl r0
  78:	00000064 	andeq	r0, r0, r4, rrx
  7c:	000102e4 	andeq	r0, r1, r4, ror #5
  80:	00000020 	andeq	r0, r0, r0, lsr #32
  84:	00080e42 	andeq	r0, r8, r2, asr #28
  88:	0000000c 	andeq	r0, r0, ip
  8c:	00000064 	andeq	r0, r0, r4, rrx
  90:	00010304 	andeq	r0, r1, r4, lsl #6
  94:	00000004 	andeq	r0, r0, r4
  98:	0000000c 	andeq	r0, r0, ip
  9c:	00000064 	andeq	r0, r0, r4, rrx
  a0:	00010308 	andeq	r0, r1, r8, lsl #6
  a4:	00000004 	andeq	r0, r0, r4
  a8:	0000000c 	andeq	r0, r0, ip
  ac:	00000064 	andeq	r0, r0, r4, rrx
  b0:	0001030c 	andeq	r0, r1, ip, lsl #6
  b4:	00000024 	andeq	r0, r0, r4, lsr #32
  b8:	0000000c 	andeq	r0, r0, ip
  bc:	00000064 	andeq	r0, r0, r4, rrx
  c0:	00010330 	andeq	r0, r1, r0, lsr r3
  c4:	00000024 	andeq	r0, r0, r4, lsr #32
  c8:	00000014 	andeq	r0, r0, r4, lsl r0
  cc:	00000064 	andeq	r0, r0, r4, rrx
  d0:	00010354 	andeq	r0, r1, r4, asr r3
  d4:	00000090 	muleq	r0, r0, r0
  d8:	8e080e42 	cdphi	14, 0, cr0, cr8, cr2, {2}
  dc:	00028401 	andeq	r8, r2, r1, lsl #8
  e0:	0000000c 	andeq	r0, r0, ip
  e4:	00000064 	andeq	r0, r0, r4, rrx
  e8:	000103e4 	andeq	r0, r1, r4, ror #7
  ec:	00000004 	andeq	r0, r0, r4
  f0:	00000014 	andeq	r0, r0, r4, lsl r0
  f4:	00000064 	andeq	r0, r0, r4, rrx
  f8:	000103e8 	andeq	r0, r1, r8, ror #7
  fc:	0000008c 	andeq	r0, r0, ip, lsl #1
 100:	8e040e42 	cdphi	14, 0, cr0, cr4, cr2, {2}
 104:	100e4201 	andne	r4, lr, r1, lsl #4
 108:	00000014 	andeq	r0, r0, r4, lsl r0
 10c:	00000064 	andeq	r0, r0, r4, rrx
 110:	00010474 	andeq	r0, r1, r4, ror r4
 114:	0000004c 	andeq	r0, r0, ip, asr #32
 118:	8e080e42 	cdphi	14, 0, cr0, cr8, cr2, {2}
 11c:	00028401 	andeq	r8, r2, r1, lsl #8
 120:	00000018 	andeq	r0, r0, r8, lsl r0
 124:	00000064 	andeq	r0, r0, r4, rrx
 128:	000104c0 	andeq	r0, r1, r0, asr #9
 12c:	00000068 	andeq	r0, r0, r8, rrx
 130:	8e100e42 	cdphi	14, 1, cr0, cr0, cr2, {2}
 134:	84028501 	strhi	r8, [r2], #-1281	; 0x501
 138:	00048303 	andeq	r8, r4, r3, lsl #6
 13c:	00000018 	andeq	r0, r0, r8, lsl r0
 140:	00000064 	andeq	r0, r0, r4, rrx
 144:	00010528 	andeq	r0, r1, r8, lsr #10
 148:	00000084 	andeq	r0, r0, r4, lsl #1
 14c:	8e080e42 	cdphi	14, 0, cr0, cr8, cr2, {2}
 150:	42028401 	andmi	r8, r2, #16777216	; 0x1000000
 154:	0000100e 	andeq	r1, r0, lr
 158:	0000000c 	andeq	r0, r0, ip
 15c:	00000064 	andeq	r0, r0, r4, rrx
 160:	000105ac 	andeq	r0, r1, ip, lsr #11
 164:	00000018 	andeq	r0, r0, r8, lsl r0
 168:	0000000c 	andeq	r0, r0, ip
 16c:	00000064 	andeq	r0, r0, r4, rrx
 170:	000105c4 	andeq	r0, r1, r4, asr #11
 174:	00000018 	andeq	r0, r0, r8, lsl r0
 178:	0000000c 	andeq	r0, r0, ip
 17c:	00000064 	andeq	r0, r0, r4, rrx
 180:	000105dc 	ldrdeq	r0, [r1], -ip
 184:	00000018 	andeq	r0, r0, r8, lsl r0
 188:	00000018 	andeq	r0, r0, r8, lsl r0
 18c:	00000064 	andeq	r0, r0, r4, rrx
 190:	000105f4 	strdeq	r0, [r1], -r4
 194:	00000034 	andeq	r0, r0, r4, lsr r0
 198:	8e100e42 	cdphi	14, 1, cr0, cr0, cr2, {2}
 19c:	85028601 	strhi	r8, [r2, #-1537]	; 0x601
 1a0:	00048403 	andeq	r8, r4, r3, lsl #8
 1a4:	0000000c 	andeq	r0, r0, ip
 1a8:	ffffffff 			; <UNDEFINED> instruction: 0xffffffff
 1ac:	7c020001 	stcvc	0, cr0, [r2], {1}
 1b0:	000d0c0e 	andeq	r0, sp, lr, lsl #24
 1b4:	0000000c 	andeq	r0, r0, ip
 1b8:	000001a4 	andeq	r0, r0, r4, lsr #3
 1bc:	00010628 	andeq	r0, r1, r8, lsr #12
 1c0:	0000002c 	andeq	r0, r0, ip, lsr #32
 1c4:	0000000c 	andeq	r0, r0, ip
 1c8:	000001a4 	andeq	r0, r0, r4, lsr #3
 1cc:	00010654 	andeq	r0, r1, r4, asr r6
 1d0:	0000001c 	andeq	r0, r0, ip, lsl r0
 1d4:	0000000c 	andeq	r0, r0, ip
 1d8:	000001a4 	andeq	r0, r0, r4, lsr #3
 1dc:	00010670 	andeq	r0, r1, r0, ror r6
 1e0:	00000024 	andeq	r0, r0, r4, lsr #32
 1e4:	0000000c 	andeq	r0, r0, ip
 1e8:	000001a4 	andeq	r0, r0, r4, lsr #3
 1ec:	00010694 	muleq	r1, r4, r6
 1f0:	00000008 	andeq	r0, r0, r8
 1f4:	0000000c 	andeq	r0, r0, ip
 1f8:	000001a4 	andeq	r0, r0, r4, lsr #3
 1fc:	0001069c 	muleq	r1, ip, r6
 200:	00000010 	andeq	r0, r0, r0, lsl r0
 204:	00000014 	andeq	r0, r0, r4, lsl r0
 208:	000001a4 	andeq	r0, r0, r4, lsr #3
 20c:	000106ac 	andeq	r0, r1, ip, lsr #13
 210:	00000028 	andeq	r0, r0, r8, lsr #32
 214:	8e080e42 	cdphi	14, 0, cr0, cr8, cr2, {2}
 218:	00028401 	andeq	r8, r2, r1, lsl #8
 21c:	00000018 	andeq	r0, r0, r8, lsl r0
 220:	000001a4 	andeq	r0, r0, r4, lsr #3
 224:	000106d4 	ldrdeq	r0, [r1], -r4
 228:	00000080 	andeq	r0, r0, r0, lsl #1
 22c:	8e100e42 	cdphi	14, 1, cr0, cr0, cr2, {2}
 230:	84028501 	strhi	r8, [r2], #-1281	; 0x501
 234:	00048303 	andeq	r8, r4, r3, lsl #6
 238:	0000000c 	andeq	r0, r0, ip
 23c:	000001a4 	andeq	r0, r0, r4, lsr #3
 240:	00010754 	andeq	r0, r1, r4, asr r7
 244:	0000000c 	andeq	r0, r0, ip
 248:	0000000c 	andeq	r0, r0, ip
 24c:	000001a4 	andeq	r0, r0, r4, lsr #3
 250:	00010760 	andeq	r0, r1, r0, ror #14
 254:	0000002c 	andeq	r0, r0, ip, lsr #32
 258:	0000000c 	andeq	r0, r0, ip
 25c:	000001a4 	andeq	r0, r0, r4, lsr #3
 260:	0001078c 	andeq	r0, r1, ip, lsl #15
 264:	0000002c 	andeq	r0, r0, ip, lsr #32
 268:	0000000c 	andeq	r0, r0, ip
 26c:	000001a4 	andeq	r0, r0, r4, lsr #3
 270:	000107b8 			; <UNDEFINED> instruction: 0x000107b8
 274:	0000002c 	andeq	r0, r0, ip, lsr #32
 278:	0000000c 	andeq	r0, r0, ip
 27c:	ffffffff 			; <UNDEFINED> instruction: 0xffffffff
 280:	7c020001 	stcvc	0, cr0, [r2], {1}
 284:	000d0c0e 	andeq	r0, sp, lr, lsl #24
 288:	0000000c 	andeq	r0, r0, ip
 28c:	00000278 	andeq	r0, r0, r8, ror r2
 290:	00010800 	andeq	r0, r1, r0, lsl #16
 294:	0000003c 	andeq	r0, r0, ip, lsr r0
 298:	0000000c 	andeq	r0, r0, ip
 29c:	00000278 	andeq	r0, r0, r8, ror r2
 2a0:	0001083c 	andeq	r0, r1, ip, lsr r8
 2a4:	00000064 	andeq	r0, r0, r4, rrx
 2a8:	0000000c 	andeq	r0, r0, ip
 2ac:	ffffffff 			; <UNDEFINED> instruction: 0xffffffff
 2b0:	7c020001 	stcvc	0, cr0, [r2], {1}
 2b4:	000d0c0e 	andeq	r0, sp, lr, lsl #24
 2b8:	0000000c 	andeq	r0, r0, ip
 2bc:	000002a8 	andeq	r0, r0, r8, lsr #5
 2c0:	00010de0 	andeq	r0, r1, r0, ror #27
 2c4:	0000010c 	andeq	r0, r0, ip, lsl #2
 2c8:	0000000c 	andeq	r0, r0, ip
 2cc:	000002a8 	andeq	r0, r0, r8, lsr #5
 2d0:	00010eec 	andeq	r0, r1, ip, ror #29
 2d4:	000000d4 	ldrdeq	r0, [r0], -r4
 2d8:	0000000c 	andeq	r0, r0, ip
 2dc:	000002a8 	andeq	r0, r0, r8, lsr #5
 2e0:	00010fc0 	andeq	r0, r1, r0, asr #31
 2e4:	00000018 	andeq	r0, r0, r8, lsl r0
 2e8:	0000000c 	andeq	r0, r0, ip
 2ec:	000002a8 	andeq	r0, r0, r8, lsr #5
 2f0:	00010fd8 	ldrdeq	r0, [r1], -r8
 2f4:	000000a8 	andeq	r0, r0, r8, lsr #1
 2f8:	0000000c 	andeq	r0, r0, ip
 2fc:	000002a8 	andeq	r0, r0, r8, lsr #5
 300:	00011080 	andeq	r1, r1, r0, lsl #1
 304:	0000000c 	andeq	r0, r0, ip
 308:	0000000c 	andeq	r0, r0, ip
 30c:	000002a8 	andeq	r0, r0, r8, lsr #5
 310:	0001108c 	andeq	r1, r1, ip, lsl #1
 314:	0000000c 	andeq	r0, r0, ip
 318:	0000000c 	andeq	r0, r0, ip
 31c:	000002a8 	andeq	r0, r0, r8, lsr #5
 320:	00011098 	muleq	r1, r8, r0
 324:	00000014 	andeq	r0, r0, r4, lsl r0
 328:	0000000c 	andeq	r0, r0, ip
 32c:	000002a8 	andeq	r0, r0, r8, lsr #5
 330:	000110ac 	andeq	r1, r1, ip, lsr #1
 334:	00000010 	andeq	r0, r0, r0, lsl r0
 338:	0000000c 	andeq	r0, r0, ip
 33c:	ffffffff 			; <UNDEFINED> instruction: 0xffffffff
 340:	7c020001 	stcvc	0, cr0, [r2], {1}
 344:	000d0c0e 	andeq	r0, sp, lr, lsl #24
 348:	00000018 	andeq	r0, r0, r8, lsl r0
 34c:	00000338 	andeq	r0, r0, r8, lsr r3
 350:	000110bc 	strheq	r1, [r1], -ip
 354:	000000d4 	ldrdeq	r0, [r0], -r4
 358:	8e100e42 	cdphi	14, 1, cr0, cr0, cr2, {2}
 35c:	84028501 	strhi	r8, [r2], #-1281	; 0x501
 360:	00048303 	andeq	r8, r4, r3, lsl #6
 364:	00000018 	andeq	r0, r0, r8, lsl r0
 368:	00000338 	andeq	r0, r0, r8, lsr r3
 36c:	00011190 	muleq	r1, r0, r1
 370:	00000090 	muleq	r0, r0, r0
 374:	8e100e42 	cdphi	14, 1, cr0, cr0, cr2, {2}
 378:	84028501 	strhi	r8, [r2], #-1281	; 0x501
 37c:	00048303 	andeq	r8, r4, r3, lsl #6
 380:	0000000c 	andeq	r0, r0, ip
 384:	00000338 	andeq	r0, r0, r8, lsr r3
 388:	00011220 	andeq	r1, r1, r0, lsr #4
 38c:	00000084 	andeq	r0, r0, r4, lsl #1
 390:	00000014 	andeq	r0, r0, r4, lsl r0
 394:	00000338 	andeq	r0, r0, r8, lsr r3
 398:	000112a4 	andeq	r1, r1, r4, lsr #5
 39c:	00000088 	andeq	r0, r0, r8, lsl #1
 3a0:	84040e44 	strhi	r0, [r4], #-3652	; 0xe44
 3a4:	00000001 	andeq	r0, r0, r1
 3a8:	00000018 	andeq	r0, r0, r8, lsl r0
 3ac:	00000338 	andeq	r0, r0, r8, lsr r3
 3b0:	0001132c 	andeq	r1, r1, ip, lsr #6
 3b4:	00000090 	muleq	r0, r0, r0
 3b8:	8e100e42 	cdphi	14, 1, cr0, cr0, cr2, {2}
 3bc:	84028501 	strhi	r8, [r2], #-1281	; 0x501
 3c0:	00048303 	andeq	r8, r4, r3, lsl #6
 3c4:	0000000c 	andeq	r0, r0, ip
 3c8:	00000338 	andeq	r0, r0, r8, lsr r3
 3cc:	000113bc 			; <UNDEFINED> instruction: 0x000113bc
 3d0:	00000030 	andeq	r0, r0, r0, lsr r0
 3d4:	0000000c 	andeq	r0, r0, ip
 3d8:	00000338 	andeq	r0, r0, r8, lsr r3
 3dc:	000113ec 	andeq	r1, r1, ip, ror #7
 3e0:	00000084 	andeq	r0, r0, r4, lsl #1
 3e4:	00000014 	andeq	r0, r0, r4, lsl r0
 3e8:	00000338 	andeq	r0, r0, r8, lsr r3
 3ec:	00011470 	andeq	r1, r1, r0, ror r4
 3f0:	00000088 	andeq	r0, r0, r8, lsl #1
 3f4:	84040e44 	strhi	r0, [r4], #-3652	; 0xe44
 3f8:	00000001 	andeq	r0, r0, r1
 3fc:	0000000c 	andeq	r0, r0, ip
 400:	ffffffff 			; <UNDEFINED> instruction: 0xffffffff
 404:	7c020001 	stcvc	0, cr0, [r2], {1}
 408:	000d0c0e 	andeq	r0, sp, lr, lsl #24
 40c:	00000020 	andeq	r0, r0, r0, lsr #32
 410:	000003fc 	strdeq	r0, [r0], -ip
 414:	000114f8 	strdeq	r1, [r1], -r8
 418:	000000bc 	strheq	r0, [r0], -ip
 41c:	8e1c0e42 	cdphi	14, 1, cr0, cr12, cr2, {2}
 420:	88028a01 	stmdahi	r2, {r0, r9, fp, pc}
 424:	86048703 	strhi	r8, [r4], -r3, lsl #14
 428:	84068505 	strhi	r8, [r6], #-1285	; 0x505
 42c:	480e4c07 	stmdami	lr, {r0, r1, r2, sl, fp, lr}
 430:	0000001c 	andeq	r0, r0, ip, lsl r0
 434:	000003fc 	strdeq	r0, [r0], -ip
 438:	000115b4 			; <UNDEFINED> instruction: 0x000115b4
 43c:	000000a8 	andeq	r0, r0, r8, lsr #1
 440:	87100e42 	ldrhi	r0, [r0, -r2, asr #28]
 444:	85028601 	strhi	r8, [r2, #-1537]	; 0x601
 448:	4c048403 	cfstrsmi	mvf8, [r4], {3}
 44c:	0000280e 	andeq	r2, r0, lr, lsl #16
 450:	0000001c 	andeq	r0, r0, ip, lsl r0
 454:	000003fc 	strdeq	r0, [r0], -ip
 458:	0001165c 	andeq	r1, r1, ip, asr r6
 45c:	000000e8 	andeq	r0, r0, r8, ror #1
 460:	88140e42 	ldmdahi	r4, {r1, r6, r9, sl, fp}
 464:	86028701 	strhi	r8, [r2], -r1, lsl #14
 468:	84048503 	strhi	r8, [r4], #-1283	; 0x503
 46c:	400e4a05 	andmi	r4, lr, r5, lsl #20
 470:	00000030 	andeq	r0, r0, r0, lsr r0
 474:	000003fc 	strdeq	r0, [r0], -ip
 478:	00011744 	andeq	r1, r1, r4, asr #14
 47c:	000002d0 	ldrdeq	r0, [r0], -r0	; <UNPREDICTABLE>
 480:	83100e42 	tsthi	r0, #1056	; 0x420
 484:	81028201 	tsthi	r2, r1, lsl #4
 488:	42048003 	andmi	r8, r4, #3
 48c:	058e300e 	streq	r3, [lr, #14]
 490:	0789068a 	streq	r0, [r9, sl, lsl #13]
 494:	09870888 	stmibeq	r7, {r3, r7, fp}
 498:	0b850a86 	bleq	fe142eb8 <__bss_end+0xfe12fd6c>
 49c:	0e420c84 	cdpeq	12, 4, cr0, cr2, cr4, {4}
 4a0:	00000048 	andeq	r0, r0, r8, asr #32
 4a4:	00000030 	andeq	r0, r0, r0, lsr r0
 4a8:	000003fc 	strdeq	r0, [r0], -ip
 4ac:	00011a14 	andeq	r1, r1, r4, lsl sl
 4b0:	000002d0 	ldrdeq	r0, [r0], -r0	; <UNPREDICTABLE>
 4b4:	83100e42 	tsthi	r0, #1056	; 0x420
 4b8:	81028201 	tsthi	r2, r1, lsl #4
 4bc:	42048003 	andmi	r8, r4, #3
 4c0:	058e300e 	streq	r3, [lr, #14]
 4c4:	0789068a 	streq	r0, [r9, sl, lsl #13]
 4c8:	09870888 	stmibeq	r7, {r3, r7, fp}
 4cc:	0b850a86 	bleq	fe142eec <__bss_end+0xfe12fda0>
 4d0:	0e420c84 	cdpeq	12, 4, cr0, cr2, cr4, {4}
 4d4:	00000048 	andeq	r0, r0, r8, asr #32
 4d8:	0000000c 	andeq	r0, r0, ip
 4dc:	ffffffff 			; <UNDEFINED> instruction: 0xffffffff
 4e0:	7c020001 	stcvc	0, cr0, [r2], {1}
 4e4:	000d0c0e 	andeq	r0, sp, lr, lsl #24
 4e8:	0000000c 	andeq	r0, r0, ip
 4ec:	000004d8 	ldrdeq	r0, [r0], -r8
 4f0:	00011ec0 	andeq	r1, r1, r0, asr #29
 4f4:	0000000c 	andeq	r0, r0, ip
 4f8:	0000000c 	andeq	r0, r0, ip
 4fc:	000004d8 	ldrdeq	r0, [r0], -r8
 500:	00011ecc 	andeq	r1, r1, ip, asr #29
 504:	0000004c 	andeq	r0, r0, ip, asr #32
 508:	0000000c 	andeq	r0, r0, ip
 50c:	ffffffff 			; <UNDEFINED> instruction: 0xffffffff
 510:	7c020001 	stcvc	0, cr0, [r2], {1}
 514:	000d0c0e 	andeq	r0, sp, lr, lsl #24
 518:	00000014 	andeq	r0, r0, r4, lsl r0
 51c:	00000508 	andeq	r0, r0, r8, lsl #10
 520:	00011f18 	andeq	r1, r1, r8, lsl pc
 524:	00000090 	muleq	r0, r0, r0
 528:	8e080e48 	cdphi	14, 0, cr0, cr8, cr8, {2}
 52c:	00028401 	andeq	r8, r2, r1, lsl #8
 530:	00000010 	andeq	r0, r0, r0, lsl r0
 534:	00000508 	andeq	r0, r0, r8, lsl #10
 538:	00011fa8 	andeq	r1, r1, r8, lsr #31
 53c:	00000054 	andeq	r0, r0, r4, asr r0
 540:	00080e44 	andeq	r0, r8, r4, asr #28
 544:	00000014 	andeq	r0, r0, r4, lsl r0
 548:	00000508 	andeq	r0, r0, r8, lsl #10
 54c:	00011ffc 	strdeq	r1, [r1], -ip
 550:	00000058 	andeq	r0, r0, r8, asr r0
 554:	85080e44 	strhi	r0, [r8, #-3652]	; 0xe44
 558:	00028401 	andeq	r8, r2, r1, lsl #8
 55c:	0000000c 	andeq	r0, r0, ip
 560:	00000508 	andeq	r0, r0, r8, lsl #10
 564:	00012054 	andeq	r2, r1, r4, asr r0
 568:	00000050 	andeq	r0, r0, r0, asr r0
 56c:	0000000c 	andeq	r0, r0, ip
 570:	ffffffff 			; <UNDEFINED> instruction: 0xffffffff
 574:	7c020001 	stcvc	0, cr0, [r2], {1}
 578:	000d0c0e 	andeq	r0, sp, lr, lsl #24
 57c:	00000014 	andeq	r0, r0, r4, lsl r0
 580:	0000056c 	andeq	r0, r0, ip, ror #10
 584:	000120a4 	andeq	r2, r1, r4, lsr #1
 588:	00000064 	andeq	r0, r0, r4, rrx
 58c:	84040e44 	strhi	r0, [r4], #-3652	; 0xe44
 590:	00000001 	andeq	r0, r0, r1
 594:	0000000c 	andeq	r0, r0, ip
 598:	0000056c 	andeq	r0, r0, ip, ror #10
 59c:	00012108 	andeq	r2, r1, r8, lsl #2
 5a0:	00000050 	andeq	r0, r0, r0, asr r0
 5a4:	0000000c 	andeq	r0, r0, ip
 5a8:	0000056c 	andeq	r0, r0, ip, ror #10
 5ac:	00012158 	andeq	r2, r1, r8, asr r1
 5b0:	00000038 	andeq	r0, r0, r8, lsr r0
 5b4:	0000000c 	andeq	r0, r0, ip
 5b8:	0000056c 	andeq	r0, r0, ip, ror #10
 5bc:	00012190 	muleq	r1, r0, r1
 5c0:	00000028 	andeq	r0, r0, r8, lsr #32
 5c4:	0000000c 	andeq	r0, r0, ip
 5c8:	0000056c 	andeq	r0, r0, ip, ror #10
 5cc:	000121b8 			; <UNDEFINED> instruction: 0x000121b8
 5d0:	00000048 	andeq	r0, r0, r8, asr #32
 5d4:	0000000c 	andeq	r0, r0, ip
 5d8:	0000056c 	andeq	r0, r0, ip, ror #10
 5dc:	00012200 	andeq	r2, r1, r0, lsl #4
 5e0:	00000040 	andeq	r0, r0, r0, asr #32
 5e4:	0000000c 	andeq	r0, r0, ip
 5e8:	ffffffff 			; <UNDEFINED> instruction: 0xffffffff
 5ec:	7c020001 	stcvc	0, cr0, [r2], {1}
 5f0:	000d0c0e 	andeq	r0, sp, lr, lsl #24
 5f4:	0000000c 	andeq	r0, r0, ip
 5f8:	000005e4 	andeq	r0, r0, r4, ror #11
 5fc:	00012240 	andeq	r2, r1, r0, asr #4
 600:	00000030 	andeq	r0, r0, r0, lsr r0
 604:	0000000c 	andeq	r0, r0, ip
 608:	000005e4 	andeq	r0, r0, r4, ror #11
 60c:	00012270 	andeq	r2, r1, r0, ror r2
 610:	00000028 	andeq	r0, r0, r8, lsr #32
 614:	0000000c 	andeq	r0, r0, ip
 618:	ffffffff 			; <UNDEFINED> instruction: 0xffffffff
 61c:	7c020001 	stcvc	0, cr0, [r2], {1}
 620:	000d0c0e 	andeq	r0, sp, lr, lsl #24
 624:	0000000c 	andeq	r0, r0, ip
 628:	00000614 	andeq	r0, r0, r4, lsl r6
 62c:	00012298 	muleq	r1, r8, r2
 630:	0000002c 	andeq	r0, r0, ip, lsr #32
 634:	00000014 	andeq	r0, r0, r4, lsl r0
 638:	00000614 	andeq	r0, r0, r4, lsl r6
 63c:	000122c4 	andeq	r2, r1, r4, asr #5
 640:	0000007c 	andeq	r0, r0, ip, ror r0
 644:	8e080e42 	cdphi	14, 0, cr0, cr8, cr2, {2}
 648:	00028301 	andeq	r8, r2, r1, lsl #6
 64c:	0000000c 	andeq	r0, r0, ip
 650:	00000614 	andeq	r0, r0, r4, lsl r6
 654:	00012340 	andeq	r2, r1, r0, asr #6
 658:	00000030 	andeq	r0, r0, r0, lsr r0
 65c:	0000000c 	andeq	r0, r0, ip
 660:	00000614 	andeq	r0, r0, r4, lsl r6
 664:	00012370 	andeq	r2, r1, r0, ror r3
 668:	00000068 	andeq	r0, r0, r8, rrx
 66c:	0000000c 	andeq	r0, r0, ip
 670:	00000614 	andeq	r0, r0, r4, lsl r6
 674:	000123d8 	ldrdeq	r2, [r1], -r8
 678:	00000028 	andeq	r0, r0, r8, lsr #32
 67c:	0000000c 	andeq	r0, r0, ip
 680:	ffffffff 			; <UNDEFINED> instruction: 0xffffffff
 684:	7c020001 	stcvc	0, cr0, [r2], {1}
 688:	000d0c0e 	andeq	r0, sp, lr, lsl #24
 68c:	0000000c 	andeq	r0, r0, ip
 690:	0000067c 	andeq	r0, r0, ip, ror r6
 694:	00012400 	andeq	r2, r1, r0, lsl #8
 698:	0000002c 	andeq	r0, r0, ip, lsr #32
 69c:	0000000c 	andeq	r0, r0, ip
 6a0:	0000067c 	andeq	r0, r0, ip, ror r6
 6a4:	0001242c 	andeq	r2, r1, ip, lsr #8
 6a8:	00000010 	andeq	r0, r0, r0, lsl r0
 6ac:	0000000c 	andeq	r0, r0, ip
 6b0:	0000067c 	andeq	r0, r0, ip, ror r6
 6b4:	0001243c 	andeq	r2, r1, ip, lsr r4
 6b8:	00000198 	muleq	r0, r8, r1
 6bc:	0000001c 	andeq	r0, r0, ip, lsl r0
 6c0:	0000067c 	andeq	r0, r0, ip, ror r6
 6c4:	000125d4 	ldrdeq	r2, [r1], -r4
 6c8:	00000438 	andeq	r0, r0, r8, lsr r4
 6cc:	8e180e42 	cdphi	14, 1, cr0, cr8, cr2, {2}
 6d0:	87028801 	strhi	r8, [r2, -r1, lsl #16]
 6d4:	85048603 	strhi	r8, [r4, #-1539]	; 0x603
 6d8:	00068405 	andeq	r8, r6, r5, lsl #8
 6dc:	0000000c 	andeq	r0, r0, ip
 6e0:	0000067c 	andeq	r0, r0, ip, ror r6
 6e4:	00012a0c 	andeq	r2, r1, ip, lsl #20
 6e8:	00000028 	andeq	r0, r0, r8, lsr #32
 6ec:	0000000c 	andeq	r0, r0, ip
 6f0:	0000067c 	andeq	r0, r0, ip, ror r6
 6f4:	00012a34 	andeq	r2, r1, r4, lsr sl
 6f8:	00000028 	andeq	r0, r0, r8, lsr #32
 6fc:	00000014 	andeq	r0, r0, r4, lsl r0
 700:	0000067c 	andeq	r0, r0, ip, ror r6
 704:	00012a5c 	andeq	r2, r1, ip, asr sl
 708:	00000050 	andeq	r0, r0, r0, asr r0
 70c:	84040e4a 	strhi	r0, [r4], #-3658	; 0xe4a
 710:	00000001 	andeq	r0, r0, r1
 714:	00000014 	andeq	r0, r0, r4, lsl r0
 718:	0000067c 	andeq	r0, r0, ip, ror r6
 71c:	00012aac 	andeq	r2, r1, ip, lsr #21
 720:	00000044 	andeq	r0, r0, r4, asr #32
 724:	85080e48 	strhi	r0, [r8, #-3656]	; 0xe48
 728:	00028401 	andeq	r8, r2, r1, lsl #8
 72c:	0000000c 	andeq	r0, r0, ip
 730:	0000067c 	andeq	r0, r0, ip, ror r6
 734:	00012af0 	strdeq	r2, [r1], -r0
 738:	00000098 	muleq	r0, r8, r0
 73c:	0000000c 	andeq	r0, r0, ip
 740:	0000067c 	andeq	r0, r0, ip, ror r6
 744:	00012b88 	andeq	r2, r1, r8, lsl #23
 748:	00000084 	andeq	r0, r0, r4, lsl #1
 74c:	00000014 	andeq	r0, r0, r4, lsl r0
 750:	0000067c 	andeq	r0, r0, ip, ror r6
 754:	00012c0c 	andeq	r2, r1, ip, lsl #24
 758:	0000005c 	andeq	r0, r0, ip, asr r0
 75c:	84040e44 	strhi	r0, [r4], #-3652	; 0xe44
 760:	00000001 	andeq	r0, r0, r1

Disassembly of section .debug_ranges:

00000000 <.debug_ranges>:
   0:	000000d8 	ldrdeq	r0, [r0], -r8
   4:	000000e0 	andeq	r0, r0, r0, ror #1
   8:	000000e4 	andeq	r0, r0, r4, ror #1
   c:	000000f8 	strdeq	r0, [r0], -r8
	...
  18:	000000d8 	ldrdeq	r0, [r0], -r8
  1c:	000000e0 	andeq	r0, r0, r0, ror #1
  20:	000000e4 	andeq	r0, r0, r4, ror #1
  24:	000000f8 	strdeq	r0, [r0], -r8
	...
  30:	00000188 	andeq	r0, r0, r8, lsl #3
  34:	00000190 	muleq	r0, r0, r1
  38:	000001c4 	andeq	r0, r0, r4, asr #3
  3c:	000001dc 	ldrdeq	r0, [r0], -ip
	...
  48:	00000218 	andeq	r0, r0, r8, lsl r2
  4c:	0000021c 	andeq	r0, r0, ip, lsl r2
  50:	00000224 	andeq	r0, r0, r4, lsr #4
  54:	00000240 	andeq	r0, r0, r0, asr #4
  58:	00000248 	andeq	r0, r0, r8, asr #4
  5c:	00000250 	andeq	r0, r0, r0, asr r2
	...
  68:	00000218 	andeq	r0, r0, r8, lsl r2
  6c:	0000021c 	andeq	r0, r0, ip, lsl r2
  70:	00000224 	andeq	r0, r0, r4, lsr #4
  74:	00000240 	andeq	r0, r0, r0, asr #4
  78:	00000248 	andeq	r0, r0, r8, asr #4
  7c:	00000250 	andeq	r0, r0, r0, asr r2
	...
  88:	00000274 	andeq	r0, r0, r4, ror r2
  8c:	0000027c 	andeq	r0, r0, ip, ror r2
  90:	00000280 	andeq	r0, r0, r0, lsl #5
  94:	00000294 	muleq	r0, r4, r2
	...
  a0:	00000274 	andeq	r0, r0, r4, ror r2
  a4:	0000027c 	andeq	r0, r0, ip, ror r2
  a8:	00000280 	andeq	r0, r0, r0, lsl #5
  ac:	00000294 	muleq	r0, r4, r2
	...
  b8:	00000354 	andeq	r0, r0, r4, asr r3
  bc:	0000035c 	andeq	r0, r0, ip, asr r3
  c0:	00000390 	muleq	r0, r0, r3
  c4:	000003a8 	andeq	r0, r0, r8, lsr #7
	...
  d0:	000003e4 	andeq	r0, r0, r4, ror #7
  d4:	000003e8 	andeq	r0, r0, r8, ror #7
  d8:	000003f0 	strdeq	r0, [r0], -r0	; <UNPREDICTABLE>
  dc:	0000040c 	andeq	r0, r0, ip, lsl #8
  e0:	00000414 	andeq	r0, r0, r4, lsl r4
  e4:	0000041c 	andeq	r0, r0, ip, lsl r4
	...
  f0:	000003e4 	andeq	r0, r0, r4, ror #7
  f4:	000003e8 	andeq	r0, r0, r8, ror #7
  f8:	000003f0 	strdeq	r0, [r0], -r0	; <UNPREDICTABLE>
  fc:	0000040c 	andeq	r0, r0, ip, lsl #8
 100:	00000414 	andeq	r0, r0, r4, lsl r4
 104:	0000041c 	andeq	r0, r0, ip, lsl r4
	...
 110:	000000f8 	strdeq	r0, [r0], -r8
 114:	000000fc 	strdeq	r0, [r0], -ip
 118:	00000100 	andeq	r0, r0, r0, lsl #2
 11c:	00000154 	andeq	r0, r0, r4, asr r1
	...
 128:	000000f8 	strdeq	r0, [r0], -r8
 12c:	000000fc 	strdeq	r0, [r0], -ip
 130:	00000100 	andeq	r0, r0, r0, lsl #2
 134:	00000154 	andeq	r0, r0, r4, asr r1
	...
 140:	000000ac 	andeq	r0, r0, ip, lsr #1
 144:	000000b0 	strheq	r0, [r0], -r0	; <UNPREDICTABLE>
 148:	000000bc 	strheq	r0, [r0], -ip
 14c:	000000c0 	andeq	r0, r0, r0, asr #1
 150:	000000c4 	andeq	r0, r0, r4, asr #1
 154:	000000c8 	andeq	r0, r0, r8, asr #1
 158:	000000cc 	andeq	r0, r0, ip, asr #1
 15c:	000000d0 	ldrdeq	r0, [r0], -r0	; <UNPREDICTABLE>
	...
 168:	00000144 	andeq	r0, r0, r4, asr #2
 16c:	00000148 	andeq	r0, r0, r8, asr #2
 170:	00000154 	andeq	r0, r0, r4, asr r1
 174:	0000015c 	andeq	r0, r0, ip, asr r1
 178:	00000160 	andeq	r0, r0, r0, ror #2
 17c:	00000164 	andeq	r0, r0, r4, ror #2
	...
