
arch/arm/mach-sunxi/pm/standby/resume1.elf:     file format elf32-littlearm


Disassembly of section .text:

00010000 <resume_head>:
   10000:	ea00000a 	b	10030 <_start>
   10004:	4e4f4765 	cdpmi	7, 4, cr4, cr15, cr5, {3}
   10008:	3054422e 	subscc	r4, r4, lr, lsr #4
   1000c:	5f0a6c39 	svcpl	0x000a6c39
   10010:	00000400 	andeq	r0, r0, r0, lsl #8
   10014:	00000030 	andeq	r0, r0, r0, lsr r0
   10018:	30303131 	eorscc	r3, r0, r1, lsr r1
   1001c:	30333231 	eorscc	r3, r3, r1, lsr r2
   10020:	30333231 	eorscc	r3, r3, r1, lsr r2
   10024:	30303131 	eorscc	r3, r0, r1, lsr r1
	...

00010030 <_start>:
   10030:	e10f0000 	mrs	r0, CPSR
   10034:	e3c0001f 	bic	r0, r0, #31
   10038:	e3800013 	orr	r0, r0, #19
   1003c:	e38000c0 	orr	r0, r0, #192	; 0xc0
   10040:	e3c00c02 	bic	r0, r0, #512	; 0x200
   10044:	e121f000 	msr	CPSR_c, r0
   10048:	ee110f10 	mrc	15, 0, r0, cr1, cr0, {0}
   1004c:	e3c00005 	bic	r0, r0, #5
   10050:	e3c00b06 	bic	r0, r0, #6144	; 0x1800
   10054:	e3c00002 	bic	r0, r0, #2
   10058:	ee010f10 	mcr	15, 0, r0, cr1, cr0, {0}
   1005c:	f57ff04f 	dsb	sy
   10060:	f57ff06f 	isb	sy
   10064:	ee100fb0 	mrc	15, 0, r0, cr0, cr0, {5}
   10068:	e1a00480 	lsl	r0, r0, #9
   1006c:	e280db4e 	add	sp, r0, #79872	; 0x13800
   10070:	eb00004f 	bl	101b4 <set_pll>
   10074:	eb000014 	bl	100cc <resume1_c_part>
   10078:	eafffffe 	b	10078 <_start+0x48>

0001007c <mem_memcpy>:
   1007c:	e2822003 	add	r2, r2, #3
   10080:	e1a02142 	asr	r2, r2, #2
   10084:	e3520000 	cmp	r2, #0
   10088:	d12fff1e 	bxle	lr
   1008c:	e2411004 	sub	r1, r1, #4
   10090:	e5b13004 	ldr	r3, [r1, #4]!
   10094:	e2522001 	subs	r2, r2, #1
   10098:	e4803004 	str	r3, [r0], #4
   1009c:	1afffffb 	bne	10090 <mem_memcpy+0x14>
   100a0:	e12fff1e 	bx	lr

000100a4 <mem_delay>:
   100a4:	e92d000f 	push	{r0, r1, r2, r3}
   100a8:	e3a01011 	mov	r1, #17
   100ac:	e1a03000 	mov	r3, r0

000100b0 <loop2>:
   100b0:	e2500001 	subs	r0, r0, #1
   100b4:	8afffffd 	bhi	100b0 <loop2>
   100b8:	e1a00003 	mov	r0, r3
   100bc:	e2511001 	subs	r1, r1, #1
   100c0:	8afffffa 	bhi	100b0 <loop2>
   100c4:	e8bd000f 	pop	{r0, r1, r2, r3}
   100c8:	e1a0f00e 	mov	pc, lr

000100cc <resume1_c_part>:
   100cc:	e92d4010 	push	{r4, lr}
   100d0:	e3a00047 	mov	r0, #71	; 0x47
   100d4:	e59f40b8 	ldr	r4, [pc, #184]	; 10194 <resume1_c_part+0xc8>
   100d8:	eb000112 	bl	10528 <save_mem_status_nommu>
   100dc:	eb0003bd 	bl	10fd8 <set_copro_default>
   100e0:	e3a00048 	mov	r0, #72	; 0x48
   100e4:	eb00010f 	bl	10528 <save_mem_status_nommu>
   100e8:	e5943010 	ldr	r3, [r4, #16]
   100ec:	e3130002 	tst	r3, #2
   100f0:	1a00001e 	bne	10170 <resume1_c_part+0xa4>
   100f4:	e59f009c 	ldr	r0, [pc, #156]	; 10198 <resume1_c_part+0xcc>
   100f8:	eb000a43 	bl	12a0c <mem_clk_setdiv>
   100fc:	e59f0098 	ldr	r0, [pc, #152]	; 1019c <resume1_c_part+0xd0>
   10100:	eb000a55 	bl	12a5c <mem_clk_set_pll_factor>
   10104:	eb000168 	bl	106ac <change_runtime_env>
   10108:	e5940014 	ldr	r0, [r4, #20]
   1010c:	eb000190 	bl	10754 <delay_ms>
   10110:	e5943010 	ldr	r3, [r4, #16]
   10114:	e3130002 	tst	r3, #2
   10118:	1a00001a 	bne	10188 <resume1_c_part+0xbc>
   1011c:	e3a00049 	mov	r0, #73	; 0x49
   10120:	eb000100 	bl	10528 <save_mem_status_nommu>
   10124:	e59f0074 	ldr	r0, [pc, #116]	; 101a0 <resume1_c_part+0xd4>
   10128:	eb0001c3 	bl	1083c <restore_mmu_state>
   1012c:	e3a0004a 	mov	r0, #74	; 0x4a
   10130:	eb0000ac 	bl	103e8 <save_mem_status>
   10134:	e3a0004b 	mov	r0, #75	; 0x4b
   10138:	eb0000aa 	bl	103e8 <save_mem_status>
   1013c:	eb00027e 	bl	10b3c <mem_flush_tlb>
   10140:	e3a00001 	mov	r0, #1
   10144:	eb0008ad 	bl	12400 <mem_clk_init>
   10148:	e5943010 	ldr	r3, [r4, #16]
   1014c:	e3130002 	tst	r3, #2
   10150:	1a000009 	bne	1017c <resume1_c_part+0xb0>
   10154:	e3a0004e 	mov	r0, #78	; 0x4e
   10158:	eb0000a2 	bl	103e8 <save_mem_status>
   1015c:	e5940000 	ldr	r0, [r4]
   10160:	e59f103c 	ldr	r1, [pc, #60]	; 101a4 <resume1_c_part+0xd8>
   10164:	eb0002e1 	bl	10cf0 <jump_to_resume>
   10168:	e3a00000 	mov	r0, #0
   1016c:	e8bd8010 	pop	{r4, pc}
   10170:	e59f0030 	ldr	r0, [pc, #48]	; 101a8 <resume1_c_part+0xdc>
   10174:	eb000429 	bl	11220 <serial_puts_nommu>
   10178:	eaffffdd 	b	100f4 <resume1_c_part+0x28>
   1017c:	e59f0028 	ldr	r0, [pc, #40]	; 101ac <resume1_c_part+0xe0>
   10180:	eb000499 	bl	113ec <serial_puts>
   10184:	eafffff2 	b	10154 <resume1_c_part+0x88>
   10188:	e59f0020 	ldr	r0, [pc, #32]	; 101b0 <resume1_c_part+0xe4>
   1018c:	eb000423 	bl	11220 <serial_puts_nommu>
   10190:	eaffffe1 	b	1011c <resume1_c_part+0x50>
   10194:	00012f80 	andeq	r2, r1, r0, lsl #31
   10198:	00012fd0 	ldrdeq	r2, [r1], -r0
   1019c:	00013008 	andeq	r3, r1, r8
   101a0:	00013010 	andeq	r3, r1, r0, lsl r0
   101a4:	00012f98 	muleq	r1, r8, pc	; <UNPREDICTABLE>
   101a8:	00012c80 	andeq	r2, r1, r0, lsl #25
   101ac:	00012cb4 			; <UNDEFINED> instruction: 0x00012cb4
   101b0:	00012c90 	muleq	r1, r0, ip

000101b4 <set_pll>:
   101b4:	e92d4070 	push	{r4, r5, r6, lr}
   101b8:	ee100fb0 	mrc	15, 0, r0, cr0, cr0, {5}
   101bc:	e2100003 	ands	r0, r0, #3
   101c0:	1a000035 	bne	1029c <set_pll+0xe8>
   101c4:	e59f2108 	ldr	r2, [pc, #264]	; 102d4 <set_pll+0x120>
   101c8:	e59f1108 	ldr	r1, [pc, #264]	; 102d8 <set_pll+0x124>
   101cc:	e5923000 	ldr	r3, [r2]
   101d0:	e4830004 	str	r0, [r3], #4
   101d4:	e1530001 	cmp	r3, r1
   101d8:	e3a06000 	mov	r6, #0
   101dc:	9afffffb 	bls	101d0 <set_pll+0x1c>
   101e0:	e5823000 	str	r3, [r2]
   101e4:	e1a00006 	mov	r0, r6
   101e8:	eb000884 	bl	12400 <mem_clk_init>
   101ec:	e59f50e8 	ldr	r5, [pc, #232]	; 102dc <set_pll+0x128>
   101f0:	e1a04000 	mov	r4, r0
   101f4:	eb00004d 	bl	10330 <mem_status_init_nommu>
   101f8:	e3a00042 	mov	r0, #66	; 0x42
   101fc:	eb0000c9 	bl	10528 <save_mem_status_nommu>
   10200:	e3a00043 	mov	r0, #67	; 0x43
   10204:	e5846050 	str	r6, [r4, #80]	; 0x50
   10208:	eb0000c6 	bl	10528 <save_mem_status_nommu>
   1020c:	e1a01006 	mov	r1, r6
   10210:	e3a020b4 	mov	r2, #180	; 0xb4
   10214:	e3421302 	movt	r1, #8962	; 0x2302
   10218:	e1a00005 	mov	r0, r5
   1021c:	ebffff96 	bl	1007c <mem_memcpy>
   10220:	e3a00044 	mov	r0, #68	; 0x44
   10224:	eb0000bf 	bl	10528 <save_mem_status_nommu>
   10228:	e5953010 	ldr	r3, [r5, #16]
   1022c:	e3a00045 	mov	r0, #69	; 0x45
   10230:	e3130080 	tst	r3, #128	; 0x80
   10234:	13a03406 	movne	r3, #100663296	; 0x6000000
   10238:	13022222 	movwne	r2, #8738	; 0x2222
   1023c:	15832900 	strne	r2, [r3, #2304]	; 0x900
   10240:	eb0000b8 	bl	10528 <save_mem_status_nommu>
   10244:	e59f0094 	ldr	r0, [pc, #148]	; 102e0 <set_pll+0x12c>
   10248:	eb000a28 	bl	12af0 <mem_clk_set_misc>
   1024c:	e3a03c11 	mov	r3, #4352	; 0x1100
   10250:	e3a00046 	mov	r0, #70	; 0x46
   10254:	e3483200 	movt	r3, #33280	; 0x8200
   10258:	e5843000 	str	r3, [r4]
   1025c:	eb0000b1 	bl	10528 <save_mem_status_nommu>
   10260:	e3a00001 	mov	r0, #1
   10264:	e3a01000 	mov	r1, #0
   10268:	eb0000ee 	bl	10628 <init_perfcounters>
   1026c:	eb00010e 	bl	106ac <change_runtime_env>
   10270:	e3a0000a 	mov	r0, #10
   10274:	eb000136 	bl	10754 <delay_ms>
   10278:	e5953010 	ldr	r3, [r5, #16]
   1027c:	e3130002 	tst	r3, #2
   10280:	1a000011 	bne	102cc <set_pll+0x118>
   10284:	e3a03001 	mov	r3, #1
   10288:	e5843050 	str	r3, [r4, #80]	; 0x50
   1028c:	eb000106 	bl	106ac <change_runtime_env>
   10290:	e3a00064 	mov	r0, #100	; 0x64
   10294:	e8bd4070 	pop	{r4, r5, r6, lr}
   10298:	ea00010d 	b	106d4 <delay_us>
   1029c:	e3a03000 	mov	r3, #0
   102a0:	ee083f33 	mcr	15, 0, r3, cr8, cr3, {1}
   102a4:	f57ff04f 	dsb	sy
   102a8:	e300357d 	movw	r3, #1405	; 0x57d
   102ac:	e3a020ff 	mov	r2, #255	; 0xff
   102b0:	e3403200 	movt	r3, #512	; 0x200
   102b4:	e0803003 	add	r3, r0, r3
   102b8:	e1a03103 	lsl	r3, r3, #2
   102bc:	e5832000 	str	r2, [r3]
   102c0:	f57ff04f 	dsb	sy
   102c4:	e320f004 	sev
   102c8:	eaffffed 	b	10284 <set_pll+0xd0>
   102cc:	eb0003af 	bl	11190 <serial_init_nommu>
   102d0:	eaffffeb 	b	10284 <set_pll+0xd0>
   102d4:	00012d78 	andeq	r2, r1, r8, ror sp
   102d8:	0001314c 	andeq	r3, r1, ip, asr #2
   102dc:	00012f80 	andeq	r2, r1, r0, lsl #31
   102e0:	00012fd4 	ldrdeq	r2, [r1], -r4

000102e4 <busy_waiting>:
   102e4:	e24dd008 	sub	sp, sp, #8
   102e8:	e3a03001 	mov	r3, #1
   102ec:	e58d3004 	str	r3, [sp, #4]
   102f0:	e59d3004 	ldr	r3, [sp, #4]
   102f4:	e3530001 	cmp	r3, #1
   102f8:	0afffffc 	beq	102f0 <busy_waiting+0xc>
   102fc:	e28dd008 	add	sp, sp, #8
   10300:	e12fff1e 	bx	lr

00010304 <save_mem_flag>:
   10304:	e12fff1e 	bx	lr

00010308 <clear_mem_flag>:
   10308:	e12fff1e 	bx	lr

0001030c <mem_status_init>:
   1030c:	e30115f0 	movw	r1, #5616	; 0x15f0
   10310:	e3023d7c 	movw	r3, #11644	; 0x2d7c
   10314:	e1a02001 	mov	r2, r1
   10318:	e3403001 	movt	r3, #1
   1031c:	e34f1800 	movt	r1, #63488	; 0xf800
   10320:	e3402800 	movt	r2, #2048	; 0x800
   10324:	e3a00001 	mov	r0, #1
   10328:	e8830006 	stm	r3, {r1, r2}
   1032c:	ea0007d9 	b	12298 <hwspinlock_init>

00010330 <mem_status_init_nommu>:
   10330:	e30115f0 	movw	r1, #5616	; 0x15f0
   10334:	e3023d7c 	movw	r3, #11644	; 0x2d7c
   10338:	e1a02001 	mov	r2, r1
   1033c:	e3403001 	movt	r3, #1
   10340:	e34f1800 	movt	r1, #63488	; 0xf800
   10344:	e3402800 	movt	r2, #2048	; 0x800
   10348:	e3a00000 	mov	r0, #0
   1034c:	e8830006 	stm	r3, {r1, r2}
   10350:	ea0007d0 	b	12298 <hwspinlock_init>

00010354 <mem_status_clear>:
   10354:	e92d4010 	push	{r4, lr}
   10358:	e3041e20 	movw	r1, #20000	; 0x4e20
   1035c:	e59f407c 	ldr	r4, [pc, #124]	; 103e0 <mem_status_clear+0x8c>
   10360:	e3a00002 	mov	r0, #2
   10364:	e5943000 	ldr	r3, [r4]
   10368:	e5933000 	ldr	r3, [r3]
   1036c:	e5843008 	str	r3, [r4, #8]
   10370:	eb0007d3 	bl	122c4 <hwspin_lock_timeout>
   10374:	e5942000 	ldr	r2, [r4]
   10378:	e3a01001 	mov	r1, #1
   1037c:	e3a0c000 	mov	ip, #0
   10380:	e5943008 	ldr	r3, [r4, #8]
   10384:	e2810001 	add	r0, r1, #1
   10388:	e7d13811 	bfi	r3, r1, #16, #2
   1038c:	e2101003 	ands	r1, r0, #3
   10390:	e5843008 	str	r3, [r4, #8]
   10394:	e5c4c009 	strb	ip, [r4, #9]
   10398:	e5940008 	ldr	r0, [r4, #8]
   1039c:	e1a03000 	mov	r3, r0
   103a0:	e5820000 	str	r0, [r2]
   103a4:	e7df3f9f 	bfc	r3, #31, #1
   103a8:	e5843008 	str	r3, [r4, #8]
   103ac:	e5823000 	str	r3, [r2]
   103b0:	e5943008 	ldr	r3, [r4, #8]
   103b4:	e3833102 	orr	r3, r3, #-2147483648	; 0x80000000
   103b8:	e5843008 	str	r3, [r4, #8]
   103bc:	e5823000 	str	r3, [r2]
   103c0:	e5943008 	ldr	r3, [r4, #8]
   103c4:	e7df3f9f 	bfc	r3, #31, #1
   103c8:	e5843008 	str	r3, [r4, #8]
   103cc:	e5823000 	str	r3, [r2]
   103d0:	1affffea 	bne	10380 <mem_status_clear+0x2c>
   103d4:	e3a00002 	mov	r0, #2
   103d8:	e8bd4010 	pop	{r4, lr}
   103dc:	ea0007d7 	b	12340 <hwspin_unlock>
   103e0:	00012d7c 	andeq	r2, r1, ip, ror sp

000103e4 <mem_status_exit>:
   103e4:	e12fff1e 	bx	lr

000103e8 <save_mem_status>:
   103e8:	e52de004 	push	{lr}		; (str lr, [sp, #-4]!)
   103ec:	e24dd00c 	sub	sp, sp, #12
   103f0:	e58d0004 	str	r0, [sp, #4]
   103f4:	e3041e20 	movw	r1, #20000	; 0x4e20
   103f8:	e3a00002 	mov	r0, #2
   103fc:	eb0007b0 	bl	122c4 <hwspin_lock_timeout>
   10400:	e3023d7c 	movw	r3, #11644	; 0x2d7c
   10404:	e59dc004 	ldr	ip, [sp, #4]
   10408:	e3403001 	movt	r3, #1
   1040c:	e3a0e001 	mov	lr, #1
   10410:	e5931008 	ldr	r1, [r3, #8]
   10414:	e3a00002 	mov	r0, #2
   10418:	e5932000 	ldr	r2, [r3]
   1041c:	e7d1181e 	bfi	r1, lr, #16, #2
   10420:	e5831008 	str	r1, [r3, #8]
   10424:	e5c3c009 	strb	ip, [r3, #9]
   10428:	e593c008 	ldr	ip, [r3, #8]
   1042c:	e1a0100c 	mov	r1, ip
   10430:	e582c000 	str	ip, [r2]
   10434:	e7df1f9f 	bfc	r1, #31, #1
   10438:	e5831008 	str	r1, [r3, #8]
   1043c:	e5821000 	str	r1, [r2]
   10440:	e5931008 	ldr	r1, [r3, #8]
   10444:	e3811102 	orr	r1, r1, #-2147483648	; 0x80000000
   10448:	e5831008 	str	r1, [r3, #8]
   1044c:	e5821000 	str	r1, [r2]
   10450:	e5931008 	ldr	r1, [r3, #8]
   10454:	e7df1f9f 	bfc	r1, #31, #1
   10458:	e5831008 	str	r1, [r3, #8]
   1045c:	e5821000 	str	r1, [r2]
   10460:	eb0007b6 	bl	12340 <hwspin_unlock>
   10464:	f57ff04f 	dsb	sy
   10468:	f57ff06f 	isb	sy
   1046c:	e28dd00c 	add	sp, sp, #12
   10470:	e8bd8000 	pop	{pc}

00010474 <get_mem_status>:
   10474:	e92d4010 	push	{r4, lr}
   10478:	e3024d7c 	movw	r4, #11644	; 0x2d7c
   1047c:	e3404001 	movt	r4, #1
   10480:	e3a02001 	mov	r2, #1
   10484:	e3041e20 	movw	r1, #20000	; 0x4e20
   10488:	e3a00002 	mov	r0, #2
   1048c:	e5943008 	ldr	r3, [r4, #8]
   10490:	e7d13812 	bfi	r3, r2, #16, #2
   10494:	e5843008 	str	r3, [r4, #8]
   10498:	eb000789 	bl	122c4 <hwspin_lock_timeout>
   1049c:	e5943000 	ldr	r3, [r4]
   104a0:	e3a00002 	mov	r0, #2
   104a4:	e5942008 	ldr	r2, [r4, #8]
   104a8:	e5832000 	str	r2, [r3]
   104ac:	e5933000 	ldr	r3, [r3]
   104b0:	e5843008 	str	r3, [r4, #8]
   104b4:	eb0007a1 	bl	12340 <hwspin_unlock>
   104b8:	e5d40008 	ldrb	r0, [r4, #8]
   104bc:	e8bd8010 	pop	{r4, pc}

000104c0 <show_mem_status>:
   104c0:	e92d4038 	push	{r3, r4, r5, lr}
   104c4:	e3a05001 	mov	r5, #1
   104c8:	e59f4050 	ldr	r4, [pc, #80]	; 10520 <show_mem_status+0x60>
   104cc:	e5943008 	ldr	r3, [r4, #8]
   104d0:	e3041e20 	movw	r1, #20000	; 0x4e20
   104d4:	e3a00002 	mov	r0, #2
   104d8:	e7d13815 	bfi	r3, r5, #16, #2
   104dc:	e5843008 	str	r3, [r4, #8]
   104e0:	eb000777 	bl	122c4 <hwspin_lock_timeout>
   104e4:	e5942008 	ldr	r2, [r4, #8]
   104e8:	e3a00002 	mov	r0, #2
   104ec:	e5943000 	ldr	r3, [r4]
   104f0:	e5832000 	str	r2, [r3]
   104f4:	e5933000 	ldr	r3, [r3]
   104f8:	e5843008 	str	r3, [r4, #8]
   104fc:	eb00078f 	bl	12340 <hwspin_unlock>
   10500:	e1a01005 	mov	r1, r5
   10504:	e59f0018 	ldr	r0, [pc, #24]	; 10524 <show_mem_status+0x64>
   10508:	e5d42008 	ldrb	r2, [r4, #8]
   1050c:	e2855001 	add	r5, r5, #1
   10510:	eb00048b 	bl	11744 <printk>
   10514:	e3550004 	cmp	r5, #4
   10518:	1affffeb 	bne	104cc <show_mem_status+0xc>
   1051c:	e8bd8038 	pop	{r3, r4, r5, pc}
   10520:	00012d7c 	andeq	r2, r1, ip, ror sp
   10524:	00012ce4 	andeq	r2, r1, r4, ror #25

00010528 <save_mem_status_nommu>:
   10528:	e92d4010 	push	{r4, lr}
   1052c:	e24dd008 	sub	sp, sp, #8
   10530:	e58d0004 	str	r0, [sp, #4]
   10534:	e3041e20 	movw	r1, #20000	; 0x4e20
   10538:	e3a00002 	mov	r0, #2
   1053c:	e3a04001 	mov	r4, #1
   10540:	eb00078a 	bl	12370 <hwspin_lock_timeout_nommu>
   10544:	e3023d7c 	movw	r3, #11644	; 0x2d7c
   10548:	e59dc004 	ldr	ip, [sp, #4]
   1054c:	e3403001 	movt	r3, #1
   10550:	e3a00002 	mov	r0, #2
   10554:	e593100c 	ldr	r1, [r3, #12]
   10558:	e5932004 	ldr	r2, [r3, #4]
   1055c:	e7d11814 	bfi	r1, r4, #16, #2
   10560:	e583100c 	str	r1, [r3, #12]
   10564:	e5c3c00d 	strb	ip, [r3, #13]
   10568:	e593c00c 	ldr	ip, [r3, #12]
   1056c:	e1a0100c 	mov	r1, ip
   10570:	e582c000 	str	ip, [r2]
   10574:	e7df1f9f 	bfc	r1, #31, #1
   10578:	e583100c 	str	r1, [r3, #12]
   1057c:	e5821000 	str	r1, [r2]
   10580:	e593100c 	ldr	r1, [r3, #12]
   10584:	e3811102 	orr	r1, r1, #-2147483648	; 0x80000000
   10588:	e583100c 	str	r1, [r3, #12]
   1058c:	e5821000 	str	r1, [r2]
   10590:	e593100c 	ldr	r1, [r3, #12]
   10594:	e7df1f9f 	bfc	r1, #31, #1
   10598:	e583100c 	str	r1, [r3, #12]
   1059c:	e5821000 	str	r1, [r2]
   105a0:	e28dd008 	add	sp, sp, #8
   105a4:	e8bd4010 	pop	{r4, lr}
   105a8:	ea00078a 	b	123d8 <hwspin_unlock_nommu>

000105ac <io_init>:
   105ac:	e3a03000 	mov	r3, #0
   105b0:	e3012111 	movw	r2, #4369	; 0x1111
   105b4:	e34f31c2 	movt	r3, #61890	; 0xf1c2
   105b8:	e3402011 	movt	r2, #17
   105bc:	e5832890 	str	r2, [r3, #2192]	; 0x890
   105c0:	e12fff1e 	bx	lr

000105c4 <io_init_high>:
   105c4:	e3a03000 	mov	r3, #0
   105c8:	e34f31c2 	movt	r3, #61890	; 0xf1c2
   105cc:	e59328a0 	ldr	r2, [r3, #2208]	; 0x8a0
   105d0:	e382203f 	orr	r2, r2, #63	; 0x3f
   105d4:	e58328a0 	str	r2, [r3, #2208]	; 0x8a0
   105d8:	e12fff1e 	bx	lr

000105dc <io_init_low>:
   105dc:	e3a03000 	mov	r3, #0
   105e0:	e34f31c2 	movt	r3, #61890	; 0xf1c2
   105e4:	e59328a0 	ldr	r2, [r3, #2208]	; 0x8a0
   105e8:	e3c2203f 	bic	r2, r2, #63	; 0x3f
   105ec:	e58328a0 	str	r2, [r3, #2208]	; 0x8a0
   105f0:	e12fff1e 	bx	lr

000105f4 <io_high>:
   105f4:	e92d4070 	push	{r4, r5, r6, lr}
   105f8:	e3a04000 	mov	r4, #0
   105fc:	e34f41c2 	movt	r4, #61890	; 0xf1c2
   10600:	e3a05001 	mov	r5, #1
   10604:	e1a05015 	lsl	r5, r5, r0
   10608:	e3020710 	movw	r0, #10000	; 0x2710
   1060c:	e59468a0 	ldr	r6, [r4, #2208]	; 0x8a0
   10610:	e1c66005 	bic	r6, r6, r5
   10614:	e58468a0 	str	r6, [r4, #2208]	; 0x8a0
   10618:	e1865005 	orr	r5, r6, r5
   1061c:	eb00002c 	bl	106d4 <delay_us>
   10620:	e58458a0 	str	r5, [r4, #2208]	; 0x8a0
   10624:	e8bd8070 	pop	{r4, r5, r6, pc}

00010628 <init_perfcounters>:
   10628:	e3500000 	cmp	r0, #0
   1062c:	13a00007 	movne	r0, #7
   10630:	03a00001 	moveq	r0, #1
   10634:	e3510000 	cmp	r1, #0
   10638:	13800008 	orrne	r0, r0, #8
   1063c:	e3800010 	orr	r0, r0, #16
   10640:	ee090f1c 	mcr	15, 0, r0, cr9, cr12, {0}
   10644:	e3a0313e 	mov	r3, #-2147483633	; 0x8000000f
   10648:	ee093f3c 	mcr	15, 0, r3, cr9, cr12, {1}
   1064c:	ee093f7c 	mcr	15, 0, r3, cr9, cr12, {3}
   10650:	e12fff1e 	bx	lr

00010654 <backup_perfcounter>:
   10654:	ee192f1c 	mrc	15, 0, r2, cr9, cr12, {0}
   10658:	e3023d90 	movw	r3, #11664	; 0x2d90
   1065c:	e3403001 	movt	r3, #1
   10660:	e5832000 	str	r2, [r3]
   10664:	ee192f3c 	mrc	15, 0, r2, cr9, cr12, {1}
   10668:	e5832004 	str	r2, [r3, #4]
   1066c:	e12fff1e 	bx	lr

00010670 <restore_perfcounter>:
   10670:	e3023d90 	movw	r3, #11664	; 0x2d90
   10674:	e3403001 	movt	r3, #1
   10678:	e5933000 	ldr	r3, [r3]
   1067c:	ee093f1c 	mcr	15, 0, r3, cr9, cr12, {0}
   10680:	e3023d90 	movw	r3, #11664	; 0x2d90
   10684:	e3403001 	movt	r3, #1
   10688:	e5933004 	ldr	r3, [r3, #4]
   1068c:	ee093f3c 	mcr	15, 0, r3, cr9, cr12, {1}
   10690:	e12fff1e 	bx	lr

00010694 <get_cyclecount>:
   10694:	ee190f1d 	mrc	15, 0, r0, cr9, cr13, {0}
   10698:	e12fff1e 	bx	lr

0001069c <reset_counter>:
   1069c:	ee193f1c 	mrc	15, 0, r3, cr9, cr12, {0}
   106a0:	e3833004 	orr	r3, r3, #4
   106a4:	ee093f1c 	mcr	15, 0, r3, cr9, cr12, {0}
   106a8:	e12fff1e 	bx	lr

000106ac <change_runtime_env>:
   106ac:	e92d4010 	push	{r4, lr}
   106b0:	ee193f1d 	mrc	15, 0, r3, cr9, cr13, {0}
   106b4:	ee192f1d 	mrc	15, 0, r2, cr9, cr13, {0}
   106b8:	e3024d90 	movw	r4, #11664	; 0x2d90
   106bc:	e0633002 	rsb	r3, r3, r2
   106c0:	e3404001 	movt	r4, #1
   106c4:	e5843008 	str	r3, [r4, #8]
   106c8:	eb00094f 	bl	12c0c <mem_clk_get_cpu_freq>
   106cc:	e584000c 	str	r0, [r4, #12]
   106d0:	e8bd8010 	pop	{r4, pc}

000106d4 <delay_us>:
   106d4:	e92d4038 	push	{r3, r4, r5, lr}
   106d8:	e1a05000 	mov	r5, r0
   106dc:	e59f406c 	ldr	r4, [pc, #108]	; 10750 <delay_us+0x7c>
   106e0:	e594000c 	ldr	r0, [r4, #12]
   106e4:	e3500ffa 	cmp	r0, #1000	; 0x3e8
   106e8:	8a000002 	bhi	106f8 <delay_us+0x24>
   106ec:	f57ff05f 	dmb	sy
   106f0:	f57ff06f 	isb	sy
   106f4:	e8bd8038 	pop	{r3, r4, r5, pc}
   106f8:	e3a01ffa 	mov	r1, #1000	; 0x3e8
   106fc:	eb0005f2 	bl	11ecc <raw_lib_udiv>
   10700:	ee193f1d 	mrc	15, 0, r3, cr9, cr13, {0}
   10704:	e5942008 	ldr	r2, [r4, #8]
   10708:	e0255590 	mla	r5, r0, r5, r5
   1070c:	e0622003 	rsb	r2, r2, r3
   10710:	e0825005 	add	r5, r2, r5
   10714:	ee192f3c 	mrc	15, 0, r2, cr9, cr12, {1}
   10718:	e202213e 	and	r2, r2, #-2147483633	; 0x8000000f
   1071c:	e352013e 	cmp	r2, #-2147483633	; 0x8000000f
   10720:	0a000006 	beq	10740 <delay_us+0x6c>
   10724:	e3a02017 	mov	r2, #23
   10728:	ee092f1c 	mcr	15, 0, r2, cr9, cr12, {0}
   1072c:	e3a0213e 	mov	r2, #-2147483633	; 0x8000000f
   10730:	ee092f3c 	mcr	15, 0, r2, cr9, cr12, {1}
   10734:	ee092f7c 	mcr	15, 0, r2, cr9, cr12, {3}
   10738:	ea000000 	b	10740 <delay_us+0x6c>
   1073c:	ee193f1d 	mrc	15, 0, r3, cr9, cr13, {0}
   10740:	e0653003 	rsb	r3, r5, r3
   10744:	e3530000 	cmp	r3, #0
   10748:	bafffffb 	blt	1073c <delay_us+0x68>
   1074c:	eaffffe6 	b	106ec <delay_us+0x18>
   10750:	00012d90 	muleq	r1, r0, sp

00010754 <delay_ms>:
   10754:	e3a03ffa 	mov	r3, #1000	; 0x3e8
   10758:	e0000093 	mul	r0, r3, r0
   1075c:	eaffffdc 	b	106d4 <delay_us>

00010760 <init_event_counter>:
   10760:	e3500000 	cmp	r0, #0
   10764:	13a00007 	movne	r0, #7
   10768:	03a00001 	moveq	r0, #1
   1076c:	e3510000 	cmp	r1, #0
   10770:	13800008 	orrne	r0, r0, #8
   10774:	e3800010 	orr	r0, r0, #16
   10778:	ee090f1c 	mcr	15, 0, r0, cr9, cr12, {0}
   1077c:	e3a0313e 	mov	r3, #-2147483633	; 0x8000000f
   10780:	ee093f3c 	mcr	15, 0, r3, cr9, cr12, {1}
   10784:	ee093f7c 	mcr	15, 0, r3, cr9, cr12, {3}
   10788:	e12fff1e 	bx	lr

0001078c <set_event_counter>:
   1078c:	e2403002 	sub	r3, r0, #2
   10790:	e3530003 	cmp	r3, #3
   10794:	959f2018 	ldrls	r2, [pc, #24]	; 107b4 <set_event_counter+0x28>
   10798:	83a03000 	movhi	r3, #0
   1079c:	97923103 	ldrls	r3, [r2, r3, lsl #2]
   107a0:	ee093fbc 	mcr	15, 0, r3, cr9, cr12, {5}
   107a4:	ee090f3d 	mcr	15, 0, r0, cr9, cr13, {1}
   107a8:	f57ff04f 	dsb	sy
   107ac:	f57ff06f 	isb	sy
   107b0:	e12fff1e 	bx	lr
   107b4:	00012c68 	andeq	r2, r1, r8, ror #24

000107b8 <get_event_counter>:
   107b8:	e2400002 	sub	r0, r0, #2
   107bc:	e3500003 	cmp	r0, #3
   107c0:	959f3018 	ldrls	r3, [pc, #24]	; 107e0 <get_event_counter+0x28>
   107c4:	83a03000 	movhi	r3, #0
   107c8:	97933100 	ldrls	r3, [r3, r0, lsl #2]
   107cc:	ee093fbc 	mcr	15, 0, r3, cr9, cr12, {5}
   107d0:	ee190f5d 	mrc	15, 0, r0, cr9, cr13, {2}
   107d4:	f57ff04f 	dsb	sy
   107d8:	f57ff06f 	isb	sy
   107dc:	e12fff1e 	bx	lr
   107e0:	00012c68 	andeq	r2, r1, r8, ror #24
	...

00010800 <save_mmu_state>:
   10800:	ee503f10 	mrc	15, 2, r3, cr0, cr0, {0}
   10804:	e5803000 	str	r3, [r0]
   10808:	ee113f50 	mrc	15, 0, r3, cr1, cr0, {2}
   1080c:	e5803008 	str	r3, [r0, #8]
   10810:	ee133f10 	mrc	15, 0, r3, cr3, cr0, {0}
   10814:	e5803018 	str	r3, [r0, #24]
   10818:	ee123f10 	mrc	15, 0, r3, cr2, cr0, {0}
   1081c:	e580300c 	str	r3, [r0, #12]
   10820:	ee123f30 	mrc	15, 0, r3, cr2, cr0, {1}
   10824:	e5803010 	str	r3, [r0, #16]
   10828:	ee123f50 	mrc	15, 0, r3, cr2, cr0, {2}
   1082c:	e5803014 	str	r3, [r0, #20]
   10830:	ee113f10 	mrc	15, 0, r3, cr1, cr0, {0}
   10834:	e5803004 	str	r3, [r0, #4]
   10838:	e12fff1e 	bx	lr

0001083c <restore_mmu_state>:
   1083c:	e5903000 	ldr	r3, [r0]
   10840:	ee403f10 	mcr	15, 2, r3, cr0, cr0, {0}
   10844:	e5903008 	ldr	r3, [r0, #8]
   10848:	ee013f50 	mcr	15, 0, r3, cr1, cr0, {2}
   1084c:	e5903018 	ldr	r3, [r0, #24]
   10850:	ee033f10 	mcr	15, 0, r3, cr3, cr0, {0}
   10854:	e5903010 	ldr	r3, [r0, #16]
   10858:	ee023f10 	mcr	15, 0, r3, cr2, cr0, {0}
   1085c:	ee023f30 	mcr	15, 0, r3, cr2, cr0, {1}
   10860:	e5903014 	ldr	r3, [r0, #20]
   10864:	ee023f50 	mcr	15, 0, r3, cr2, cr0, {2}
   10868:	ea000004 	b	10880 <__turn_mmu_on>
   1086c:	e320f000 	nop	{0}
   10870:	e320f000 	nop	{0}
   10874:	e320f000 	nop	{0}
   10878:	e320f000 	nop	{0}
   1087c:	e320f000 	nop	{0}

00010880 <__turn_mmu_on>:
   10880:	e1a00000 	nop			; (mov r0, r0)
   10884:	e5903004 	ldr	r3, [r0, #4]
   10888:	ee013f10 	mcr	15, 0, r3, cr1, cr0, {0}
   1088c:	ee103f10 	mrc	15, 0, r3, cr0, cr0, {0}
   10890:	e1a03003 	mov	r3, r3
   10894:	e1a03003 	mov	r3, r3
   10898:	f57ff06f 	isb	sy
   1089c:	e12fff1e 	bx	lr

000108a0 <save_sp>:
   108a0:	e1a0000d 	mov	r0, sp
   108a4:	e59fd49c 	ldr	sp, [pc, #1180]	; 10d48 <jump_to_resume0_nommu+0x28>
   108a8:	e1a0f00e 	mov	pc, lr

000108ac <save_sp_nommu>:
   108ac:	e1a0000d 	mov	r0, sp
   108b0:	e59fd494 	ldr	sp, [pc, #1172]	; 10d4c <jump_to_resume0_nommu+0x2c>
   108b4:	e1a0f00e 	mov	pc, lr

000108b8 <restore_sp>:
   108b8:	e1a0d000 	mov	sp, r0
   108bc:	e1a0f00e 	mov	pc, lr

000108c0 <get_sp>:
   108c0:	e1a0000d 	mov	r0, sp
   108c4:	e1a0f00e 	mov	pc, lr
   108c8:	e320f000 	nop	{0}
   108cc:	e320f000 	nop	{0}

000108d0 <invalidate_dcache>:
   108d0:	f57ff05f 	dmb	sy
   108d4:	ee300f30 	mrc	15, 1, r0, cr0, cr0, {1}
   108d8:	e2103407 	ands	r3, r0, #117440512	; 0x7000000
   108dc:	e1a03ba3 	lsr	r3, r3, #23
   108e0:	0a00001a 	beq	10950 <inv_finished>
   108e4:	e3a0a000 	mov	sl, #0

000108e8 <inv_loop1>:
   108e8:	e08a20aa 	add	r2, sl, sl, lsr #1
   108ec:	e1a01230 	lsr	r1, r0, r2
   108f0:	e2011007 	and	r1, r1, #7
   108f4:	e3510002 	cmp	r1, #2
   108f8:	ba000011 	blt	10944 <inv_skip>
   108fc:	ee40af10 	mcr	15, 2, sl, cr0, cr0, {0}
   10900:	f57ff06f 	isb	sy
   10904:	ee301f10 	mrc	15, 1, r1, cr0, cr0, {0}
   10908:	e2012007 	and	r2, r1, #7
   1090c:	e2822004 	add	r2, r2, #4
   10910:	e59f4438 	ldr	r4, [pc, #1080]	; 10d50 <jump_to_resume0_nommu+0x30>
   10914:	e01441a1 	ands	r4, r4, r1, lsr #3
   10918:	e16f5f14 	clz	r5, r4
   1091c:	e59f7430 	ldr	r7, [pc, #1072]	; 10d54 <jump_to_resume0_nommu+0x34>
   10920:	e01776a1 	ands	r7, r7, r1, lsr #13

00010924 <inv_loop2>:
   10924:	e1a09004 	mov	r9, r4

00010928 <inv_loop3>:
   10928:	e18ab519 	orr	fp, sl, r9, lsl r5
   1092c:	e18bb217 	orr	fp, fp, r7, lsl r2
   10930:	ee07bf56 	mcr	15, 0, fp, cr7, cr6, {2}
   10934:	e2599001 	subs	r9, r9, #1
   10938:	aafffffa 	bge	10928 <inv_loop3>
   1093c:	e2577001 	subs	r7, r7, #1
   10940:	aafffff7 	bge	10924 <inv_loop2>

00010944 <inv_skip>:
   10944:	e28aa002 	add	sl, sl, #2
   10948:	e153000a 	cmp	r3, sl
   1094c:	caffffe5 	bgt	108e8 <inv_loop1>

00010950 <inv_finished>:
   10950:	e3a0a000 	mov	sl, #0
   10954:	ee40af10 	mcr	15, 2, sl, cr0, cr0, {0}
   10958:	f57ff04f 	dsb	sy
   1095c:	f57ff06f 	isb	sy
   10960:	e1a0f00e 	mov	pc, lr

00010964 <invalidate_icache>:
   10964:	e3a00000 	mov	r0, #0
   10968:	ee070f11 	mcr	15, 0, r0, cr7, cr1, {0}
   1096c:	ee070f15 	mcr	15, 0, r0, cr7, cr5, {0}
   10970:	f57ff04f 	dsb	sy
   10974:	f57ff06f 	isb	sy
   10978:	e1a0f00e 	mov	pc, lr

0001097c <flush_dcache>:
   1097c:	e92d1fff 	push	{r0, r1, r2, r3, r4, r5, r6, r7, r8, r9, sl, fp, ip}
   10980:	f57ff05f 	dmb	sy
   10984:	ee300f30 	mrc	15, 1, r0, cr0, cr0, {1}
   10988:	e2103407 	ands	r3, r0, #117440512	; 0x7000000
   1098c:	e1a03ba3 	lsr	r3, r3, #23
   10990:	0a00001a 	beq	10a00 <finished>
   10994:	e3a0a000 	mov	sl, #0

00010998 <loop1>:
   10998:	e08a20aa 	add	r2, sl, sl, lsr #1
   1099c:	e1a01230 	lsr	r1, r0, r2
   109a0:	e2011007 	and	r1, r1, #7
   109a4:	e3510002 	cmp	r1, #2
   109a8:	ba000011 	blt	109f4 <skip>
   109ac:	ee40af10 	mcr	15, 2, sl, cr0, cr0, {0}
   109b0:	f57ff06f 	isb	sy
   109b4:	ee301f10 	mrc	15, 1, r1, cr0, cr0, {0}
   109b8:	e2012007 	and	r2, r1, #7
   109bc:	e2822004 	add	r2, r2, #4
   109c0:	e59f4388 	ldr	r4, [pc, #904]	; 10d50 <jump_to_resume0_nommu+0x30>
   109c4:	e01441a1 	ands	r4, r4, r1, lsr #3
   109c8:	e16f5f14 	clz	r5, r4
   109cc:	e59f7380 	ldr	r7, [pc, #896]	; 10d54 <jump_to_resume0_nommu+0x34>
   109d0:	e01776a1 	ands	r7, r7, r1, lsr #13

000109d4 <loop2>:
   109d4:	e1a09004 	mov	r9, r4

000109d8 <loop3>:
   109d8:	e18ab519 	orr	fp, sl, r9, lsl r5
   109dc:	e18bb217 	orr	fp, fp, r7, lsl r2
   109e0:	ee07bf5e 	mcr	15, 0, fp, cr7, cr14, {2}
   109e4:	e2599001 	subs	r9, r9, #1
   109e8:	aafffffa 	bge	109d8 <loop3>
   109ec:	e2577001 	subs	r7, r7, #1
   109f0:	aafffff7 	bge	109d4 <loop2>

000109f4 <skip>:
   109f4:	e28aa002 	add	sl, sl, #2
   109f8:	e153000a 	cmp	r3, sl
   109fc:	caffffe5 	bgt	10998 <loop1>

00010a00 <finished>:
   10a00:	e3a0a000 	mov	sl, #0
   10a04:	ee40af10 	mcr	15, 2, sl, cr0, cr0, {0}
   10a08:	f57ff04f 	dsb	sy
   10a0c:	f57ff06f 	isb	sy
   10a10:	e8bd1fff 	pop	{r0, r1, r2, r3, r4, r5, r6, r7, r8, r9, sl, fp, ip}
   10a14:	e1a0f00e 	mov	pc, lr

00010a18 <flush_icache>:
   10a18:	e92d000f 	push	{r0, r1, r2, r3}
   10a1c:	e3a00000 	mov	r0, #0
   10a20:	ee070f15 	mcr	15, 0, r0, cr7, cr5, {0}
   10a24:	ee070f11 	mcr	15, 0, r0, cr7, cr1, {0}
   10a28:	ee070fd1 	mcr	15, 0, r0, cr7, cr1, {6}
   10a2c:	f57ff06f 	isb	sy
   10a30:	f57ff04f 	dsb	sy
   10a34:	e8bd000f 	pop	{r0, r1, r2, r3}
   10a38:	e1a0f00e 	mov	pc, lr

00010a3c <disable_cache>:
   10a3c:	e92d000f 	push	{r0, r1, r2, r3}
   10a40:	ee110f10 	mrc	15, 0, r0, cr1, cr0, {0}
   10a44:	e3c00a01 	bic	r0, r0, #4096	; 0x1000
   10a48:	e3c00004 	bic	r0, r0, #4
   10a4c:	ee010f10 	mcr	15, 0, r0, cr1, cr0, {0}
   10a50:	f57ff06f 	isb	sy
   10a54:	e8bd000f 	pop	{r0, r1, r2, r3}
   10a58:	e1a0f00e 	mov	pc, lr

00010a5c <disable_dcache>:
   10a5c:	e92d000f 	push	{r0, r1, r2, r3}
   10a60:	ee110f10 	mrc	15, 0, r0, cr1, cr0, {0}
   10a64:	e3c00004 	bic	r0, r0, #4
   10a68:	ee010f10 	mcr	15, 0, r0, cr1, cr0, {0}
   10a6c:	f57ff06f 	isb	sy
   10a70:	e8bd000f 	pop	{r0, r1, r2, r3}
   10a74:	e1a0f00e 	mov	pc, lr

00010a78 <disable_icache>:
   10a78:	e92d000f 	push	{r0, r1, r2, r3}
   10a7c:	ee110f10 	mrc	15, 0, r0, cr1, cr0, {0}
   10a80:	e3c00a01 	bic	r0, r0, #4096	; 0x1000
   10a84:	ee010f10 	mcr	15, 0, r0, cr1, cr0, {0}
   10a88:	f57ff06f 	isb	sy
   10a8c:	e8bd000f 	pop	{r0, r1, r2, r3}
   10a90:	e1a0f00e 	mov	pc, lr

00010a94 <disable_l2cache>:
   10a94:	e92d000f 	push	{r0, r1, r2, r3}
   10a98:	ee110f30 	mrc	15, 0, r0, cr1, cr0, {1}
   10a9c:	e3c00002 	bic	r0, r0, #2
   10aa0:	ee010f30 	mcr	15, 0, r0, cr1, cr0, {1}
   10aa4:	f57ff06f 	isb	sy
   10aa8:	e8bd000f 	pop	{r0, r1, r2, r3}
   10aac:	e1a0f00e 	mov	pc, lr

00010ab0 <enable_cache>:
   10ab0:	e92d000f 	push	{r0, r1, r2, r3}
   10ab4:	ee110f10 	mrc	15, 0, r0, cr1, cr0, {0}
   10ab8:	e3800a01 	orr	r0, r0, #4096	; 0x1000
   10abc:	e3800004 	orr	r0, r0, #4
   10ac0:	ee010f10 	mcr	15, 0, r0, cr1, cr0, {0}
   10ac4:	f57ff06f 	isb	sy
   10ac8:	e8bd000f 	pop	{r0, r1, r2, r3}
   10acc:	e1a0f00e 	mov	pc, lr

00010ad0 <enable_icache>:
   10ad0:	e92d000f 	push	{r0, r1, r2, r3}
   10ad4:	ee110f10 	mrc	15, 0, r0, cr1, cr0, {0}
   10ad8:	e3800a01 	orr	r0, r0, #4096	; 0x1000
   10adc:	ee010f10 	mcr	15, 0, r0, cr1, cr0, {0}
   10ae0:	f57ff06f 	isb	sy
   10ae4:	e8bd000f 	pop	{r0, r1, r2, r3}
   10ae8:	e1a0f00e 	mov	pc, lr

00010aec <invalidate_branch_predictor>:
   10aec:	e92d000f 	push	{r0, r1, r2, r3}
   10af0:	e3a00000 	mov	r0, #0
   10af4:	ee070fd5 	mcr	15, 0, r0, cr7, cr5, {6}
   10af8:	f57ff06f 	isb	sy
   10afc:	e8bd000f 	pop	{r0, r1, r2, r3}
   10b00:	e1a0f00e 	mov	pc, lr

00010b04 <disable_program_flow_prediction>:
   10b04:	e92d000f 	push	{r0, r1, r2, r3}
   10b08:	ee110f10 	mrc	15, 0, r0, cr1, cr0, {0}
   10b0c:	e3c00b02 	bic	r0, r0, #2048	; 0x800
   10b10:	ee010f10 	mcr	15, 0, r0, cr1, cr0, {0}
   10b14:	f57ff06f 	isb	sy
   10b18:	e8bd000f 	pop	{r0, r1, r2, r3}
   10b1c:	e1a0f00e 	mov	pc, lr

00010b20 <enable_program_flow_prediction>:
   10b20:	e92d000f 	push	{r0, r1, r2, r3}
   10b24:	ee110f10 	mrc	15, 0, r0, cr1, cr0, {0}
   10b28:	e3800b02 	orr	r0, r0, #2048	; 0x800
   10b2c:	ee010f10 	mcr	15, 0, r0, cr1, cr0, {0}
   10b30:	f57ff06f 	isb	sy
   10b34:	e8bd000f 	pop	{r0, r1, r2, r3}
   10b38:	e1a0f00e 	mov	pc, lr

00010b3c <mem_flush_tlb>:
   10b3c:	e92d000f 	push	{r0, r1, r2, r3}
   10b40:	e3a00000 	mov	r0, #0
   10b44:	ee080f15 	mcr	15, 0, r0, cr8, cr5, {0}
   10b48:	ee080f16 	mcr	15, 0, r0, cr8, cr6, {0}
   10b4c:	ee080f13 	mcr	15, 0, r0, cr8, cr3, {0}
   10b50:	f57ff04f 	dsb	sy
   10b54:	f57ff06f 	isb	sy
   10b58:	e8bd000f 	pop	{r0, r1, r2, r3}
   10b5c:	e1a0f00e 	mov	pc, lr

00010b60 <mem_preload_tlb>:
   10b60:	e92d000f 	push	{r0, r1, r2, r3}
   10b64:	e59f01ec 	ldr	r0, [pc, #492]	; 10d58 <jump_to_resume0_nommu+0x38>
   10b68:	e5901000 	ldr	r1, [r0]
   10b6c:	e59f01e8 	ldr	r0, [pc, #488]	; 10d5c <jump_to_resume0_nommu+0x3c>
   10b70:	e5901000 	ldr	r1, [r0]
   10b74:	e59f01e4 	ldr	r0, [pc, #484]	; 10d60 <jump_to_resume0_nommu+0x40>
   10b78:	e5901000 	ldr	r1, [r0]
   10b7c:	e59f01e0 	ldr	r0, [pc, #480]	; 10d64 <jump_to_resume0_nommu+0x44>
   10b80:	e5901000 	ldr	r1, [r0]
   10b84:	e59f01dc 	ldr	r0, [pc, #476]	; 10d68 <jump_to_resume0_nommu+0x48>
   10b88:	e5901000 	ldr	r1, [r0]
   10b8c:	e59f01d8 	ldr	r0, [pc, #472]	; 10d6c <jump_to_resume0_nommu+0x4c>
   10b90:	e5901000 	ldr	r1, [r0]
   10b94:	e59f01d4 	ldr	r0, [pc, #468]	; 10d70 <jump_to_resume0_nommu+0x50>
   10b98:	e5901000 	ldr	r1, [r0]
   10b9c:	e59f01d0 	ldr	r0, [pc, #464]	; 10d74 <jump_to_resume0_nommu+0x54>
   10ba0:	e5901000 	ldr	r1, [r0]
   10ba4:	e59f01cc 	ldr	r0, [pc, #460]	; 10d78 <jump_to_resume0_nommu+0x58>
   10ba8:	e5901000 	ldr	r1, [r0]
   10bac:	e59f01c8 	ldr	r0, [pc, #456]	; 10d7c <jump_to_resume0_nommu+0x5c>
   10bb0:	e5901000 	ldr	r1, [r0]
   10bb4:	e59f01c4 	ldr	r0, [pc, #452]	; 10d80 <jump_to_resume0_nommu+0x60>
   10bb8:	e5901000 	ldr	r1, [r0]
   10bbc:	e59f01c0 	ldr	r0, [pc, #448]	; 10d84 <jump_to_resume0_nommu+0x64>
   10bc0:	e5901000 	ldr	r1, [r0]
   10bc4:	e59f01bc 	ldr	r0, [pc, #444]	; 10d88 <jump_to_resume0_nommu+0x68>
   10bc8:	e5901000 	ldr	r1, [r0]
   10bcc:	e59f01b8 	ldr	r0, [pc, #440]	; 10d8c <jump_to_resume0_nommu+0x6c>
   10bd0:	e5901000 	ldr	r1, [r0]
   10bd4:	e59f01b4 	ldr	r0, [pc, #436]	; 10d90 <jump_to_resume0_nommu+0x70>
   10bd8:	e5901000 	ldr	r1, [r0]
   10bdc:	e59f01b0 	ldr	r0, [pc, #432]	; 10d94 <jump_to_resume0_nommu+0x74>
   10be0:	e5901000 	ldr	r1, [r0]
   10be4:	e59f01ac 	ldr	r0, [pc, #428]	; 10d98 <jump_to_resume0_nommu+0x78>
   10be8:	e5901000 	ldr	r1, [r0]
   10bec:	e59f01a8 	ldr	r0, [pc, #424]	; 10d9c <jump_to_resume0_nommu+0x7c>
   10bf0:	e5901000 	ldr	r1, [r0]
   10bf4:	e59f01a4 	ldr	r0, [pc, #420]	; 10da0 <jump_to_resume0_nommu+0x80>
   10bf8:	e5901000 	ldr	r1, [r0]
   10bfc:	e59f01a0 	ldr	r0, [pc, #416]	; 10da4 <jump_to_resume0_nommu+0x84>
   10c00:	e5901000 	ldr	r1, [r0]
   10c04:	e59f019c 	ldr	r0, [pc, #412]	; 10da8 <jump_to_resume0_nommu+0x88>
   10c08:	e5901000 	ldr	r1, [r0]
   10c0c:	e59f0198 	ldr	r0, [pc, #408]	; 10dac <jump_to_resume0_nommu+0x8c>
   10c10:	e5901000 	ldr	r1, [r0]
   10c14:	e59f0194 	ldr	r0, [pc, #404]	; 10db0 <jump_to_resume0_nommu+0x90>
   10c18:	e5901000 	ldr	r1, [r0]
   10c1c:	e59f0190 	ldr	r0, [pc, #400]	; 10db4 <jump_to_resume0_nommu+0x94>
   10c20:	e5901000 	ldr	r1, [r0]
   10c24:	e59f018c 	ldr	r0, [pc, #396]	; 10db8 <jump_to_resume0_nommu+0x98>
   10c28:	e5901000 	ldr	r1, [r0]
   10c2c:	e59f0188 	ldr	r0, [pc, #392]	; 10dbc <jump_to_resume0_nommu+0x9c>
   10c30:	e5901000 	ldr	r1, [r0]
   10c34:	e59f0184 	ldr	r0, [pc, #388]	; 10dc0 <jump_to_resume0_nommu+0xa0>
   10c38:	e5901000 	ldr	r1, [r0]
   10c3c:	e59f0180 	ldr	r0, [pc, #384]	; 10dc4 <jump_to_resume0_nommu+0xa4>
   10c40:	e5901000 	ldr	r1, [r0]
   10c44:	e3a004f7 	mov	r0, #-150994944	; 0xf7000000
   10c48:	e5901000 	ldr	r1, [r0]
   10c4c:	e59f0104 	ldr	r0, [pc, #260]	; 10d58 <jump_to_resume0_nommu+0x38>
   10c50:	e5901000 	ldr	r1, [r0]
   10c54:	e3a004f6 	mov	r0, #-167772160	; 0xf6000000
   10c58:	e5901000 	ldr	r1, [r0]
   10c5c:	f57ff04f 	dsb	sy
   10c60:	f57ff06f 	isb	sy
   10c64:	e8bd000f 	pop	{r0, r1, r2, r3}
   10c68:	e1a0f00e 	mov	pc, lr

00010c6c <disable_mmu>:
   10c6c:	ee111f10 	mrc	15, 0, r1, cr1, cr0, {0}
   10c70:	e3c11a01 	bic	r1, r1, #4096	; 0x1000
   10c74:	e3c11005 	bic	r1, r1, #5
   10c78:	ea000000 	b	10c80 <__turn_mmu_off>
   10c7c:	e320f000 	nop	{0}

00010c80 <__turn_mmu_off>:
   10c80:	ee011f10 	mcr	15, 0, r1, cr1, cr0, {0}
   10c84:	ee103f10 	mrc	15, 0, r3, cr0, cr0, {0}
   10c88:	e1a03003 	mov	r3, r3
   10c8c:	e1a03003 	mov	r3, r3
   10c90:	e1a0f00e 	mov	pc, lr

00010c94 <enable_mmu>:
   10c94:	ee111f10 	mrc	15, 0, r1, cr1, cr0, {0}
   10c98:	e3811a01 	orr	r1, r1, #4096	; 0x1000
   10c9c:	e3811005 	orr	r1, r1, #5
   10ca0:	ea000006 	b	10cc0 <__turn_mmu_on>
   10ca4:	e320f000 	nop	{0}
   10ca8:	e320f000 	nop	{0}
   10cac:	e320f000 	nop	{0}
   10cb0:	e320f000 	nop	{0}
   10cb4:	e320f000 	nop	{0}
   10cb8:	e320f000 	nop	{0}
   10cbc:	e320f000 	nop	{0}

00010cc0 <__turn_mmu_on>:
   10cc0:	ee011f10 	mcr	15, 0, r1, cr1, cr0, {0}
   10cc4:	ee103f10 	mrc	15, 0, r3, cr0, cr0, {0}
   10cc8:	e1a03003 	mov	r3, r3
   10ccc:	e1a03003 	mov	r3, r3
   10cd0:	e1a0f00e 	mov	pc, lr

00010cd4 <jump_to_suspend>:
   10cd4:	ee020f10 	mcr	15, 0, r0, cr2, cr0, {0}
   10cd8:	f57ff04f 	dsb	sy
   10cdc:	f57ff06f 	isb	sy
   10ce0:	e1a0f001 	mov	pc, r1
   10ce4:	e320f000 	nop	{0}
   10ce8:	e320f000 	nop	{0}
   10cec:	e320f000 	nop	{0}

00010cf0 <jump_to_resume>:
   10cf0:	e1a0c000 	mov	ip, r0
   10cf4:	e1a08001 	mov	r8, r1
   10cf8:	ebfffef4 	bl	108d0 <invalidate_dcache>
   10cfc:	e1a01008 	mov	r1, r8
   10d00:	e1a0e00c 	mov	lr, ip
   10d04:	e8913fff 	ldm	r1, {r0, r1, r2, r3, r4, r5, r6, r7, r8, r9, sl, fp, ip, sp}
   10d08:	e1a0f00e 	mov	pc, lr
   10d0c:	e320f000 	nop	{0}

00010d10 <jump_to_resume0>:
   10d10:	e1a0e000 	mov	lr, r0
   10d14:	e1a0f00e 	mov	pc, lr
   10d18:	e320f000 	nop	{0}
   10d1c:	e320f000 	nop	{0}

00010d20 <jump_to_resume0_nommu>:
   10d20:	ee111f10 	mrc	15, 0, r1, cr1, cr0, {0}
   10d24:	e3c11a01 	bic	r1, r1, #4096	; 0x1000
   10d28:	e3c11007 	bic	r1, r1, #7
   10d2c:	ee011f10 	mcr	15, 0, r1, cr1, cr0, {0}
   10d30:	ee103f10 	mrc	15, 0, r3, cr0, cr0, {0}
   10d34:	e1a03003 	mov	r3, r3
   10d38:	e1a03003 	mov	r3, r3
   10d3c:	e1a0e000 	mov	lr, r0
   10d40:	f57ff06f 	isb	sy
   10d44:	e1a0f00e 	mov	pc, lr
   10d48:	f0003ffc 			; <UNDEFINED> instruction: 0xf0003ffc
   10d4c:	00003ffc 	strdeq	r3, [r0], -ip
   10d50:	000003ff 	strdeq	r0, [r0], -pc	; <UNPREDICTABLE>
   10d54:	00007fff 	strdeq	r7, [r0], -pc	; <UNPREDICTABLE>
   10d58:	f0010000 			; <UNDEFINED> instruction: 0xf0010000
   10d5c:	f0011000 			; <UNDEFINED> instruction: 0xf0011000
   10d60:	f0012000 			; <UNDEFINED> instruction: 0xf0012000
   10d64:	f0013000 			; <UNDEFINED> instruction: 0xf0013000
   10d68:	f8100000 			; <UNDEFINED> instruction: 0xf8100000
   10d6c:	f8101000 			; <UNDEFINED> instruction: 0xf8101000
   10d70:	f8102000 			; <UNDEFINED> instruction: 0xf8102000
   10d74:	f8103000 			; <UNDEFINED> instruction: 0xf8103000
   10d78:	f8104000 			; <UNDEFINED> instruction: 0xf8104000
   10d7c:	f8105000 			; <UNDEFINED> instruction: 0xf8105000
   10d80:	f8106000 			; <UNDEFINED> instruction: 0xf8106000
   10d84:	f8107000 			; <UNDEFINED> instruction: 0xf8107000
   10d88:	f8108000 			; <UNDEFINED> instruction: 0xf8108000
   10d8c:	f8109000 			; <UNDEFINED> instruction: 0xf8109000
   10d90:	f810a000 			; <UNDEFINED> instruction: 0xf810a000
   10d94:	f810b000 			; <UNDEFINED> instruction: 0xf810b000
   10d98:	f810c000 			; <UNDEFINED> instruction: 0xf810c000
   10d9c:	f810d000 			; <UNDEFINED> instruction: 0xf810d000
   10da0:	f810e000 			; <UNDEFINED> instruction: 0xf810e000
   10da4:	f810f000 			; <UNDEFINED> instruction: 0xf810f000
   10da8:	f8110000 			; <UNDEFINED> instruction: 0xf8110000
   10dac:	f8111000 			; <UNDEFINED> instruction: 0xf8111000
   10db0:	f8112000 			; <UNDEFINED> instruction: 0xf8112000
   10db4:	f8113000 			; <UNDEFINED> instruction: 0xf8113000
   10db8:	f0803000 			; <UNDEFINED> instruction: 0xf0803000
   10dbc:	f0804000 			; <UNDEFINED> instruction: 0xf0804000
   10dc0:	f6000800 			; <UNDEFINED> instruction: 0xf6000800
   10dc4:	f8001400 			; <UNDEFINED> instruction: 0xf8001400
   10dc8:	e320f000 	nop	{0}
   10dcc:	e320f000 	nop	{0}
   10dd0:	e320f000 	nop	{0}
   10dd4:	e320f000 	nop	{0}
   10dd8:	e320f000 	nop	{0}
   10ddc:	e320f000 	nop	{0}

00010de0 <__save_processor_state>:
   10de0:	ee503f10 	mrc	15, 2, r3, cr0, cr0, {0}
   10de4:	e5803000 	str	r3, [r0]
   10de8:	ee113f10 	mrc	15, 0, r3, cr1, cr0, {0}
   10dec:	e5803004 	str	r3, [r0, #4]
   10df0:	ee113f50 	mrc	15, 0, r3, cr1, cr0, {2}
   10df4:	e580300c 	str	r3, [r0, #12]
   10df8:	ee123f10 	mrc	15, 0, r3, cr2, cr0, {0}
   10dfc:	e580301c 	str	r3, [r0, #28]
   10e00:	ee123f30 	mrc	15, 0, r3, cr2, cr0, {1}
   10e04:	e5803020 	str	r3, [r0, #32]
   10e08:	ee123f50 	mrc	15, 0, r3, cr2, cr0, {2}
   10e0c:	e5803024 	str	r3, [r0, #36]	; 0x24
   10e10:	ee133f10 	mrc	15, 0, r3, cr3, cr0, {0}
   10e14:	e5803028 	str	r3, [r0, #40]	; 0x28
   10e18:	ee153f10 	mrc	15, 0, r3, cr5, cr0, {0}
   10e1c:	e580302c 	str	r3, [r0, #44]	; 0x2c
   10e20:	ee153f30 	mrc	15, 0, r3, cr5, cr0, {1}
   10e24:	e5803030 	str	r3, [r0, #48]	; 0x30
   10e28:	ee153f11 	mrc	15, 0, r3, cr5, cr1, {0}
   10e2c:	e5803034 	str	r3, [r0, #52]	; 0x34
   10e30:	ee153f31 	mrc	15, 0, r3, cr5, cr1, {1}
   10e34:	e5803038 	str	r3, [r0, #56]	; 0x38
   10e38:	ee163f10 	mrc	15, 0, r3, cr6, cr0, {0}
   10e3c:	e580303c 	str	r3, [r0, #60]	; 0x3c
   10e40:	ee163f50 	mrc	15, 0, r3, cr6, cr0, {2}
   10e44:	e5803040 	str	r3, [r0, #64]	; 0x40
   10e48:	ee173f14 	mrc	15, 0, r3, cr7, cr4, {0}
   10e4c:	e5803044 	str	r3, [r0, #68]	; 0x44
   10e50:	ee193f1c 	mrc	15, 0, r3, cr9, cr12, {0}
   10e54:	e5803048 	str	r3, [r0, #72]	; 0x48
   10e58:	ee193f3c 	mrc	15, 0, r3, cr9, cr12, {1}
   10e5c:	e580304c 	str	r3, [r0, #76]	; 0x4c
   10e60:	ee193f5c 	mrc	15, 0, r3, cr9, cr12, {2}
   10e64:	e5803050 	str	r3, [r0, #80]	; 0x50
   10e68:	ee193f7c 	mrc	15, 0, r3, cr9, cr12, {3}
   10e6c:	e5803054 	str	r3, [r0, #84]	; 0x54
   10e70:	ee193fbc 	mrc	15, 0, r3, cr9, cr12, {5}
   10e74:	e580305c 	str	r3, [r0, #92]	; 0x5c
   10e78:	ee193f1d 	mrc	15, 0, r3, cr9, cr13, {0}
   10e7c:	e5803060 	str	r3, [r0, #96]	; 0x60
   10e80:	ee193f3d 	mrc	15, 0, r3, cr9, cr13, {1}
   10e84:	e5803064 	str	r3, [r0, #100]	; 0x64
   10e88:	ee193f5d 	mrc	15, 0, r3, cr9, cr13, {2}
   10e8c:	e5803068 	str	r3, [r0, #104]	; 0x68
   10e90:	ee193f1e 	mrc	15, 0, r3, cr9, cr14, {0}
   10e94:	e580306c 	str	r3, [r0, #108]	; 0x6c
   10e98:	ee193f3e 	mrc	15, 0, r3, cr9, cr14, {1}
   10e9c:	e5803070 	str	r3, [r0, #112]	; 0x70
   10ea0:	ee193f5e 	mrc	15, 0, r3, cr9, cr14, {2}
   10ea4:	e5803074 	str	r3, [r0, #116]	; 0x74
   10ea8:	ee1a3f12 	mrc	15, 0, r3, cr10, cr2, {0}
   10eac:	e5803078 	str	r3, [r0, #120]	; 0x78
   10eb0:	ee1a3f32 	mrc	15, 0, r3, cr10, cr2, {1}
   10eb4:	e580307c 	str	r3, [r0, #124]	; 0x7c
   10eb8:	ee1c3f10 	mrc	15, 0, r3, cr12, cr0, {0}
   10ebc:	e5803080 	str	r3, [r0, #128]	; 0x80
   10ec0:	ee1c3f30 	mrc	15, 0, r3, cr12, cr0, {1}
   10ec4:	e5803084 	str	r3, [r0, #132]	; 0x84
   10ec8:	ee1d3f30 	mrc	15, 0, r3, cr13, cr0, {1}
   10ecc:	e5803090 	str	r3, [r0, #144]	; 0x90
   10ed0:	ee1d3f50 	mrc	15, 0, r3, cr13, cr0, {2}
   10ed4:	e5803094 	str	r3, [r0, #148]	; 0x94
   10ed8:	ee1d3f70 	mrc	15, 0, r3, cr13, cr0, {3}
   10edc:	e5803098 	str	r3, [r0, #152]	; 0x98
   10ee0:	ee1d3f90 	mrc	15, 0, r3, cr13, cr0, {4}
   10ee4:	e580309c 	str	r3, [r0, #156]	; 0x9c
   10ee8:	e12fff1e 	bx	lr

00010eec <__restore_processor_state>:
   10eec:	e5903000 	ldr	r3, [r0]
   10ef0:	ee403f10 	mcr	15, 2, r3, cr0, cr0, {0}
   10ef4:	e590300c 	ldr	r3, [r0, #12]
   10ef8:	ee013f50 	mcr	15, 0, r3, cr1, cr0, {2}
   10efc:	e590301c 	ldr	r3, [r0, #28]
   10f00:	ee023f10 	mcr	15, 0, r3, cr2, cr0, {0}
   10f04:	f57ff04f 	dsb	sy
   10f08:	f57ff06f 	isb	sy
   10f0c:	e5903020 	ldr	r3, [r0, #32]
   10f10:	ee023f30 	mcr	15, 0, r3, cr2, cr0, {1}
   10f14:	f57ff04f 	dsb	sy
   10f18:	f57ff06f 	isb	sy
   10f1c:	e5903024 	ldr	r3, [r0, #36]	; 0x24
   10f20:	ee023f50 	mcr	15, 0, r3, cr2, cr0, {2}
   10f24:	f57ff04f 	dsb	sy
   10f28:	f57ff06f 	isb	sy
   10f2c:	e5903028 	ldr	r3, [r0, #40]	; 0x28
   10f30:	ee033f10 	mcr	15, 0, r3, cr3, cr0, {0}
   10f34:	e5903044 	ldr	r3, [r0, #68]	; 0x44
   10f38:	ee073f14 	mcr	15, 0, r3, cr7, cr4, {0}
   10f3c:	e590305c 	ldr	r3, [r0, #92]	; 0x5c
   10f40:	ee093fbc 	mcr	15, 0, r3, cr9, cr12, {5}
   10f44:	e5903060 	ldr	r3, [r0, #96]	; 0x60
   10f48:	ee093f1d 	mcr	15, 0, r3, cr9, cr13, {0}
   10f4c:	e5903064 	ldr	r3, [r0, #100]	; 0x64
   10f50:	ee093f3d 	mcr	15, 0, r3, cr9, cr13, {1}
   10f54:	e5903068 	ldr	r3, [r0, #104]	; 0x68
   10f58:	ee093f5d 	mcr	15, 0, r3, cr9, cr13, {2}
   10f5c:	e590306c 	ldr	r3, [r0, #108]	; 0x6c
   10f60:	ee093f1e 	mcr	15, 0, r3, cr9, cr14, {0}
   10f64:	e5903070 	ldr	r3, [r0, #112]	; 0x70
   10f68:	ee093f3e 	mcr	15, 0, r3, cr9, cr14, {1}
   10f6c:	e5903074 	ldr	r3, [r0, #116]	; 0x74
   10f70:	ee093f5e 	mcr	15, 0, r3, cr9, cr14, {2}
   10f74:	e5903078 	ldr	r3, [r0, #120]	; 0x78
   10f78:	ee0a3f12 	mcr	15, 0, r3, cr10, cr2, {0}
   10f7c:	e590307c 	ldr	r3, [r0, #124]	; 0x7c
   10f80:	ee0a3f32 	mcr	15, 0, r3, cr10, cr2, {1}
   10f84:	e5903080 	ldr	r3, [r0, #128]	; 0x80
   10f88:	ee0c3f10 	mcr	15, 0, r3, cr12, cr0, {0}
   10f8c:	e5903084 	ldr	r3, [r0, #132]	; 0x84
   10f90:	ee0c3f30 	mcr	15, 0, r3, cr12, cr0, {1}
   10f94:	e5903090 	ldr	r3, [r0, #144]	; 0x90
   10f98:	ee0d3f30 	mcr	15, 0, r3, cr13, cr0, {1}
   10f9c:	e5903094 	ldr	r3, [r0, #148]	; 0x94
   10fa0:	ee0d3f50 	mcr	15, 0, r3, cr13, cr0, {2}
   10fa4:	e5903098 	ldr	r3, [r0, #152]	; 0x98
   10fa8:	ee0d3f70 	mcr	15, 0, r3, cr13, cr0, {3}
   10fac:	e590309c 	ldr	r3, [r0, #156]	; 0x9c
   10fb0:	ee0d3f90 	mcr	15, 0, r3, cr13, cr0, {4}
   10fb4:	f57ff04f 	dsb	sy
   10fb8:	f57ff06f 	isb	sy
   10fbc:	e12fff1e 	bx	lr

00010fc0 <disable_cache_invalidate>:
   10fc0:	e3a03000 	mov	r3, #0
   10fc4:	e34f31c2 	movt	r3, #61890	; 0xf1c2
   10fc8:	e5932d3c 	ldr	r2, [r3, #3388]	; 0xd3c
   10fcc:	e3822003 	orr	r2, r2, #3
   10fd0:	e5832d3c 	str	r2, [r3, #3388]	; 0xd3c
   10fd4:	e12fff1e 	bx	lr

00010fd8 <set_copro_default>:
   10fd8:	e3a03002 	mov	r3, #2
   10fdc:	ee403f10 	mcr	15, 2, r3, cr0, cr0, {0}
   10fe0:	e3003878 	movw	r3, #2168	; 0x878
   10fe4:	e34030c5 	movt	r3, #197	; 0xc5
   10fe8:	ee013f10 	mcr	15, 0, r3, cr1, cr0, {0}
   10fec:	e3063040 	movw	r3, #24640	; 0x6040
   10ff0:	ee013f30 	mcr	15, 0, r3, cr1, cr0, {1}
   10ff4:	e3a03000 	mov	r3, #0
   10ff8:	ee013f50 	mcr	15, 0, r3, cr1, cr0, {2}
   10ffc:	ee013f11 	mcr	15, 0, r3, cr1, cr1, {0}
   11000:	ee013f31 	mcr	15, 0, r3, cr1, cr1, {1}
   11004:	ee013f51 	mcr	15, 0, r3, cr1, cr1, {2}
   11008:	ee023f10 	mcr	15, 0, r3, cr2, cr0, {0}
   1100c:	ee023f30 	mcr	15, 0, r3, cr2, cr0, {1}
   11010:	ee023f50 	mcr	15, 0, r3, cr2, cr0, {2}
   11014:	ee033f10 	mcr	15, 0, r3, cr3, cr0, {0}
   11018:	ee053f10 	mcr	15, 0, r3, cr5, cr0, {0}
   1101c:	ee053f30 	mcr	15, 0, r3, cr5, cr0, {1}
   11020:	ee053f11 	mcr	15, 0, r3, cr5, cr1, {0}
   11024:	ee053f31 	mcr	15, 0, r3, cr5, cr1, {1}
   11028:	ee063f10 	mcr	15, 0, r3, cr6, cr0, {0}
   1102c:	ee063f50 	mcr	15, 0, r3, cr6, cr0, {2}
   11030:	ee073f14 	mcr	15, 0, r3, cr7, cr4, {0}
   11034:	ee093f1e 	mcr	15, 0, r3, cr9, cr14, {0}
   11038:	ee093f3e 	mcr	15, 0, r3, cr9, cr14, {1}
   1103c:	ee093f5e 	mcr	15, 0, r3, cr9, cr14, {2}
   11040:	e30831a4 	movw	r3, #33188	; 0x81a4
   11044:	e340300a 	movt	r3, #10
   11048:	ee0a3f12 	mcr	15, 0, r3, cr10, cr2, {0}
   1104c:	e30438e0 	movw	r3, #18656	; 0x48e0
   11050:	e34434e0 	movt	r3, #17632	; 0x44e0
   11054:	ee0a3f32 	mcr	15, 0, r3, cr10, cr2, {1}
   11058:	e3a03000 	mov	r3, #0
   1105c:	ee0c3f10 	mcr	15, 0, r3, cr12, cr0, {0}
   11060:	ee0c3f30 	mcr	15, 0, r3, cr12, cr0, {1}
   11064:	ee0d3f30 	mcr	15, 0, r3, cr13, cr0, {1}
   11068:	ee0d3f50 	mcr	15, 0, r3, cr13, cr0, {2}
   1106c:	ee0d3f70 	mcr	15, 0, r3, cr13, cr0, {3}
   11070:	ee0d3f90 	mcr	15, 0, r3, cr13, cr0, {4}
   11074:	f57ff04f 	dsb	sy
   11078:	f57ff06f 	isb	sy
   1107c:	e12fff1e 	bx	lr

00011080 <save_processor_state>:
   11080:	e3020da0 	movw	r0, #11680	; 0x2da0
   11084:	e3400001 	movt	r0, #1
   11088:	eaffff54 	b	10de0 <__save_processor_state>

0001108c <restore_processor_state>:
   1108c:	e3020da0 	movw	r0, #11680	; 0x2da0
   11090:	e3400001 	movt	r0, #1
   11094:	eaffff94 	b	10eec <__restore_processor_state>

00011098 <restore_processor_ttbr0>:
   11098:	e3023da0 	movw	r3, #11680	; 0x2da0
   1109c:	e3403001 	movt	r3, #1
   110a0:	e593301c 	ldr	r3, [r3, #28]
   110a4:	ee023f10 	mcr	15, 0, r3, cr2, cr0, {0}
   110a8:	e12fff1e 	bx	lr

000110ac <set_ttbr0>:
   110ac:	ee123f30 	mrc	15, 0, r3, cr2, cr0, {1}
   110b0:	ee023f10 	mcr	15, 0, r3, cr2, cr0, {0}
   110b4:	f57ff06f 	isb	sy
   110b8:	e12fff1e 	bx	lr

000110bc <set_serial_clk>:
   110bc:	e92d4038 	push	{r3, r4, r5, lr}
   110c0:	e1a04000 	mov	r4, r0
   110c4:	eb0004d8 	bl	1242c <mem_get_ba>
   110c8:	e5902074 	ldr	r2, [r0, #116]	; 0x74
   110cc:	e5901074 	ldr	r1, [r0, #116]	; 0x74
   110d0:	e5903074 	ldr	r3, [r0, #116]	; 0x74
   110d4:	e7e00c52 	ubfx	r0, r2, #24, #1
   110d8:	e59f20a8 	ldr	r2, [pc, #168]	; 11188 <set_serial_clk+0xcc>
   110dc:	e201101f 	and	r1, r1, #31
   110e0:	e7e13853 	ubfx	r3, r3, #16, #2
   110e4:	e2811001 	add	r1, r1, #1
   110e8:	e7920100 	ldr	r0, [r2, r0, lsl #2]
   110ec:	e1a01311 	lsl	r1, r1, r3
   110f0:	eb00030c 	bl	11d28 <__aeabi_uidiv>
   110f4:	e3540000 	cmp	r4, #0
   110f8:	e1a05000 	mov	r5, r0
   110fc:	1a000011 	bne	11148 <set_serial_clk+0x8c>
   11100:	e3a04406 	mov	r4, #100663296	; 0x6000000
   11104:	e5943594 	ldr	r3, [r4, #1428]	; 0x594
   11108:	e3c33801 	bic	r3, r3, #65536	; 0x10000
   1110c:	e5843594 	str	r3, [r4, #1428]	; 0x594
   11110:	e5943594 	ldr	r3, [r4, #1428]	; 0x594
   11114:	e3833801 	orr	r3, r3, #65536	; 0x10000
   11118:	e5843594 	str	r3, [r4, #1428]	; 0x594
   1111c:	ebfffd62 	bl	106ac <change_runtime_env>
   11120:	e3a00001 	mov	r0, #1
   11124:	ebfffd6a 	bl	106d4 <delay_us>
   11128:	e59435b4 	ldr	r3, [r4, #1460]	; 0x5b4
   1112c:	e1a00005 	mov	r0, r5
   11130:	e3c33801 	bic	r3, r3, #65536	; 0x10000
   11134:	e58435b4 	str	r3, [r4, #1460]	; 0x5b4
   11138:	e59435b4 	ldr	r3, [r4, #1460]	; 0x5b4
   1113c:	e3833801 	orr	r3, r3, #65536	; 0x10000
   11140:	e58435b4 	str	r3, [r4, #1460]	; 0x5b4
   11144:	e8bd8038 	pop	{r3, r4, r5, pc}
   11148:	e3a044f6 	mov	r4, #-167772160	; 0xf6000000
   1114c:	e3a03406 	mov	r3, #100663296	; 0x6000000
   11150:	e594c594 	ldr	ip, [r4, #1428]	; 0x594
   11154:	e59405b4 	ldr	r0, [r4, #1460]	; 0x5b4
   11158:	e5931900 	ldr	r1, [r3, #2304]	; 0x900
   1115c:	e5942594 	ldr	r2, [r4, #1428]	; 0x594
   11160:	e59f3024 	ldr	r3, [pc, #36]	; 1118c <set_serial_clk+0xd0>
   11164:	e3c22801 	bic	r2, r2, #65536	; 0x10000
   11168:	e5842594 	str	r2, [r4, #1428]	; 0x594
   1116c:	e5942594 	ldr	r2, [r4, #1428]	; 0x594
   11170:	e583c000 	str	ip, [r3]
   11174:	e5830004 	str	r0, [r3, #4]
   11178:	e3822801 	orr	r2, r2, #65536	; 0x10000
   1117c:	e5831008 	str	r1, [r3, #8]
   11180:	e5842594 	str	r2, [r4, #1428]	; 0x594
   11184:	eaffffe4 	b	1111c <set_serial_clk+0x60>
   11188:	00012c78 	andeq	r2, r1, r8, ror ip
   1118c:	00012e40 	andeq	r2, r1, r0, asr #28

00011190 <serial_init_nommu>:
   11190:	e92d4038 	push	{r3, r4, r5, lr}
   11194:	e3a03406 	mov	r3, #100663296	; 0x6000000
   11198:	e5932900 	ldr	r2, [r3, #2304]	; 0x900
   1119c:	e3a00000 	mov	r0, #0
   111a0:	e3c22877 	bic	r2, r2, #7798784	; 0x770000
   111a4:	e5832900 	str	r2, [r3, #2304]	; 0x900
   111a8:	e5932900 	ldr	r2, [r3, #2304]	; 0x900
   111ac:	e3822822 	orr	r2, r2, #2228224	; 0x220000
   111b0:	e5832900 	str	r2, [r3, #2304]	; 0x900
   111b4:	ebffffc0 	bl	110bc <set_serial_clk>
   111b8:	e30b33c5 	movw	r3, #46021	; 0xb3c5
   111bc:	e2800ae1 	add	r0, r0, #921600	; 0xe1000
   111c0:	e34931a2 	movt	r3, #37282	; 0x91a2
   111c4:	e3a02407 	mov	r2, #117440512	; 0x7000000
   111c8:	e0831093 	umull	r1, r3, r3, r0
   111cc:	e592000c 	ldr	r0, [r2, #12]
   111d0:	e3a0c001 	mov	ip, #1
   111d4:	e3021e40 	movw	r1, #11840	; 0x2e40
   111d8:	e582c0a4 	str	ip, [r2, #164]	; 0xa4
   111dc:	e3401001 	movt	r1, #1
   111e0:	e3805080 	orr	r5, r0, #128	; 0x80
   111e4:	e582500c 	str	r5, [r2, #12]
   111e8:	e3c00080 	bic	r0, r0, #128	; 0x80
   111ec:	e1a04e23 	lsr	r4, r3, #28
   111f0:	e7e73a53 	ubfx	r3, r3, #20, #8
   111f4:	e5824004 	str	r4, [r2, #4]
   111f8:	e5823000 	str	r3, [r2]
   111fc:	e3a03000 	mov	r3, #0
   11200:	e582000c 	str	r0, [r2, #12]
   11204:	e58230a4 	str	r3, [r2, #164]	; 0xa4
   11208:	e3a03003 	mov	r3, #3
   1120c:	e582300c 	str	r3, [r2, #12]
   11210:	e3a030e1 	mov	r3, #225	; 0xe1
   11214:	e5823008 	str	r3, [r2, #8]
   11218:	e581c00c 	str	ip, [r1, #12]
   1121c:	e8bd8038 	pop	{r3, r4, r5, pc}

00011220 <serial_puts_nommu>:
   11220:	e59f3078 	ldr	r3, [pc, #120]	; 112a0 <serial_puts_nommu+0x80>
   11224:	e593300c 	ldr	r3, [r3, #12]
   11228:	e3530000 	cmp	r3, #0
   1122c:	03e00000 	mvneq	r0, #0
   11230:	012fff1e 	bxeq	lr
   11234:	e5d03000 	ldrb	r3, [r0]
   11238:	e3530000 	cmp	r3, #0
   1123c:	0a000015 	beq	11298 <serial_puts_nommu+0x78>
   11240:	e2401001 	sub	r1, r0, #1
   11244:	e3a02407 	mov	r2, #117440512	; 0x7000000
   11248:	e3a0c00d 	mov	ip, #13
   1124c:	e353000a 	cmp	r3, #10
   11250:	0a00000a 	beq	11280 <serial_puts_nommu+0x60>
   11254:	e5f10001 	ldrb	r0, [r1, #1]!
   11258:	e592307c 	ldr	r3, [r2, #124]	; 0x7c
   1125c:	e3130002 	tst	r3, #2
   11260:	0afffffc 	beq	11258 <serial_puts_nommu+0x38>
   11264:	e3a03407 	mov	r3, #117440512	; 0x7000000
   11268:	e5830000 	str	r0, [r3]
   1126c:	e5d13001 	ldrb	r3, [r1, #1]
   11270:	e3530000 	cmp	r3, #0
   11274:	1afffff4 	bne	1124c <serial_puts_nommu+0x2c>
   11278:	e1a00003 	mov	r0, r3
   1127c:	e12fff1e 	bx	lr
   11280:	e592307c 	ldr	r3, [r2, #124]	; 0x7c
   11284:	e3130002 	tst	r3, #2
   11288:	0afffffc 	beq	11280 <serial_puts_nommu+0x60>
   1128c:	e3a03407 	mov	r3, #117440512	; 0x7000000
   11290:	e583c000 	str	ip, [r3]
   11294:	eaffffee 	b	11254 <serial_puts_nommu+0x34>
   11298:	e1a00003 	mov	r0, r3
   1129c:	e12fff1e 	bx	lr
   112a0:	00012e40 	andeq	r2, r1, r0, asr #28

000112a4 <serial_gets_nommu>:
   112a4:	e59f307c 	ldr	r3, [pc, #124]	; 11328 <serial_gets_nommu+0x84>
   112a8:	e52d4004 	push	{r4}		; (str r4, [sp, #-4]!)
   112ac:	e593300c 	ldr	r3, [r3, #12]
   112b0:	e3530000 	cmp	r3, #0
   112b4:	03e00000 	mvneq	r0, #0
   112b8:	1a000001 	bne	112c4 <serial_gets_nommu+0x20>
   112bc:	e8bd0010 	pop	{r4}
   112c0:	e12fff1e 	bx	lr
   112c4:	e3510000 	cmp	r1, #0
   112c8:	03a00001 	moveq	r0, #1
   112cc:	0afffffa 	beq	112bc <serial_gets_nommu+0x18>
   112d0:	e3a04000 	mov	r4, #0
   112d4:	e3a0c407 	mov	ip, #117440512	; 0x7000000
   112d8:	e30f3fff 	movw	r3, #65535	; 0xffff
   112dc:	ea000001 	b	112e8 <serial_gets_nommu+0x44>
   112e0:	e2533001 	subs	r3, r3, #1
   112e4:	3a000006 	bcc	11304 <serial_gets_nommu+0x60>
   112e8:	e59c207c 	ldr	r2, [ip, #124]	; 0x7c
   112ec:	e3120008 	tst	r2, #8
   112f0:	0afffffa 	beq	112e0 <serial_gets_nommu+0x3c>
   112f4:	e3530000 	cmp	r3, #0
   112f8:	1a000001 	bne	11304 <serial_gets_nommu+0x60>
   112fc:	e2840001 	add	r0, r4, #1
   11300:	eaffffed 	b	112bc <serial_gets_nommu+0x18>
   11304:	e59c3000 	ldr	r3, [ip]
   11308:	e6ef3073 	uxtb	r3, r3
   1130c:	e3530000 	cmp	r3, #0
   11310:	0afffff9 	beq	112fc <serial_gets_nommu+0x58>
   11314:	e7c03004 	strb	r3, [r0, r4]
   11318:	e2844001 	add	r4, r4, #1
   1131c:	e1540001 	cmp	r4, r1
   11320:	1affffec 	bne	112d8 <serial_gets_nommu+0x34>
   11324:	eafffff4 	b	112fc <serial_gets_nommu+0x58>
   11328:	00012e40 	andeq	r2, r1, r0, asr #28

0001132c <serial_init>:
   1132c:	e92d4038 	push	{r3, r4, r5, lr}
   11330:	e3a034f6 	mov	r3, #-167772160	; 0xf6000000
   11334:	e5932900 	ldr	r2, [r3, #2304]	; 0x900
   11338:	e3a00001 	mov	r0, #1
   1133c:	e3c22877 	bic	r2, r2, #7798784	; 0x770000
   11340:	e5832900 	str	r2, [r3, #2304]	; 0x900
   11344:	e5932900 	ldr	r2, [r3, #2304]	; 0x900
   11348:	e3822822 	orr	r2, r2, #2228224	; 0x220000
   1134c:	e5832900 	str	r2, [r3, #2304]	; 0x900
   11350:	ebffff59 	bl	110bc <set_serial_clk>
   11354:	e30b33c5 	movw	r3, #46021	; 0xb3c5
   11358:	e2800ae1 	add	r0, r0, #921600	; 0xe1000
   1135c:	e34931a2 	movt	r3, #37282	; 0x91a2
   11360:	e3a024f7 	mov	r2, #-150994944	; 0xf7000000
   11364:	e0831093 	umull	r1, r3, r3, r0
   11368:	e592000c 	ldr	r0, [r2, #12]
   1136c:	e3a0c001 	mov	ip, #1
   11370:	e3021e40 	movw	r1, #11840	; 0x2e40
   11374:	e582c0a4 	str	ip, [r2, #164]	; 0xa4
   11378:	e3401001 	movt	r1, #1
   1137c:	e3805080 	orr	r5, r0, #128	; 0x80
   11380:	e582500c 	str	r5, [r2, #12]
   11384:	e3c00080 	bic	r0, r0, #128	; 0x80
   11388:	e1a04e23 	lsr	r4, r3, #28
   1138c:	e7e73a53 	ubfx	r3, r3, #20, #8
   11390:	e5824004 	str	r4, [r2, #4]
   11394:	e5823000 	str	r3, [r2]
   11398:	e3a03000 	mov	r3, #0
   1139c:	e582000c 	str	r0, [r2, #12]
   113a0:	e58230a4 	str	r3, [r2, #164]	; 0xa4
   113a4:	e3a03003 	mov	r3, #3
   113a8:	e582300c 	str	r3, [r2, #12]
   113ac:	e3a030e1 	mov	r3, #225	; 0xe1
   113b0:	e5823008 	str	r3, [r2, #8]
   113b4:	e581c00c 	str	ip, [r1, #12]
   113b8:	e8bd8038 	pop	{r3, r4, r5, pc}

000113bc <serial_exit>:
   113bc:	e3023e40 	movw	r3, #11840	; 0x2e40
   113c0:	e3a024f6 	mov	r2, #-167772160	; 0xf6000000
   113c4:	e3403001 	movt	r3, #1
   113c8:	e5931000 	ldr	r1, [r3]
   113cc:	e5821594 	str	r1, [r2, #1428]	; 0x594
   113d0:	e5931004 	ldr	r1, [r3, #4]
   113d4:	e58215b4 	str	r1, [r2, #1460]	; 0x5b4
   113d8:	e5931008 	ldr	r1, [r3, #8]
   113dc:	e5821900 	str	r1, [r2, #2304]	; 0x900
   113e0:	e3a02000 	mov	r2, #0
   113e4:	e583200c 	str	r2, [r3, #12]
   113e8:	e12fff1e 	bx	lr

000113ec <serial_puts>:
   113ec:	e59f3078 	ldr	r3, [pc, #120]	; 1146c <serial_puts+0x80>
   113f0:	e593300c 	ldr	r3, [r3, #12]
   113f4:	e3530000 	cmp	r3, #0
   113f8:	03e00000 	mvneq	r0, #0
   113fc:	012fff1e 	bxeq	lr
   11400:	e5d03000 	ldrb	r3, [r0]
   11404:	e3530000 	cmp	r3, #0
   11408:	0a000015 	beq	11464 <serial_puts+0x78>
   1140c:	e2401001 	sub	r1, r0, #1
   11410:	e3a024f7 	mov	r2, #-150994944	; 0xf7000000
   11414:	e3a0c00d 	mov	ip, #13
   11418:	e353000a 	cmp	r3, #10
   1141c:	0a00000a 	beq	1144c <serial_puts+0x60>
   11420:	e5f10001 	ldrb	r0, [r1, #1]!
   11424:	e592307c 	ldr	r3, [r2, #124]	; 0x7c
   11428:	e3130002 	tst	r3, #2
   1142c:	0afffffc 	beq	11424 <serial_puts+0x38>
   11430:	e3a034f7 	mov	r3, #-150994944	; 0xf7000000
   11434:	e5830000 	str	r0, [r3]
   11438:	e5d13001 	ldrb	r3, [r1, #1]
   1143c:	e3530000 	cmp	r3, #0
   11440:	1afffff4 	bne	11418 <serial_puts+0x2c>
   11444:	e1a00003 	mov	r0, r3
   11448:	e12fff1e 	bx	lr
   1144c:	e592307c 	ldr	r3, [r2, #124]	; 0x7c
   11450:	e3130002 	tst	r3, #2
   11454:	0afffffc 	beq	1144c <serial_puts+0x60>
   11458:	e3a034f7 	mov	r3, #-150994944	; 0xf7000000
   1145c:	e583c000 	str	ip, [r3]
   11460:	eaffffee 	b	11420 <serial_puts+0x34>
   11464:	e1a00003 	mov	r0, r3
   11468:	e12fff1e 	bx	lr
   1146c:	00012e40 	andeq	r2, r1, r0, asr #28

00011470 <serial_gets>:
   11470:	e59f307c 	ldr	r3, [pc, #124]	; 114f4 <serial_gets+0x84>
   11474:	e52d4004 	push	{r4}		; (str r4, [sp, #-4]!)
   11478:	e593300c 	ldr	r3, [r3, #12]
   1147c:	e3530000 	cmp	r3, #0
   11480:	03e00000 	mvneq	r0, #0
   11484:	1a000001 	bne	11490 <serial_gets+0x20>
   11488:	e8bd0010 	pop	{r4}
   1148c:	e12fff1e 	bx	lr
   11490:	e3510000 	cmp	r1, #0
   11494:	03a00001 	moveq	r0, #1
   11498:	0afffffa 	beq	11488 <serial_gets+0x18>
   1149c:	e3a04000 	mov	r4, #0
   114a0:	e3a0c4f7 	mov	ip, #-150994944	; 0xf7000000
   114a4:	e30f3fff 	movw	r3, #65535	; 0xffff
   114a8:	ea000001 	b	114b4 <serial_gets+0x44>
   114ac:	e2533001 	subs	r3, r3, #1
   114b0:	3a000006 	bcc	114d0 <serial_gets+0x60>
   114b4:	e59c207c 	ldr	r2, [ip, #124]	; 0x7c
   114b8:	e3120008 	tst	r2, #8
   114bc:	0afffffa 	beq	114ac <serial_gets+0x3c>
   114c0:	e3530000 	cmp	r3, #0
   114c4:	1a000001 	bne	114d0 <serial_gets+0x60>
   114c8:	e2840001 	add	r0, r4, #1
   114cc:	eaffffed 	b	11488 <serial_gets+0x18>
   114d0:	e59c3000 	ldr	r3, [ip]
   114d4:	e6ef3073 	uxtb	r3, r3
   114d8:	e3530000 	cmp	r3, #0
   114dc:	0afffff9 	beq	114c8 <serial_gets+0x58>
   114e0:	e7c03004 	strb	r3, [r0, r4]
   114e4:	e2844001 	add	r4, r4, #1
   114e8:	e1540001 	cmp	r4, r1
   114ec:	1affffec 	bne	114a4 <serial_gets+0x34>
   114f0:	eafffff4 	b	114c8 <serial_gets+0x58>
   114f4:	00012e40 	andeq	r2, r1, r0, asr #28

000114f8 <utoa>:
   114f8:	e92d45f0 	push	{r4, r5, r6, r7, r8, sl, lr}
   114fc:	e3500000 	cmp	r0, #0
   11500:	e59f60a8 	ldr	r6, [pc, #168]	; 115b0 <utoa+0xb8>
   11504:	e1a07001 	mov	r7, r1
   11508:	e1a04000 	mov	r4, r0
   1150c:	e1a05002 	mov	r5, r2
   11510:	e24dd02c 	sub	sp, sp, #44	; 0x2c
   11514:	13a08000 	movne	r8, #0
   11518:	e28dc004 	add	ip, sp, #4
   1151c:	128da018 	addne	sl, sp, #24
   11520:	e8b6000f 	ldm	r6!, {r0, r1, r2, r3}
   11524:	e5966000 	ldr	r6, [r6]
   11528:	e8ac000f 	stmia	ip!, {r0, r1, r2, r3}
   1152c:	03a03030 	moveq	r3, #48	; 0x30
   11530:	05c74001 	strbeq	r4, [r7, #1]
   11534:	e5cc6000 	strb	r6, [ip]
   11538:	05c73000 	strbeq	r3, [r7]
   1153c:	1a000001 	bne	11548 <utoa+0x50>
   11540:	ea000017 	b	115a4 <utoa+0xac>
   11544:	e1a08003 	mov	r8, r3
   11548:	e1a00004 	mov	r0, r4
   1154c:	e1a01005 	mov	r1, r5
   11550:	eb00024e 	bl	11e90 <__aeabi_uidivmod>
   11554:	e28d3028 	add	r3, sp, #40	; 0x28
   11558:	e1a00004 	mov	r0, r4
   1155c:	e0831001 	add	r1, r3, r1
   11560:	e5516024 	ldrb	r6, [r1, #-36]	; 0x24
   11564:	e1a01005 	mov	r1, r5
   11568:	e7ca6008 	strb	r6, [sl, r8]
   1156c:	eb0001ed 	bl	11d28 <__aeabi_uidiv>
   11570:	e2504000 	subs	r4, r0, #0
   11574:	e2883001 	add	r3, r8, #1
   11578:	1afffff1 	bne	11544 <utoa+0x4c>
   1157c:	e2472001 	sub	r2, r7, #1
   11580:	e08a3008 	add	r3, sl, r8
   11584:	ea000000 	b	1158c <utoa+0x94>
   11588:	e5736001 	ldrb	r6, [r3, #-1]!
   1158c:	e153000a 	cmp	r3, sl
   11590:	e5e26001 	strb	r6, [r2, #1]!
   11594:	1afffffb 	bne	11588 <utoa+0x90>
   11598:	e0878008 	add	r8, r7, r8
   1159c:	e3a03000 	mov	r3, #0
   115a0:	e5c83001 	strb	r3, [r8, #1]
   115a4:	e1a00007 	mov	r0, r7
   115a8:	e28dd02c 	add	sp, sp, #44	; 0x2c
   115ac:	e8bd85f0 	pop	{r4, r5, r6, r7, r8, sl, pc}
   115b0:	00012cfc 	strdeq	r2, [r1], -ip

000115b4 <print_align>:
   115b4:	e92d00f0 	push	{r4, r5, r6, r7}
   115b8:	e1510002 	cmp	r1, r2
   115bc:	e59f4094 	ldr	r4, [pc, #148]	; 11658 <print_align+0xa4>
   115c0:	e1a07001 	mov	r7, r1
   115c4:	e1a06002 	mov	r6, r2
   115c8:	e1a05000 	mov	r5, r0
   115cc:	e24dd018 	sub	sp, sp, #24
   115d0:	e28dc004 	add	ip, sp, #4
   115d4:	e8b4000f 	ldm	r4!, {r0, r1, r2, r3}
   115d8:	e5944000 	ldr	r4, [r4]
   115dc:	e8ac000f 	stmia	ip!, {r0, r1, r2, r3}
   115e0:	a3a00000 	movge	r0, #0
   115e4:	e5cc4000 	strb	r4, [ip]
   115e8:	aa000017 	bge	1164c <print_align+0x98>
   115ec:	e0670006 	rsb	r0, r7, r6
   115f0:	e3500000 	cmp	r0, #0
   115f4:	e1a01000 	mov	r1, r0
   115f8:	0a000013 	beq	1164c <print_align+0x98>
   115fc:	e5d53000 	ldrb	r3, [r5]
   11600:	e3530000 	cmp	r3, #0
   11604:	0a000005 	beq	11620 <print_align+0x6c>
   11608:	e1a03005 	mov	r3, r5
   1160c:	e2833001 	add	r3, r3, #1
   11610:	e5d32000 	ldrb	r2, [r3]
   11614:	e1a05003 	mov	r5, r3
   11618:	e3520000 	cmp	r2, #0
   1161c:	1afffffa 	bne	1160c <print_align+0x58>
   11620:	e28dc003 	add	ip, sp, #3
   11624:	ea000000 	b	1162c <print_align+0x78>
   11628:	e1a05003 	mov	r5, r3
   1162c:	e5fc2001 	ldrb	r2, [ip, #1]!
   11630:	e1a03005 	mov	r3, r5
   11634:	e3520000 	cmp	r2, #0
   11638:	e4c32001 	strb	r2, [r3], #1
   1163c:	0a000002 	beq	1164c <print_align+0x98>
   11640:	e2511001 	subs	r1, r1, #1
   11644:	1afffff7 	bne	11628 <print_align+0x74>
   11648:	e5c51001 	strb	r1, [r5, #1]
   1164c:	e28dd018 	add	sp, sp, #24
   11650:	e8bd00f0 	pop	{r4, r5, r6, r7}
   11654:	e12fff1e 	bx	lr
   11658:	00012d10 	andeq	r2, r1, r0, lsl sp

0001165c <itoa.constprop.0>:
   1165c:	e92d01f0 	push	{r4, r5, r6, r7, r8}
   11660:	e3500000 	cmp	r0, #0
   11664:	e59f50d4 	ldr	r5, [pc, #212]	; 11740 <itoa.constprop.0+0xe4>
   11668:	e1a06001 	mov	r6, r1
   1166c:	e1a0c000 	mov	ip, r0
   11670:	e24dd02c 	sub	sp, sp, #44	; 0x2c
   11674:	e28d4004 	add	r4, sp, #4
   11678:	e8b5000f 	ldm	r5!, {r0, r1, r2, r3}
   1167c:	e5955000 	ldr	r5, [r5]
   11680:	e8a4000f 	stmia	r4!, {r0, r1, r2, r3}
   11684:	03a03030 	moveq	r3, #48	; 0x30
   11688:	05c6c001 	strbeq	ip, [r6, #1]
   1168c:	e5c45000 	strb	r5, [r4]
   11690:	05c63000 	strbeq	r3, [r6]
   11694:	0a000025 	beq	11730 <itoa.constprop.0+0xd4>
   11698:	e3065667 	movw	r5, #26215	; 0x6667
   1169c:	b26cc000 	rsblt	ip, ip, #0
   116a0:	b3a07001 	movlt	r7, #1
   116a4:	a3a07000 	movge	r7, #0
   116a8:	e3a03000 	mov	r3, #0
   116ac:	e28d0018 	add	r0, sp, #24
   116b0:	e3465666 	movt	r5, #26214	; 0x6666
   116b4:	ea000000 	b	116bc <itoa.constprop.0+0x60>
   116b8:	e1a03004 	mov	r3, r4
   116bc:	e0c12c95 	smull	r2, r1, r5, ip
   116c0:	e1a02fcc 	asr	r2, ip, #31
   116c4:	e28d8028 	add	r8, sp, #40	; 0x28
   116c8:	e2834001 	add	r4, r3, #1
   116cc:	e0622141 	rsb	r2, r2, r1, asr #2
   116d0:	e0821102 	add	r1, r2, r2, lsl #2
   116d4:	e04c1081 	sub	r1, ip, r1, lsl #1
   116d8:	e252c000 	subs	ip, r2, #0
   116dc:	e0882001 	add	r2, r8, r1
   116e0:	e5522024 	ldrb	r2, [r2, #-36]	; 0x24
   116e4:	e7c02003 	strb	r2, [r0, r3]
   116e8:	1afffff2 	bne	116b8 <itoa.constprop.0+0x5c>
   116ec:	e3570000 	cmp	r7, #0
   116f0:	e1a0c003 	mov	ip, r3
   116f4:	13a0102d 	movne	r1, #45	; 0x2d
   116f8:	13a07001 	movne	r7, #1
   116fc:	15c61000 	strbne	r1, [r6]
   11700:	e2471001 	sub	r1, r7, #1
   11704:	e0861001 	add	r1, r6, r1
   11708:	ea000000 	b	11710 <itoa.constprop.0+0xb4>
   1170c:	e7d02003 	ldrb	r2, [r0, r3]
   11710:	e2433001 	sub	r3, r3, #1
   11714:	e5e12001 	strb	r2, [r1, #1]!
   11718:	e3730001 	cmn	r3, #1
   1171c:	1afffffa 	bne	1170c <itoa.constprop.0+0xb0>
   11720:	e2877001 	add	r7, r7, #1
   11724:	e3a03000 	mov	r3, #0
   11728:	e0867007 	add	r7, r6, r7
   1172c:	e7c7300c 	strb	r3, [r7, ip]
   11730:	e1a00006 	mov	r0, r6
   11734:	e28dd02c 	add	sp, sp, #44	; 0x2c
   11738:	e8bd01f0 	pop	{r4, r5, r6, r7, r8}
   1173c:	e12fff1e 	bx	lr
   11740:	00012cfc 	strdeq	r2, [r1], -ip

00011744 <printk>:
   11744:	e92d000f 	push	{r0, r1, r2, r3}
   11748:	e92d47f0 	push	{r4, r5, r6, r7, r8, r9, sl, lr}
   1174c:	e24dd018 	sub	sp, sp, #24
   11750:	e28d303c 	add	r3, sp, #60	; 0x3c
   11754:	e59d4038 	ldr	r4, [sp, #56]	; 0x38
   11758:	e58d3014 	str	r3, [sp, #20]
   1175c:	e59f82ac 	ldr	r8, [pc, #684]	; 11a10 <printk+0x2cc>
   11760:	e5d43000 	ldrb	r3, [r4]
   11764:	e3530000 	cmp	r3, #0
   11768:	01a05008 	moveq	r5, r8
   1176c:	0a00002c 	beq	11824 <printk+0xe0>
   11770:	e3a09025 	mov	r9, #37	; 0x25
   11774:	e28d6004 	add	r6, sp, #4
   11778:	e1a05008 	mov	r5, r8
   1177c:	ea000003 	b	11790 <printk+0x4c>
   11780:	e5d43001 	ldrb	r3, [r4, #1]
   11784:	e2844001 	add	r4, r4, #1
   11788:	e3530000 	cmp	r3, #0
   1178c:	0a000024 	beq	11824 <printk+0xe0>
   11790:	e3530025 	cmp	r3, #37	; 0x25
   11794:	14c53001 	strbne	r3, [r5], #1
   11798:	1afffff8 	bne	11780 <printk+0x3c>
   1179c:	e5d43001 	ldrb	r3, [r4, #1]
   117a0:	e2432031 	sub	r2, r3, #49	; 0x31
   117a4:	e3520008 	cmp	r2, #8
   117a8:	92437030 	subls	r7, r3, #48	; 0x30
   117ac:	95d43002 	ldrbls	r3, [r4, #2]
   117b0:	82844001 	addhi	r4, r4, #1
   117b4:	83a07000 	movhi	r7, #0
   117b8:	92844002 	addls	r4, r4, #2
   117bc:	e2433063 	sub	r3, r3, #99	; 0x63
   117c0:	e3530015 	cmp	r3, #21
   117c4:	979ff103 	ldrls	pc, [pc, r3, lsl #2]
   117c8:	ea000070 	b	11990 <printk+0x24c>
   117cc:	00011978 	andeq	r1, r1, r8, ror r9
   117d0:	000119a4 	andeq	r1, r1, r4, lsr #19
   117d4:	00011990 	muleq	r1, r0, r9
   117d8:	00011990 	muleq	r1, r0, r9
   117dc:	00011990 	muleq	r1, r0, r9
   117e0:	00011990 	muleq	r1, r0, r9
   117e4:	00011990 	muleq	r1, r0, r9
   117e8:	00011990 	muleq	r1, r0, r9
   117ec:	00011990 	muleq	r1, r0, r9
   117f0:	00011990 	muleq	r1, r0, r9
   117f4:	00011990 	muleq	r1, r0, r9
   117f8:	00011990 	muleq	r1, r0, r9
   117fc:	00011990 	muleq	r1, r0, r9
   11800:	00011908 	andeq	r1, r1, r8, lsl #18
   11804:	00011990 	muleq	r1, r0, r9
   11808:	00011990 	muleq	r1, r0, r9
   1180c:	000118b8 			; <UNDEFINED> instruction: 0x000118b8
   11810:	00011990 	muleq	r1, r0, r9
   11814:	00011848 	andeq	r1, r1, r8, asr #16
   11818:	00011990 	muleq	r1, r0, r9
   1181c:	00011990 	muleq	r1, r0, r9
   11820:	00011908 	andeq	r1, r1, r8, lsl #18
   11824:	e3a03000 	mov	r3, #0
   11828:	e59f01e0 	ldr	r0, [pc, #480]	; 11a10 <printk+0x2cc>
   1182c:	e4c53001 	strb	r3, [r5], #1
   11830:	ebfffeed 	bl	113ec <serial_puts>
   11834:	e0680005 	rsb	r0, r8, r5
   11838:	e28dd018 	add	sp, sp, #24
   1183c:	e8bd47f0 	pop	{r4, r5, r6, r7, r8, r9, sl, lr}
   11840:	e28dd010 	add	sp, sp, #16
   11844:	e12fff1e 	bx	lr
   11848:	e59d0014 	ldr	r0, [sp, #20]
   1184c:	e1a01006 	mov	r1, r6
   11850:	e3a0200a 	mov	r2, #10
   11854:	e2803004 	add	r3, r0, #4
   11858:	e5900000 	ldr	r0, [r0]
   1185c:	e58d3014 	str	r3, [sp, #20]
   11860:	ebffff24 	bl	114f8 <utoa>
   11864:	e5d6a000 	ldrb	sl, [r6]
   11868:	e35a0000 	cmp	sl, #0
   1186c:	0a000004 	beq	11884 <printk+0x140>
   11870:	e1a0a006 	mov	sl, r6
   11874:	e5fa3001 	ldrb	r3, [sl, #1]!
   11878:	e3530000 	cmp	r3, #0
   1187c:	1afffffc 	bne	11874 <printk+0x130>
   11880:	e066a00a 	rsb	sl, r6, sl
   11884:	e1a0100a 	mov	r1, sl
   11888:	e1a00006 	mov	r0, r6
   1188c:	e1a02007 	mov	r2, r7
   11890:	ebffff47 	bl	115b4 <print_align>
   11894:	e28d3003 	add	r3, sp, #3
   11898:	e080000a 	add	r0, r0, sl
   1189c:	e1a01005 	mov	r1, r5
   118a0:	e5f32001 	ldrb	r2, [r3, #1]!
   118a4:	e3520000 	cmp	r2, #0
   118a8:	e4c12001 	strb	r2, [r1], #1
   118ac:	1afffffb 	bne	118a0 <printk+0x15c>
   118b0:	e0855000 	add	r5, r5, r0
   118b4:	eaffffb1 	b	11780 <printk+0x3c>
   118b8:	e59d3014 	ldr	r3, [sp, #20]
   118bc:	e1a01005 	mov	r1, r5
   118c0:	e2832004 	add	r2, r3, #4
   118c4:	e58d2014 	str	r2, [sp, #20]
   118c8:	e5930000 	ldr	r0, [r3]
   118cc:	e2402001 	sub	r2, r0, #1
   118d0:	e5f23001 	ldrb	r3, [r2, #1]!
   118d4:	e3530000 	cmp	r3, #0
   118d8:	e4c13001 	strb	r3, [r1], #1
   118dc:	1afffffb 	bne	118d0 <printk+0x18c>
   118e0:	e5d03000 	ldrb	r3, [r0]
   118e4:	e3530000 	cmp	r3, #0
   118e8:	0a000004 	beq	11900 <printk+0x1bc>
   118ec:	e1a03000 	mov	r3, r0
   118f0:	e5f32001 	ldrb	r2, [r3, #1]!
   118f4:	e3520000 	cmp	r2, #0
   118f8:	1afffffc 	bne	118f0 <printk+0x1ac>
   118fc:	e0603003 	rsb	r3, r0, r3
   11900:	e0855003 	add	r5, r5, r3
   11904:	eaffff9d 	b	11780 <printk+0x3c>
   11908:	e59d0014 	ldr	r0, [sp, #20]
   1190c:	e1a01006 	mov	r1, r6
   11910:	e3a02010 	mov	r2, #16
   11914:	e2803004 	add	r3, r0, #4
   11918:	e5900000 	ldr	r0, [r0]
   1191c:	e58d3014 	str	r3, [sp, #20]
   11920:	ebfffef4 	bl	114f8 <utoa>
   11924:	e5d6a000 	ldrb	sl, [r6]
   11928:	e35a0000 	cmp	sl, #0
   1192c:	0a000004 	beq	11944 <printk+0x200>
   11930:	e1a0a006 	mov	sl, r6
   11934:	e5fa3001 	ldrb	r3, [sl, #1]!
   11938:	e3530000 	cmp	r3, #0
   1193c:	1afffffc 	bne	11934 <printk+0x1f0>
   11940:	e066a00a 	rsb	sl, r6, sl
   11944:	e1a0100a 	mov	r1, sl
   11948:	e1a00006 	mov	r0, r6
   1194c:	e1a02007 	mov	r2, r7
   11950:	ebffff17 	bl	115b4 <print_align>
   11954:	e28d3003 	add	r3, sp, #3
   11958:	e080000a 	add	r0, r0, sl
   1195c:	e1a01005 	mov	r1, r5
   11960:	e5f32001 	ldrb	r2, [r3, #1]!
   11964:	e3520000 	cmp	r2, #0
   11968:	e4c12001 	strb	r2, [r1], #1
   1196c:	1afffffb 	bne	11960 <printk+0x21c>
   11970:	e0855000 	add	r5, r5, r0
   11974:	eaffff81 	b	11780 <printk+0x3c>
   11978:	e59d3014 	ldr	r3, [sp, #20]
   1197c:	e5932000 	ldr	r2, [r3]
   11980:	e2833004 	add	r3, r3, #4
   11984:	e58d3014 	str	r3, [sp, #20]
   11988:	e5c52000 	strb	r2, [r5]
   1198c:	eaffff7b 	b	11780 <printk+0x3c>
   11990:	e5c59000 	strb	r9, [r5]
   11994:	e5d43000 	ldrb	r3, [r4]
   11998:	e5c53001 	strb	r3, [r5, #1]
   1199c:	e2855002 	add	r5, r5, #2
   119a0:	eaffff76 	b	11780 <printk+0x3c>
   119a4:	e59d2014 	ldr	r2, [sp, #20]
   119a8:	e1a01006 	mov	r1, r6
   119ac:	e2823004 	add	r3, r2, #4
   119b0:	e5920000 	ldr	r0, [r2]
   119b4:	e58d3014 	str	r3, [sp, #20]
   119b8:	ebffff27 	bl	1165c <itoa.constprop.0>
   119bc:	e5d6a000 	ldrb	sl, [r6]
   119c0:	e35a0000 	cmp	sl, #0
   119c4:	0a000004 	beq	119dc <printk+0x298>
   119c8:	e1a0a006 	mov	sl, r6
   119cc:	e5fa3001 	ldrb	r3, [sl, #1]!
   119d0:	e3530000 	cmp	r3, #0
   119d4:	1afffffc 	bne	119cc <printk+0x288>
   119d8:	e066a00a 	rsb	sl, r6, sl
   119dc:	e1a0100a 	mov	r1, sl
   119e0:	e1a00006 	mov	r0, r6
   119e4:	e1a02007 	mov	r2, r7
   119e8:	ebfffef1 	bl	115b4 <print_align>
   119ec:	e28d3003 	add	r3, sp, #3
   119f0:	e080000a 	add	r0, r0, sl
   119f4:	e1a01005 	mov	r1, r5
   119f8:	e5f32001 	ldrb	r2, [r3, #1]!
   119fc:	e3520000 	cmp	r2, #0
   11a00:	e4c12001 	strb	r2, [r1], #1
   11a04:	1afffffb 	bne	119f8 <printk+0x2b4>
   11a08:	e0855000 	add	r5, r5, r0
   11a0c:	eaffff5b 	b	11780 <printk+0x3c>
   11a10:	00012e50 	andeq	r2, r1, r0, asr lr

00011a14 <printk_nommu>:
   11a14:	e92d000f 	push	{r0, r1, r2, r3}
   11a18:	e92d47f0 	push	{r4, r5, r6, r7, r8, r9, sl, lr}
   11a1c:	e24dd018 	sub	sp, sp, #24
   11a20:	e28d303c 	add	r3, sp, #60	; 0x3c
   11a24:	e59d4038 	ldr	r4, [sp, #56]	; 0x38
   11a28:	e58d3014 	str	r3, [sp, #20]
   11a2c:	e59f82ac 	ldr	r8, [pc, #684]	; 11ce0 <printk_nommu+0x2cc>
   11a30:	e5d43000 	ldrb	r3, [r4]
   11a34:	e3530000 	cmp	r3, #0
   11a38:	01a05008 	moveq	r5, r8
   11a3c:	0a00002c 	beq	11af4 <printk_nommu+0xe0>
   11a40:	e3a09025 	mov	r9, #37	; 0x25
   11a44:	e28d6004 	add	r6, sp, #4
   11a48:	e1a05008 	mov	r5, r8
   11a4c:	ea000003 	b	11a60 <printk_nommu+0x4c>
   11a50:	e5d43001 	ldrb	r3, [r4, #1]
   11a54:	e2844001 	add	r4, r4, #1
   11a58:	e3530000 	cmp	r3, #0
   11a5c:	0a000024 	beq	11af4 <printk_nommu+0xe0>
   11a60:	e3530025 	cmp	r3, #37	; 0x25
   11a64:	14c53001 	strbne	r3, [r5], #1
   11a68:	1afffff8 	bne	11a50 <printk_nommu+0x3c>
   11a6c:	e5d43001 	ldrb	r3, [r4, #1]
   11a70:	e2432031 	sub	r2, r3, #49	; 0x31
   11a74:	e3520008 	cmp	r2, #8
   11a78:	92437030 	subls	r7, r3, #48	; 0x30
   11a7c:	95d43002 	ldrbls	r3, [r4, #2]
   11a80:	82844001 	addhi	r4, r4, #1
   11a84:	83a07000 	movhi	r7, #0
   11a88:	92844002 	addls	r4, r4, #2
   11a8c:	e2433063 	sub	r3, r3, #99	; 0x63
   11a90:	e3530015 	cmp	r3, #21
   11a94:	979ff103 	ldrls	pc, [pc, r3, lsl #2]
   11a98:	ea000070 	b	11c60 <printk_nommu+0x24c>
   11a9c:	00011c48 	andeq	r1, r1, r8, asr #24
   11aa0:	00011c74 	andeq	r1, r1, r4, ror ip
   11aa4:	00011c60 	andeq	r1, r1, r0, ror #24
   11aa8:	00011c60 	andeq	r1, r1, r0, ror #24
   11aac:	00011c60 	andeq	r1, r1, r0, ror #24
   11ab0:	00011c60 	andeq	r1, r1, r0, ror #24
   11ab4:	00011c60 	andeq	r1, r1, r0, ror #24
   11ab8:	00011c60 	andeq	r1, r1, r0, ror #24
   11abc:	00011c60 	andeq	r1, r1, r0, ror #24
   11ac0:	00011c60 	andeq	r1, r1, r0, ror #24
   11ac4:	00011c60 	andeq	r1, r1, r0, ror #24
   11ac8:	00011c60 	andeq	r1, r1, r0, ror #24
   11acc:	00011c60 	andeq	r1, r1, r0, ror #24
   11ad0:	00011bd8 	ldrdeq	r1, [r1], -r8
   11ad4:	00011c60 	andeq	r1, r1, r0, ror #24
   11ad8:	00011c60 	andeq	r1, r1, r0, ror #24
   11adc:	00011b88 	andeq	r1, r1, r8, lsl #23
   11ae0:	00011c60 	andeq	r1, r1, r0, ror #24
   11ae4:	00011b18 	andeq	r1, r1, r8, lsl fp
   11ae8:	00011c60 	andeq	r1, r1, r0, ror #24
   11aec:	00011c60 	andeq	r1, r1, r0, ror #24
   11af0:	00011bd8 	ldrdeq	r1, [r1], -r8
   11af4:	e3a03000 	mov	r3, #0
   11af8:	e59f01e0 	ldr	r0, [pc, #480]	; 11ce0 <printk_nommu+0x2cc>
   11afc:	e4c53001 	strb	r3, [r5], #1
   11b00:	ebfffdc6 	bl	11220 <serial_puts_nommu>
   11b04:	e0680005 	rsb	r0, r8, r5
   11b08:	e28dd018 	add	sp, sp, #24
   11b0c:	e8bd47f0 	pop	{r4, r5, r6, r7, r8, r9, sl, lr}
   11b10:	e28dd010 	add	sp, sp, #16
   11b14:	e12fff1e 	bx	lr
   11b18:	e59d0014 	ldr	r0, [sp, #20]
   11b1c:	e1a01006 	mov	r1, r6
   11b20:	e3a0200a 	mov	r2, #10
   11b24:	e2803004 	add	r3, r0, #4
   11b28:	e5900000 	ldr	r0, [r0]
   11b2c:	e58d3014 	str	r3, [sp, #20]
   11b30:	ebfffe70 	bl	114f8 <utoa>
   11b34:	e5d6a000 	ldrb	sl, [r6]
   11b38:	e35a0000 	cmp	sl, #0
   11b3c:	0a000004 	beq	11b54 <printk_nommu+0x140>
   11b40:	e1a0a006 	mov	sl, r6
   11b44:	e5fa3001 	ldrb	r3, [sl, #1]!
   11b48:	e3530000 	cmp	r3, #0
   11b4c:	1afffffc 	bne	11b44 <printk_nommu+0x130>
   11b50:	e066a00a 	rsb	sl, r6, sl
   11b54:	e1a0100a 	mov	r1, sl
   11b58:	e1a00006 	mov	r0, r6
   11b5c:	e1a02007 	mov	r2, r7
   11b60:	ebfffe93 	bl	115b4 <print_align>
   11b64:	e28d3003 	add	r3, sp, #3
   11b68:	e080000a 	add	r0, r0, sl
   11b6c:	e1a01005 	mov	r1, r5
   11b70:	e5f32001 	ldrb	r2, [r3, #1]!
   11b74:	e3520000 	cmp	r2, #0
   11b78:	e4c12001 	strb	r2, [r1], #1
   11b7c:	1afffffb 	bne	11b70 <printk_nommu+0x15c>
   11b80:	e0855000 	add	r5, r5, r0
   11b84:	eaffffb1 	b	11a50 <printk_nommu+0x3c>
   11b88:	e59d3014 	ldr	r3, [sp, #20]
   11b8c:	e1a01005 	mov	r1, r5
   11b90:	e2832004 	add	r2, r3, #4
   11b94:	e58d2014 	str	r2, [sp, #20]
   11b98:	e5930000 	ldr	r0, [r3]
   11b9c:	e2402001 	sub	r2, r0, #1
   11ba0:	e5f23001 	ldrb	r3, [r2, #1]!
   11ba4:	e3530000 	cmp	r3, #0
   11ba8:	e4c13001 	strb	r3, [r1], #1
   11bac:	1afffffb 	bne	11ba0 <printk_nommu+0x18c>
   11bb0:	e5d03000 	ldrb	r3, [r0]
   11bb4:	e3530000 	cmp	r3, #0
   11bb8:	0a000004 	beq	11bd0 <printk_nommu+0x1bc>
   11bbc:	e1a03000 	mov	r3, r0
   11bc0:	e5f32001 	ldrb	r2, [r3, #1]!
   11bc4:	e3520000 	cmp	r2, #0
   11bc8:	1afffffc 	bne	11bc0 <printk_nommu+0x1ac>
   11bcc:	e0603003 	rsb	r3, r0, r3
   11bd0:	e0855003 	add	r5, r5, r3
   11bd4:	eaffff9d 	b	11a50 <printk_nommu+0x3c>
   11bd8:	e59d0014 	ldr	r0, [sp, #20]
   11bdc:	e1a01006 	mov	r1, r6
   11be0:	e3a02010 	mov	r2, #16
   11be4:	e2803004 	add	r3, r0, #4
   11be8:	e5900000 	ldr	r0, [r0]
   11bec:	e58d3014 	str	r3, [sp, #20]
   11bf0:	ebfffe40 	bl	114f8 <utoa>
   11bf4:	e5d6a000 	ldrb	sl, [r6]
   11bf8:	e35a0000 	cmp	sl, #0
   11bfc:	0a000004 	beq	11c14 <printk_nommu+0x200>
   11c00:	e1a0a006 	mov	sl, r6
   11c04:	e5fa3001 	ldrb	r3, [sl, #1]!
   11c08:	e3530000 	cmp	r3, #0
   11c0c:	1afffffc 	bne	11c04 <printk_nommu+0x1f0>
   11c10:	e066a00a 	rsb	sl, r6, sl
   11c14:	e1a0100a 	mov	r1, sl
   11c18:	e1a00006 	mov	r0, r6
   11c1c:	e1a02007 	mov	r2, r7
   11c20:	ebfffe63 	bl	115b4 <print_align>
   11c24:	e28d3003 	add	r3, sp, #3
   11c28:	e080000a 	add	r0, r0, sl
   11c2c:	e1a01005 	mov	r1, r5
   11c30:	e5f32001 	ldrb	r2, [r3, #1]!
   11c34:	e3520000 	cmp	r2, #0
   11c38:	e4c12001 	strb	r2, [r1], #1
   11c3c:	1afffffb 	bne	11c30 <printk_nommu+0x21c>
   11c40:	e0855000 	add	r5, r5, r0
   11c44:	eaffff81 	b	11a50 <printk_nommu+0x3c>
   11c48:	e59d3014 	ldr	r3, [sp, #20]
   11c4c:	e5932000 	ldr	r2, [r3]
   11c50:	e2833004 	add	r3, r3, #4
   11c54:	e58d3014 	str	r3, [sp, #20]
   11c58:	e5c52000 	strb	r2, [r5]
   11c5c:	eaffff7b 	b	11a50 <printk_nommu+0x3c>
   11c60:	e5c59000 	strb	r9, [r5]
   11c64:	e5d43000 	ldrb	r3, [r4]
   11c68:	e5c53001 	strb	r3, [r5, #1]
   11c6c:	e2855002 	add	r5, r5, #2
   11c70:	eaffff76 	b	11a50 <printk_nommu+0x3c>
   11c74:	e59d2014 	ldr	r2, [sp, #20]
   11c78:	e1a01006 	mov	r1, r6
   11c7c:	e2823004 	add	r3, r2, #4
   11c80:	e5920000 	ldr	r0, [r2]
   11c84:	e58d3014 	str	r3, [sp, #20]
   11c88:	ebfffe73 	bl	1165c <itoa.constprop.0>
   11c8c:	e5d6a000 	ldrb	sl, [r6]
   11c90:	e35a0000 	cmp	sl, #0
   11c94:	0a000004 	beq	11cac <printk_nommu+0x298>
   11c98:	e1a0a006 	mov	sl, r6
   11c9c:	e5fa3001 	ldrb	r3, [sl, #1]!
   11ca0:	e3530000 	cmp	r3, #0
   11ca4:	1afffffc 	bne	11c9c <printk_nommu+0x288>
   11ca8:	e066a00a 	rsb	sl, r6, sl
   11cac:	e1a0100a 	mov	r1, sl
   11cb0:	e1a00006 	mov	r0, r6
   11cb4:	e1a02007 	mov	r2, r7
   11cb8:	ebfffe3d 	bl	115b4 <print_align>
   11cbc:	e28d3003 	add	r3, sp, #3
   11cc0:	e080000a 	add	r0, r0, sl
   11cc4:	e1a01005 	mov	r1, r5
   11cc8:	e5f32001 	ldrb	r2, [r3, #1]!
   11ccc:	e3520000 	cmp	r2, #0
   11cd0:	e4c12001 	strb	r2, [r1], #1
   11cd4:	1afffffb 	bne	11cc8 <printk_nommu+0x2b4>
   11cd8:	e0855000 	add	r5, r5, r0
   11cdc:	eaffff5b 	b	11a50 <printk_nommu+0x3c>
   11ce0:	00012e50 	andeq	r2, r1, r0, asr lr

00011ce4 <standby_delay>:
   11ce4:	e92d000f 	push	{r0, r1, r2, r3}
   11ce8:	e3a01011 	mov	r1, #17
   11cec:	e1a03000 	mov	r3, r0

00011cf0 <standby_delay_loop2>:
   11cf0:	e2500001 	subs	r0, r0, #1
   11cf4:	8afffffd 	bhi	11cf0 <standby_delay_loop2>
   11cf8:	e1a00003 	mov	r0, r3
   11cfc:	e2511001 	subs	r1, r1, #1
   11d00:	8afffffa 	bhi	11cf0 <standby_delay_loop2>
   11d04:	e8bd000f 	pop	{r0, r1, r2, r3}
   11d08:	e1a0f00e 	mov	pc, lr

00011d0c <standby_delay_cycle>:
   11d0c:	e2500001 	subs	r0, r0, #1
   11d10:	8afffffd 	bhi	11d0c <standby_delay_cycle>
   11d14:	e1a0f00e 	mov	pc, lr

00011d18 <Ldiv0>:
   11d18:	e52de008 	str	lr, [sp, #-8]!
   11d1c:	eb000067 	bl	11ec0 <__mem_div0>
   11d20:	e3a00000 	mov	r0, #0
   11d24:	e49df008 	ldr	pc, [sp], #8

00011d28 <__aeabi_uidiv>:
   11d28:	e2512001 	subs	r2, r1, #1
   11d2c:	01a0f00e 	moveq	pc, lr
   11d30:	3afffff8 	bcc	11d18 <Ldiv0>
   11d34:	e1500001 	cmp	r0, r1
   11d38:	9a00001a 	bls	11da8 <__aeabi_uidiv+0x80>
   11d3c:	e1110002 	tst	r1, r2
   11d40:	0a00001b 	beq	11db4 <__aeabi_uidiv+0x8c>
   11d44:	e16f3f11 	clz	r3, r1
   11d48:	e16f2f10 	clz	r2, r0
   11d4c:	e0432002 	sub	r2, r3, r2
   11d50:	e3a03001 	mov	r3, #1
   11d54:	e1a01211 	lsl	r1, r1, r2
   11d58:	e1a03213 	lsl	r3, r3, r2
   11d5c:	e3a02000 	mov	r2, #0
   11d60:	e1500001 	cmp	r0, r1
   11d64:	20400001 	subcs	r0, r0, r1
   11d68:	21822003 	orrcs	r2, r2, r3
   11d6c:	e15000a1 	cmp	r0, r1, lsr #1
   11d70:	204000a1 	subcs	r0, r0, r1, lsr #1
   11d74:	218220a3 	orrcs	r2, r2, r3, lsr #1
   11d78:	e1500121 	cmp	r0, r1, lsr #2
   11d7c:	20400121 	subcs	r0, r0, r1, lsr #2
   11d80:	21822123 	orrcs	r2, r2, r3, lsr #2
   11d84:	e15001a1 	cmp	r0, r1, lsr #3
   11d88:	204001a1 	subcs	r0, r0, r1, lsr #3
   11d8c:	218221a3 	orrcs	r2, r2, r3, lsr #3
   11d90:	e3500000 	cmp	r0, #0
   11d94:	11b03223 	lsrsne	r3, r3, #4
   11d98:	11a01221 	lsrne	r1, r1, #4
   11d9c:	1affffef 	bne	11d60 <__aeabi_uidiv+0x38>
   11da0:	e1a00002 	mov	r0, r2
   11da4:	e1a0f00e 	mov	pc, lr
   11da8:	03a00001 	moveq	r0, #1
   11dac:	13a00000 	movne	r0, #0
   11db0:	e1a0f00e 	mov	pc, lr
   11db4:	e16f2f11 	clz	r2, r1
   11db8:	e262201f 	rsb	r2, r2, #31
   11dbc:	e1a00230 	lsr	r0, r0, r2
   11dc0:	e1a0f00e 	mov	pc, lr

00011dc4 <__aeabi_idiv>:
   11dc4:	e3510000 	cmp	r1, #0
   11dc8:	e020c001 	eor	ip, r0, r1
   11dcc:	0affffd1 	beq	11d18 <Ldiv0>
   11dd0:	42611000 	rsbmi	r1, r1, #0
   11dd4:	e2512001 	subs	r2, r1, #1
   11dd8:	0a00001f 	beq	11e5c <__aeabi_idiv+0x98>
   11ddc:	e1b03000 	movs	r3, r0
   11de0:	42603000 	rsbmi	r3, r0, #0
   11de4:	e1530001 	cmp	r3, r1
   11de8:	9a00001e 	bls	11e68 <__aeabi_idiv+0xa4>
   11dec:	e1110002 	tst	r1, r2
   11df0:	0a000020 	beq	11e78 <__aeabi_idiv+0xb4>
   11df4:	e16f2f11 	clz	r2, r1
   11df8:	e16f0f13 	clz	r0, r3
   11dfc:	e0420000 	sub	r0, r2, r0
   11e00:	e3a02001 	mov	r2, #1
   11e04:	e1a01011 	lsl	r1, r1, r0
   11e08:	e1a02012 	lsl	r2, r2, r0
   11e0c:	e3a00000 	mov	r0, #0
   11e10:	e1530001 	cmp	r3, r1
   11e14:	20433001 	subcs	r3, r3, r1
   11e18:	21800002 	orrcs	r0, r0, r2
   11e1c:	e15300a1 	cmp	r3, r1, lsr #1
   11e20:	204330a1 	subcs	r3, r3, r1, lsr #1
   11e24:	218000a2 	orrcs	r0, r0, r2, lsr #1
   11e28:	e1530121 	cmp	r3, r1, lsr #2
   11e2c:	20433121 	subcs	r3, r3, r1, lsr #2
   11e30:	21800122 	orrcs	r0, r0, r2, lsr #2
   11e34:	e15301a1 	cmp	r3, r1, lsr #3
   11e38:	204331a1 	subcs	r3, r3, r1, lsr #3
   11e3c:	218001a2 	orrcs	r0, r0, r2, lsr #3
   11e40:	e3530000 	cmp	r3, #0
   11e44:	11b02222 	lsrsne	r2, r2, #4
   11e48:	11a01221 	lsrne	r1, r1, #4
   11e4c:	1affffef 	bne	11e10 <__aeabi_idiv+0x4c>
   11e50:	e35c0000 	cmp	ip, #0
   11e54:	42600000 	rsbmi	r0, r0, #0
   11e58:	e1a0f00e 	mov	pc, lr
   11e5c:	e13c0000 	teq	ip, r0
   11e60:	42600000 	rsbmi	r0, r0, #0
   11e64:	e1a0f00e 	mov	pc, lr
   11e68:	33a00000 	movcc	r0, #0
   11e6c:	01a00fcc 	asreq	r0, ip, #31
   11e70:	03800001 	orreq	r0, r0, #1
   11e74:	e1a0f00e 	mov	pc, lr
   11e78:	e16f2f11 	clz	r2, r1
   11e7c:	e262201f 	rsb	r2, r2, #31
   11e80:	e35c0000 	cmp	ip, #0
   11e84:	e1a00233 	lsr	r0, r3, r2
   11e88:	42600000 	rsbmi	r0, r0, #0
   11e8c:	e1a0f00e 	mov	pc, lr

00011e90 <__aeabi_uidivmod>:
   11e90:	e92d5003 	push	{r0, r1, ip, lr}
   11e94:	ebffffa3 	bl	11d28 <__aeabi_uidiv>
   11e98:	e8bd5006 	pop	{r1, r2, ip, lr}
   11e9c:	e0030290 	mul	r3, r0, r2
   11ea0:	e0411003 	sub	r1, r1, r3
   11ea4:	e1a0f00e 	mov	pc, lr

00011ea8 <__aeabi_idivmod>:
   11ea8:	e92d5003 	push	{r0, r1, ip, lr}
   11eac:	ebffffc4 	bl	11dc4 <__aeabi_idiv>
   11eb0:	e8bd5006 	pop	{r1, r2, ip, lr}
   11eb4:	e0030290 	mul	r3, r0, r2
   11eb8:	e0411003 	sub	r1, r1, r3
   11ebc:	e1a0f00e 	mov	pc, lr

00011ec0 <__mem_div0>:
   11ec0:	e3020d24 	movw	r0, #11556	; 0x2d24
   11ec4:	e3400001 	movt	r0, #1
   11ec8:	eafffe1d 	b	11744 <printk>

00011ecc <raw_lib_udiv>:
   11ecc:	e3510000 	cmp	r1, #0
   11ed0:	01a02001 	moveq	r2, r1
   11ed4:	0a00000d 	beq	11f10 <raw_lib_udiv+0x44>
   11ed8:	e3a03000 	mov	r3, #0
   11edc:	ba000002 	blt	11eec <raw_lib_udiv+0x20>
   11ee0:	e1b01081 	lsls	r1, r1, #1
   11ee4:	e2833001 	add	r3, r3, #1
   11ee8:	5afffffc 	bpl	11ee0 <raw_lib_udiv+0x14>
   11eec:	e3a02000 	mov	r2, #0
   11ef0:	e1a0c082 	lsl	ip, r2, #1
   11ef4:	e1500001 	cmp	r0, r1
   11ef8:	20610000 	rsbcs	r0, r1, r0
   11efc:	31a02082 	lslcc	r2, r2, #1
   11f00:	238c2001 	orrcs	r2, ip, #1
   11f04:	e1a010a1 	lsr	r1, r1, #1
   11f08:	e2533001 	subs	r3, r3, #1
   11f0c:	5afffff7 	bpl	11ef0 <raw_lib_udiv+0x24>
   11f10:	e1a00002 	mov	r0, r2
   11f14:	e12fff1e 	bx	lr

00011f18 <mem_int_init>:
   11f18:	e59f0080 	ldr	r0, [pc, #128]	; 11fa0 <mem_int_init+0x88>
   11f1c:	e3013184 	movw	r3, #4484	; 0x1184
   11f20:	e3a02d47 	mov	r2, #4544	; 0x11c0
   11f24:	e92d4010 	push	{r4, lr}
   11f28:	e3a0ca02 	mov	ip, #8192	; 0x2000
   11f2c:	e3a04a01 	mov	r4, #4096	; 0x1000
   11f30:	e34f31c4 	movt	r3, #61892	; 0xf1c4
   11f34:	e3e01000 	mvn	r1, #0
   11f38:	e34f21c4 	movt	r2, #61892	; 0xf1c4
   11f3c:	e34f41c4 	movt	r4, #61892	; 0xf1c4
   11f40:	e34fc1c4 	movt	ip, #61892	; 0xf1c4
   11f44:	e8801010 	stm	r0, {r4, ip}
   11f48:	e4831004 	str	r1, [r3], #4
   11f4c:	e1530002 	cmp	r3, r2
   11f50:	1afffffc 	bne	11f48 <mem_int_init+0x30>
   11f54:	e3013284 	movw	r3, #4740	; 0x1284
   11f58:	e3a02d4b 	mov	r2, #4800	; 0x12c0
   11f5c:	e34f31c4 	movt	r3, #61892	; 0xf1c4
   11f60:	e3e01000 	mvn	r1, #0
   11f64:	e34f21c4 	movt	r2, #61892	; 0xf1c4
   11f68:	e4831004 	str	r1, [r3], #4
   11f6c:	e1530002 	cmp	r3, r2
   11f70:	1afffffc 	bne	11f68 <mem_int_init+0x50>
   11f74:	e3a03a02 	mov	r3, #8192	; 0x2000
   11f78:	e30023ff 	movw	r2, #1023	; 0x3ff
   11f7c:	e34f31c4 	movt	r3, #61892	; 0xf1c4
   11f80:	e593100c 	ldr	r1, [r3, #12]
   11f84:	e1510002 	cmp	r1, r2
   11f88:	0a000002 	beq	11f98 <mem_int_init+0x80>
   11f8c:	e5831010 	str	r1, [r3, #16]
   11f90:	e59f000c 	ldr	r0, [pc, #12]	; 11fa4 <mem_int_init+0x8c>
   11f94:	ebfffdea 	bl	11744 <printk>
   11f98:	e3a00000 	mov	r0, #0
   11f9c:	e8bd8010 	pop	{r4, pc}
   11fa0:	00012f50 	andeq	r2, r1, r0, asr pc
   11fa4:	00012d40 	andeq	r2, r1, r0, asr #26

00011fa8 <mem_int_exit>:
   11fa8:	e3a02000 	mov	r2, #0
   11fac:	e24dd008 	sub	sp, sp, #8
   11fb0:	e1a03002 	mov	r3, r2
   11fb4:	e58d2004 	str	r2, [sp, #4]
   11fb8:	e59f2038 	ldr	r2, [pc, #56]	; 11ff8 <mem_int_exit+0x50>
   11fbc:	e5922000 	ldr	r2, [r2]
   11fc0:	e282cc01 	add	ip, r2, #256	; 0x100
   11fc4:	e2822d0a 	add	r2, r2, #640	; 0x280
   11fc8:	e79c1003 	ldr	r1, [ip, r3]
   11fcc:	e58d1004 	str	r1, [sp, #4]
   11fd0:	e7921003 	ldr	r1, [r2, r3]
   11fd4:	e59d0004 	ldr	r0, [sp, #4]
   11fd8:	e1c11000 	bic	r1, r1, r0
   11fdc:	e7821003 	str	r1, [r2, r3]
   11fe0:	e2833004 	add	r3, r3, #4
   11fe4:	e3530040 	cmp	r3, #64	; 0x40
   11fe8:	1afffff6 	bne	11fc8 <mem_int_exit+0x20>
   11fec:	e3a00000 	mov	r0, #0
   11ff0:	e28dd008 	add	sp, sp, #8
   11ff4:	e12fff1e 	bx	lr
   11ff8:	00012f50 	andeq	r2, r1, r0, asr pc

00011ffc <mem_enable_int>:
   11ffc:	e1a022a0 	lsr	r2, r0, #5
   12000:	e92d0030 	push	{r4, r5}
   12004:	e3023f50 	movw	r3, #12112	; 0x2f50
   12008:	e2822040 	add	r2, r2, #64	; 0x40
   1200c:	e3a0ca01 	mov	ip, #4096	; 0x1000
   12010:	e1a02102 	lsl	r2, r2, #2
   12014:	e3a01a02 	mov	r1, #8192	; 0x2000
   12018:	e3403001 	movt	r3, #1
   1201c:	e24226e3 	sub	r2, r2, #238026752	; 0xe300000
   12020:	e34fc1c4 	movt	ip, #61892	; 0xf1c4
   12024:	e2422abf 	sub	r2, r2, #782336	; 0xbf000
   12028:	e34f11c4 	movt	r1, #61892	; 0xf1c4
   1202c:	e5924000 	ldr	r4, [r2]
   12030:	e200501f 	and	r5, r0, #31
   12034:	e583c000 	str	ip, [r3]
   12038:	e3a00000 	mov	r0, #0
   1203c:	e5831004 	str	r1, [r3, #4]
   12040:	e3a03001 	mov	r3, #1
   12044:	e1843513 	orr	r3, r4, r3, lsl r5
   12048:	e5823000 	str	r3, [r2]
   1204c:	e8bd0030 	pop	{r4, r5}
   12050:	e12fff1e 	bx	lr

00012054 <mem_query_int>:
   12054:	e1a0c2a0 	lsr	ip, r0, #5
   12058:	e59f3040 	ldr	r3, [pc, #64]	; 120a0 <mem_query_int+0x4c>
   1205c:	e3a01a01 	mov	r1, #4096	; 0x1000
   12060:	e28cc080 	add	ip, ip, #128	; 0x80
   12064:	e34f11c4 	movt	r1, #61892	; 0xf1c4
   12068:	e1a0c10c 	lsl	ip, ip, #2
   1206c:	e5831000 	str	r1, [r3]
   12070:	e3a02a02 	mov	r2, #8192	; 0x2000
   12074:	e24cc6e3 	sub	ip, ip, #238026752	; 0xe300000
   12078:	e34f21c4 	movt	r2, #61892	; 0xf1c4
   1207c:	e24ccabf 	sub	ip, ip, #782336	; 0xbf000
   12080:	e200001f 	and	r0, r0, #31
   12084:	e59c1000 	ldr	r1, [ip]
   12088:	e5832004 	str	r2, [r3, #4]
   1208c:	e3a03001 	mov	r3, #1
   12090:	e0113013 	ands	r3, r1, r3, lsl r0
   12094:	03e00000 	mvneq	r0, #0
   12098:	13a00000 	movne	r0, #0
   1209c:	e12fff1e 	bx	lr
   120a0:	00012f50 	andeq	r2, r1, r0, asr pc

000120a4 <mem_tmr_save>:
   120a4:	e3a024f6 	mov	r2, #-167772160	; 0xf6000000
   120a8:	e52d4004 	push	{r4}		; (str r4, [sp, #-4]!)
   120ac:	e5924c00 	ldr	r4, [r2, #3072]	; 0xc00
   120b0:	e1a03000 	mov	r3, r0
   120b4:	e3021f58 	movw	r1, #12120	; 0x2f58
   120b8:	e3a0cb03 	mov	ip, #3072	; 0xc00
   120bc:	e3401001 	movt	r1, #1
   120c0:	e34fc600 	movt	ip, #62976	; 0xf600
   120c4:	e5834000 	str	r4, [r3]
   120c8:	e3a00000 	mov	r0, #0
   120cc:	e5924c10 	ldr	r4, [r2, #3088]	; 0xc10
   120d0:	e581c000 	str	ip, [r1]
   120d4:	e5834010 	str	r4, [r3, #16]
   120d8:	e5921c14 	ldr	r1, [r2, #3092]	; 0xc14
   120dc:	e5831014 	str	r1, [r3, #20]
   120e0:	e5921c18 	ldr	r1, [r2, #3096]	; 0xc18
   120e4:	e5831018 	str	r1, [r3, #24]
   120e8:	e5921c20 	ldr	r1, [r2, #3104]	; 0xc20
   120ec:	e5831020 	str	r1, [r3, #32]
   120f0:	e5921c24 	ldr	r1, [r2, #3108]	; 0xc24
   120f4:	e5831024 	str	r1, [r3, #36]	; 0x24
   120f8:	e5922c28 	ldr	r2, [r2, #3112]	; 0xc28
   120fc:	e5832028 	str	r2, [r3, #40]	; 0x28
   12100:	e8bd0010 	pop	{r4}
   12104:	e12fff1e 	bx	lr

00012108 <mem_tmr_restore>:
   12108:	e3023f58 	movw	r3, #12120	; 0x2f58
   1210c:	e5901014 	ldr	r1, [r0, #20]
   12110:	e3403001 	movt	r3, #1
   12114:	e1a02000 	mov	r2, r0
   12118:	e5933000 	ldr	r3, [r3]
   1211c:	e3a00000 	mov	r0, #0
   12120:	e5831014 	str	r1, [r3, #20]
   12124:	e5921018 	ldr	r1, [r2, #24]
   12128:	e5831018 	str	r1, [r3, #24]
   1212c:	e5921010 	ldr	r1, [r2, #16]
   12130:	e5831010 	str	r1, [r3, #16]
   12134:	e5921024 	ldr	r1, [r2, #36]	; 0x24
   12138:	e5831024 	str	r1, [r3, #36]	; 0x24
   1213c:	e5921028 	ldr	r1, [r2, #40]	; 0x28
   12140:	e5831028 	str	r1, [r3, #40]	; 0x28
   12144:	e5921020 	ldr	r1, [r2, #32]
   12148:	e5831020 	str	r1, [r3, #32]
   1214c:	e5922000 	ldr	r2, [r2]
   12150:	e5832000 	str	r2, [r3]
   12154:	e12fff1e 	bx	lr

00012158 <mem_tmr_init>:
   12158:	e3a024f6 	mov	r2, #-167772160	; 0xf6000000
   1215c:	e3023f58 	movw	r3, #12120	; 0x2f58
   12160:	e592ccb4 	ldr	ip, [r2, #3252]	; 0xcb4
   12164:	e3403001 	movt	r3, #1
   12168:	e3a01b03 	mov	r1, #3072	; 0xc00
   1216c:	e3a00000 	mov	r0, #0
   12170:	e34f1600 	movt	r1, #62976	; 0xf600
   12174:	e583c004 	str	ip, [r3, #4]
   12178:	e592ccb8 	ldr	ip, [r2, #3256]	; 0xcb8
   1217c:	e5831000 	str	r1, [r3]
   12180:	e583c008 	str	ip, [r3, #8]
   12184:	e5922ca0 	ldr	r2, [r2, #3232]	; 0xca0
   12188:	e583200c 	str	r2, [r3, #12]
   1218c:	e12fff1e 	bx	lr

00012190 <mem_tmr_exit>:
   12190:	e3023f58 	movw	r3, #12120	; 0x2f58
   12194:	e3a00000 	mov	r0, #0
   12198:	e3403001 	movt	r3, #1
   1219c:	e8931004 	ldm	r3, {r2, ip}
   121a0:	e5931008 	ldr	r1, [r3, #8]
   121a4:	e593300c 	ldr	r3, [r3, #12]
   121a8:	e582c0b4 	str	ip, [r2, #180]	; 0xb4
   121ac:	e58210b8 	str	r1, [r2, #184]	; 0xb8
   121b0:	e58230a0 	str	r3, [r2, #160]	; 0xa0
   121b4:	e12fff1e 	bx	lr

000121b8 <mem_tmr_enable_watchdog>:
   121b8:	e3023f58 	movw	r3, #12120	; 0x2f58
   121bc:	e3403001 	movt	r3, #1
   121c0:	e5933000 	ldr	r3, [r3]
   121c4:	e59320b4 	ldr	r2, [r3, #180]	; 0xb4
   121c8:	e3c22003 	bic	r2, r2, #3
   121cc:	e58320b4 	str	r2, [r3, #180]	; 0xb4
   121d0:	e59320b4 	ldr	r2, [r3, #180]	; 0xb4
   121d4:	e3822001 	orr	r2, r2, #1
   121d8:	e58320b4 	str	r2, [r3, #180]	; 0xb4
   121dc:	e3a020b0 	mov	r2, #176	; 0xb0
   121e0:	e58320b8 	str	r2, [r3, #184]	; 0xb8
   121e4:	e59320a0 	ldr	r2, [r3, #160]	; 0xa0
   121e8:	e3822001 	orr	r2, r2, #1
   121ec:	e58320a0 	str	r2, [r3, #160]	; 0xa0
   121f0:	e59320b8 	ldr	r2, [r3, #184]	; 0xb8
   121f4:	e3822001 	orr	r2, r2, #1
   121f8:	e58320b8 	str	r2, [r3, #184]	; 0xb8
   121fc:	e12fff1e 	bx	lr

00012200 <mem_tmr_disable_watchdog>:
   12200:	e3023f58 	movw	r3, #12120	; 0x2f58
   12204:	e3403001 	movt	r3, #1
   12208:	e5933000 	ldr	r3, [r3]
   1220c:	e59320b4 	ldr	r2, [r3, #180]	; 0xb4
   12210:	e3c22003 	bic	r2, r2, #3
   12214:	e58320b4 	str	r2, [r3, #180]	; 0xb4
   12218:	e59320b4 	ldr	r2, [r3, #180]	; 0xb4
   1221c:	e3822002 	orr	r2, r2, #2
   12220:	e58320b4 	str	r2, [r3, #180]	; 0xb4
   12224:	e59320a0 	ldr	r2, [r3, #160]	; 0xa0
   12228:	e3c22001 	bic	r2, r2, #1
   1222c:	e58320a0 	str	r2, [r3, #160]	; 0xa0
   12230:	e59320b8 	ldr	r2, [r3, #184]	; 0xb8
   12234:	e3c22001 	bic	r2, r2, #1
   12238:	e58320b8 	str	r2, [r3, #184]	; 0xb8
   1223c:	e12fff1e 	bx	lr

00012240 <mem_tmstmp_save>:
   12240:	e3a03000 	mov	r3, #0
   12244:	e1a02000 	mov	r2, r0
   12248:	e34f3172 	movt	r3, #61810	; 0xf172
   1224c:	e3020f68 	movw	r0, #12136	; 0x2f68
   12250:	e5931000 	ldr	r1, [r3]
   12254:	e3400001 	movt	r0, #1
   12258:	e5803000 	str	r3, [r0]
   1225c:	e3a00000 	mov	r0, #0
   12260:	e5821000 	str	r1, [r2]
   12264:	e5933020 	ldr	r3, [r3, #32]
   12268:	e5823020 	str	r3, [r2, #32]
   1226c:	e12fff1e 	bx	lr

00012270 <mem_tmstmp_restore>:
   12270:	e3023f68 	movw	r3, #12136	; 0x2f68
   12274:	e5901000 	ldr	r1, [r0]
   12278:	e3403001 	movt	r3, #1
   1227c:	e1a02000 	mov	r2, r0
   12280:	e5933000 	ldr	r3, [r3]
   12284:	e3a00000 	mov	r0, #0
   12288:	e5831000 	str	r1, [r3]
   1228c:	e5922020 	ldr	r2, [r2, #32]
   12290:	e5832020 	str	r2, [r3, #32]
   12294:	e12fff1e 	bx	lr

00012298 <hwspinlock_init>:
   12298:	e3500001 	cmp	r0, #1
   1229c:	e3a00000 	mov	r0, #0
   122a0:	03a034f6 	moveq	r3, #-167772160	; 0xf6000000
   122a4:	13a03406 	movne	r3, #100663296	; 0x6000000
   122a8:	e59325a4 	ldr	r2, [r3, #1444]	; 0x5a4
   122ac:	e3822501 	orr	r2, r2, #4194304	; 0x400000
   122b0:	e58325a4 	str	r2, [r3, #1444]	; 0x5a4
   122b4:	e5932584 	ldr	r2, [r3, #1412]	; 0x584
   122b8:	e3822501 	orr	r2, r2, #4194304	; 0x400000
   122bc:	e5832584 	str	r2, [r3, #1412]	; 0x584
   122c0:	e12fff1e 	bx	lr

000122c4 <hwspin_lock_timeout>:
   122c4:	e92d4008 	push	{r3, lr}
   122c8:	e10fc000 	mrs	ip, CPSR
   122cc:	f10c0080 	cpsid	i
   122d0:	e3a02d41 	mov	r2, #4160	; 0x1040
   122d4:	e3432c20 	movt	r2, #15392	; 0x3c20
   122d8:	e59f3058 	ldr	r3, [pc, #88]	; 12338 <hwspin_lock_timeout+0x74>
   122dc:	e0802002 	add	r2, r0, r2
   122e0:	e1a02102 	lsl	r2, r2, #2
   122e4:	e583c000 	str	ip, [r3]
   122e8:	e5923000 	ldr	r3, [r2]
   122ec:	e3530001 	cmp	r3, #1
   122f0:	1a00000e 	bne	12330 <hwspin_lock_timeout+0x6c>
   122f4:	e1b01501 	lsls	r1, r1, #10
   122f8:	1a000002 	bne	12308 <hwspin_lock_timeout+0x44>
   122fc:	ea000006 	b	1231c <hwspin_lock_timeout+0x58>
   12300:	e2511001 	subs	r1, r1, #1
   12304:	0a000004 	beq	1231c <hwspin_lock_timeout+0x58>
   12308:	e5923000 	ldr	r3, [r2]
   1230c:	e3530001 	cmp	r3, #1
   12310:	0afffffa 	beq	12300 <hwspin_lock_timeout+0x3c>
   12314:	e3a00000 	mov	r0, #0
   12318:	e8bd8008 	pop	{r3, pc}
   1231c:	e121f00c 	msr	CPSR_c, ip
   12320:	e59f0014 	ldr	r0, [pc, #20]	; 1233c <hwspin_lock_timeout+0x78>
   12324:	ebfffd06 	bl	11744 <printk>
   12328:	e3e00000 	mvn	r0, #0
   1232c:	e8bd8008 	pop	{r3, pc}
   12330:	e3a00000 	mov	r0, #0
   12334:	e8bd8008 	pop	{r3, pc}
   12338:	00012f6c 	andeq	r2, r1, ip, ror #30
   1233c:	00012d5c 	andeq	r2, r1, ip, asr sp

00012340 <hwspin_unlock>:
   12340:	e3a03d41 	mov	r3, #4160	; 0x1040
   12344:	e3022f6c 	movw	r2, #12140	; 0x2f6c
   12348:	e3433c20 	movt	r3, #15392	; 0x3c20
   1234c:	e3a01000 	mov	r1, #0
   12350:	e0803003 	add	r3, r0, r3
   12354:	e3402001 	movt	r2, #1
   12358:	e1a03103 	lsl	r3, r3, #2
   1235c:	e5922000 	ldr	r2, [r2]
   12360:	e5831000 	str	r1, [r3]
   12364:	e121f002 	msr	CPSR_c, r2
   12368:	e1a00001 	mov	r0, r1
   1236c:	e12fff1e 	bx	lr

00012370 <hwspin_lock_timeout_nommu>:
   12370:	e10f2000 	mrs	r2, CPSR
   12374:	f10c0080 	cpsid	i
   12378:	e2800602 	add	r0, r0, #2097152	; 0x200000
   1237c:	e59f3050 	ldr	r3, [pc, #80]	; 123d4 <hwspin_lock_timeout_nommu+0x64>
   12380:	e2800d41 	add	r0, r0, #4160	; 0x1040
   12384:	e1a00100 	lsl	r0, r0, #2
   12388:	e5832000 	str	r2, [r3]
   1238c:	e5903000 	ldr	r3, [r0]
   12390:	e3530001 	cmp	r3, #1
   12394:	1a00000c 	bne	123cc <hwspin_lock_timeout_nommu+0x5c>
   12398:	e1b01501 	lsls	r1, r1, #10
   1239c:	1a000002 	bne	123ac <hwspin_lock_timeout_nommu+0x3c>
   123a0:	ea000006 	b	123c0 <hwspin_lock_timeout_nommu+0x50>
   123a4:	e2511001 	subs	r1, r1, #1
   123a8:	0a000004 	beq	123c0 <hwspin_lock_timeout_nommu+0x50>
   123ac:	e5903000 	ldr	r3, [r0]
   123b0:	e3530001 	cmp	r3, #1
   123b4:	0afffffa 	beq	123a4 <hwspin_lock_timeout_nommu+0x34>
   123b8:	e3a00000 	mov	r0, #0
   123bc:	e12fff1e 	bx	lr
   123c0:	e121f002 	msr	CPSR_c, r2
   123c4:	e3e00000 	mvn	r0, #0
   123c8:	e12fff1e 	bx	lr
   123cc:	e3a00000 	mov	r0, #0
   123d0:	e12fff1e 	bx	lr
   123d4:	00012f6c 	andeq	r2, r1, ip, ror #30

000123d8 <hwspin_unlock_nommu>:
   123d8:	e2802602 	add	r2, r0, #2097152	; 0x200000
   123dc:	e3023f6c 	movw	r3, #12140	; 0x2f6c
   123e0:	e2822d41 	add	r2, r2, #4160	; 0x1040
   123e4:	e3a00000 	mov	r0, #0
   123e8:	e1a02102 	lsl	r2, r2, #2
   123ec:	e3403001 	movt	r3, #1
   123f0:	e5933000 	ldr	r3, [r3]
   123f4:	e5820000 	str	r0, [r2]
   123f8:	e121f003 	msr	CPSR_c, r3
   123fc:	e12fff1e 	bx	lr

00012400 <mem_clk_init>:
   12400:	e3500001 	cmp	r0, #1
   12404:	059f201c 	ldreq	r2, [pc, #28]	; 12428 <mem_clk_init+0x28>
   12408:	03a034f6 	moveq	r3, #-167772160	; 0xf6000000
   1240c:	159f2014 	ldrne	r2, [pc, #20]	; 12428 <mem_clk_init+0x28>
   12410:	13a03406 	movne	r3, #100663296	; 0x6000000
   12414:	01a00003 	moveq	r0, r3
   12418:	11a00003 	movne	r0, r3
   1241c:	05823000 	streq	r3, [r2]
   12420:	15823000 	strne	r3, [r2]
   12424:	e12fff1e 	bx	lr
   12428:	00012f70 	andeq	r2, r1, r0, ror pc

0001242c <mem_get_ba>:
   1242c:	e3023f70 	movw	r3, #12144	; 0x2f70
   12430:	e3403001 	movt	r3, #1
   12434:	e5930000 	ldr	r0, [r3]
   12438:	e12fff1e 	bx	lr

0001243c <mem_clk_save>:
   1243c:	e3a01b01 	mov	r1, #1024	; 0x400
   12440:	e1a03000 	mov	r3, r0
   12444:	e3a024f6 	mov	r2, #-167772160	; 0xf6000000
   12448:	e34f1600 	movt	r1, #62976	; 0xf600
   1244c:	e5802000 	str	r2, [r0]
   12450:	e3a00000 	mov	r0, #0
   12454:	e5831188 	str	r1, [r3, #392]	; 0x188
   12458:	e59210a4 	ldr	r1, [r2, #164]	; 0xa4
   1245c:	e58310a8 	str	r1, [r3, #168]	; 0xa8
   12460:	e59210a8 	ldr	r1, [r2, #168]	; 0xa8
   12464:	e58310ac 	str	r1, [r3, #172]	; 0xac
   12468:	e59210ac 	ldr	r1, [r2, #172]	; 0xac
   1246c:	e58310b0 	str	r1, [r3, #176]	; 0xb0
   12470:	e59210b0 	ldr	r1, [r2, #176]	; 0xb0
   12474:	e58310b4 	str	r1, [r3, #180]	; 0xb4
   12478:	e59210b8 	ldr	r1, [r2, #184]	; 0xb8
   1247c:	e58310bc 	str	r1, [r3, #188]	; 0xbc
   12480:	e59210bc 	ldr	r1, [r2, #188]	; 0xbc
   12484:	e58310c0 	str	r1, [r3, #192]	; 0xc0
   12488:	e59210c0 	ldr	r1, [r2, #192]	; 0xc0
   1248c:	e58310c4 	str	r1, [r3, #196]	; 0xc4
   12490:	e59210c4 	ldr	r1, [r2, #196]	; 0xc4
   12494:	e58310c8 	str	r1, [r3, #200]	; 0xc8
   12498:	e59210c8 	ldr	r1, [r2, #200]	; 0xc8
   1249c:	e58310cc 	str	r1, [r3, #204]	; 0xcc
   124a0:	e59210cc 	ldr	r1, [r2, #204]	; 0xcc
   124a4:	e58310d0 	str	r1, [r3, #208]	; 0xd0
   124a8:	e59210e4 	ldr	r1, [r2, #228]	; 0xe4
   124ac:	e58310e8 	str	r1, [r3, #232]	; 0xe8
   124b0:	e5921104 	ldr	r1, [r2, #260]	; 0x104
   124b4:	e5831108 	str	r1, [r3, #264]	; 0x108
   124b8:	e5921108 	ldr	r1, [r2, #264]	; 0x108
   124bc:	e583110c 	str	r1, [r3, #268]	; 0x10c
   124c0:	e592110c 	ldr	r1, [r2, #268]	; 0x10c
   124c4:	e5831110 	str	r1, [r3, #272]	; 0x110
   124c8:	e5921114 	ldr	r1, [r2, #276]	; 0x114
   124cc:	e5831118 	str	r1, [r3, #280]	; 0x118
   124d0:	e5921118 	ldr	r1, [r2, #280]	; 0x118
   124d4:	e583111c 	str	r1, [r3, #284]	; 0x11c
   124d8:	e592111c 	ldr	r1, [r2, #284]	; 0x11c
   124dc:	e5831120 	str	r1, [r3, #288]	; 0x120
   124e0:	e5921120 	ldr	r1, [r2, #288]	; 0x120
   124e4:	e5831124 	str	r1, [r3, #292]	; 0x124
   124e8:	e5921124 	ldr	r1, [r2, #292]	; 0x124
   124ec:	e5831128 	str	r1, [r3, #296]	; 0x128
   124f0:	e5921128 	ldr	r1, [r2, #296]	; 0x128
   124f4:	e583112c 	str	r1, [r3, #300]	; 0x12c
   124f8:	e5921004 	ldr	r1, [r2, #4]
   124fc:	e5831008 	str	r1, [r3, #8]
   12500:	e5921008 	ldr	r1, [r2, #8]
   12504:	e583100c 	str	r1, [r3, #12]
   12508:	e592100c 	ldr	r1, [r2, #12]
   1250c:	e5831010 	str	r1, [r3, #16]
   12510:	e5921010 	ldr	r1, [r2, #16]
   12514:	e5831014 	str	r1, [r3, #20]
   12518:	e5921018 	ldr	r1, [r2, #24]
   1251c:	e583101c 	str	r1, [r3, #28]
   12520:	e592101c 	ldr	r1, [r2, #28]
   12524:	e5831020 	str	r1, [r3, #32]
   12528:	e5921020 	ldr	r1, [r2, #32]
   1252c:	e5831024 	str	r1, [r3, #36]	; 0x24
   12530:	e5921024 	ldr	r1, [r2, #36]	; 0x24
   12534:	e5831028 	str	r1, [r3, #40]	; 0x28
   12538:	e5921028 	ldr	r1, [r2, #40]	; 0x28
   1253c:	e583102c 	str	r1, [r3, #44]	; 0x2c
   12540:	e592102c 	ldr	r1, [r2, #44]	; 0x2c
   12544:	e5831030 	str	r1, [r3, #48]	; 0x30
   12548:	e5921050 	ldr	r1, [r2, #80]	; 0x50
   1254c:	e5831054 	str	r1, [r3, #84]	; 0x54
   12550:	e5921054 	ldr	r1, [r2, #84]	; 0x54
   12554:	e5831058 	str	r1, [r3, #88]	; 0x58
   12558:	e5921058 	ldr	r1, [r2, #88]	; 0x58
   1255c:	e583105c 	str	r1, [r3, #92]	; 0x5c
   12560:	e5921060 	ldr	r1, [r2, #96]	; 0x60
   12564:	e5831064 	str	r1, [r3, #100]	; 0x64
   12568:	e5921064 	ldr	r1, [r2, #100]	; 0x64
   1256c:	e5831068 	str	r1, [r3, #104]	; 0x68
   12570:	e5921068 	ldr	r1, [r2, #104]	; 0x68
   12574:	e583106c 	str	r1, [r3, #108]	; 0x6c
   12578:	e5921070 	ldr	r1, [r2, #112]	; 0x70
   1257c:	e5831074 	str	r1, [r3, #116]	; 0x74
   12580:	e5921074 	ldr	r1, [r2, #116]	; 0x74
   12584:	e5831078 	str	r1, [r3, #120]	; 0x78
   12588:	e5921080 	ldr	r1, [r2, #128]	; 0x80
   1258c:	e5831084 	str	r1, [r3, #132]	; 0x84
   12590:	e5921084 	ldr	r1, [r2, #132]	; 0x84
   12594:	e5831088 	str	r1, [r3, #136]	; 0x88
   12598:	e5921090 	ldr	r1, [r2, #144]	; 0x90
   1259c:	e5831094 	str	r1, [r3, #148]	; 0x94
   125a0:	e5921094 	ldr	r1, [r2, #148]	; 0x94
   125a4:	e5831098 	str	r1, [r3, #152]	; 0x98
   125a8:	e592109c 	ldr	r1, [r2, #156]	; 0x9c
   125ac:	e58310a0 	str	r1, [r3, #160]	; 0xa0
   125b0:	e592117c 	ldr	r1, [r2, #380]	; 0x17c
   125b4:	e5831180 	str	r1, [r3, #384]	; 0x180
   125b8:	e5921180 	ldr	r1, [r2, #384]	; 0x180
   125bc:	e5831184 	str	r1, [r3, #388]	; 0x184
   125c0:	e5921078 	ldr	r1, [r2, #120]	; 0x78
   125c4:	e583107c 	str	r1, [r3, #124]	; 0x7c
   125c8:	e592205c 	ldr	r2, [r2, #92]	; 0x5c
   125cc:	e5832060 	str	r2, [r3, #96]	; 0x60
   125d0:	e12fff1e 	bx	lr

000125d4 <mem_clk_restore>:
   125d4:	e92d41f0 	push	{r4, r5, r6, r7, r8, lr}
   125d8:	e1a04000 	mov	r4, r0
   125dc:	e3a000a0 	mov	r0, #160	; 0xa0
   125e0:	ebfff780 	bl	103e8 <save_mem_status>
   125e4:	ebfff830 	bl	106ac <change_runtime_env>
   125e8:	e59420ac 	ldr	r2, [r4, #172]	; 0xac
   125ec:	e3a000a2 	mov	r0, #162	; 0xa2
   125f0:	e5943000 	ldr	r3, [r4]
   125f4:	e58320a8 	str	r2, [r3, #168]	; 0xa8
   125f8:	e59420b0 	ldr	r2, [r4, #176]	; 0xb0
   125fc:	e5943000 	ldr	r3, [r4]
   12600:	e58320ac 	str	r2, [r3, #172]	; 0xac
   12604:	e59420b4 	ldr	r2, [r4, #180]	; 0xb4
   12608:	e5943000 	ldr	r3, [r4]
   1260c:	e58320b0 	str	r2, [r3, #176]	; 0xb0
   12610:	e59420c4 	ldr	r2, [r4, #196]	; 0xc4
   12614:	e5943000 	ldr	r3, [r4]
   12618:	e58320c0 	str	r2, [r3, #192]	; 0xc0
   1261c:	e59420c8 	ldr	r2, [r4, #200]	; 0xc8
   12620:	e5943000 	ldr	r3, [r4]
   12624:	e58320c4 	str	r2, [r3, #196]	; 0xc4
   12628:	e59420cc 	ldr	r2, [r4, #204]	; 0xcc
   1262c:	e5943000 	ldr	r3, [r4]
   12630:	e58320c8 	str	r2, [r3, #200]	; 0xc8
   12634:	e5943000 	ldr	r3, [r4]
   12638:	e59420d0 	ldr	r2, [r4, #208]	; 0xd0
   1263c:	e58320cc 	str	r2, [r3, #204]	; 0xcc
   12640:	ebfff768 	bl	103e8 <save_mem_status>
   12644:	e5942108 	ldr	r2, [r4, #264]	; 0x108
   12648:	e3a000a4 	mov	r0, #164	; 0xa4
   1264c:	e5943000 	ldr	r3, [r4]
   12650:	e5832104 	str	r2, [r3, #260]	; 0x104
   12654:	e594210c 	ldr	r2, [r4, #268]	; 0x10c
   12658:	e5943000 	ldr	r3, [r4]
   1265c:	e5832108 	str	r2, [r3, #264]	; 0x108
   12660:	e5942110 	ldr	r2, [r4, #272]	; 0x110
   12664:	e583210c 	str	r2, [r3, #268]	; 0x10c
   12668:	e5942120 	ldr	r2, [r4, #288]	; 0x120
   1266c:	e5943000 	ldr	r3, [r4]
   12670:	e583211c 	str	r2, [r3, #284]	; 0x11c
   12674:	e5942124 	ldr	r2, [r4, #292]	; 0x124
   12678:	e5943000 	ldr	r3, [r4]
   1267c:	e5832120 	str	r2, [r3, #288]	; 0x120
   12680:	e5942128 	ldr	r2, [r4, #296]	; 0x128
   12684:	e5943000 	ldr	r3, [r4]
   12688:	e5832124 	str	r2, [r3, #292]	; 0x124
   1268c:	e5943000 	ldr	r3, [r4]
   12690:	e594212c 	ldr	r2, [r4, #300]	; 0x12c
   12694:	e5832128 	str	r2, [r3, #296]	; 0x128
   12698:	ebfff752 	bl	103e8 <save_mem_status>
   1269c:	e3a0000a 	mov	r0, #10
   126a0:	ebfff80b 	bl	106d4 <delay_us>
   126a4:	e5943000 	ldr	r3, [r4]
   126a8:	e3a0000a 	mov	r0, #10
   126ac:	e594200c 	ldr	r2, [r4, #12]
   126b0:	e5832008 	str	r2, [r3, #8]
   126b4:	ebfff806 	bl	106d4 <delay_us>
   126b8:	e5943000 	ldr	r3, [r4]
   126bc:	e3a0000a 	mov	r0, #10
   126c0:	e5942010 	ldr	r2, [r4, #16]
   126c4:	e583200c 	str	r2, [r3, #12]
   126c8:	ebfff801 	bl	106d4 <delay_us>
   126cc:	e5943000 	ldr	r3, [r4]
   126d0:	e3a0000a 	mov	r0, #10
   126d4:	e5942014 	ldr	r2, [r4, #20]
   126d8:	e5832010 	str	r2, [r3, #16]
   126dc:	ebfff7fc 	bl	106d4 <delay_us>
   126e0:	e5943000 	ldr	r3, [r4]
   126e4:	e3a0000a 	mov	r0, #10
   126e8:	e5942024 	ldr	r2, [r4, #36]	; 0x24
   126ec:	e5832020 	str	r2, [r3, #32]
   126f0:	ebfff7f7 	bl	106d4 <delay_us>
   126f4:	e5943000 	ldr	r3, [r4]
   126f8:	e3a0000a 	mov	r0, #10
   126fc:	e5942028 	ldr	r2, [r4, #40]	; 0x28
   12700:	e5832024 	str	r2, [r3, #36]	; 0x24
   12704:	ebfff7f2 	bl	106d4 <delay_us>
   12708:	e5943000 	ldr	r3, [r4]
   1270c:	e3a0000a 	mov	r0, #10
   12710:	e594202c 	ldr	r2, [r4, #44]	; 0x2c
   12714:	e5832028 	str	r2, [r3, #40]	; 0x28
   12718:	ebfff7ed 	bl	106d4 <delay_us>
   1271c:	e5942000 	ldr	r2, [r4]
   12720:	e3a03b05 	mov	r3, #5120	; 0x1400
   12724:	e3483004 	movt	r3, #32772	; 0x8004
   12728:	e3a0000a 	mov	r0, #10
   1272c:	e582302c 	str	r3, [r2, #44]	; 0x2c
   12730:	ebfff7e7 	bl	106d4 <delay_us>
   12734:	e3a000a5 	mov	r0, #165	; 0xa5
   12738:	ebfff72a 	bl	103e8 <save_mem_status>
   1273c:	e5943000 	ldr	r3, [r4]
   12740:	e3a0000a 	mov	r0, #10
   12744:	e5942054 	ldr	r2, [r4, #84]	; 0x54
   12748:	e5832050 	str	r2, [r3, #80]	; 0x50
   1274c:	ebfff7e0 	bl	106d4 <delay_us>
   12750:	e5943000 	ldr	r3, [r4]
   12754:	e3a0000a 	mov	r0, #10
   12758:	e5942058 	ldr	r2, [r4, #88]	; 0x58
   1275c:	e5832054 	str	r2, [r3, #84]	; 0x54
   12760:	ebfff7db 	bl	106d4 <delay_us>
   12764:	e5943000 	ldr	r3, [r4]
   12768:	e3a000c8 	mov	r0, #200	; 0xc8
   1276c:	e594205c 	ldr	r2, [r4, #92]	; 0x5c
   12770:	e5832058 	str	r2, [r3, #88]	; 0x58
   12774:	ebfff7d6 	bl	106d4 <delay_us>
   12778:	e5942060 	ldr	r2, [r4, #96]	; 0x60
   1277c:	e3a0000a 	mov	r0, #10
   12780:	e5943000 	ldr	r3, [r4]
   12784:	e2022403 	and	r2, r2, #50331648	; 0x3000000
   12788:	e583205c 	str	r2, [r3, #92]	; 0x5c
   1278c:	ebfff7d0 	bl	106d4 <delay_us>
   12790:	e3a000a6 	mov	r0, #166	; 0xa6
   12794:	ebfff713 	bl	103e8 <save_mem_status>
   12798:	e5942064 	ldr	r2, [r4, #100]	; 0x64
   1279c:	e3a0000a 	mov	r0, #10
   127a0:	e5943000 	ldr	r3, [r4]
   127a4:	e3c22403 	bic	r2, r2, #50331648	; 0x3000000
   127a8:	e5832060 	str	r2, [r3, #96]	; 0x60
   127ac:	ebfff7c8 	bl	106d4 <delay_us>
   127b0:	e5943000 	ldr	r3, [r4]
   127b4:	e3a0000a 	mov	r0, #10
   127b8:	e5942064 	ldr	r2, [r4, #100]	; 0x64
   127bc:	e5832060 	str	r2, [r3, #96]	; 0x60
   127c0:	ebfff7c3 	bl	106d4 <delay_us>
   127c4:	e3a000a7 	mov	r0, #167	; 0xa7
   127c8:	ebfff706 	bl	103e8 <save_mem_status>
   127cc:	e5943000 	ldr	r3, [r4]
   127d0:	e3a0000a 	mov	r0, #10
   127d4:	e5942060 	ldr	r2, [r4, #96]	; 0x60
   127d8:	e583205c 	str	r2, [r3, #92]	; 0x5c
   127dc:	ebfff7bc 	bl	106d4 <delay_us>
   127e0:	e5943000 	ldr	r3, [r4]
   127e4:	e3a000c8 	mov	r0, #200	; 0xc8
   127e8:	e5942030 	ldr	r2, [r4, #48]	; 0x30
   127ec:	e583202c 	str	r2, [r3, #44]	; 0x2c
   127f0:	ebfff7b7 	bl	106d4 <delay_us>
   127f4:	e3a000a8 	mov	r0, #168	; 0xa8
   127f8:	ebfff6fa 	bl	103e8 <save_mem_status>
   127fc:	e5942068 	ldr	r2, [r4, #104]	; 0x68
   12800:	e3a0000a 	mov	r0, #10
   12804:	e5943000 	ldr	r3, [r4]
   12808:	e3c22403 	bic	r2, r2, #50331648	; 0x3000000
   1280c:	e5832064 	str	r2, [r3, #100]	; 0x64
   12810:	e594206c 	ldr	r2, [r4, #108]	; 0x6c
   12814:	e5943000 	ldr	r3, [r4]
   12818:	e3c22403 	bic	r2, r2, #50331648	; 0x3000000
   1281c:	e5832068 	str	r2, [r3, #104]	; 0x68
   12820:	e5942074 	ldr	r2, [r4, #116]	; 0x74
   12824:	e5943000 	ldr	r3, [r4]
   12828:	e3c22403 	bic	r2, r2, #50331648	; 0x3000000
   1282c:	e5832070 	str	r2, [r3, #112]	; 0x70
   12830:	ebfff7a7 	bl	106d4 <delay_us>
   12834:	e5942078 	ldr	r2, [r4, #120]	; 0x78
   12838:	e3a0000a 	mov	r0, #10
   1283c:	e5943000 	ldr	r3, [r4]
   12840:	e3c22403 	bic	r2, r2, #50331648	; 0x3000000
   12844:	e5832074 	str	r2, [r3, #116]	; 0x74
   12848:	e594207c 	ldr	r2, [r4, #124]	; 0x7c
   1284c:	e5943000 	ldr	r3, [r4]
   12850:	e3c22403 	bic	r2, r2, #50331648	; 0x3000000
   12854:	e5832078 	str	r2, [r3, #120]	; 0x78
   12858:	ebfff79d 	bl	106d4 <delay_us>
   1285c:	e5942084 	ldr	r2, [r4, #132]	; 0x84
   12860:	e3a000a8 	mov	r0, #168	; 0xa8
   12864:	e5943000 	ldr	r3, [r4]
   12868:	e5832080 	str	r2, [r3, #128]	; 0x80
   1286c:	e5942088 	ldr	r2, [r4, #136]	; 0x88
   12870:	e5943000 	ldr	r3, [r4]
   12874:	e5832084 	str	r2, [r3, #132]	; 0x84
   12878:	e5942094 	ldr	r2, [r4, #148]	; 0x94
   1287c:	e5943000 	ldr	r3, [r4]
   12880:	e5832090 	str	r2, [r3, #144]	; 0x90
   12884:	e5942098 	ldr	r2, [r4, #152]	; 0x98
   12888:	e5943000 	ldr	r3, [r4]
   1288c:	e5832094 	str	r2, [r3, #148]	; 0x94
   12890:	e59420a0 	ldr	r2, [r4, #160]	; 0xa0
   12894:	e5943000 	ldr	r3, [r4]
   12898:	e583209c 	str	r2, [r3, #156]	; 0x9c
   1289c:	e5942180 	ldr	r2, [r4, #384]	; 0x180
   128a0:	e5943000 	ldr	r3, [r4]
   128a4:	e583217c 	str	r2, [r3, #380]	; 0x17c
   128a8:	e5943000 	ldr	r3, [r4]
   128ac:	e5942184 	ldr	r2, [r4, #388]	; 0x184
   128b0:	e5832180 	str	r2, [r3, #384]	; 0x180
   128b4:	ebfff6cb 	bl	103e8 <save_mem_status>
   128b8:	e5943000 	ldr	r3, [r4]
   128bc:	e3a0000a 	mov	r0, #10
   128c0:	e594207c 	ldr	r2, [r4, #124]	; 0x7c
   128c4:	e5832078 	str	r2, [r3, #120]	; 0x78
   128c8:	ebfff781 	bl	106d4 <delay_us>
   128cc:	e5942068 	ldr	r2, [r4, #104]	; 0x68
   128d0:	e3a0000a 	mov	r0, #10
   128d4:	e5943000 	ldr	r3, [r4]
   128d8:	e5832064 	str	r2, [r3, #100]	; 0x64
   128dc:	e594206c 	ldr	r2, [r4, #108]	; 0x6c
   128e0:	e5943000 	ldr	r3, [r4]
   128e4:	e5832068 	str	r2, [r3, #104]	; 0x68
   128e8:	e5943000 	ldr	r3, [r4]
   128ec:	e5942074 	ldr	r2, [r4, #116]	; 0x74
   128f0:	e5832070 	str	r2, [r3, #112]	; 0x70
   128f4:	ebfff776 	bl	106d4 <delay_us>
   128f8:	e5943000 	ldr	r3, [r4]
   128fc:	e3a000aa 	mov	r0, #170	; 0xaa
   12900:	e5942078 	ldr	r2, [r4, #120]	; 0x78
   12904:	e5832074 	str	r2, [r3, #116]	; 0x74
   12908:	ebfff6b6 	bl	103e8 <save_mem_status>
   1290c:	f57ff05f 	dmb	sy
   12910:	f57ff06f 	isb	sy
   12914:	e3a04a02 	mov	r4, #8192	; 0x2000
   12918:	e3a000ab 	mov	r0, #171	; 0xab
   1291c:	e34f41c6 	movt	r4, #61894	; 0xf1c6
   12920:	ebfff6b0 	bl	103e8 <save_mem_status>
   12924:	e5943010 	ldr	r3, [r4, #16]
   12928:	e3833008 	orr	r3, r3, #8
   1292c:	e5843010 	str	r3, [r4, #16]
   12930:	f57ff05f 	dmb	sy
   12934:	f57ff06f 	isb	sy
   12938:	e3056fff 	movw	r6, #24575	; 0x5fff
   1293c:	e34f61c6 	movt	r6, #61894	; 0xf1c6
   12940:	e5168dbf 	ldr	r8, [r6, #-3519]	; 0xdbf
   12944:	e3c83b0e 	bic	r3, r8, #14336	; 0x3800
   12948:	e5063dbf 	str	r3, [r6, #-3519]	; 0xdbf
   1294c:	f57ff05f 	dmb	sy
   12950:	f57ff06f 	isb	sy
   12954:	e3065fff 	movw	r5, #28671	; 0x6fff
   12958:	e34f51c6 	movt	r5, #61894	; 0xf1c6
   1295c:	e5157dbf 	ldr	r7, [r5, #-3519]	; 0xdbf
   12960:	e3c73b0e 	bic	r3, r7, #14336	; 0x3800
   12964:	e5053dbf 	str	r3, [r5, #-3519]	; 0xdbf
   12968:	f57ff05f 	dmb	sy
   1296c:	f57ff06f 	isb	sy
   12970:	e3a00032 	mov	r0, #50	; 0x32
   12974:	ebfff756 	bl	106d4 <delay_us>
   12978:	e3033fff 	movw	r3, #16383	; 0x3fff
   1297c:	e34f31c6 	movt	r3, #61894	; 0xf1c6
   12980:	e5132e57 	ldr	r2, [r3, #-3671]	; 0xe57
   12984:	e3c226ff 	bic	r2, r2, #267386880	; 0xff00000
   12988:	e3c2280f 	bic	r2, r2, #983040	; 0xf0000
   1298c:	e3822501 	orr	r2, r2, #4194304	; 0x400000
   12990:	e5032e57 	str	r2, [r3, #-3671]	; 0xe57
   12994:	f57ff05f 	dmb	sy
   12998:	f57ff06f 	isb	sy
   1299c:	e3a03901 	mov	r3, #16384	; 0x4000
   129a0:	e34f31c6 	movt	r3, #61894	; 0xf1c6
   129a4:	e59321a8 	ldr	r2, [r3, #424]	; 0x1a8
   129a8:	e3c226ff 	bic	r2, r2, #267386880	; 0xff00000
   129ac:	e3c2280f 	bic	r2, r2, #983040	; 0xf0000
   129b0:	e3822501 	orr	r2, r2, #4194304	; 0x400000
   129b4:	e58321a8 	str	r2, [r3, #424]	; 0x1a8
   129b8:	f57ff05f 	dmb	sy
   129bc:	f57ff06f 	isb	sy
   129c0:	e5068dbf 	str	r8, [r6, #-3519]	; 0xdbf
   129c4:	f57ff05f 	dmb	sy
   129c8:	f57ff06f 	isb	sy
   129cc:	e5057dbf 	str	r7, [r5, #-3519]	; 0xdbf
   129d0:	f57ff05f 	dmb	sy
   129d4:	f57ff06f 	isb	sy
   129d8:	e3a000ae 	mov	r0, #174	; 0xae
   129dc:	ebfff681 	bl	103e8 <save_mem_status>
   129e0:	e5943010 	ldr	r3, [r4, #16]
   129e4:	e3c33008 	bic	r3, r3, #8
   129e8:	e5843010 	str	r3, [r4, #16]
   129ec:	f57ff05f 	dmb	sy
   129f0:	f57ff06f 	isb	sy
   129f4:	e3a0000a 	mov	r0, #10
   129f8:	ebfff735 	bl	106d4 <delay_us>
   129fc:	e3a000af 	mov	r0, #175	; 0xaf
   12a00:	ebfff678 	bl	103e8 <save_mem_status>
   12a04:	e3a00000 	mov	r0, #0
   12a08:	e8bd81f0 	pop	{r4, r5, r6, r7, r8, pc}

00012a0c <mem_clk_setdiv>:
   12a0c:	e3500000 	cmp	r0, #0
   12a10:	15902000 	ldrne	r2, [r0]
   12a14:	13a03406 	movne	r3, #100663296	; 0x6000000
   12a18:	159f1010 	ldrne	r1, [pc, #16]	; 12a30 <mem_clk_setdiv+0x24>
   12a1c:	13a00000 	movne	r0, #0
   12a20:	03e00000 	mvneq	r0, #0
   12a24:	15813000 	strne	r3, [r1]
   12a28:	15832054 	strne	r2, [r3, #84]	; 0x54
   12a2c:	e12fff1e 	bx	lr
   12a30:	00012f70 	andeq	r2, r1, r0, ror pc

00012a34 <mem_clk_getdiv>:
   12a34:	e2502000 	subs	r2, r0, #0
   12a38:	13a034f6 	movne	r3, #-167772160	; 0xf6000000
   12a3c:	159fc014 	ldrne	ip, [pc, #20]	; 12a58 <mem_clk_getdiv+0x24>
   12a40:	15931054 	ldrne	r1, [r3, #84]	; 0x54
   12a44:	13a00000 	movne	r0, #0
   12a48:	03e00000 	mvneq	r0, #0
   12a4c:	158c3000 	strne	r3, [ip]
   12a50:	15821000 	strne	r1, [r2]
   12a54:	e12fff1e 	bx	lr
   12a58:	00012f70 	andeq	r2, r1, r0, ror pc

00012a5c <mem_clk_set_pll_factor>:
   12a5c:	e3023f70 	movw	r3, #12144	; 0x2f70
   12a60:	e3a02406 	mov	r2, #100663296	; 0x6000000
   12a64:	e3403001 	movt	r3, #1
   12a68:	e1a01000 	mov	r1, r0
   12a6c:	e52d4004 	push	{r4}		; (str r4, [sp, #-4]!)
   12a70:	e3a00000 	mov	r0, #0
   12a74:	e5d14002 	ldrb	r4, [r1, #2]
   12a78:	e5832000 	str	r2, [r3]
   12a7c:	e592c000 	ldr	ip, [r2]
   12a80:	e7c1c014 	bfi	ip, r4, #0, #2
   12a84:	e583c004 	str	ip, [r3, #4]
   12a88:	e5d14003 	ldrb	r4, [r1, #3]
   12a8c:	e7d0c814 	bfi	ip, r4, #16, #1
   12a90:	e583c004 	str	ip, [r3, #4]
   12a94:	e5d11000 	ldrb	r1, [r1]
   12a98:	e5c31005 	strb	r1, [r3, #5]
   12a9c:	e5933004 	ldr	r3, [r3, #4]
   12aa0:	e5823000 	str	r3, [r2]
   12aa4:	e8bd0010 	pop	{r4}
   12aa8:	e12fff1e 	bx	lr

00012aac <mem_clk_get_pll_factor>:
   12aac:	e3023f70 	movw	r3, #12144	; 0x2f70
   12ab0:	e3a024f6 	mov	r2, #-167772160	; 0xf6000000
   12ab4:	e3403001 	movt	r3, #1
   12ab8:	e92d0030 	push	{r4, r5}
   12abc:	e5832000 	str	r2, [r3]
   12ac0:	e1a01000 	mov	r1, r0
   12ac4:	e3a00000 	mov	r0, #0
   12ac8:	e5922000 	ldr	r2, [r2]
   12acc:	e7e75452 	ubfx	r5, r2, #8, #8
   12ad0:	e7e14052 	ubfx	r4, r2, #0, #2
   12ad4:	e7e0c852 	ubfx	ip, r2, #16, #1
   12ad8:	e5832004 	str	r2, [r3, #4]
   12adc:	e5c15000 	strb	r5, [r1]
   12ae0:	e5c14002 	strb	r4, [r1, #2]
   12ae4:	e5c1c003 	strb	ip, [r1, #3]
   12ae8:	e8bd0030 	pop	{r4, r5}
   12aec:	e12fff1e 	bx	lr

00012af0 <mem_clk_set_misc>:
   12af0:	e590c000 	ldr	ip, [r0]
   12af4:	e3021f70 	movw	r1, #12144	; 0x2f70
   12af8:	e3a03406 	mov	r3, #100663296	; 0x6000000
   12afc:	e1a02000 	mov	r2, r0
   12b00:	e3401001 	movt	r1, #1
   12b04:	e3a00000 	mov	r0, #0
   12b08:	e5813000 	str	r3, [r1]
   12b0c:	e583c0a0 	str	ip, [r3, #160]	; 0xa0
   12b10:	e592c00c 	ldr	ip, [r2, #12]
   12b14:	e583c0e0 	str	ip, [r3, #224]	; 0xe0
   12b18:	e592c004 	ldr	ip, [r2, #4]
   12b1c:	e583c0ac 	str	ip, [r3, #172]	; 0xac
   12b20:	e592c008 	ldr	ip, [r2, #8]
   12b24:	e583c0cc 	str	ip, [r3, #204]	; 0xcc
   12b28:	e592c010 	ldr	ip, [r2, #16]
   12b2c:	e583c0a4 	str	ip, [r3, #164]	; 0xa4
   12b30:	e592c014 	ldr	ip, [r2, #20]
   12b34:	e583c0b8 	str	ip, [r3, #184]	; 0xb8
   12b38:	e592c018 	ldr	ip, [r2, #24]
   12b3c:	e583c0bc 	str	ip, [r3, #188]	; 0xbc
   12b40:	e592c01c 	ldr	ip, [r2, #28]
   12b44:	e583c0e4 	str	ip, [r3, #228]	; 0xe4
   12b48:	e592c020 	ldr	ip, [r2, #32]
   12b4c:	e583c114 	str	ip, [r3, #276]	; 0x114
   12b50:	e592c024 	ldr	ip, [r2, #36]	; 0x24
   12b54:	e583c118 	str	ip, [r3, #280]	; 0x118
   12b58:	e592c028 	ldr	ip, [r2, #40]	; 0x28
   12b5c:	e583c004 	str	ip, [r3, #4]
   12b60:	e592c02c 	ldr	ip, [r2, #44]	; 0x2c
   12b64:	e583c018 	str	ip, [r3, #24]
   12b68:	e3a0c001 	mov	ip, #1
   12b6c:	e5922030 	ldr	r2, [r2, #48]	; 0x30
   12b70:	e583201c 	str	r2, [r3, #28]
   12b74:	e5932054 	ldr	r2, [r3, #84]	; 0x54
   12b78:	e7c2201c 	bfi	r2, ip, #0, #3
   12b7c:	e5812008 	str	r2, [r1, #8]
   12b80:	e5832054 	str	r2, [r3, #84]	; 0x54
   12b84:	e12fff1e 	bx	lr

00012b88 <mem_clk_get_misc>:
   12b88:	e3021f70 	movw	r1, #12144	; 0x2f70
   12b8c:	e3a034f6 	mov	r3, #-167772160	; 0xf6000000
   12b90:	e3401001 	movt	r1, #1
   12b94:	e1a02000 	mov	r2, r0
   12b98:	e5813000 	str	r3, [r1]
   12b9c:	e3a00000 	mov	r0, #0
   12ba0:	e59310a0 	ldr	r1, [r3, #160]	; 0xa0
   12ba4:	e5821000 	str	r1, [r2]
   12ba8:	e59310e0 	ldr	r1, [r3, #224]	; 0xe0
   12bac:	e582100c 	str	r1, [r2, #12]
   12bb0:	e59310ac 	ldr	r1, [r3, #172]	; 0xac
   12bb4:	e5821004 	str	r1, [r2, #4]
   12bb8:	e59310cc 	ldr	r1, [r3, #204]	; 0xcc
   12bbc:	e5821008 	str	r1, [r2, #8]
   12bc0:	e59310a4 	ldr	r1, [r3, #164]	; 0xa4
   12bc4:	e5821010 	str	r1, [r2, #16]
   12bc8:	e59310b8 	ldr	r1, [r3, #184]	; 0xb8
   12bcc:	e5821014 	str	r1, [r2, #20]
   12bd0:	e59310bc 	ldr	r1, [r3, #188]	; 0xbc
   12bd4:	e5821018 	str	r1, [r2, #24]
   12bd8:	e59310e4 	ldr	r1, [r3, #228]	; 0xe4
   12bdc:	e582101c 	str	r1, [r2, #28]
   12be0:	e5931114 	ldr	r1, [r3, #276]	; 0x114
   12be4:	e5821020 	str	r1, [r2, #32]
   12be8:	e5931118 	ldr	r1, [r3, #280]	; 0x118
   12bec:	e5821024 	str	r1, [r2, #36]	; 0x24
   12bf0:	e5931004 	ldr	r1, [r3, #4]
   12bf4:	e5821028 	str	r1, [r2, #40]	; 0x28
   12bf8:	e5931018 	ldr	r1, [r3, #24]
   12bfc:	e582102c 	str	r1, [r2, #44]	; 0x2c
   12c00:	e593301c 	ldr	r3, [r3, #28]
   12c04:	e5823030 	str	r3, [r2, #48]	; 0x30
   12c08:	e12fff1e 	bx	lr

00012c0c <mem_clk_get_cpu_freq>:
   12c0c:	e59f3050 	ldr	r3, [pc, #80]	; 12c64 <mem_clk_get_cpu_freq+0x58>
   12c10:	e52d4004 	push	{r4}		; (str r4, [sp, #-4]!)
   12c14:	e5931000 	ldr	r1, [r3]
   12c18:	e5912050 	ldr	r2, [r1, #80]	; 0x50
   12c1c:	e3120001 	tst	r2, #1
   12c20:	e583200c 	str	r2, [r3, #12]
   12c24:	1a000002 	bne	12c34 <mem_clk_get_cpu_freq+0x28>
   12c28:	e3050dc0 	movw	r0, #24000	; 0x5dc0
   12c2c:	e8bd0010 	pop	{r4}
   12c30:	e12fff1e 	bx	lr
   12c34:	e5912000 	ldr	r2, [r1]
   12c38:	e3054dc0 	movw	r4, #24000	; 0x5dc0
   12c3c:	e3120801 	tst	r2, #65536	; 0x10000
   12c40:	e7e70452 	ubfx	r0, r2, #8, #8
   12c44:	e202c003 	and	ip, r2, #3
   12c48:	13a01004 	movne	r1, #4
   12c4c:	03a01001 	moveq	r1, #1
   12c50:	e0000094 	mul	r0, r4, r0
   12c54:	e5832004 	str	r2, [r3, #4]
   12c58:	e021119c 	mla	r1, ip, r1, r1
   12c5c:	e8bd0010 	pop	{r4}
   12c60:	eafffc99 	b	11ecc <raw_lib_udiv>
   12c64:	00012f70 	andeq	r2, r1, r0, ror pc

Disassembly of section .rodata:

00012c68 <CSWTCH.9>:
   12c68:	00000001 	andeq	r0, r0, r1
   12c6c:	00000002 	andeq	r0, r0, r2
   12c70:	00000000 	andeq	r0, r0, r0
   12c74:	00000003 	andeq	r0, r0, r3

00012c78 <CSWTCH.11>:
   12c78:	016e3600 	cmneq	lr, r0, lsl #12
   12c7c:	39387000 	ldmdbcc	r8!, {ip, sp, lr}

Disassembly of section .rodata.str1.4:

00012c80 <.rodata.str1.4>:
   12c80:	75736572 	ldrbvc	r6, [r3, #-1394]!	; 0x572
   12c84:	3a31656d 	bcc	c6c240 <__bss_end+0xc590f4>
   12c88:	202e3020 	eorcs	r3, lr, r0, lsr #32
   12c8c:	0000000a 	andeq	r0, r0, sl
   12c90:	75736572 	ldrbvc	r6, [r3, #-1394]!	; 0x572
   12c94:	3a31656d 	bcc	c6c250 <__bss_end+0xc59104>
   12c98:	202e3120 	eorcs	r3, lr, r0, lsr #2
   12c9c:	6f666562 	svcvs	0x00666562
   12ca0:	72206572 	eorvc	r6, r0, #478150656	; 0x1c800000
   12ca4:	6f747365 	svcvs	0x00747365
   12ca8:	6d206572 	cfstr32vs	mvfx6, [r0, #-456]!	; 0xfffffe38
   12cac:	202e756d 	eorcs	r7, lr, sp, ror #10
   12cb0:	0000000a 	andeq	r0, r0, sl
   12cb4:	75736572 	ldrbvc	r6, [r3, #-1394]!	; 0x572
   12cb8:	3a31656d 	bcc	c6c274 <__bss_end+0xc59128>
   12cbc:	202e3320 	eorcs	r3, lr, r0, lsr #6
   12cc0:	65746661 	ldrbvs	r6, [r4, #-1633]!	; 0x661
   12cc4:	65722072 	ldrbvs	r2, [r2, #-114]!	; 0x72
   12cc8:	726f7473 	rsbvc	r7, pc, #1929379840	; 0x73000000
   12ccc:	6d6d2065 	stclvs	0, cr2, [sp, #-404]!	; 0xfffffe6c
   12cd0:	62202c75 	eorvs	r2, r0, #29952	; 0x7500
   12cd4:	726f6665 	rsbvc	r6, pc, #105906176	; 0x6500000
   12cd8:	756a2065 	strbvc	r2, [sl, #-101]!	; 0x65
   12cdc:	0a2e706d 	beq	baee98 <__bss_end+0xb9bd4c>
   12ce0:	00000000 	andeq	r0, r0, r0
   12ce4:	72646461 	rsbvc	r6, r4, #1627389952	; 0x61000000
   12ce8:	2c782520 	cfldr64cs	mvdx2, [r8], #-128	; 0xffffff80
   12cec:	6c617620 	stclvs	6, cr7, [r1], #-128	; 0xffffff80
   12cf0:	3d206575 	cfstr32cc	mvfx6, [r0, #-468]!	; 0xfffffe2c
   12cf4:	2e782520 	cdpcs	5, 7, cr2, cr8, cr0, {1}
   12cf8:	00000a20 	andeq	r0, r0, r0, lsr #20
   12cfc:	33323130 	teqcc	r2, #12
   12d00:	37363534 			; <UNDEFINED> instruction: 0x37363534
   12d04:	42413938 	submi	r3, r1, #917504	; 0xe0000
   12d08:	46454443 	strbmi	r4, [r5], -r3, asr #8
   12d0c:	00000000 	andeq	r0, r0, r0
   12d10:	20202020 	eorcs	r2, r0, r0, lsr #32
   12d14:	20202020 	eorcs	r2, r0, r0, lsr #32
   12d18:	20202020 	eorcs	r2, r0, r0, lsr #32
   12d1c:	20202020 	eorcs	r2, r0, r0, lsr #32
   12d20:	00000000 	andeq	r0, r0, r0
   12d24:	65747441 	ldrbvs	r7, [r4, #-1089]!	; 0x441
   12d28:	6974706d 	ldmdbvs	r4!, {r0, r2, r3, r5, r6, ip, sp, lr}^
   12d2c:	6420676e 	strtvs	r6, [r0], #-1902	; 0x76e
   12d30:	73697669 	cmnvc	r9, #110100480	; 0x6900000
   12d34:	206e6f69 	rsbcs	r6, lr, r9, ror #30
   12d38:	30207962 	eorcc	r7, r0, r2, ror #18
   12d3c:	00000021 	andeq	r0, r0, r1, lsr #32
   12d40:	69746f6e 	ldmdbvs	r4!, {r1, r2, r3, r5, r6, r8, r9, sl, fp, sp, lr}^
   12d44:	203a6563 	eorscs	r6, sl, r3, ror #10
   12d48:	20636967 	rsbcs	r6, r3, r7, ror #18
   12d4c:	20726169 	rsbscs	r6, r2, r9, ror #2
   12d50:	30203d3d 	eorcc	r3, r0, sp, lsr sp
   12d54:	2e782578 	mrccs	5, 3, r2, cr8, cr8, {3}
   12d58:	00000a20 	andeq	r0, r0, r0, lsr #20
   12d5c:	656b6174 	strbvs	r6, [fp, #-372]!	; 0x174
   12d60:	73776820 	cmnvc	r7, #2097152	; 0x200000
   12d64:	6c6e6970 	stclvs	9, cr6, [lr], #-448	; 0xfffffe40
   12d68:	206b636f 	rsbcs	r6, fp, pc, ror #6
   12d6c:	656d6974 	strbvs	r6, [sp, #-2420]!	; 0x974
   12d70:	0a74756f 	beq	1d30334 <__bss_end+0x1d1d1e8>
   12d74:	00000000 	andeq	r0, r0, r0

Disassembly of section .data:

00012d78 <tmpPtr>:
   12d78:	00012d7c 	andeq	r2, r1, ip, ror sp

Disassembly of section .bss:

00012d7c <status_reg>:
   12d7c:	00000000 	andeq	r0, r0, r0

00012d80 <status_reg_pa>:
   12d80:	00000000 	andeq	r0, r0, r0

00012d84 <status_reg_tmp>:
   12d84:	00000000 	andeq	r0, r0, r0

00012d88 <status_reg_pa_tmp>:
   12d88:	00000000 	andeq	r0, r0, r0

00012d8c <print_flag>:
   12d8c:	00000000 	andeq	r0, r0, r0

00012d90 <backup_perf_counter_ctrl_reg>:
   12d90:	00000000 	andeq	r0, r0, r0

00012d94 <backup_perf_counter_enable_reg>:
   12d94:	00000000 	andeq	r0, r0, r0

00012d98 <overhead>:
   12d98:	00000000 	andeq	r0, r0, r0

00012d9c <cpu_freq>:
   12d9c:	00000000 	andeq	r0, r0, r0

00012da0 <saved_context>:
	...

00012e40 <backup_ccu_uart>:
   12e40:	00000000 	andeq	r0, r0, r0

00012e44 <backup_ccu_uart_reset>:
   12e44:	00000000 	andeq	r0, r0, r0

00012e48 <backup_gpio_uart>:
   12e48:	00000000 	andeq	r0, r0, r0

00012e4c <serial_inited_flag>:
   12e4c:	00000000 	andeq	r0, r0, r0

00012e50 <debugger_buffer>:
	...

00012f50 <GicDDisc>:
   12f50:	00000000 	andeq	r0, r0, r0

00012f54 <GicCDisc>:
   12f54:	00000000 	andeq	r0, r0, r0

00012f58 <TmrReg>:
   12f58:	00000000 	andeq	r0, r0, r0

00012f5c <WatchDog1_Config_Reg_Bak>:
   12f5c:	00000000 	andeq	r0, r0, r0

00012f60 <WatchDog1_Mod_Reg_Bak>:
   12f60:	00000000 	andeq	r0, r0, r0

00012f64 <WatchDog1_Irq_En_Bak>:
   12f64:	00000000 	andeq	r0, r0, r0

00012f68 <TmstmpReg>:
   12f68:	00000000 	andeq	r0, r0, r0

00012f6c <cpsr_backup>:
   12f6c:	00000000 	andeq	r0, r0, r0

00012f70 <CmuReg>:
   12f70:	00000000 	andeq	r0, r0, r0

00012f74 <CmuReg_Pll_C0_Cfg_tmp>:
   12f74:	00000000 	andeq	r0, r0, r0

00012f78 <CmuReg_Axi0_Cfg_tmp>:
   12f78:	00000000 	andeq	r0, r0, r0

00012f7c <CmuReg_Cpu_Clk_Src_tmp>:
   12f7c:	00000000 	andeq	r0, r0, r0

00012f80 <mem_para_info>:
	...

00013034 <saved_context_r13_irq>:
	...

0001303c <saved_context_r12_svc>:
	...

00013044 <saved_spsr_fiq>:
   13044:	00000000 	andeq	r0, r0, r0

00013048 <saved_spsr_und>:
   13048:	00000000 	andeq	r0, r0, r0

0001304c <saved_spsr_irq>:
   1304c:	00000000 	andeq	r0, r0, r0

00013050 <saved_context_r13_abt>:
	...

00013058 <saved_spsr_mon>:
   13058:	00000000 	andeq	r0, r0, r0

0001305c <saved_empty_context_svc>:
	...

0001310c <saved_context_r13_fiq>:
	...

00013128 <saved_cpsr_svc>:
   13128:	00000000 	andeq	r0, r0, r0

0001312c <saved_context_r13_sys>:
	...

00013134 <saved_spsr_abt>:
   13134:	00000000 	andeq	r0, r0, r0

00013138 <saved_context_r13_mon>:
	...

00013140 <saved_spsr_svc>:
   13140:	00000000 	andeq	r0, r0, r0

00013144 <saved_context_r13_und>:
	...

Disassembly of section .debug_info:

00000000 <.debug_info>:
       0:	0000013c 	andeq	r0, r0, ip, lsr r1
       4:	00000002 	andeq	r0, r0, r2
       8:	01040000 	mrseq	r0, (UNDEF: 4)
       c:	0000011a 	andeq	r0, r0, sl, lsl r1
      10:	00008501 	andeq	r8, r0, r1, lsl #10
      14:	00003500 	andeq	r3, r0, r0, lsl #10
      18:	01007c00 	tsteq	r0, r0, lsl #24
      1c:	01007c00 	tsteq	r0, r0, lsl #24
      20:	00000000 	andeq	r0, r0, r0
      24:	06010200 	streq	r0, [r1], -r0, lsl #4
      28:	000000e0 	andeq	r0, r0, r0, ror #1
      2c:	de080102 	adflee	f0, f0, f2
      30:	02000000 	andeq	r0, r0, #0
      34:	014e0502 	cmpeq	lr, r2, lsl #10
      38:	02020000 	andeq	r0, r2, #0
      3c:	00010707 	andeq	r0, r1, r7, lsl #14
      40:	05040300 	streq	r0, [r4, #-768]	; 0x300
      44:	00746e69 	rsbseq	r6, r4, r9, ror #28
      48:	78070402 	stmdavc	r7, {r1, sl}
      4c:	02000000 	andeq	r0, r0, #0
      50:	00000508 	andeq	r0, r0, r8, lsl #10
      54:	08020000 	stmdaeq	r2, {}	; <UNPREDICTABLE>
      58:	00006e07 	andeq	r6, r0, r7, lsl #28
      5c:	07040200 	streq	r0, [r4, -r0, lsl #4]
      60:	00000073 	andeq	r0, r0, r3, ror r0
      64:	00000e04 	andeq	r0, r0, r4, lsl #28
      68:	49013000 	stmdbmi	r1, {ip, sp}
      6c:	000000fd 	strdeq	r0, [r0], -sp
      70:	0000ec05 	andeq	lr, r0, r5, lsl #24
      74:	484b0100 	stmdami	fp, {r8}^
      78:	02000000 	andeq	r0, r0, #0
      7c:	ca050023 	bgt	140110 <__bss_end+0x12cfc4>
      80:	01000000 	mrseq	r0, (UNDEF: 0)
      84:	0000fd4c 	andeq	pc, r0, ip, asr #26
      88:	04230200 	strteq	r0, [r3], #-512	; 0x200
      8c:	0000fd05 	andeq	pc, r0, r5, lsl #26
      90:	484d0100 	stmdami	sp, {r8}^
      94:	02000000 	andeq	r0, r0, #0
      98:	2e050c23 	cdpcs	12, 0, cr0, cr5, cr3, {1}
      9c:	01000000 	mrseq	r0, (UNDEF: 0)
      a0:	0000484e 	andeq	r4, r0, lr, asr #16
      a4:	10230200 	eorne	r0, r3, r0, lsl #4
      a8:	0000d005 	andeq	sp, r0, r5
      ac:	484f0100 	stmdami	pc, {r8}^	; <UNPREDICTABLE>
      b0:	02000000 	andeq	r0, r0, #0
      b4:	61051423 	tstvs	r5, r3, lsr #8
      b8:	01000000 	mrseq	r0, (UNDEF: 0)
      bc:	00010d50 	andeq	r0, r1, r0, asr sp
      c0:	18230200 	stmdane	r3!, {r9}
      c4:	00002005 	andeq	r2, r0, r5
      c8:	0d510100 	ldfeqe	f0, [r1, #-0]
      cc:	02000001 	andeq	r0, r0, #1
      d0:	bf051c23 	svclt	0x00051c23
      d4:	01000000 	mrseq	r0, (UNDEF: 0)
      d8:	00010d52 	andeq	r0, r1, r2, asr sp
      dc:	20230200 	eorcs	r0, r3, r0, lsl #4
      e0:	00013c05 	andeq	r3, r1, r5, lsl #24
      e4:	0d530100 	ldfeqe	f0, [r3, #-0]
      e8:	02000001 	andeq	r0, r0, #1
      ec:	45052423 	strmi	r2, [r5, #-1059]	; 0x423
      f0:	01000001 	tsteq	r0, r1
      f4:	0000fd54 	andeq	pc, r0, r4, asr sp	; <UNPREDICTABLE>
      f8:	28230200 	stmdacs	r3!, {r9}
      fc:	002c0600 	eoreq	r0, ip, r0, lsl #12
     100:	010d0000 	mrseq	r0, (UNDEF: 13)
     104:	48070000 	stmdami	r7, {}	; <UNPREDICTABLE>
     108:	07000000 	streq	r0, [r0, -r0]
     10c:	002c0600 	eoreq	r0, ip, r0, lsl #12
     110:	011d0000 	tsteq	sp, r0
     114:	48070000 	stmdami	r7, {}	; <UNPREDICTABLE>
     118:	03000000 	movweq	r0, #0
     11c:	01640800 	cmneq	r4, r0, lsl #16
     120:	55010000 	strpl	r0, [r1, #-0]
     124:	00000064 	andeq	r0, r0, r4, rrx
     128:	00015809 	andeq	r5, r1, r9, lsl #16
     12c:	3a240200 	bcc	900934 <__bss_end+0x8ed7e8>
     130:	01000001 	tsteq	r0, r1
     134:	00000305 	andeq	r0, r0, r5, lsl #6
     138:	1d0a0001 	stcne	0, cr0, [sl, #-4]
     13c:	00000001 	andeq	r0, r0, r1
     140:	00000084 	andeq	r0, r0, r4, lsl #1
     144:	007f0002 	rsbseq	r0, pc, r2
     148:	01040000 	mrseq	r0, (UNDEF: 4)
     14c:	00000098 	muleq	r0, r8, r0
     150:	00010030 	andeq	r0, r1, r0, lsr r0
     154:	0001007c 	andeq	r0, r1, ip, ror r0
     158:	68637261 	stmdavs	r3!, {r0, r5, r6, r9, ip, sp, lr}^
     15c:	6d72612f 	ldfvse	f6, [r2, #-188]!	; 0xffffff44
     160:	63616d2f 	cmnvs	r1, #3008	; 0xbc0
     164:	75732d68 	ldrbvc	r2, [r3, #-3432]!	; 0xd68
     168:	2f69786e 	svccs	0x0069786e
     16c:	732f6d70 	teqvc	pc, #7168	; 0x1c00
     170:	646e6174 	strbtvs	r6, [lr], #-372	; 0x174
     174:	732f7962 	teqvc	pc, #1605632	; 0x188000
     178:	72657075 	rsbvc	r7, r5, #117	; 0x75
     17c:	7365722f 	cmnvc	r5, #-268435454	; 0xf0000002
     180:	2f656d75 	svccs	0x00656d75
     184:	75736572 	ldrbvc	r6, [r3, #-1394]!	; 0x572
     188:	2e31656d 	cdpcs	5, 3, cr6, cr1, cr13, {3}
     18c:	682f0053 	stmdavs	pc!, {r0, r1, r4, r6}	; <UNPREDICTABLE>
     190:	2f656d6f 	svccs	0x00656d6f
     194:	6f726161 	svcvs	0x00726161
     198:	6f572f6e 	svcvs	0x00572f6e
     19c:	632f6b72 	teqvs	pc, #116736	; 0x1c800
     1a0:	38612d63 	stmdacc	r1!, {r0, r1, r5, r6, r8, sl, fp, sp}^
     1a4:	64732d30 	ldrbtvs	r2, [r3], #-3376	; 0xd30
     1a8:	696c2d6b 	stmdbvs	ip!, {r0, r1, r3, r5, r6, r8, sl, fp, sp}^
     1ac:	2f78756e 	svccs	0x0078756e
     1b0:	756e696c 	strbvc	r6, [lr, #-2412]!	; 0x96c
     1b4:	2e332d78 	mrccs	13, 1, r2, cr3, cr8, {3}
     1b8:	4e470034 	mcrmi	0, 2, r0, cr7, cr4, {1}
     1bc:	53412055 	movtpl	r2, #4181	; 0x1055
     1c0:	322e3220 	eorcc	r3, lr, #2
     1c4:	80010032 	andhi	r0, r1, r2, lsr r0
     1c8:	000000c5 	andeq	r0, r0, r5, asr #1
     1cc:	00930002 	addseq	r0, r3, r2
     1d0:	01040000 	mrseq	r0, (UNDEF: 4)
     1d4:	0000011a 	andeq	r0, r0, sl, lsl r1
     1d8:	00017701 	andeq	r7, r1, r1, lsl #14
     1dc:	00003500 	andeq	r3, r0, r0, lsl #10
     1e0:	01007c00 	tsteq	r0, r0, lsl #24
     1e4:	0100a400 	tsteq	r0, r0, lsl #8
     1e8:	00011200 	andeq	r1, r1, r0, lsl #4
     1ec:	06010200 	streq	r0, [r1], -r0, lsl #4
     1f0:	000000e0 	andeq	r0, r0, r0, ror #1
     1f4:	de080102 	adflee	f0, f0, f2
     1f8:	02000000 	andeq	r0, r0, #0
     1fc:	014e0502 	cmpeq	lr, r2, lsl #10
     200:	02020000 	andeq	r0, r2, #0
     204:	00010707 	andeq	r0, r1, r7, lsl #14
     208:	05040300 	streq	r0, [r4, #-768]	; 0x300
     20c:	00746e69 	rsbseq	r6, r4, r9, ror #28
     210:	78070402 	stmdavc	r7, {r1, sl}
     214:	02000000 	andeq	r0, r0, #0
     218:	00000508 	andeq	r0, r0, r8, lsl #10
     21c:	08020000 	stmdaeq	r2, {}	; <UNPREDICTABLE>
     220:	00006e07 	andeq	r6, r0, r7, lsl #28
     224:	07040200 	streq	r0, [r4, -r0, lsl #4]
     228:	00000073 	andeq	r0, r0, r3, ror r0
     22c:	00480404 	subeq	r0, r8, r4, lsl #8
     230:	04050000 	streq	r0, [r5], #-0
     234:	01b50106 			; <UNDEFINED> instruction: 0x01b50106
     238:	23010000 	movwcs	r0, #4096	; 0x1000
     23c:	01007c01 	tsteq	r0, r1, lsl #24
     240:	0100a400 	tsteq	r0, r0, lsl #8
     244:	007d0200 	rsbseq	r0, sp, r0, lsl #4
     248:	0017b307 	andseq	fp, r7, r7, lsl #6
     24c:	6a230100 	bvs	8c0654 <__bss_end+0x8ad508>
     250:	00000000 	andeq	r0, r0, r0
     254:	08000000 	stmdaeq	r0, {}	; <UNPREDICTABLE>
     258:	00637273 	rsbeq	r7, r3, r3, ror r2
     25c:	006a2301 	rsbeq	r2, sl, r1, lsl #6
     260:	00130000 	andseq	r0, r3, r0
     264:	6e080000 	cdpvs	0, 0, cr0, cr8, cr0, {0}
     268:	41230100 	teqmi	r3, r0, lsl #2
     26c:	26000000 	strcs	r0, [r0], -r0
     270:	09000000 	stmdbeq	r0, {}	; <UNPREDICTABLE>
     274:	000001ad 	andeq	r0, r0, sp, lsr #3
     278:	00642501 	rsbeq	r2, r4, r1, lsl #10
     27c:	00510000 	subseq	r0, r1, r0
     280:	a50a0000 	strge	r0, [sl, #-0]
     284:	01000001 	tsteq	r0, r1
     288:	00006426 	andeq	r6, r0, r6, lsr #8
     28c:	00500100 	subseq	r0, r0, r0, lsl #2
     290:	00006100 	andeq	r6, r0, r0, lsl #2
     294:	1e000200 	cdpne	2, 0, cr0, cr0, cr0, {0}
     298:	04000001 	streq	r0, [r0], #-1
     29c:	00011a01 	andeq	r1, r1, r1, lsl #20
     2a0:	01c00100 	biceq	r0, r0, r0, lsl #2
     2a4:	00350000 	eorseq	r0, r5, r0
     2a8:	00a40000 	adceq	r0, r4, r0
     2ac:	00a40001 	adceq	r0, r4, r1
     2b0:	01880001 	orreq	r0, r8, r1
     2b4:	01020000 	mrseq	r0, (UNDEF: 2)
     2b8:	0000e006 	andeq	lr, r0, r6
     2bc:	08010200 	stmdaeq	r1, {r9}
     2c0:	000000de 	ldrdeq	r0, [r0], -lr
     2c4:	4e050202 	cdpmi	2, 0, cr0, cr5, cr2, {0}
     2c8:	02000001 	andeq	r0, r0, #1
     2cc:	01070702 	tsteq	r7, r2, lsl #14
     2d0:	04030000 	streq	r0, [r3], #-0
     2d4:	746e6905 	strbtvc	r6, [lr], #-2309	; 0x905
     2d8:	07040200 	streq	r0, [r4, -r0, lsl #4]
     2dc:	00000078 	andeq	r0, r0, r8, ror r0
     2e0:	00050802 	andeq	r0, r5, r2, lsl #16
     2e4:	02000000 	andeq	r0, r0, #0
     2e8:	006e0708 	rsbeq	r0, lr, r8, lsl #14
     2ec:	04020000 	streq	r0, [r2], #-0
     2f0:	00007307 	andeq	r7, r0, r7, lsl #6
     2f4:	00810000 	addeq	r0, r1, r0
     2f8:	00020000 	andeq	r0, r2, r0
     2fc:	00000148 	andeq	r0, r0, r8, asr #2
     300:	01a50104 			; <UNDEFINED> instruction: 0x01a50104
     304:	00a40000 	adceq	r0, r4, r0
     308:	00cc0001 	sbceq	r0, ip, r1
     30c:	72610001 	rsbvc	r0, r1, #1
     310:	612f6863 	teqvs	pc, r3, ror #16
     314:	6d2f6d72 	stcvs	13, cr6, [pc, #-456]!	; 154 <__resume1_start+0x154>
     318:	2d686361 	stclcs	3, cr6, [r8, #-388]!	; 0xfffffe7c
     31c:	786e7573 	stmdavc	lr!, {r0, r1, r4, r5, r6, r8, sl, ip, sp, lr}^
     320:	6d702f69 	ldclvs	15, cr2, [r0, #-420]!	; 0xfffffe5c
     324:	6174732f 	cmnvs	r4, pc, lsr #6
     328:	7962646e 	stmdbvc	r2!, {r1, r2, r3, r5, r6, sl, sp, lr}^
     32c:	7075732f 	rsbsvc	r7, r5, pc, lsr #6
     330:	732f7265 	teqvc	pc, #1342177286	; 0x50000006
     334:	72657075 	rsbvc	r7, r5, #117	; 0x75
     338:	6c65645f 	cfstrdvs	mvd6, [r5], #-380	; 0xfffffe84
     33c:	532e7961 	teqpl	lr, #1589248	; 0x184000
     340:	6f682f00 	svcvs	0x00682f00
     344:	612f656d 	teqvs	pc, sp, ror #10
     348:	6e6f7261 	cdpvs	2, 6, cr7, cr15, cr1, {3}
     34c:	726f572f 	rsbvc	r5, pc, #12320768	; 0xbc0000
     350:	63632f6b 	cmnvs	r3, #428	; 0x1ac
     354:	3038612d 	eorscc	r6, r8, sp, lsr #2
     358:	6b64732d 	blvs	191d014 <__bss_end+0x1909ec8>
     35c:	6e696c2d 	cdpvs	12, 6, cr6, cr9, cr13, {1}
     360:	6c2f7875 	stcvs	8, cr7, [pc], #-468	; 194 <__resume1_start+0x194>
     364:	78756e69 	ldmdavc	r5!, {r0, r3, r5, r6, r9, sl, fp, sp, lr}^
     368:	342e332d 	strtcc	r3, [lr], #-813	; 0x32d
     36c:	554e4700 	strbpl	r4, [lr, #-1792]	; 0x700
     370:	20534120 	subscs	r4, r3, r0, lsr #2
     374:	32322e32 	eorscc	r2, r2, #800	; 0x320
     378:	61800100 	orrvs	r0, r0, r0, lsl #2
     37c:	02000000 	andeq	r0, r0, #0
     380:	00015c00 	andeq	r5, r1, r0, lsl #24
     384:	1a010400 	bne	4138c <__bss_end+0x2e240>
     388:	01000001 	tsteq	r0, r1
     38c:	000001f1 	strdeq	r0, [r0], -r1
     390:	00000035 	andeq	r0, r0, r5, lsr r0
     394:	000100cc 	andeq	r0, r1, ip, asr #1
     398:	000100cc 	andeq	r0, r1, ip, asr #1
     39c:	00000210 	andeq	r0, r0, r0, lsl r2
     3a0:	e0060102 	and	r0, r6, r2, lsl #2
     3a4:	02000000 	andeq	r0, r0, #0
     3a8:	00de0801 	sbcseq	r0, lr, r1, lsl #16
     3ac:	02020000 	andeq	r0, r2, #0
     3b0:	00014e05 	andeq	r4, r1, r5, lsl #28
     3b4:	07020200 	streq	r0, [r2, -r0, lsl #4]
     3b8:	00000107 	andeq	r0, r0, r7, lsl #2
     3bc:	69050403 	stmdbvs	r5, {r0, r1, sl}
     3c0:	0200746e 	andeq	r7, r0, #1845493760	; 0x6e000000
     3c4:	00780704 	rsbseq	r0, r8, r4, lsl #14
     3c8:	08020000 	stmdaeq	r2, {}	; <UNPREDICTABLE>
     3cc:	00000005 	andeq	r0, r0, r5
     3d0:	07080200 	streq	r0, [r8, -r0, lsl #4]
     3d4:	0000006e 	andeq	r0, r0, lr, rrx
     3d8:	73070402 	movwvc	r0, #29698	; 0x7402
     3dc:	00000000 	andeq	r0, r0, r0
     3e0:	00000061 	andeq	r0, r0, r1, rrx
     3e4:	01860002 	orreq	r0, r6, r2
     3e8:	01040000 	mrseq	r0, (UNDEF: 4)
     3ec:	0000011a 	andeq	r0, r0, sl, lsl r1
     3f0:	00022401 	andeq	r2, r2, r1, lsl #8
     3f4:	00003500 	andeq	r3, r0, r0, lsl #10
     3f8:	0100cc00 	tsteq	r0, r0, lsl #24
     3fc:	0100cc00 	tsteq	r0, r0, lsl #24
     400:	00022d00 	andeq	r2, r2, r0, lsl #26
     404:	06010200 	streq	r0, [r1], -r0, lsl #4
     408:	000000e0 	andeq	r0, r0, r0, ror #1
     40c:	de080102 	adflee	f0, f0, f2
     410:	02000000 	andeq	r0, r0, #0
     414:	014e0502 	cmpeq	lr, r2, lsl #10
     418:	02020000 	andeq	r0, r2, #0
     41c:	00010707 	andeq	r0, r1, r7, lsl #14
     420:	05040300 	streq	r0, [r4, #-768]	; 0x300
     424:	00746e69 	rsbseq	r6, r4, r9, ror #28
     428:	78070402 	stmdavc	r7, {r1, sl}
     42c:	02000000 	andeq	r0, r0, #0
     430:	00000508 	andeq	r0, r0, r8, lsl #10
     434:	08020000 	stmdaeq	r2, {}	; <UNPREDICTABLE>
     438:	00006e07 	andeq	r6, r0, r7, lsl #28
     43c:	07040200 	streq	r0, [r4, -r0, lsl #4]
     440:	00000073 	andeq	r0, r0, r3, ror r0
     444:	00006100 	andeq	r6, r0, r0, lsl #2
     448:	b0000200 	andlt	r0, r0, r0, lsl #4
     44c:	04000001 	streq	r0, [r0], #-1
     450:	00011a01 	andeq	r1, r1, r1, lsl #20
     454:	02570100 	subseq	r0, r7, #0
     458:	00350000 	eorseq	r0, r5, r0
     45c:	00cc0000 	sbceq	r0, ip, r0
     460:	00cc0001 	sbceq	r0, ip, r1
     464:	024a0001 	subeq	r0, sl, #1
     468:	01020000 	mrseq	r0, (UNDEF: 2)
     46c:	0000e006 	andeq	lr, r0, r6
     470:	08010200 	stmdaeq	r1, {r9}
     474:	000000de 	ldrdeq	r0, [r0], -lr
     478:	4e050202 	cdpmi	2, 0, cr0, cr5, cr2, {0}
     47c:	02000001 	andeq	r0, r0, #1
     480:	01070702 	tsteq	r7, r2, lsl #14
     484:	04030000 	streq	r0, [r3], #-0
     488:	746e6905 	strbtvc	r6, [lr], #-2309	; 0x905
     48c:	07040200 	streq	r0, [r4, -r0, lsl #4]
     490:	00000078 	andeq	r0, r0, r8, ror r0
     494:	00050802 	andeq	r0, r5, r2, lsl #16
     498:	02000000 	andeq	r0, r0, #0
     49c:	006e0708 	rsbeq	r0, lr, r8, lsl #14
     4a0:	04020000 	streq	r0, [r2], #-0
     4a4:	00007307 	andeq	r7, r0, r7, lsl #6
     4a8:	29d20000 	ldmibcs	r2, {}^	; <UNPREDICTABLE>
     4ac:	00020000 	andeq	r0, r2, r0
     4b0:	000001da 	ldrdeq	r0, [r0], -sl
     4b4:	011a0104 	tsteq	sl, r4, lsl #2
     4b8:	27010000 	strcs	r0, [r1, -r0]
     4bc:	35000007 	strcc	r0, [r0, #-7]
     4c0:	cc000000 	stcgt	0, cr0, [r0], {-0}
     4c4:	e4000100 	str	r0, [r0], #-256	; 0x100
     4c8:	67000102 	strvs	r0, [r0, -r2, lsl #2]
     4cc:	02000002 	andeq	r0, r0, #2
     4d0:	00e00601 	rsceq	r0, r0, r1, lsl #12
     4d4:	f3030000 	vhadd.u8	d0, d3, d0
     4d8:	0200000c 	andeq	r0, r0, #12
     4dc:	0000370f 	andeq	r3, r0, pc, lsl #14
     4e0:	08010200 	stmdaeq	r1, {r9}
     4e4:	000000de 	ldrdeq	r0, [r0], -lr
     4e8:	4e050202 	cdpmi	2, 0, cr0, cr5, cr2, {0}
     4ec:	02000001 	andeq	r0, r0, #1
     4f0:	01070702 	tsteq	r7, r2, lsl #14
     4f4:	04040000 	streq	r0, [r4], #-0
     4f8:	746e6905 	strbtvc	r6, [lr], #-2309	; 0x905
     4fc:	08ad0300 	stmiaeq	sp!, {r8, r9}
     500:	13020000 	movwne	r0, #8192	; 0x2000
     504:	0000005e 	andeq	r0, r0, lr, asr r0
     508:	78070402 	stmdavc	r7, {r1, sl}
     50c:	02000000 	andeq	r0, r0, #0
     510:	00000508 	andeq	r0, r0, r8, lsl #10
     514:	08020000 	stmdaeq	r2, {}	; <UNPREDICTABLE>
     518:	00006e07 	andeq	r6, r0, r7, lsl #28
     51c:	03040500 	movweq	r0, #17664	; 0x4500
     520:	00010491 	muleq	r1, r1, r4
     524:	03450600 	movteq	r0, #22016	; 0x5600
     528:	93030000 	movwls	r0, #12288	; 0x3000
     52c:	00000053 	andeq	r0, r0, r3, asr r0
     530:	021e0204 	andseq	r0, lr, #1073741824	; 0x40000000
     534:	53060023 	movwpl	r0, #24611	; 0x6023
     538:	0300000e 	movweq	r0, #14
     53c:	00005394 	muleq	r0, r4, r3
     540:	18060400 	stmdane	r6, {sl}
     544:	06002302 	streq	r2, [r0], -r2, lsl #6
     548:	00000dab 	andeq	r0, r0, fp, lsr #27
     54c:	00539503 	subseq	r9, r3, r3, lsl #10
     550:	08040000 	stmdaeq	r4, {}	; <UNPREDICTABLE>
     554:	00230210 	eoreq	r0, r3, r0, lsl r2
     558:	000c8f06 	andeq	r8, ip, r6, lsl #30
     55c:	53960300 	orrspl	r0, r6, #0
     560:	04000000 	streq	r0, [r0], #-0
     564:	23020f01 	movwcs	r0, #12033	; 0x2f01
     568:	0e580600 	cdpeq	6, 5, cr0, cr8, cr0, {0}
     56c:	97030000 	strls	r0, [r3, -r0]
     570:	00000053 	andeq	r0, r0, r3, asr r0
     574:	02080704 	andeq	r0, r8, #1048576	; 0x100000
     578:	f8060023 			; <UNDEFINED> instruction: 0xf8060023
     57c:	03000007 	movweq	r0, #7
     580:	00005398 	muleq	r0, r8, r3
     584:	05030400 	streq	r0, [r3, #-1024]	; 0x400
     588:	06002302 	streq	r2, [r0], -r2, lsl #6
     58c:	00000e5d 	andeq	r0, r0, sp, asr lr
     590:	00539903 	subseq	r9, r3, r3, lsl #18
     594:	04040000 	streq	r0, [r4], #-0
     598:	00230201 	eoreq	r0, r3, r1, lsl #4
     59c:	000d1c06 	andeq	r1, sp, r6, lsl #24
     5a0:	539a0300 	orrspl	r0, sl, #0
     5a4:	04000000 	streq	r0, [r0], #-0
     5a8:	23020001 	movwcs	r0, #8193	; 0x2001
     5ac:	04070000 	streq	r0, [r7], #-0
     5b0:	01238e03 	teqeq	r3, r3, lsl #28
     5b4:	d3080000 	movwle	r0, #32768	; 0x8000
     5b8:	03000002 	movweq	r0, #2
     5bc:	00005390 	muleq	r0, r0, r3
     5c0:	092a0800 	stmdbeq	sl!, {fp}
     5c4:	9b030000 	blls	c05cc <__bss_end+0xad480>
     5c8:	00000073 	andeq	r0, r0, r3, ror r0
     5cc:	053f0300 	ldreq	r0, [pc, #-768]!	; 2d4 <__resume1_start+0x2d4>
     5d0:	9c030000 	stcls	0, cr0, [r3], {-0}
     5d4:	00000104 	andeq	r0, r0, r4, lsl #2
     5d8:	a1030405 	tstge	r3, r5, lsl #8
     5dc:	000001bf 			; <UNDEFINED> instruction: 0x000001bf
     5e0:	00034506 	andeq	r4, r3, r6, lsl #10
     5e4:	53a30300 			; <UNDEFINED> instruction: 0x53a30300
     5e8:	04000000 	streq	r0, [r0], #-0
     5ec:	23021e02 	movwcs	r1, #11778	; 0x2e02
     5f0:	0e530600 	cdpeq	6, 5, cr0, cr3, cr0, {0}
     5f4:	a4030000 	strge	r0, [r3], #-0
     5f8:	00000053 	andeq	r0, r0, r3, asr r0
     5fc:	02180604 	andseq	r0, r8, #4194304	; 0x400000
     600:	ab060023 	blge	180694 <__bss_end+0x16d548>
     604:	0300000d 	movweq	r0, #13
     608:	000053a5 	andeq	r5, r0, r5, lsr #7
     60c:	10080400 	andne	r0, r8, r0, lsl #8
     610:	06002302 	streq	r2, [r0], -r2, lsl #6
     614:	00000c8f 	andeq	r0, r0, pc, lsl #25
     618:	0053a603 	subseq	sl, r3, r3, lsl #12
     61c:	01040000 	mrseq	r0, (UNDEF: 4)
     620:	0023020f 	eoreq	r0, r3, pc, lsl #4
     624:	000e5806 	andeq	r5, lr, r6, lsl #16
     628:	53a70300 			; <UNDEFINED> instruction: 0x53a70300
     62c:	04000000 	streq	r0, [r0], #-0
     630:	23020807 	movwcs	r0, #10247	; 0x2807
     634:	07f80600 	ldrbeq	r0, [r8, r0, lsl #12]!
     638:	a8030000 	stmdage	r3, {}	; <UNPREDICTABLE>
     63c:	00000053 	andeq	r0, r0, r3, asr r0
     640:	02050304 	andeq	r0, r5, #268435456	; 0x10000000
     644:	5d060023 	stcpl	0, cr0, [r6, #-140]	; 0xffffff74
     648:	0300000e 	movweq	r0, #14
     64c:	000053a9 	andeq	r5, r0, r9, lsr #7
     650:	01040400 	tsteq	r4, r0, lsl #8
     654:	06002302 	streq	r2, [r0], -r2, lsl #6
     658:	00000d1c 	andeq	r0, r0, ip, lsl sp
     65c:	0053aa03 	subseq	sl, r3, r3, lsl #20
     660:	01040000 	mrseq	r0, (UNDEF: 4)
     664:	00230200 	eoreq	r0, r3, r0, lsl #4
     668:	03040700 	movweq	r0, #18176	; 0x4700
     66c:	0001de9e 	muleq	r1, lr, lr
     670:	02d30800 	sbcseq	r0, r3, #0
     674:	a0030000 	andge	r0, r3, r0
     678:	00000053 	andeq	r0, r0, r3, asr r0
     67c:	00092a08 	andeq	r2, r9, r8, lsl #20
     680:	2eab0300 	cdpcs	3, 10, cr0, cr11, cr0, {0}
     684:	00000001 	andeq	r0, r0, r1
     688:	00037b03 	andeq	r7, r3, r3, lsl #22
     68c:	bfac0300 	svclt	0x00ac0300
     690:	05000001 	streq	r0, [r0, #-1]
     694:	9cb10304 	ldcls	3, cr0, [r1], #16
     698:	06000002 	streq	r0, [r0], -r2
     69c:	00000353 	andeq	r0, r0, r3, asr r3
     6a0:	0053b303 	subseq	fp, r3, r3, lsl #6
     6a4:	06040000 	streq	r0, [r4], -r0
     6a8:	0023021a 	eoreq	r0, r3, sl, lsl r2
     6ac:	000e5306 	andeq	r5, lr, r6, lsl #6
     6b0:	53b40300 			; <UNDEFINED> instruction: 0x53b40300
     6b4:	04000000 	streq	r0, [r0], #-0
     6b8:	23021802 	movwcs	r1, #10242	; 0x2802
     6bc:	0dab0600 	stceq	6, cr0, [fp]
     6c0:	b5030000 	strlt	r0, [r3, #-0]
     6c4:	00000053 	andeq	r0, r0, r3, asr r0
     6c8:	02100804 	andseq	r0, r0, #262144	; 0x40000
     6cc:	f8060023 			; <UNDEFINED> instruction: 0xf8060023
     6d0:	0300000c 	movweq	r0, #12
     6d4:	000053b6 			; <UNDEFINED> instruction: 0x000053b6
     6d8:	0f010400 	svceq	0x00010400
     6dc:	06002302 	streq	r2, [r0], -r2, lsl #6
     6e0:	00000e58 	andeq	r0, r0, r8, asr lr
     6e4:	0053b703 	subseq	fp, r3, r3, lsl #14
     6e8:	01040000 	mrseq	r0, (UNDEF: 4)
     6ec:	0023020e 	eoreq	r0, r3, lr, lsl #4
     6f0:	000d0106 	andeq	r0, sp, r6, lsl #2
     6f4:	53b80300 			; <UNDEFINED> instruction: 0x53b80300
     6f8:	04000000 	streq	r0, [r0], #-0
     6fc:	23020d01 	movwcs	r0, #11521	; 0x2d01
     700:	0e5d0600 	cdpeq	6, 5, cr0, cr13, cr0, {0}
     704:	b9030000 	stmdblt	r3, {}	; <UNPREDICTABLE>
     708:	00000053 	andeq	r0, r0, r3, asr r0
     70c:	02080504 	andeq	r0, r8, #16777216	; 0x1000000
     710:	b5060023 	strlt	r0, [r6, #-35]	; 0x23
     714:	03000003 	movweq	r0, #3
     718:	000053ba 			; <UNDEFINED> instruction: 0x000053ba
     71c:	07010400 	streq	r0, [r1, -r0, lsl #8]
     720:	06002302 	streq	r2, [r0], -r2, lsl #6
     724:	00000e62 	andeq	r0, r0, r2, ror #28
     728:	0053bb03 	subseq	fp, r3, r3, lsl #22
     72c:	06040000 	streq	r0, [r4], -r0
     730:	00230201 	eoreq	r0, r3, r1, lsl #4
     734:	000d1c06 	andeq	r1, sp, r6, lsl #24
     738:	53bc0300 			; <UNDEFINED> instruction: 0x53bc0300
     73c:	04000000 	streq	r0, [r0], #-0
     740:	23020001 	movwcs	r0, #8193	; 0x2001
     744:	04070000 	streq	r0, [r7], #-0
     748:	02bbae03 	adcseq	sl, fp, #48	; 0x30
     74c:	d3080000 	movwle	r0, #32768	; 0x8000
     750:	03000002 	movweq	r0, #2
     754:	000053b0 			; <UNDEFINED> instruction: 0x000053b0
     758:	092a0800 	stmdbeq	sl!, {fp}
     75c:	bd030000 	stclt	0, cr0, [r3, #-0]
     760:	000001e9 	andeq	r0, r0, r9, ror #3
     764:	09c70300 	stmibeq	r7, {r8, r9}^
     768:	be030000 	cdplt	0, 0, cr0, cr3, cr0, {0}
     76c:	0000029c 	muleq	r0, ip, r2
     770:	c3030405 	movwgt	r0, #13317	; 0x3405
     774:	00000368 	andeq	r0, r0, r8, ror #6
     778:	000e5306 	andeq	r5, lr, r6, lsl #6
     77c:	53c50300 	bicpl	r0, r5, #0
     780:	04000000 	streq	r0, [r0], #-0
     784:	23021808 	movwcs	r1, #10248	; 0x2808
     788:	0dab0600 	stceq	6, cr0, [fp]
     78c:	c6030000 	strgt	r0, [r3], -r0
     790:	00000053 	andeq	r0, r0, r3, asr r0
     794:	02100804 	andseq	r0, r0, #262144	; 0x40000
     798:	f8060023 			; <UNDEFINED> instruction: 0xf8060023
     79c:	0300000c 	movweq	r0, #12
     7a0:	000053c7 	andeq	r5, r0, r7, asr #7
     7a4:	0f010400 	svceq	0x00010400
     7a8:	06002302 	streq	r2, [r0], -r2, lsl #6
     7ac:	00000e58 	andeq	r0, r0, r8, asr lr
     7b0:	0053c803 	subseq	ip, r3, r3, lsl #16
     7b4:	01040000 	mrseq	r0, (UNDEF: 4)
     7b8:	0023020e 	eoreq	r0, r3, lr, lsl #4
     7bc:	000d0106 	andeq	r0, sp, r6, lsl #2
     7c0:	53c90300 	bicpl	r0, r9, #0
     7c4:	04000000 	streq	r0, [r0], #-0
     7c8:	23020d01 	movwcs	r0, #11521	; 0x2d01
     7cc:	0e5d0600 	cdpeq	6, 5, cr0, cr13, cr0, {0}
     7d0:	ca030000 	bgt	c07d8 <__bss_end+0xad68c>
     7d4:	00000053 	andeq	r0, r0, r3, asr r0
     7d8:	02080504 	andeq	r0, r8, #16777216	; 0x1000000
     7dc:	b5060023 	strlt	r0, [r6, #-35]	; 0x23
     7e0:	03000003 	movweq	r0, #3
     7e4:	000053cb 	andeq	r5, r0, fp, asr #7
     7e8:	07010400 	streq	r0, [r1, -r0, lsl #8]
     7ec:	06002302 	streq	r2, [r0], -r2, lsl #6
     7f0:	00000e62 	andeq	r0, r0, r2, ror #28
     7f4:	0053cc03 	subseq	ip, r3, r3, lsl #24
     7f8:	06040000 	streq	r0, [r4], -r0
     7fc:	00230201 	eoreq	r0, r3, r1, lsl #4
     800:	000d1c06 	andeq	r1, sp, r6, lsl #24
     804:	53cd0300 	bicpl	r0, sp, #0
     808:	04000000 	streq	r0, [r0], #-0
     80c:	23020001 	movwcs	r0, #8193	; 0x2001
     810:	04070000 	streq	r0, [r7], #-0
     814:	0387c003 	orreq	ip, r7, #3
     818:	d3080000 	movwle	r0, #32768	; 0x8000
     81c:	03000002 	movweq	r0, #2
     820:	000053c2 	andeq	r5, r0, r2, asr #7
     824:	092a0800 	stmdbeq	sl!, {fp}
     828:	ce030000 	cdpgt	0, 0, cr0, cr3, cr0, {0}
     82c:	000002c6 	andeq	r0, r0, r6, asr #5
     830:	0b450300 	bleq	1141438 <__bss_end+0x112e2ec>
     834:	cf030000 	svcgt	0x00030000
     838:	00000368 	andeq	r0, r0, r8, ror #6
     83c:	d4030405 	strle	r0, [r3], #-1029	; 0x405
     840:	00000434 	andeq	r0, r0, r4, lsr r4
     844:	000e5306 	andeq	r5, lr, r6, lsl #6
     848:	53d60300 	bicspl	r0, r6, #0
     84c:	04000000 	streq	r0, [r0], #-0
     850:	23021808 	movwcs	r1, #10248	; 0x2808
     854:	0dab0600 	stceq	6, cr0, [fp]
     858:	d7030000 	strle	r0, [r3, -r0]
     85c:	00000053 	andeq	r0, r0, r3, asr r0
     860:	02100804 	andseq	r0, r0, #262144	; 0x40000
     864:	f8060023 			; <UNDEFINED> instruction: 0xf8060023
     868:	0300000c 	movweq	r0, #12
     86c:	000053d8 	ldrdeq	r5, [r0], -r8
     870:	0f010400 	svceq	0x00010400
     874:	06002302 	streq	r2, [r0], -r2, lsl #6
     878:	00000e58 	andeq	r0, r0, r8, asr lr
     87c:	0053d903 	subseq	sp, r3, r3, lsl #18
     880:	01040000 	mrseq	r0, (UNDEF: 4)
     884:	0023020e 	eoreq	r0, r3, lr, lsl #4
     888:	000d0106 	andeq	r0, sp, r6, lsl #2
     88c:	53da0300 	bicspl	r0, sl, #0
     890:	04000000 	streq	r0, [r0], #-0
     894:	23020d01 	movwcs	r0, #11521	; 0x2d01
     898:	0e5d0600 	cdpeq	6, 5, cr0, cr13, cr0, {0}
     89c:	db030000 	blle	c08a4 <__bss_end+0xad758>
     8a0:	00000053 	andeq	r0, r0, r3, asr r0
     8a4:	02080504 	andeq	r0, r8, #16777216	; 0x1000000
     8a8:	b5060023 	strlt	r0, [r6, #-35]	; 0x23
     8ac:	03000003 	movweq	r0, #3
     8b0:	000053dc 	ldrdeq	r5, [r0], -ip
     8b4:	07010400 	streq	r0, [r1, -r0, lsl #8]
     8b8:	06002302 	streq	r2, [r0], -r2, lsl #6
     8bc:	00000e62 	andeq	r0, r0, r2, ror #28
     8c0:	0053dd03 	subseq	sp, r3, r3, lsl #26
     8c4:	06040000 	streq	r0, [r4], -r0
     8c8:	00230201 	eoreq	r0, r3, r1, lsl #4
     8cc:	000d1c06 	andeq	r1, sp, r6, lsl #24
     8d0:	53de0300 	bicspl	r0, lr, #0
     8d4:	04000000 	streq	r0, [r0], #-0
     8d8:	23020001 	movwcs	r0, #8193	; 0x2001
     8dc:	04070000 	streq	r0, [r7], #-0
     8e0:	0453d103 	ldrbeq	sp, [r3], #-259	; 0x103
     8e4:	d3080000 	movwle	r0, #32768	; 0x8000
     8e8:	03000002 	movweq	r0, #2
     8ec:	000053d3 	ldrdeq	r5, [r0], -r3
     8f0:	092a0800 	stmdbeq	sl!, {fp}
     8f4:	df030000 	svcle	0x00030000
     8f8:	00000392 	muleq	r0, r2, r3
     8fc:	065d0300 	ldrbeq	r0, [sp], -r0, lsl #6
     900:	e0030000 	and	r0, r3, r0
     904:	00000434 	andeq	r0, r0, r4, lsr r4
     908:	e5030405 	str	r0, [r3, #-1029]	; 0x405
     90c:	00000511 	andeq	r0, r0, r1, lsl r5
     910:	000e5306 	andeq	r5, lr, r6, lsl #6
     914:	53e70300 	mvnpl	r0, #0
     918:	04000000 	streq	r0, [r0], #-0
     91c:	23021808 	movwcs	r1, #10248	; 0x2808
     920:	0dab0600 	stceq	6, cr0, [fp]
     924:	e8030000 	stmda	r3, {}	; <UNPREDICTABLE>
     928:	00000053 	andeq	r0, r0, r3, asr r0
     92c:	02100804 	andseq	r0, r0, #262144	; 0x40000
     930:	f8060023 			; <UNDEFINED> instruction: 0xf8060023
     934:	0300000c 	movweq	r0, #12
     938:	000053e9 	andeq	r5, r0, r9, ror #7
     93c:	0f010400 	svceq	0x00010400
     940:	06002302 	streq	r2, [r0], -r2, lsl #6
     944:	00000e58 	andeq	r0, r0, r8, asr lr
     948:	0053ea03 	subseq	lr, r3, r3, lsl #20
     94c:	01040000 	mrseq	r0, (UNDEF: 4)
     950:	0023020e 	eoreq	r0, r3, lr, lsl #4
     954:	000d0106 	andeq	r0, sp, r6, lsl #2
     958:	53eb0300 	mvnpl	r0, #0
     95c:	04000000 	streq	r0, [r0], #-0
     960:	23020d01 	movwcs	r0, #11521	; 0x2d01
     964:	0e5d0600 	cdpeq	6, 5, cr0, cr13, cr0, {0}
     968:	ec030000 	stc	0, cr0, [r3], {-0}
     96c:	00000053 	andeq	r0, r0, r3, asr r0
     970:	02080504 	andeq	r0, r8, #16777216	; 0x1000000
     974:	b5060023 	strlt	r0, [r6, #-35]	; 0x23
     978:	03000003 	movweq	r0, #3
     97c:	000053ed 	andeq	r5, r0, sp, ror #7
     980:	07010400 	streq	r0, [r1, -r0, lsl #8]
     984:	06002302 	streq	r2, [r0], -r2, lsl #6
     988:	00000e62 	andeq	r0, r0, r2, ror #28
     98c:	0053ee03 	subseq	lr, r3, r3, lsl #28
     990:	05040000 	streq	r0, [r4, #-0]
     994:	00230202 	eoreq	r0, r3, r2, lsl #4
     998:	00083606 	andeq	r3, r8, r6, lsl #12
     99c:	53ef0300 	mvnpl	r0, #0
     9a0:	04000000 	streq	r0, [r0], #-0
     9a4:	23020101 	movwcs	r0, #8449	; 0x2101
     9a8:	0d1c0600 	ldceq	6, cr0, [ip, #-0]
     9ac:	f0030000 			; <UNDEFINED> instruction: 0xf0030000
     9b0:	00000053 	andeq	r0, r0, r3, asr r0
     9b4:	02000104 	andeq	r0, r0, #1
     9b8:	07000023 	streq	r0, [r0, -r3, lsr #32]
     9bc:	30e20304 	rsccc	r0, r2, r4, lsl #6
     9c0:	08000005 	stmdaeq	r0, {r0, r2}
     9c4:	000002d3 	ldrdeq	r0, [r0], -r3
     9c8:	0053e403 	subseq	lr, r3, r3, lsl #8
     9cc:	2a080000 	bcs	2009d4 <__bss_end+0x1ed888>
     9d0:	03000009 	movweq	r0, #9
     9d4:	00045ef1 	strdeq	r5, [r4], -r1
     9d8:	6d030000 	stcvs	0, cr0, [r3, #-0]
     9dc:	0300000f 	movweq	r0, #15
     9e0:	000511f2 	strdeq	r1, [r5], -r2
     9e4:	03040500 	movweq	r0, #17664	; 0x4500
     9e8:	0005dff7 	strdeq	sp, [r5], -r7
     9ec:	0e530600 	cdpeq	6, 5, cr0, cr3, cr0, {0}
     9f0:	f9030000 			; <UNDEFINED> instruction: 0xf9030000
     9f4:	00000053 	andeq	r0, r0, r3, asr r0
     9f8:	02180804 	andseq	r0, r8, #262144	; 0x40000
     9fc:	ab060023 	blge	180a90 <__bss_end+0x16d944>
     a00:	0300000d 	movweq	r0, #13
     a04:	000053fa 	strdeq	r5, [r0], -sl
     a08:	10080400 	andne	r0, r8, r0, lsl #8
     a0c:	06002302 	streq	r2, [r0], -r2, lsl #6
     a10:	000003fd 	strdeq	r0, [r0], -sp
     a14:	0053fb03 	subseq	pc, r3, r3, lsl #22
     a18:	01040000 	mrseq	r0, (UNDEF: 4)
     a1c:	0023020f 	eoreq	r0, r3, pc, lsl #4
     a20:	000e5806 	andeq	r5, lr, r6, lsl #16
     a24:	53fc0300 	mvnspl	r0, #0
     a28:	04000000 	streq	r0, [r0], #-0
     a2c:	23020e01 	movwcs	r0, #11777	; 0x2e01
     a30:	0d010600 	stceq	6, cr0, [r1, #-0]
     a34:	fd030000 	stc2	0, cr0, [r3, #-0]
     a38:	00000053 	andeq	r0, r0, r3, asr r0
     a3c:	020d0104 	andeq	r0, sp, #1
     a40:	5d060023 	stcpl	0, cr0, [r6, #-140]	; 0xffffff74
     a44:	0300000e 	movweq	r0, #14
     a48:	000053fe 	strdeq	r5, [r0], -lr
     a4c:	08050400 	stmdaeq	r5, {sl}
     a50:	06002302 	streq	r2, [r0], -r2, lsl #6
     a54:	000003b5 			; <UNDEFINED> instruction: 0x000003b5
     a58:	0053ff03 	subseq	pc, r3, r3, lsl #30
     a5c:	01040000 	mrseq	r0, (UNDEF: 4)
     a60:	00230207 	eoreq	r0, r3, r7, lsl #4
     a64:	000e6209 	andeq	r6, lr, r9, lsl #4
     a68:	01000300 	mrseq	r0, LR_irq
     a6c:	00000053 	andeq	r0, r0, r3, asr r0
     a70:	02010604 	andeq	r0, r1, #4194304	; 0x400000
     a74:	1c090023 	stcne	0, cr0, [r9], {35}	; 0x23
     a78:	0300000d 	movweq	r0, #13
     a7c:	00530101 	subseq	r0, r3, r1, lsl #2
     a80:	01040000 	mrseq	r0, (UNDEF: 4)
     a84:	00230200 	eoreq	r0, r3, r0, lsl #4
     a88:	03040700 	movweq	r0, #18176	; 0x4700
     a8c:	0005fff4 	strdeq	pc, [r5], -r4
     a90:	02d30800 	sbcseq	r0, r3, #0
     a94:	f6030000 			; <UNDEFINED> instruction: 0xf6030000
     a98:	00000053 	andeq	r0, r0, r3, asr r0
     a9c:	00092a0a 	andeq	r2, r9, sl, lsl #20
     aa0:	01020300 	mrseq	r0, LR_svc
     aa4:	0000053b 	andeq	r0, r0, fp, lsr r5
     aa8:	0bc70b00 	bleq	ff1c36b0 <__bss_end+0xff1b0564>
     aac:	03030000 	movweq	r0, #12288	; 0x3000
     ab0:	0005df01 	andeq	sp, r5, r1, lsl #30
     ab4:	03040c00 	movweq	r0, #19456	; 0x4c00
     ab8:	06c90108 	strbeq	r0, [r9], r8, lsl #2
     abc:	8f090000 	svchi	0x00090000
     ac0:	0300000c 	movweq	r0, #12
     ac4:	0053010a 	subseq	r0, r3, sl, lsl #2
     ac8:	02040000 	andeq	r0, r4, #0
     acc:	0023021e 	eoreq	r0, r3, lr, lsl r2
     ad0:	000e5309 	andeq	r5, lr, r9, lsl #6
     ad4:	010b0300 	mrseq	r0, (UNDEF: 59)
     ad8:	00000053 	andeq	r0, r0, r3, asr r0
     adc:	02180604 	andseq	r0, r8, #4194304	; 0x400000
     ae0:	ab090023 	blge	240b74 <__bss_end+0x22da28>
     ae4:	0300000d 	movweq	r0, #13
     ae8:	0053010c 	subseq	r0, r3, ip, lsl #2
     aec:	08040000 	stmdaeq	r4, {}	; <UNPREDICTABLE>
     af0:	00230210 	eoreq	r0, r3, r0, lsl r2
     af4:	0003fd09 	andeq	pc, r3, r9, lsl #26
     af8:	010d0300 	mrseq	r0, SP_mon
     afc:	00000053 	andeq	r0, r0, r3, asr r0
     b00:	020f0104 	andeq	r0, pc, #1
     b04:	58090023 	stmdapl	r9, {r0, r1, r5}
     b08:	0300000e 	movweq	r0, #14
     b0c:	0053010e 	subseq	r0, r3, lr, lsl #2
     b10:	01040000 	mrseq	r0, (UNDEF: 4)
     b14:	0023020e 	eoreq	r0, r3, lr, lsl #4
     b18:	000d0109 	andeq	r0, sp, r9, lsl #2
     b1c:	010f0300 	mrseq	r0, SP_hyp
     b20:	00000053 	andeq	r0, r0, r3, asr r0
     b24:	020d0104 	andeq	r0, sp, #1
     b28:	5d090023 	stcpl	0, cr0, [r9, #-140]	; 0xffffff74
     b2c:	0300000e 	movweq	r0, #14
     b30:	00530110 	subseq	r0, r3, r0, lsl r1
     b34:	05040000 	streq	r0, [r4, #-0]
     b38:	00230208 	eoreq	r0, r3, r8, lsl #4
     b3c:	0003b509 	andeq	fp, r3, r9, lsl #10
     b40:	01110300 	tsteq	r1, r0, lsl #6
     b44:	00000053 	andeq	r0, r0, r3, asr r0
     b48:	02070104 	andeq	r0, r7, #1
     b4c:	62090023 	andvs	r0, r9, #35	; 0x23
     b50:	0300000e 	movweq	r0, #14
     b54:	00530112 	subseq	r0, r3, r2, lsl r1
     b58:	06040000 	streq	r0, [r4], -r0
     b5c:	00230201 	eoreq	r0, r3, r1, lsl #4
     b60:	000d1c09 	andeq	r1, sp, r9, lsl #24
     b64:	01130300 	tsteq	r3, r0, lsl #6
     b68:	00000053 	andeq	r0, r0, r3, asr r0
     b6c:	02000104 	andeq	r0, r0, #1
     b70:	0d000023 	stceq	0, cr0, [r0, #-140]	; 0xffffff74
     b74:	01050304 	tsteq	r5, r4, lsl #6
     b78:	000006eb 	andeq	r0, r0, fp, ror #13
     b7c:	0002d30a 	andeq	sp, r2, sl, lsl #6
     b80:	01070300 	mrseq	r0, SP_und
     b84:	00000053 	andeq	r0, r0, r3, asr r0
     b88:	00092a0a 	andeq	r2, r9, sl, lsl #20
     b8c:	01140300 	tsteq	r4, r0, lsl #6
     b90:	0000060b 	andeq	r0, r0, fp, lsl #12
     b94:	08980b00 	ldmeq	r8, {r8, r9, fp}
     b98:	15030000 	strne	r0, [r3, #-0]
     b9c:	0006c901 	andeq	ip, r6, r1, lsl #18
     ba0:	03040c00 	movweq	r0, #19456	; 0x4c00
     ba4:	07a3011a 			; <UNDEFINED> instruction: 0x07a3011a
     ba8:	53090000 	movwpl	r0, #36864	; 0x9000
     bac:	0300000e 	movweq	r0, #14
     bb0:	0053011c 	subseq	r0, r3, ip, lsl r1
     bb4:	08040000 	stmdaeq	r4, {}	; <UNPREDICTABLE>
     bb8:	00230218 	eoreq	r0, r3, r8, lsl r2
     bbc:	000dab09 	andeq	sl, sp, r9, lsl #22
     bc0:	011d0300 	tsteq	sp, r0, lsl #6
     bc4:	00000053 	andeq	r0, r0, r3, asr r0
     bc8:	02100804 	andseq	r0, r0, #262144	; 0x40000
     bcc:	f8090023 			; <UNDEFINED> instruction: 0xf8090023
     bd0:	0300000c 	movweq	r0, #12
     bd4:	0053011e 	subseq	r0, r3, lr, lsl r1
     bd8:	01040000 	mrseq	r0, (UNDEF: 4)
     bdc:	0023020f 	eoreq	r0, r3, pc, lsl #4
     be0:	000e5809 	andeq	r5, lr, r9, lsl #16
     be4:	011f0300 	tsteq	pc, r0, lsl #6
     be8:	00000053 	andeq	r0, r0, r3, asr r0
     bec:	020e0104 	andeq	r0, lr, #1
     bf0:	01090023 	tsteq	r9, r3, lsr #32
     bf4:	0300000d 	movweq	r0, #13
     bf8:	00530120 	subseq	r0, r3, r0, lsr #2
     bfc:	01040000 	mrseq	r0, (UNDEF: 4)
     c00:	0023020d 	eoreq	r0, r3, sp, lsl #4
     c04:	000e5d09 	andeq	r5, lr, r9, lsl #26
     c08:	01210300 	teqeq	r1, r0, lsl #6
     c0c:	00000053 	andeq	r0, r0, r3, asr r0
     c10:	02080504 	andeq	r0, r8, #16777216	; 0x1000000
     c14:	b5090023 	strlt	r0, [r9, #-35]	; 0x23
     c18:	03000003 	movweq	r0, #3
     c1c:	00530122 	subseq	r0, r3, r2, lsr #2
     c20:	01040000 	mrseq	r0, (UNDEF: 4)
     c24:	00230207 	eoreq	r0, r3, r7, lsl #4
     c28:	000e6209 	andeq	r6, lr, r9, lsl #4
     c2c:	01230300 	teqeq	r3, r0, lsl #6
     c30:	00000053 	andeq	r0, r0, r3, asr r0
     c34:	02010604 	andeq	r0, r1, #4194304	; 0x400000
     c38:	1c090023 	stcne	0, cr0, [r9], {35}	; 0x23
     c3c:	0300000d 	movweq	r0, #13
     c40:	00530124 	subseq	r0, r3, r4, lsr #2
     c44:	01040000 	mrseq	r0, (UNDEF: 4)
     c48:	00230200 	eoreq	r0, r3, r0, lsl #4
     c4c:	03040d00 	movweq	r0, #19712	; 0x4d00
     c50:	07c50117 	bfieq	r0, r7, #2, #4
     c54:	d30a0000 	movwle	r0, #40960	; 0xa000
     c58:	03000002 	movweq	r0, #2
     c5c:	00530119 	subseq	r0, r3, r9, lsl r1
     c60:	2a0a0000 	bcs	280c68 <__bss_end+0x26db1c>
     c64:	03000009 	movweq	r0, #9
     c68:	06f70125 	ldrbteq	r0, [r7], r5, lsr #2
     c6c:	0b000000 	bleq	c74 <__resume1_start+0xc74>
     c70:	00000289 	andeq	r0, r0, r9, lsl #5
     c74:	a3012603 	movwge	r2, #5635	; 0x1603
     c78:	0c000007 	stceq	0, cr0, [r0], {7}
     c7c:	012b0304 	teqeq	fp, r4, lsl #6
     c80:	0000087d 	andeq	r0, r0, sp, ror r8
     c84:	000e5309 	andeq	r5, lr, r9, lsl #6
     c88:	012d0300 	teqeq	sp, r0, lsl #6
     c8c:	00000053 	andeq	r0, r0, r3, asr r0
     c90:	02180804 	andseq	r0, r8, #262144	; 0x40000
     c94:	ab090023 	blge	240d28 <__bss_end+0x22dbdc>
     c98:	0300000d 	movweq	r0, #13
     c9c:	0053012e 	subseq	r0, r3, lr, lsr #2
     ca0:	08040000 	stmdaeq	r4, {}	; <UNPREDICTABLE>
     ca4:	00230210 	eoreq	r0, r3, r0, lsl r2
     ca8:	000cf809 	andeq	pc, ip, r9, lsl #16
     cac:	012f0300 	teqeq	pc, r0, lsl #6
     cb0:	00000053 	andeq	r0, r0, r3, asr r0
     cb4:	020f0104 	andeq	r0, pc, #1
     cb8:	58090023 	stmdapl	r9, {r0, r1, r5}
     cbc:	0300000e 	movweq	r0, #14
     cc0:	00530130 	subseq	r0, r3, r0, lsr r1
     cc4:	01040000 	mrseq	r0, (UNDEF: 4)
     cc8:	0023020e 	eoreq	r0, r3, lr, lsl #4
     ccc:	000d0109 	andeq	r0, sp, r9, lsl #2
     cd0:	01310300 	teqeq	r1, r0, lsl #6
     cd4:	00000053 	andeq	r0, r0, r3, asr r0
     cd8:	020d0104 	andeq	r0, sp, #1
     cdc:	5d090023 	stcpl	0, cr0, [r9, #-140]	; 0xffffff74
     ce0:	0300000e 	movweq	r0, #14
     ce4:	00530132 	subseq	r0, r3, r2, lsr r1
     ce8:	05040000 	streq	r0, [r4, #-0]
     cec:	00230208 	eoreq	r0, r3, r8, lsl #4
     cf0:	0003b509 	andeq	fp, r3, r9, lsl #10
     cf4:	01330300 	teqeq	r3, r0, lsl #6
     cf8:	00000053 	andeq	r0, r0, r3, asr r0
     cfc:	02070104 	andeq	r0, r7, #1
     d00:	62090023 	andvs	r0, r9, #35	; 0x23
     d04:	0300000e 	movweq	r0, #14
     d08:	00530134 	subseq	r0, r3, r4, lsr r1
     d0c:	06040000 	streq	r0, [r4], -r0
     d10:	00230201 	eoreq	r0, r3, r1, lsl #4
     d14:	000d1c09 	andeq	r1, sp, r9, lsl #24
     d18:	01350300 	teqeq	r5, r0, lsl #6
     d1c:	00000053 	andeq	r0, r0, r3, asr r0
     d20:	02000104 	andeq	r0, r0, #1
     d24:	0d000023 	stceq	0, cr0, [r0, #-140]	; 0xffffff74
     d28:	01280304 	teqeq	r8, r4, lsl #6
     d2c:	0000089f 	muleq	r0, pc, r8	; <UNPREDICTABLE>
     d30:	0002d30a 	andeq	sp, r2, sl, lsl #6
     d34:	012a0300 	teqeq	sl, r0, lsl #6
     d38:	00000053 	andeq	r0, r0, r3, asr r0
     d3c:	00092a0a 	andeq	r2, r9, sl, lsl #20
     d40:	01360300 	teqeq	r6, r0, lsl #6
     d44:	000007d1 	ldrdeq	r0, [r0], -r1
     d48:	0eec0b00 	vfmaeq.f64	d16, d12, d0
     d4c:	37030000 	strcc	r0, [r3, -r0]
     d50:	00087d01 	andeq	r7, r8, r1, lsl #26
     d54:	03040c00 	movweq	r0, #19456	; 0x4c00
     d58:	0957013c 	ldmdbeq	r7, {r2, r3, r4, r5, r8}^
     d5c:	53090000 	movwpl	r0, #36864	; 0x9000
     d60:	0300000e 	movweq	r0, #14
     d64:	0053013e 	subseq	r0, r3, lr, lsr r1
     d68:	08040000 	stmdaeq	r4, {}	; <UNPREDICTABLE>
     d6c:	00230218 	eoreq	r0, r3, r8, lsl r2
     d70:	000dab09 	andeq	sl, sp, r9, lsl #22
     d74:	013f0300 	teqeq	pc, r0, lsl #6
     d78:	00000053 	andeq	r0, r0, r3, asr r0
     d7c:	02100804 	andseq	r0, r0, #262144	; 0x40000
     d80:	f8090023 			; <UNDEFINED> instruction: 0xf8090023
     d84:	0300000c 	movweq	r0, #12
     d88:	00530140 	subseq	r0, r3, r0, asr #2
     d8c:	01040000 	mrseq	r0, (UNDEF: 4)
     d90:	0023020f 	eoreq	r0, r3, pc, lsl #4
     d94:	000e5809 	andeq	r5, lr, r9, lsl #16
     d98:	01410300 	mrseq	r0, (UNDEF: 113)
     d9c:	00000053 	andeq	r0, r0, r3, asr r0
     da0:	020e0104 	andeq	r0, lr, #1
     da4:	01090023 	tsteq	r9, r3, lsr #32
     da8:	0300000d 	movweq	r0, #13
     dac:	00530142 	subseq	r0, r3, r2, asr #2
     db0:	01040000 	mrseq	r0, (UNDEF: 4)
     db4:	0023020d 	eoreq	r0, r3, sp, lsl #4
     db8:	000e5d09 	andeq	r5, lr, r9, lsl #26
     dbc:	01430300 	mrseq	r0, (UNDEF: 115)
     dc0:	00000053 	andeq	r0, r0, r3, asr r0
     dc4:	02080504 	andeq	r0, r8, #16777216	; 0x1000000
     dc8:	b5090023 	strlt	r0, [r9, #-35]	; 0x23
     dcc:	03000003 	movweq	r0, #3
     dd0:	00530144 	subseq	r0, r3, r4, asr #2
     dd4:	01040000 	mrseq	r0, (UNDEF: 4)
     dd8:	00230207 	eoreq	r0, r3, r7, lsl #4
     ddc:	000e6209 	andeq	r6, lr, r9, lsl #4
     de0:	01450300 	mrseq	r0, (UNDEF: 117)
     de4:	00000053 	andeq	r0, r0, r3, asr r0
     de8:	02010604 	andeq	r0, r1, #4194304	; 0x400000
     dec:	1c090023 	stcne	0, cr0, [r9], {35}	; 0x23
     df0:	0300000d 	movweq	r0, #13
     df4:	00530146 	subseq	r0, r3, r6, asr #2
     df8:	01040000 	mrseq	r0, (UNDEF: 4)
     dfc:	00230200 	eoreq	r0, r3, r0, lsl #4
     e00:	03040d00 	movweq	r0, #19712	; 0x4d00
     e04:	09790139 	ldmdbeq	r9!, {r0, r3, r4, r5, r8}^
     e08:	d30a0000 	movwle	r0, #40960	; 0xa000
     e0c:	03000002 	movweq	r0, #2
     e10:	0053013b 	subseq	r0, r3, fp, lsr r1
     e14:	2a0a0000 	bcs	280e1c <__bss_end+0x26dcd0>
     e18:	03000009 	movweq	r0, #9
     e1c:	08ab0147 	stmiaeq	fp!, {r0, r1, r2, r6, r8}
     e20:	0b000000 	bleq	e28 <__resume1_start+0xe28>
     e24:	00000f32 	andeq	r0, r0, r2, lsr pc
     e28:	57014803 	strpl	r4, [r1, -r3, lsl #16]
     e2c:	0c000009 	stceq	0, cr0, [r0], {9}
     e30:	014d0304 	cmpeq	sp, r4, lsl #6
     e34:	00000a31 	andeq	r0, r0, r1, lsr sl
     e38:	000e5309 	andeq	r5, lr, r9, lsl #6
     e3c:	014f0300 	mrseq	r0, (UNDEF: 127)
     e40:	00000053 	andeq	r0, r0, r3, asr r0
     e44:	02180804 	andseq	r0, r8, #262144	; 0x40000
     e48:	ab090023 	blge	240edc <__bss_end+0x22dd90>
     e4c:	0300000d 	movweq	r0, #13
     e50:	00530150 	subseq	r0, r3, r0, asr r1
     e54:	08040000 	stmdaeq	r4, {}	; <UNPREDICTABLE>
     e58:	00230210 	eoreq	r0, r3, r0, lsl r2
     e5c:	000cf809 	andeq	pc, ip, r9, lsl #16
     e60:	01510300 	cmpeq	r1, r0, lsl #6
     e64:	00000053 	andeq	r0, r0, r3, asr r0
     e68:	020f0104 	andeq	r0, pc, #1
     e6c:	58090023 	stmdapl	r9, {r0, r1, r5}
     e70:	0300000e 	movweq	r0, #14
     e74:	00530152 	subseq	r0, r3, r2, asr r1
     e78:	01040000 	mrseq	r0, (UNDEF: 4)
     e7c:	0023020e 	eoreq	r0, r3, lr, lsl #4
     e80:	000d0109 	andeq	r0, sp, r9, lsl #2
     e84:	01530300 	cmpeq	r3, r0, lsl #6
     e88:	00000053 	andeq	r0, r0, r3, asr r0
     e8c:	020d0104 	andeq	r0, sp, #1
     e90:	5d090023 	stcpl	0, cr0, [r9, #-140]	; 0xffffff74
     e94:	0300000e 	movweq	r0, #14
     e98:	00530154 	subseq	r0, r3, r4, asr r1
     e9c:	05040000 	streq	r0, [r4, #-0]
     ea0:	00230208 	eoreq	r0, r3, r8, lsl #4
     ea4:	0003b509 	andeq	fp, r3, r9, lsl #10
     ea8:	01550300 	cmpeq	r5, r0, lsl #6
     eac:	00000053 	andeq	r0, r0, r3, asr r0
     eb0:	02070104 	andeq	r0, r7, #1
     eb4:	62090023 	andvs	r0, r9, #35	; 0x23
     eb8:	0300000e 	movweq	r0, #14
     ebc:	00530156 	subseq	r0, r3, r6, asr r1
     ec0:	06040000 	streq	r0, [r4], -r0
     ec4:	00230201 	eoreq	r0, r3, r1, lsl #4
     ec8:	000d1c09 	andeq	r1, sp, r9, lsl #24
     ecc:	01570300 	cmpeq	r7, r0, lsl #6
     ed0:	00000053 	andeq	r0, r0, r3, asr r0
     ed4:	02000104 	andeq	r0, r0, #1
     ed8:	0d000023 	stceq	0, cr0, [r0, #-140]	; 0xffffff74
     edc:	014a0304 	cmpeq	sl, r4, lsl #6
     ee0:	00000a53 	andeq	r0, r0, r3, asr sl
     ee4:	0002d30a 	andeq	sp, r2, sl, lsl #6
     ee8:	014c0300 	mrseq	r0, SPSR_mon
     eec:	00000053 	andeq	r0, r0, r3, asr r0
     ef0:	00092a0a 	andeq	r2, r9, sl, lsl #20
     ef4:	01580300 	cmpeq	r8, r0, lsl #6
     ef8:	00000985 	andeq	r0, r0, r5, lsl #19
     efc:	07e20b00 	strbeq	r0, [r2, r0, lsl #22]!
     f00:	59030000 	stmdbpl	r3, {}	; <UNPREDICTABLE>
     f04:	000a3101 	andeq	r3, sl, r1, lsl #2
     f08:	03040c00 	movweq	r0, #19456	; 0x4c00
     f0c:	0ab1015e 	beq	fec4148c <__bss_end+0xfec2e340>
     f10:	32090000 	andcc	r0, r9, #0
     f14:	0300000b 	movweq	r0, #11
     f18:	00530160 	subseq	r0, r3, r0, ror #2
     f1c:	01040000 	mrseq	r0, (UNDEF: 4)
     f20:	0023021f 	eoreq	r0, r3, pc, lsl r2
     f24:	000e5309 	andeq	r5, lr, r9, lsl #6
     f28:	01610300 	cmneq	r1, r0, lsl #6
     f2c:	00000053 	andeq	r0, r0, r3, asr r0
     f30:	02180704 	andseq	r0, r8, #1048576	; 0x100000
     f34:	87090023 	strhi	r0, [r9, -r3, lsr #32]
     f38:	03000004 	movweq	r0, #4
     f3c:	00530162 	subseq	r0, r3, r2, ror #2
     f40:	01040000 	mrseq	r0, (UNDEF: 4)
     f44:	00230217 	eoreq	r0, r3, r7, lsl r2
     f48:	000e5809 	andeq	r5, lr, r9, lsl #16
     f4c:	01630300 	cmneq	r3, r0, lsl #6
     f50:	00000053 	andeq	r0, r0, r3, asr r0
     f54:	02001704 	andeq	r1, r0, #1048576	; 0x100000
     f58:	0d000023 	stceq	0, cr0, [r0, #-140]	; 0xffffff74
     f5c:	015b0304 	cmpeq	fp, r4, lsl #6
     f60:	00000ad3 	ldrdeq	r0, [r0], -r3
     f64:	0002d30a 	andeq	sp, r2, sl, lsl #6
     f68:	015d0300 	cmpeq	sp, r0, lsl #6
     f6c:	00000053 	andeq	r0, r0, r3, asr r0
     f70:	00092a0a 	andeq	r2, r9, sl, lsl #20
     f74:	01640300 	cmneq	r4, r0, lsl #6
     f78:	00000a5f 	andeq	r0, r0, pc, asr sl
     f7c:	06240b00 	strteq	r0, [r4], -r0, lsl #22
     f80:	65030000 	strvs	r0, [r3, #-0]
     f84:	000ab101 	andeq	fp, sl, r1, lsl #2
     f88:	03040c00 	movweq	r0, #19456	; 0x4c00
     f8c:	0b31016a 	bleq	c4153c <__bss_end+0xc2e3f0>
     f90:	b3090000 	movwlt	r0, #36864	; 0x9000
     f94:	03000008 	movweq	r0, #8
     f98:	0053016c 	subseq	r0, r3, ip, ror #2
     f9c:	03040000 	movweq	r0, #16384	; 0x4000
     fa0:	0023021d 	eoreq	r0, r3, sp, lsl r2
     fa4:	000e5309 	andeq	r5, lr, r9, lsl #6
     fa8:	016d0300 	cmneq	sp, r0, lsl #6
     fac:	00000053 	andeq	r0, r0, r3, asr r0
     fb0:	02180504 	andseq	r0, r8, #16777216	; 0x1000000
     fb4:	6a090023 	bvs	241048 <__bss_end+0x22defc>
     fb8:	03000003 	movweq	r0, #3
     fbc:	0053016e 	subseq	r0, r3, lr, ror #2
     fc0:	02040000 	andeq	r0, r4, #0
     fc4:	00230216 	eoreq	r0, r3, r6, lsl r2
     fc8:	000e5809 	andeq	r5, lr, r9, lsl #16
     fcc:	016f0300 	cmneq	pc, r0, lsl #6
     fd0:	00000053 	andeq	r0, r0, r3, asr r0
     fd4:	02100604 	andseq	r0, r0, #4194304	; 0x400000
     fd8:	0d000023 	stceq	0, cr0, [r0, #-140]	; 0xffffff74
     fdc:	01670304 	cmneq	r7, r4, lsl #6
     fe0:	00000b53 	andeq	r0, r0, r3, asr fp
     fe4:	0002d30a 	andeq	sp, r2, sl, lsl #6
     fe8:	01690300 	cmneq	r9, r0, lsl #6
     fec:	00000053 	andeq	r0, r0, r3, asr r0
     ff0:	00092a0a 	andeq	r2, r9, sl, lsl #20
     ff4:	01700300 	cmneq	r0, r0, lsl #6
     ff8:	00000adf 	ldrdeq	r0, [r0], -pc	; <UNPREDICTABLE>
     ffc:	09b80b00 	ldmibeq	r8!, {r8, r9, fp}
    1000:	71030000 	mrsvc	r0, (UNDEF: 3)
    1004:	000b3101 	andeq	r3, fp, r1, lsl #2
    1008:	03040c00 	movweq	r0, #19456	; 0x4c00
    100c:	0bb10176 	bleq	fec415ec <__bss_end+0xfec2e4a0>
    1010:	c4090000 	strgt	r0, [r9], #-0
    1014:	03000006 	movweq	r0, #6
    1018:	00530178 	subseq	r0, r3, r8, ror r1
    101c:	03040000 	movweq	r0, #16384	; 0x4000
    1020:	0023021d 	eoreq	r0, r3, sp, lsl r2
    1024:	000e5309 	andeq	r5, lr, r9, lsl #6
    1028:	01790300 	cmneq	r9, r0, lsl #6
    102c:	00000053 	andeq	r0, r0, r3, asr r0
    1030:	02180504 	andseq	r0, r8, #16777216	; 0x1000000
    1034:	b3090023 	movwlt	r0, #36899	; 0x9023
    1038:	03000006 	movweq	r0, #6
    103c:	0053017a 	subseq	r0, r3, sl, ror r1
    1040:	02040000 	andeq	r0, r4, #0
    1044:	00230216 	eoreq	r0, r3, r6, lsl r2
    1048:	000e5809 	andeq	r5, lr, r9, lsl #16
    104c:	017b0300 	cmneq	fp, r0, lsl #6
    1050:	00000053 	andeq	r0, r0, r3, asr r0
    1054:	02100604 	andseq	r0, r0, #4194304	; 0x400000
    1058:	0d000023 	stceq	0, cr0, [r0, #-140]	; 0xffffff74
    105c:	01730304 	cmneq	r3, r4, lsl #6
    1060:	00000bd3 	ldrdeq	r0, [r0], -r3
    1064:	0002d30a 	andeq	sp, r2, sl, lsl #6
    1068:	01750300 	cmneq	r5, r0, lsl #6
    106c:	00000053 	andeq	r0, r0, r3, asr r0
    1070:	00092a0a 	andeq	r2, r9, sl, lsl #20
    1074:	017c0300 	cmneq	ip, r0, lsl #6
    1078:	00000b5f 	andeq	r0, r0, pc, asr fp
    107c:	0d2e0b00 	vstmdbeq	lr!, {d0-d-1}
    1080:	7d030000 	stcvc	0, cr0, [r3, #-0]
    1084:	000bb101 	andeq	fp, fp, r1, lsl #2
    1088:	03040c00 	movweq	r0, #19456	; 0x4c00
    108c:	0c310182 	ldfeqs	f0, [r1], #-520	; 0xfffffdf8
    1090:	e7090000 	str	r0, [r9, -r0]
    1094:	03000006 	movweq	r0, #6
    1098:	00530184 	subseq	r0, r3, r4, lsl #3
    109c:	02040000 	andeq	r0, r4, #0
    10a0:	0023021e 	eoreq	r0, r3, lr, lsl r2
    10a4:	000e5309 	andeq	r5, lr, r9, lsl #6
    10a8:	01850300 	orreq	r0, r5, r0, lsl #6
    10ac:	00000053 	andeq	r0, r0, r3, asr r0
    10b0:	02081604 	andeq	r1, r8, #4194304	; 0x400000
    10b4:	c0090023 	andgt	r0, r9, r3, lsr #32
    10b8:	03000007 	movweq	r0, #7
    10bc:	00530186 	subseq	r0, r3, r6, lsl #3
    10c0:	02040000 	andeq	r0, r4, #0
    10c4:	00230206 	eoreq	r0, r3, r6, lsl #4
    10c8:	000e5809 	andeq	r5, lr, r9, lsl #16
    10cc:	01870300 	orreq	r0, r7, r0, lsl #6
    10d0:	00000053 	andeq	r0, r0, r3, asr r0
    10d4:	02000604 	andeq	r0, r0, #4194304	; 0x400000
    10d8:	0d000023 	stceq	0, cr0, [r0, #-140]	; 0xffffff74
    10dc:	017f0304 	cmneq	pc, r4, lsl #6
    10e0:	00000c53 	andeq	r0, r0, r3, asr ip
    10e4:	0002d30a 	andeq	sp, r2, sl, lsl #6
    10e8:	01810300 	orreq	r0, r1, r0, lsl #6
    10ec:	00000053 	andeq	r0, r0, r3, asr r0
    10f0:	00092a0a 	andeq	r2, r9, sl, lsl #20
    10f4:	01880300 	orreq	r0, r8, r0, lsl #6
    10f8:	00000bdf 	ldrdeq	r0, [r0], -pc	; <UNPREDICTABLE>
    10fc:	03350b00 	teqeq	r5, #0
    1100:	89030000 	stmdbhi	r3, {}	; <UNPREDICTABLE>
    1104:	000c3101 	andeq	r3, ip, r1, lsl #2
    1108:	03040c00 	movweq	r0, #19456	; 0x4c00
    110c:	0cb1018e 	ldfeqs	f0, [r1], #568	; 0x238
    1110:	30090000 	andcc	r0, r9, r0
    1114:	0300000c 	movweq	r0, #12
    1118:	00530190 			; <UNDEFINED> instruction: 0x00530190
    111c:	02040000 	andeq	r0, r4, #0
    1120:	0023021e 	eoreq	r0, r3, lr, lsl r2
    1124:	000e5309 	andeq	r5, lr, r9, lsl #6
    1128:	01910300 	orrseq	r0, r1, r0, lsl #6
    112c:	00000053 	andeq	r0, r0, r3, asr r0
    1130:	02081604 	andeq	r1, r8, #4194304	; 0x400000
    1134:	33090023 	movwcc	r0, #36899	; 0x9023
    1138:	0300000e 	movweq	r0, #14
    113c:	00530192 			; <UNDEFINED> instruction: 0x00530192
    1140:	02040000 	andeq	r0, r4, #0
    1144:	00230206 	eoreq	r0, r3, r6, lsl #4
    1148:	000e5809 	andeq	r5, lr, r9, lsl #16
    114c:	01930300 	orrseq	r0, r3, r0, lsl #6
    1150:	00000053 	andeq	r0, r0, r3, asr r0
    1154:	02000604 	andeq	r0, r0, #4194304	; 0x400000
    1158:	0d000023 	stceq	0, cr0, [r0, #-140]	; 0xffffff74
    115c:	018b0304 	orreq	r0, fp, r4, lsl #6
    1160:	00000cd3 	ldrdeq	r0, [r0], -r3
    1164:	0002d30a 	andeq	sp, r2, sl, lsl #6
    1168:	018d0300 	orreq	r0, sp, r0, lsl #6
    116c:	00000053 	andeq	r0, r0, r3, asr r0
    1170:	00092a0a 	andeq	r2, r9, sl, lsl #20
    1174:	01940300 	orrseq	r0, r4, r0, lsl #6
    1178:	00000c5f 	andeq	r0, r0, pc, asr ip
    117c:	0be90b00 	bleq	ffa43d84 <__bss_end+0xffa30c38>
    1180:	95030000 	strls	r0, [r3, #-0]
    1184:	000cb101 	andeq	fp, ip, r1, lsl #2
    1188:	03040c00 	movweq	r0, #19456	; 0x4c00
    118c:	0d31019a 	ldfeqs	f0, [r1, #-616]!	; 0xfffffd98
    1190:	eb090000 	bl	241198 <__bss_end+0x22e04c>
    1194:	0300000a 	movweq	r0, #10
    1198:	0053019c 			; <UNDEFINED> instruction: 0x0053019c
    119c:	02040000 	andeq	r0, r4, #0
    11a0:	0023021e 	eoreq	r0, r3, lr, lsl r2
    11a4:	000e5309 	andeq	r5, lr, r9, lsl #6
    11a8:	019d0300 	orrseq	r0, sp, r0, lsl #6
    11ac:	00000053 	andeq	r0, r0, r3, asr r0
    11b0:	02081604 	andeq	r1, r8, #4194304	; 0x400000
    11b4:	6e090023 	cdpvs	0, 0, cr0, cr9, cr3, {1}
    11b8:	03000006 	movweq	r0, #6
    11bc:	0053019e 			; <UNDEFINED> instruction: 0x0053019e
    11c0:	02040000 	andeq	r0, r4, #0
    11c4:	00230206 	eoreq	r0, r3, r6, lsl #4
    11c8:	000e5809 	andeq	r5, lr, r9, lsl #16
    11cc:	019f0300 	orrseq	r0, pc, r0, lsl #6
    11d0:	00000053 	andeq	r0, r0, r3, asr r0
    11d4:	02000604 	andeq	r0, r0, #4194304	; 0x400000
    11d8:	0d000023 	stceq	0, cr0, [r0, #-140]	; 0xffffff74
    11dc:	01970304 	orrseq	r0, r7, r4, lsl #6
    11e0:	00000d53 	andeq	r0, r0, r3, asr sp
    11e4:	0002d30a 	andeq	sp, r2, sl, lsl #6
    11e8:	01990300 	orrseq	r0, r9, r0, lsl #6
    11ec:	00000053 	andeq	r0, r0, r3, asr r0
    11f0:	00092a0a 	andeq	r2, r9, sl, lsl #20
    11f4:	01a00300 	lsleq	r0, r0, #6
    11f8:	00000cdf 	ldrdeq	r0, [r0], -pc	; <UNPREDICTABLE>
    11fc:	0a120b00 	beq	483e04 <__bss_end+0x470cb8>
    1200:	a1030000 	mrsge	r0, (UNDEF: 3)
    1204:	000d3101 	andeq	r3, sp, r1, lsl #2
    1208:	03040c00 	movweq	r0, #19456	; 0x4c00
    120c:	0db101a6 	ldfeqs	f0, [r1, #664]!	; 0x298
    1210:	9e090000 	cdpls	0, 0, cr0, cr9, cr0, {0}
    1214:	0300000a 	movweq	r0, #10
    1218:	005301a8 	subseq	r0, r3, r8, lsr #3
    121c:	02040000 	andeq	r0, r4, #0
    1220:	0023021e 	eoreq	r0, r3, lr, lsl r2
    1224:	000e5309 	andeq	r5, lr, r9, lsl #6
    1228:	01a90300 			; <UNDEFINED> instruction: 0x01a90300
    122c:	00000053 	andeq	r0, r0, r3, asr r0
    1230:	02081604 	andeq	r1, r8, #4194304	; 0x400000
    1234:	95090023 	strls	r0, [r9, #-35]	; 0x23
    1238:	0300000d 	movweq	r0, #13
    123c:	005301aa 	subseq	r0, r3, sl, lsr #3
    1240:	02040000 	andeq	r0, r4, #0
    1244:	00230206 	eoreq	r0, r3, r6, lsl #4
    1248:	000e5809 	andeq	r5, lr, r9, lsl #16
    124c:	01ab0300 			; <UNDEFINED> instruction: 0x01ab0300
    1250:	00000053 	andeq	r0, r0, r3, asr r0
    1254:	02000604 	andeq	r0, r0, #4194304	; 0x400000
    1258:	0d000023 	stceq	0, cr0, [r0, #-140]	; 0xffffff74
    125c:	01a30304 			; <UNDEFINED> instruction: 0x01a30304
    1260:	00000dd3 	ldrdeq	r0, [r0], -r3
    1264:	0002d30a 	andeq	sp, r2, sl, lsl #6
    1268:	01a50300 			; <UNDEFINED> instruction: 0x01a50300
    126c:	00000053 	andeq	r0, r0, r3, asr r0
    1270:	00092a0a 	andeq	r2, r9, sl, lsl #20
    1274:	01ac0300 			; <UNDEFINED> instruction: 0x01ac0300
    1278:	00000d5f 	andeq	r0, r0, pc, asr sp
    127c:	067f0b00 	ldrbteq	r0, [pc], -r0, lsl #22
    1280:	ad030000 	stcge	0, cr0, [r3, #-0]
    1284:	000db101 	andeq	fp, sp, r1, lsl #2
    1288:	03040c00 	movweq	r0, #19456	; 0x4c00
    128c:	0e3101b2 	mrceq	1, 1, r0, cr1, cr2, {5}
    1290:	43090000 	movwmi	r0, #36864	; 0x9000
    1294:	0300000c 	movweq	r0, #12
    1298:	005301b4 	ldrheq	r0, [r3], #-20	; 0xffffffec
    129c:	02040000 	andeq	r0, r4, #0
    12a0:	0023021e 	eoreq	r0, r3, lr, lsl r2
    12a4:	000e5309 	andeq	r5, lr, r9, lsl #6
    12a8:	01b50300 			; <UNDEFINED> instruction: 0x01b50300
    12ac:	00000053 	andeq	r0, r0, r3, asr r0
    12b0:	02081604 	andeq	r1, r8, #4194304	; 0x400000
    12b4:	16090023 	strne	r0, [r9], -r3, lsr #32
    12b8:	03000007 	movweq	r0, #7
    12bc:	005301b6 	ldrheq	r0, [r3], #-22	; 0xffffffea
    12c0:	01040000 	mrseq	r0, (UNDEF: 4)
    12c4:	00230207 	eoreq	r0, r3, r7, lsl #4
    12c8:	000e5809 	andeq	r5, lr, r9, lsl #16
    12cc:	01b70300 			; <UNDEFINED> instruction: 0x01b70300
    12d0:	00000053 	andeq	r0, r0, r3, asr r0
    12d4:	02000704 	andeq	r0, r0, #1048576	; 0x100000
    12d8:	0d000023 	stceq	0, cr0, [r0, #-140]	; 0xffffff74
    12dc:	01af0304 			; <UNDEFINED> instruction: 0x01af0304
    12e0:	00000e53 	andeq	r0, r0, r3, asr lr
    12e4:	0002d30a 	andeq	sp, r2, sl, lsl #6
    12e8:	01b10300 			; <UNDEFINED> instruction: 0x01b10300
    12ec:	00000053 	andeq	r0, r0, r3, asr r0
    12f0:	00092a0a 	andeq	r2, r9, sl, lsl #20
    12f4:	01b80300 			; <UNDEFINED> instruction: 0x01b80300
    12f8:	00000ddf 	ldrdeq	r0, [r0], -pc	; <UNPREDICTABLE>
    12fc:	0b140b00 	bleq	503f04 <__bss_end+0x4f0db8>
    1300:	b9030000 	stmdblt	r3, {}	; <UNPREDICTABLE>
    1304:	000e3101 	andeq	r3, lr, r1, lsl #2
    1308:	03040c00 	movweq	r0, #19456	; 0x4c00
    130c:	0ed501be 	mrceq	1, 6, r0, cr5, cr14, {5}
    1310:	ce090000 	cdpgt	0, 0, cr0, cr9, cr0, {0}
    1314:	03000007 	movweq	r0, #7
    1318:	005301c0 	subseq	r0, r3, r0, asr #3
    131c:	05040000 	streq	r0, [r4, #-0]
    1320:	0023021b 	eoreq	r0, r3, fp, lsl r2
    1324:	000e5309 	andeq	r5, lr, r9, lsl #6
    1328:	01c10300 	biceq	r0, r1, r0, lsl #6
    132c:	00000053 	andeq	r0, r0, r3, asr r0
    1330:	02100b04 	andseq	r0, r0, #4096	; 0x1000
    1334:	d8090023 	stmdale	r9, {r0, r1, r5}
    1338:	03000007 	movweq	r0, #7
    133c:	005301c2 	subseq	r0, r3, r2, asr #3
    1340:	02040000 	andeq	r0, r4, #0
    1344:	0023020e 	eoreq	r0, r3, lr, lsl #4
    1348:	000e5809 	andeq	r5, lr, r9, lsl #16
    134c:	01c30300 	biceq	r0, r3, r0, lsl #6
    1350:	00000053 	andeq	r0, r0, r3, asr r0
    1354:	02080604 	andeq	r0, r8, #4194304	; 0x400000
    1358:	1c090023 	stcne	0, cr0, [r9], {35}	; 0x23
    135c:	03000008 	movweq	r0, #8
    1360:	005301c4 	subseq	r0, r3, r4, asr #3
    1364:	01040000 	mrseq	r0, (UNDEF: 4)
    1368:	00230207 	eoreq	r0, r3, r7, lsl #4
    136c:	000e5d09 	andeq	r5, lr, r9, lsl #26
    1370:	01c50300 	biceq	r0, r5, r0, lsl #6
    1374:	00000053 	andeq	r0, r0, r3, asr r0
    1378:	02000704 	andeq	r0, r0, #1048576	; 0x100000
    137c:	0d000023 	stceq	0, cr0, [r0, #-140]	; 0xffffff74
    1380:	01bb0304 			; <UNDEFINED> instruction: 0x01bb0304
    1384:	00000ef7 	strdeq	r0, [r0], -r7
    1388:	0002d30a 	andeq	sp, r2, sl, lsl #6
    138c:	01bd0300 			; <UNDEFINED> instruction: 0x01bd0300
    1390:	00000053 	andeq	r0, r0, r3, asr r0
    1394:	00092a0a 	andeq	r2, r9, sl, lsl #20
    1398:	01c60300 	biceq	r0, r6, r0, lsl #6
    139c:	00000e5f 	andeq	r0, r0, pc, asr lr
    13a0:	092f0b00 	stmdbeq	pc!, {r8, r9, fp}	; <UNPREDICTABLE>
    13a4:	c7030000 	strgt	r0, [r3, -r0]
    13a8:	000ed501 	andeq	sp, lr, r1, lsl #10
    13ac:	03040c00 	movweq	r0, #19456	; 0x4c00
    13b0:	0f5501cc 	svceq	0x005501cc
    13b4:	be090000 	cdplt	0, 0, cr0, cr9, cr0, {0}
    13b8:	03000002 	movweq	r0, #2
    13bc:	005301ce 	subseq	r0, r3, lr, asr #3
    13c0:	02040000 	andeq	r0, r4, #0
    13c4:	0023021e 	eoreq	r0, r3, lr, lsl r2
    13c8:	000e5309 	andeq	r5, lr, r9, lsl #6
    13cc:	01cf0300 	biceq	r0, pc, r0, lsl #6
    13d0:	00000053 	andeq	r0, r0, r3, asr r0
    13d4:	02081604 	andeq	r1, r8, #4194304	; 0x400000
    13d8:	f8090023 			; <UNDEFINED> instruction: 0xf8090023
    13dc:	0300000b 	movweq	r0, #11
    13e0:	005301d0 	ldrsbeq	r0, [r3], #-16
    13e4:	02040000 	andeq	r0, r4, #0
    13e8:	00230206 	eoreq	r0, r3, r6, lsl #4
    13ec:	000e5809 	andeq	r5, lr, r9, lsl #16
    13f0:	01d10300 	bicseq	r0, r1, r0, lsl #6
    13f4:	00000053 	andeq	r0, r0, r3, asr r0
    13f8:	02000604 	andeq	r0, r0, #4194304	; 0x400000
    13fc:	0d000023 	stceq	0, cr0, [r0, #-140]	; 0xffffff74
    1400:	01c90304 	biceq	r0, r9, r4, lsl #6
    1404:	00000f77 	andeq	r0, r0, r7, ror pc
    1408:	0002d30a 	andeq	sp, r2, sl, lsl #6
    140c:	01cb0300 	biceq	r0, fp, r0, lsl #6
    1410:	00000053 	andeq	r0, r0, r3, asr r0
    1414:	00092a0a 	andeq	r2, r9, sl, lsl #20
    1418:	01d20300 	bicseq	r0, r2, r0, lsl #6
    141c:	00000f03 	andeq	r0, r0, r3, lsl #30
    1420:	0de80b00 	stcleq	11, cr0, [r8]
    1424:	d3030000 	movwle	r0, #12288	; 0x3000
    1428:	000f5501 	andeq	r5, pc, r1, lsl #10
    142c:	03040c00 	movweq	r0, #19456	; 0x4c00
    1430:	0fe701d8 	svceq	0x00e701d8
    1434:	26090000 	strcs	r0, [r9], -r0
    1438:	03000004 	movweq	r0, #4
    143c:	005301da 	ldrsbeq	r0, [r3], #-26	; 0xffffffe6
    1440:	03040000 	movweq	r0, #16384	; 0x4000
    1444:	0023021d 	eoreq	r0, r3, sp, lsl r2
    1448:	000e5309 	andeq	r5, lr, r9, lsl #6
    144c:	01db0300 	bicseq	r0, fp, r0, lsl #6
    1450:	00000053 	andeq	r0, r0, r3, asr r0
    1454:	02081504 	andeq	r1, r8, #16777216	; 0x1000000
    1458:	ff090023 			; <UNDEFINED> instruction: 0xff090023
    145c:	0300000b 	movweq	r0, #11
    1460:	005301dc 	ldrsbeq	r0, [r3], #-28	; 0xffffffe4
    1464:	02040000 	andeq	r0, r4, #0
    1468:	00230206 	eoreq	r0, r3, r6, lsl #4
    146c:	000e5809 	andeq	r5, lr, r9, lsl #16
    1470:	01dd0300 	bicseq	r0, sp, r0, lsl #6
    1474:	00000053 	andeq	r0, r0, r3, asr r0
    1478:	02010504 	andeq	r0, r1, #16777216	; 0x1000000
    147c:	6b090023 	blvs	241510 <__bss_end+0x22e3c4>
    1480:	0300000b 	movweq	r0, #11
    1484:	005301de 	ldrsbeq	r0, [r3], #-30	; 0xffffffe2
    1488:	01040000 	mrseq	r0, (UNDEF: 4)
    148c:	00230200 	eoreq	r0, r3, r0, lsl #4
    1490:	03040d00 	movweq	r0, #19712	; 0x4d00
    1494:	100901d5 	ldrdne	r0, [r9], -r5
    1498:	d30a0000 	movwle	r0, #40960	; 0xa000
    149c:	03000002 	movweq	r0, #2
    14a0:	005301d7 	ldrsbeq	r0, [r3], #-23	; 0xffffffe9
    14a4:	2a0a0000 	bcs	2814ac <__bss_end+0x26e360>
    14a8:	03000009 	movweq	r0, #9
    14ac:	0f8301df 	svceq	0x008301df
    14b0:	0b000000 	bleq	14b8 <__resume1_start+0x14b8>
    14b4:	000003ef 	andeq	r0, r0, pc, ror #7
    14b8:	e701e003 	str	lr, [r1, -r3]
    14bc:	0c00000f 	stceq	0, cr0, [r0], {15}
    14c0:	01e50304 	mvneq	r0, r4, lsl #6
    14c4:	00001079 	andeq	r1, r0, r9, ror r0
    14c8:	00042609 	andeq	r2, r4, r9, lsl #12
    14cc:	01e70300 	mvneq	r0, r0, lsl #6
    14d0:	00000053 	andeq	r0, r0, r3, asr r0
    14d4:	021d0304 	andseq	r0, sp, #268435456	; 0x10000000
    14d8:	53090023 	movwpl	r0, #36899	; 0x9023
    14dc:	0300000e 	movweq	r0, #14
    14e0:	005301e8 	subseq	r0, r3, r8, ror #3
    14e4:	15040000 	strne	r0, [r4, #-0]
    14e8:	00230208 	eoreq	r0, r3, r8, lsl #4
    14ec:	000bff09 	andeq	pc, fp, r9, lsl #30
    14f0:	01e90300 	mvneq	r0, r0, lsl #6
    14f4:	00000053 	andeq	r0, r0, r3, asr r0
    14f8:	02060204 	andeq	r0, r6, #1073741824	; 0x40000000
    14fc:	58090023 	stmdapl	r9, {r0, r1, r5}
    1500:	0300000e 	movweq	r0, #14
    1504:	005301ea 	subseq	r0, r3, sl, ror #3
    1508:	05040000 	streq	r0, [r4, #-0]
    150c:	00230201 	eoreq	r0, r3, r1, lsl #4
    1510:	000b6b09 	andeq	r6, fp, r9, lsl #22
    1514:	01eb0300 	mvneq	r0, r0, lsl #6
    1518:	00000053 	andeq	r0, r0, r3, asr r0
    151c:	02000104 	andeq	r0, r0, #1
    1520:	0d000023 	stceq	0, cr0, [r0, #-140]	; 0xffffff74
    1524:	01e20304 	mvneq	r0, r4, lsl #6
    1528:	0000109b 	muleq	r0, fp, r0
    152c:	0002d30a 	andeq	sp, r2, sl, lsl #6
    1530:	01e40300 	mvneq	r0, r0, lsl #6
    1534:	00000053 	andeq	r0, r0, r3, asr r0
    1538:	00092a0a 	andeq	r2, r9, sl, lsl #20
    153c:	01ec0300 	mvneq	r0, r0, lsl #6
    1540:	00001015 	andeq	r1, r0, r5, lsl r0
    1544:	0b5b0b00 	bleq	16c414c <__bss_end+0x16b1000>
    1548:	ed030000 	stc	0, cr0, [r3, #-0]
    154c:	00107901 	andseq	r7, r0, r1, lsl #18
    1550:	03040c00 	movweq	r0, #19456	; 0x4c00
    1554:	10d501f2 	ldrshne	r0, [r5], #18
    1558:	f8090000 			; <UNDEFINED> instruction: 0xf8090000
    155c:	03000007 	movweq	r0, #7
    1560:	005301f4 	ldrsheq	r0, [r3], #-20	; 0xffffffec
    1564:	10040000 	andne	r0, r4, r0
    1568:	00230210 	eoreq	r0, r3, r0, lsl r2
    156c:	000e5309 	andeq	r5, lr, r9, lsl #6
    1570:	01f50300 	mvnseq	r0, r0, lsl #6
    1574:	00000053 	andeq	r0, r0, r3, asr r0
    1578:	02001004 	andeq	r1, r0, #4
    157c:	0d000023 	stceq	0, cr0, [r0, #-140]	; 0xffffff74
    1580:	01ef0304 	mvneq	r0, r4, lsl #6
    1584:	000010f7 	strdeq	r1, [r0], -r7
    1588:	0002d30a 	andeq	sp, r2, sl, lsl #6
    158c:	01f10300 	mvnseq	r0, r0, lsl #6
    1590:	00000053 	andeq	r0, r0, r3, asr r0
    1594:	00092a0a 	andeq	r2, r9, sl, lsl #20
    1598:	01f60300 	mvnseq	r0, r0, lsl #6
    159c:	000010a7 	andeq	r1, r0, r7, lsr #1
    15a0:	03db0b00 	bicseq	r0, fp, #0
    15a4:	f7030000 			; <UNDEFINED> instruction: 0xf7030000
    15a8:	0010d501 	andseq	sp, r0, r1, lsl #10
    15ac:	03040c00 	movweq	r0, #19456	; 0x4c00
    15b0:	113101fc 			; <UNDEFINED> instruction: 0x113101fc
    15b4:	f8090000 			; <UNDEFINED> instruction: 0xf8090000
    15b8:	03000007 	movweq	r0, #7
    15bc:	005301fe 	ldrsheq	r0, [r3], #-30	; 0xffffffe2
    15c0:	10040000 	andne	r0, r4, r0
    15c4:	00230210 	eoreq	r0, r3, r0, lsl r2
    15c8:	000e5309 	andeq	r5, lr, r9, lsl #6
    15cc:	01ff0300 	mvnseq	r0, r0, lsl #6
    15d0:	00000053 	andeq	r0, r0, r3, asr r0
    15d4:	02001004 	andeq	r1, r0, #4
    15d8:	0d000023 	stceq	0, cr0, [r0, #-140]	; 0xffffff74
    15dc:	01f90304 	mvnseq	r0, r4, lsl #6
    15e0:	00001153 	andeq	r1, r0, r3, asr r1
    15e4:	0002d30a 	andeq	sp, r2, sl, lsl #6
    15e8:	01fb0300 	mvnseq	r0, r0, lsl #6
    15ec:	00000053 	andeq	r0, r0, r3, asr r0
    15f0:	00092a0a 	andeq	r2, r9, sl, lsl #20
    15f4:	02000300 	andeq	r0, r0, #0
    15f8:	00001103 	andeq	r1, r0, r3, lsl #2
    15fc:	09820b00 	stmibeq	r2, {r8, r9, fp}
    1600:	01030000 	mrseq	r0, (UNDEF: 3)
    1604:	00113102 	andseq	r3, r1, r2, lsl #2
    1608:	03040d00 	movweq	r0, #19712	; 0x4d00
    160c:	11750203 	cmnne	r5, r3, lsl #4
    1610:	d30a0000 	movwle	r0, #40960	; 0xa000
    1614:	03000002 	movweq	r0, #2
    1618:	00530205 	subseq	r0, r3, r5, lsl #4
    161c:	0b000000 	bleq	1624 <__resume1_start+0x1624>
    1620:	00000e91 	muleq	r0, r1, lr
    1624:	5f020603 	svcpl	0x00020603
    1628:	0c000011 	stceq	0, cr0, [r0], {17}
    162c:	020b0304 	andeq	r0, fp, #268435456	; 0x10000000
    1630:	000011d3 	ldrdeq	r1, [r0], -r3
    1634:	000e5309 	andeq	r5, lr, r9, lsl #6
    1638:	020d0300 	andeq	r0, sp, #0
    163c:	00000053 	andeq	r0, r0, r3, asr r0
    1640:	02101004 	andseq	r1, r0, #4
    1644:	d3090023 	movwle	r0, #36899	; 0x9023
    1648:	03000004 	movweq	r0, #4
    164c:	0053020e 	subseq	r0, r3, lr, lsl #4
    1650:	05040000 	streq	r0, [r4, #-0]
    1654:	0023020b 	eoreq	r0, r3, fp, lsl #4
    1658:	000e5809 	andeq	r5, lr, r9, lsl #16
    165c:	020f0300 	andeq	r0, pc, #0
    1660:	00000053 	andeq	r0, r0, r3, asr r0
    1664:	02010a04 	andeq	r0, r1, #16384	; 0x4000
    1668:	de090023 	cdple	0, 0, cr0, cr9, cr3, {1}
    166c:	03000005 	movweq	r0, #5
    1670:	00530210 	subseq	r0, r3, r0, lsl r2
    1674:	01040000 	mrseq	r0, (UNDEF: 4)
    1678:	00230200 	eoreq	r0, r3, r0, lsl #4
    167c:	03040d00 	movweq	r0, #19712	; 0x4d00
    1680:	11f50208 	mvnsne	r0, r8, lsl #4
    1684:	d30a0000 	movwle	r0, #40960	; 0xa000
    1688:	03000002 	movweq	r0, #2
    168c:	0053020a 	subseq	r0, r3, sl, lsl #4
    1690:	2a0a0000 	bcs	281698 <__bss_end+0x26e54c>
    1694:	03000009 	movweq	r0, #9
    1698:	11810211 	orrne	r0, r1, r1, lsl r2
    169c:	0b000000 	bleq	16a4 <__resume1_start+0x16a4>
    16a0:	00000d0a 	andeq	r0, r0, sl, lsl #26
    16a4:	d3021203 	movwle	r1, #8707	; 0x2203
    16a8:	0c000011 	stceq	0, cr0, [r0], {17}
    16ac:	02170304 	andseq	r0, r7, #268435456	; 0x10000000
    16b0:	00001253 	andeq	r1, r0, r3, asr r2
    16b4:	000e5309 	andeq	r5, lr, r9, lsl #6
    16b8:	02190300 	andseq	r0, r9, #0
    16bc:	00000053 	andeq	r0, r0, r3, asr r0
    16c0:	02101004 	andseq	r1, r0, #4
    16c4:	d3090023 	movwle	r0, #36899	; 0x9023
    16c8:	03000004 	movweq	r0, #4
    16cc:	0053021a 	subseq	r0, r3, sl, lsl r2
    16d0:	05040000 	streq	r0, [r4, #-0]
    16d4:	0023020b 	eoreq	r0, r3, fp, lsl #4
    16d8:	000e5809 	andeq	r5, lr, r9, lsl #16
    16dc:	021b0300 	andseq	r0, fp, #0
    16e0:	00000053 	andeq	r0, r0, r3, asr r0
    16e4:	02010a04 	andeq	r0, r1, #16384	; 0x4000
    16e8:	de090023 	cdple	0, 0, cr0, cr9, cr3, {1}
    16ec:	03000005 	movweq	r0, #5
    16f0:	0053021c 	subseq	r0, r3, ip, lsl r2
    16f4:	01040000 	mrseq	r0, (UNDEF: 4)
    16f8:	00230200 	eoreq	r0, r3, r0, lsl #4
    16fc:	03040d00 	movweq	r0, #19712	; 0x4d00
    1700:	12750214 	rsbsne	r0, r5, #1073741825	; 0x40000001
    1704:	d30a0000 	movwle	r0, #40960	; 0xa000
    1708:	03000002 	movweq	r0, #2
    170c:	00530216 	subseq	r0, r3, r6, lsl r2
    1710:	2a0a0000 	bcs	281718 <__bss_end+0x26e5cc>
    1714:	03000009 	movweq	r0, #9
    1718:	1201021d 	andne	r0, r1, #-805306367	; 0xd0000001
    171c:	0b000000 	bleq	1724 <__resume1_start+0x1724>
    1720:	000005bd 			; <UNDEFINED> instruction: 0x000005bd
    1724:	53021e03 	movwpl	r1, #11779	; 0x2e03
    1728:	0c000012 	stceq	0, cr0, [r0], {18}
    172c:	02230304 	eoreq	r0, r3, #268435456	; 0x10000000
    1730:	000012c1 	andeq	r1, r0, r1, asr #5
    1734:	000e5309 	andeq	r5, lr, r9, lsl #6
    1738:	02250300 	eoreq	r0, r5, #0
    173c:	00000053 	andeq	r0, r0, r3, asr r0
    1740:	02101004 	andseq	r1, r0, #4
    1744:	c8090023 	stmdagt	r9, {r0, r1, r5}
    1748:	0300000e 	movweq	r0, #14
    174c:	00530226 	subseq	r0, r3, r6, lsr #4
    1750:	05040000 	streq	r0, [r4, #-0]
    1754:	0023020b 	eoreq	r0, r3, fp, lsl #4
    1758:	000e5809 	andeq	r5, lr, r9, lsl #16
    175c:	02270300 	eoreq	r0, r7, #0
    1760:	00000053 	andeq	r0, r0, r3, asr r0
    1764:	02000b04 	andeq	r0, r0, #4096	; 0x1000
    1768:	0d000023 	stceq	0, cr0, [r0, #-140]	; 0xffffff74
    176c:	02200304 	eoreq	r0, r0, #268435456	; 0x10000000
    1770:	000012e3 	andeq	r1, r0, r3, ror #5
    1774:	0002d30a 	andeq	sp, r2, sl, lsl #6
    1778:	02220300 	eoreq	r0, r2, #0
    177c:	00000053 	andeq	r0, r0, r3, asr r0
    1780:	00092a0a 	andeq	r2, r9, sl, lsl #20
    1784:	02280300 	eoreq	r0, r8, #0
    1788:	00001281 	andeq	r1, r0, r1, lsl #5
    178c:	0ad60b00 	beq	ff584394 <__bss_end+0xff571248>
    1790:	29030000 	stmdbcs	r3, {}	; <UNPREDICTABLE>
    1794:	0012c102 	andseq	ip, r2, r2, lsl #2
    1798:	03040c00 	movweq	r0, #19456	; 0x4c00
    179c:	132f022e 	teqne	pc, #-536870910	; 0xe0000002
    17a0:	53090000 	movwpl	r0, #36864	; 0x9000
    17a4:	0300000e 	movweq	r0, #14
    17a8:	00530230 	subseq	r0, r3, r0, lsr r2
    17ac:	10040000 	andne	r0, r4, r0
    17b0:	00230210 	eoreq	r0, r3, r0, lsl r2
    17b4:	000ec809 	andeq	ip, lr, r9, lsl #16
    17b8:	02310300 	eorseq	r0, r1, #0
    17bc:	00000053 	andeq	r0, r0, r3, asr r0
    17c0:	020b0504 	andeq	r0, fp, #16777216	; 0x1000000
    17c4:	58090023 	stmdapl	r9, {r0, r1, r5}
    17c8:	0300000e 	movweq	r0, #14
    17cc:	00530232 	subseq	r0, r3, r2, lsr r2
    17d0:	0b040000 	bleq	1017d8 <__bss_end+0xee68c>
    17d4:	00230200 	eoreq	r0, r3, r0, lsl #4
    17d8:	03040d00 	movweq	r0, #19712	; 0x4d00
    17dc:	1351022b 	cmpne	r1, #-1342177278	; 0xb0000002
    17e0:	d30a0000 	movwle	r0, #40960	; 0xa000
    17e4:	03000002 	movweq	r0, #2
    17e8:	0053022d 	subseq	r0, r3, sp, lsr #4
    17ec:	2a0a0000 	bcs	2817f4 <__bss_end+0x26e6a8>
    17f0:	03000009 	movweq	r0, #9
    17f4:	12ef0233 	rscne	r0, pc, #805306371	; 0x30000003
    17f8:	0b000000 	bleq	1800 <__resume1_start+0x1800>
    17fc:	00000a87 	andeq	r0, r0, r7, lsl #21
    1800:	2f023403 	svccs	0x00023403
    1804:	0c000013 	stceq	0, cr0, [r0], {19}
    1808:	02390304 	eorseq	r0, r9, #268435456	; 0x10000000
    180c:	0000139d 	muleq	r0, sp, r3
    1810:	000e5309 	andeq	r5, lr, r9, lsl #6
    1814:	023b0300 	eorseq	r0, fp, #0
    1818:	00000053 	andeq	r0, r0, r3, asr r0
    181c:	02101004 	andseq	r1, r0, #4
    1820:	c8090023 	stmdagt	r9, {r0, r1, r5}
    1824:	0300000e 	movweq	r0, #14
    1828:	0053023c 	subseq	r0, r3, ip, lsr r2
    182c:	05040000 	streq	r0, [r4, #-0]
    1830:	0023020b 	eoreq	r0, r3, fp, lsl #4
    1834:	000e5809 	andeq	r5, lr, r9, lsl #16
    1838:	023d0300 	eorseq	r0, sp, #0
    183c:	00000053 	andeq	r0, r0, r3, asr r0
    1840:	02000b04 	andeq	r0, r0, #4096	; 0x1000
    1844:	0d000023 	stceq	0, cr0, [r0, #-140]	; 0xffffff74
    1848:	02360304 	eorseq	r0, r6, #268435456	; 0x10000000
    184c:	000013bf 			; <UNDEFINED> instruction: 0x000013bf
    1850:	0002d30a 	andeq	sp, r2, sl, lsl #6
    1854:	02380300 	eorseq	r0, r8, #0
    1858:	00000053 	andeq	r0, r0, r3, asr r0
    185c:	00092a0a 	andeq	r2, r9, sl, lsl #20
    1860:	023e0300 	eorseq	r0, lr, #0
    1864:	0000135d 	andeq	r1, r0, sp, asr r3
    1868:	0a3c0b00 	beq	f04470 <__bss_end+0xef1324>
    186c:	3f030000 	svccc	0x00030000
    1870:	00139d02 	andseq	r9, r3, r2, lsl #26
    1874:	03040c00 	movweq	r0, #19456	; 0x4c00
    1878:	140b0244 	strne	r0, [fp], #-580	; 0x244
    187c:	53090000 	movwpl	r0, #36864	; 0x9000
    1880:	0300000e 	movweq	r0, #14
    1884:	00530246 	subseq	r0, r3, r6, asr #4
    1888:	10040000 	andne	r0, r4, r0
    188c:	00230210 	eoreq	r0, r3, r0, lsl r2
    1890:	00044f09 	andeq	r4, r4, r9, lsl #30
    1894:	02470300 	subeq	r0, r7, #0
    1898:	00000053 	andeq	r0, r0, r3, asr r0
    189c:	020b0504 	andeq	r0, fp, #16777216	; 0x1000000
    18a0:	58090023 	stmdapl	r9, {r0, r1, r5}
    18a4:	0300000e 	movweq	r0, #14
    18a8:	00530248 	subseq	r0, r3, r8, asr #4
    18ac:	0b040000 	bleq	1018b4 <__bss_end+0xee768>
    18b0:	00230200 	eoreq	r0, r3, r0, lsl #4
    18b4:	03040d00 	movweq	r0, #19712	; 0x4d00
    18b8:	142d0241 	strtne	r0, [sp], #-577	; 0x241
    18bc:	d30a0000 	movwle	r0, #40960	; 0xa000
    18c0:	03000002 	movweq	r0, #2
    18c4:	00530243 	subseq	r0, r3, r3, asr #4
    18c8:	2a0a0000 	bcs	2818d0 <__bss_end+0x26e784>
    18cc:	03000009 	movweq	r0, #9
    18d0:	13cb0249 	bicne	r0, fp, #-1879048188	; 0x90000004
    18d4:	0b000000 	bleq	18dc <__resume1_start+0x18dc>
    18d8:	00000322 	andeq	r0, r0, r2, lsr #6
    18dc:	0b024a03 	bleq	940f0 <__bss_end+0x80fa4>
    18e0:	0c000014 	stceq	0, cr0, [r0], {20}
    18e4:	024f0304 	subeq	r0, pc, #268435456	; 0x10000000
    18e8:	00001479 	andeq	r1, r0, r9, ror r4
    18ec:	000e5309 	andeq	r5, lr, r9, lsl #6
    18f0:	02510300 	subseq	r0, r1, #0
    18f4:	00000053 	andeq	r0, r0, r3, asr r0
    18f8:	02101004 	andseq	r1, r0, #4
    18fc:	c8090023 	stmdagt	r9, {r0, r1, r5}
    1900:	0300000e 	movweq	r0, #14
    1904:	00530252 	subseq	r0, r3, r2, asr r2
    1908:	05040000 	streq	r0, [r4, #-0]
    190c:	0023020b 	eoreq	r0, r3, fp, lsl #4
    1910:	000e5809 	andeq	r5, lr, r9, lsl #16
    1914:	02530300 	subseq	r0, r3, #0
    1918:	00000053 	andeq	r0, r0, r3, asr r0
    191c:	02000b04 	andeq	r0, r0, #4096	; 0x1000
    1920:	0d000023 	stceq	0, cr0, [r0, #-140]	; 0xffffff74
    1924:	024c0304 	subeq	r0, ip, #268435456	; 0x10000000
    1928:	0000149b 	muleq	r0, fp, r4
    192c:	0002d30a 	andeq	sp, r2, sl, lsl #6
    1930:	024e0300 	subeq	r0, lr, #0
    1934:	00000053 	andeq	r0, r0, r3, asr r0
    1938:	00092a0a 	andeq	r2, r9, sl, lsl #20
    193c:	02540300 	subseq	r0, r4, #0
    1940:	00001439 	andeq	r1, r0, r9, lsr r4
    1944:	04100b00 	ldreq	r0, [r0], #-2816	; 0xb00
    1948:	55030000 	strpl	r0, [r3, #-0]
    194c:	00147902 	andseq	r7, r4, r2, lsl #18
    1950:	03040c00 	movweq	r0, #19456	; 0x4c00
    1954:	14e7025a 	strbtne	r0, [r7], #602	; 0x25a
    1958:	53090000 	movwpl	r0, #36864	; 0x9000
    195c:	0300000e 	movweq	r0, #14
    1960:	0053025c 	subseq	r0, r3, ip, asr r2
    1964:	10040000 	andne	r0, r4, r0
    1968:	00230210 	eoreq	r0, r3, r0, lsl r2
    196c:	000ec809 	andeq	ip, lr, r9, lsl #16
    1970:	025d0300 	subseq	r0, sp, #0
    1974:	00000053 	andeq	r0, r0, r3, asr r0
    1978:	020b0504 	andeq	r0, fp, #16777216	; 0x1000000
    197c:	58090023 	stmdapl	r9, {r0, r1, r5}
    1980:	0300000e 	movweq	r0, #14
    1984:	0053025e 	subseq	r0, r3, lr, asr r2
    1988:	0b040000 	bleq	101990 <__bss_end+0xee844>
    198c:	00230200 	eoreq	r0, r3, r0, lsl #4
    1990:	03040d00 	movweq	r0, #19712	; 0x4d00
    1994:	15090257 	strne	r0, [r9, #-599]	; 0x257
    1998:	d30a0000 	movwle	r0, #40960	; 0xa000
    199c:	03000002 	movweq	r0, #2
    19a0:	00530259 	subseq	r0, r3, r9, asr r2
    19a4:	2a0a0000 	bcs	2819ac <__bss_end+0x26e860>
    19a8:	03000009 	movweq	r0, #9
    19ac:	14a7025f 	strtne	r0, [r7], #607	; 0x25f
    19b0:	0b000000 	bleq	19b8 <__resume1_start+0x19b8>
    19b4:	00000914 	andeq	r0, r0, r4, lsl r9
    19b8:	e7026003 	str	r6, [r2, -r3]
    19bc:	0c000014 	stceq	0, cr0, [r0], {20}
    19c0:	02650304 	rsbeq	r0, r5, #268435456	; 0x10000000
    19c4:	00001555 	andeq	r1, r0, r5, asr r5
    19c8:	000e5309 	andeq	r5, lr, r9, lsl #6
    19cc:	02670300 	rsbeq	r0, r7, #0
    19d0:	00000053 	andeq	r0, r0, r3, asr r0
    19d4:	02101004 	andseq	r1, r0, #4
    19d8:	c8090023 	stmdagt	r9, {r0, r1, r5}
    19dc:	0300000e 	movweq	r0, #14
    19e0:	00530268 	subseq	r0, r3, r8, ror #4
    19e4:	05040000 	streq	r0, [r4, #-0]
    19e8:	0023020b 	eoreq	r0, r3, fp, lsl #4
    19ec:	000e5809 	andeq	r5, lr, r9, lsl #16
    19f0:	02690300 	rsbeq	r0, r9, #0
    19f4:	00000053 	andeq	r0, r0, r3, asr r0
    19f8:	02000b04 	andeq	r0, r0, #4096	; 0x1000
    19fc:	0d000023 	stceq	0, cr0, [r0, #-140]	; 0xffffff74
    1a00:	02620304 	rsbeq	r0, r2, #268435456	; 0x10000000
    1a04:	00001577 	andeq	r1, r0, r7, ror r5
    1a08:	0002d30a 	andeq	sp, r2, sl, lsl #6
    1a0c:	02640300 	rsbeq	r0, r4, #0
    1a10:	00000053 	andeq	r0, r0, r3, asr r0
    1a14:	00092a0a 	andeq	r2, r9, sl, lsl #20
    1a18:	026a0300 	rsbeq	r0, sl, #0
    1a1c:	00001515 	andeq	r1, r0, r5, lsl r5
    1a20:	0f440b00 	svceq	0x00440b00
    1a24:	6b030000 	blvs	c1a2c <__bss_end+0xae8e0>
    1a28:	00155502 	andseq	r5, r5, r2, lsl #10
    1a2c:	03040c00 	movweq	r0, #19456	; 0x4c00
    1a30:	15c30270 	strbne	r0, [r3, #624]	; 0x270
    1a34:	53090000 	movwpl	r0, #36864	; 0x9000
    1a38:	0300000e 	movweq	r0, #14
    1a3c:	00530272 	subseq	r0, r3, r2, ror r2
    1a40:	10040000 	andne	r0, r4, r0
    1a44:	00230210 	eoreq	r0, r3, r0, lsl r2
    1a48:	000ec809 	andeq	ip, lr, r9, lsl #16
    1a4c:	02730300 	rsbseq	r0, r3, #0
    1a50:	00000053 	andeq	r0, r0, r3, asr r0
    1a54:	020b0504 	andeq	r0, fp, #16777216	; 0x1000000
    1a58:	58090023 	stmdapl	r9, {r0, r1, r5}
    1a5c:	0300000e 	movweq	r0, #14
    1a60:	00530274 	subseq	r0, r3, r4, ror r2
    1a64:	0b040000 	bleq	101a6c <__bss_end+0xee920>
    1a68:	00230200 	eoreq	r0, r3, r0, lsl #4
    1a6c:	03040d00 	movweq	r0, #19712	; 0x4d00
    1a70:	15e5026d 	strbne	r0, [r5, #621]!	; 0x26d
    1a74:	d30a0000 	movwle	r0, #40960	; 0xa000
    1a78:	03000002 	movweq	r0, #2
    1a7c:	0053026f 	subseq	r0, r3, pc, ror #4
    1a80:	2a0a0000 	bcs	281a88 <__bss_end+0x26e93c>
    1a84:	03000009 	movweq	r0, #9
    1a88:	15830275 	strne	r0, [r3, #629]	; 0x275
    1a8c:	0b000000 	bleq	1a94 <__resume1_start+0x1a94>
    1a90:	00000b7f 	andeq	r0, r0, pc, ror fp
    1a94:	c3027603 	movwgt	r7, #9731	; 0x2603
    1a98:	0c000015 	stceq	0, cr0, [r0], {21}
    1a9c:	027b0304 	rsbseq	r0, fp, #268435456	; 0x10000000
    1aa0:	00001631 	andeq	r1, r0, r1, lsr r6
    1aa4:	000e5309 	andeq	r5, lr, r9, lsl #6
    1aa8:	027d0300 	rsbseq	r0, sp, #0
    1aac:	00000053 	andeq	r0, r0, r3, asr r0
    1ab0:	02101004 	andseq	r1, r0, #4
    1ab4:	c8090023 	stmdagt	r9, {r0, r1, r5}
    1ab8:	0300000e 	movweq	r0, #14
    1abc:	0053027e 	subseq	r0, r3, lr, ror r2
    1ac0:	05040000 	streq	r0, [r4, #-0]
    1ac4:	0023020b 	eoreq	r0, r3, fp, lsl #4
    1ac8:	000e5809 	andeq	r5, lr, r9, lsl #16
    1acc:	027f0300 	rsbseq	r0, pc, #0
    1ad0:	00000053 	andeq	r0, r0, r3, asr r0
    1ad4:	02000b04 	andeq	r0, r0, #4096	; 0x1000
    1ad8:	0d000023 	stceq	0, cr0, [r0, #-140]	; 0xffffff74
    1adc:	02780304 	rsbseq	r0, r8, #268435456	; 0x10000000
    1ae0:	00001653 	andeq	r1, r0, r3, asr r6
    1ae4:	0002d30a 	andeq	sp, r2, sl, lsl #6
    1ae8:	027a0300 	rsbseq	r0, sl, #0
    1aec:	00000053 	andeq	r0, r0, r3, asr r0
    1af0:	00092a0a 	andeq	r2, r9, sl, lsl #20
    1af4:	02800300 	addeq	r0, r0, #0
    1af8:	000015f1 	strdeq	r1, [r0], -r1	; <UNPREDICTABLE>
    1afc:	0c1d0b00 	ldceq	11, cr0, [sp], {-0}
    1b00:	81030000 	mrshi	r0, (UNDEF: 3)
    1b04:	00163102 	andseq	r3, r6, r2, lsl #2
    1b08:	03040c00 	movweq	r0, #19456	; 0x4c00
    1b0c:	169f0286 	ldrne	r0, [pc], r6, lsl #5
    1b10:	53090000 	movwpl	r0, #36864	; 0x9000
    1b14:	0300000e 	movweq	r0, #14
    1b18:	00530288 	subseq	r0, r3, r8, lsl #5
    1b1c:	10040000 	andne	r0, r4, r0
    1b20:	00230210 	eoreq	r0, r3, r0, lsl r2
    1b24:	000ec809 	andeq	ip, lr, r9, lsl #16
    1b28:	02890300 	addeq	r0, r9, #0
    1b2c:	00000053 	andeq	r0, r0, r3, asr r0
    1b30:	020b0504 	andeq	r0, fp, #16777216	; 0x1000000
    1b34:	58090023 	stmdapl	r9, {r0, r1, r5}
    1b38:	0300000e 	movweq	r0, #14
    1b3c:	0053028a 	subseq	r0, r3, sl, lsl #5
    1b40:	0b040000 	bleq	101b48 <__bss_end+0xee9fc>
    1b44:	00230200 	eoreq	r0, r3, r0, lsl #4
    1b48:	03040d00 	movweq	r0, #19712	; 0x4d00
    1b4c:	16c10283 	strbne	r0, [r1], r3, lsl #5
    1b50:	d30a0000 	movwle	r0, #40960	; 0xa000
    1b54:	03000002 	movweq	r0, #2
    1b58:	00530285 	subseq	r0, r3, r5, lsl #5
    1b5c:	2a0a0000 	bcs	281b64 <__bss_end+0x26ea18>
    1b60:	03000009 	movweq	r0, #9
    1b64:	165f028b 	ldrbne	r0, [pc], -fp, lsl #5
    1b68:	0b000000 	bleq	1b70 <__resume1_start+0x1b70>
    1b6c:	00000ea7 	andeq	r0, r0, r7, lsr #29
    1b70:	9f028c03 	svcls	0x00028c03
    1b74:	0c000016 	stceq	0, cr0, [r0], {22}
    1b78:	02910304 	addseq	r0, r1, #268435456	; 0x10000000
    1b7c:	0000178b 	andeq	r1, r0, fp, lsl #15
    1b80:	000b7709 	andeq	r7, fp, r9, lsl #14
    1b84:	02930300 	addseq	r0, r3, #0
    1b88:	00000053 	andeq	r0, r0, r3, asr r0
    1b8c:	02190704 	andseq	r0, r9, #1048576	; 0x100000
    1b90:	67090023 	strvs	r0, [r9, -r3, lsr #32]
    1b94:	0300000e 	movweq	r0, #14
    1b98:	00530294 			; <UNDEFINED> instruction: 0x00530294
    1b9c:	01040000 	mrseq	r0, (UNDEF: 4)
    1ba0:	00230218 	eoreq	r0, r3, r8, lsl r2
    1ba4:	0009db09 	andeq	sp, r9, r9, lsl #22
    1ba8:	02950300 	addseq	r0, r5, #0
    1bac:	00000053 	andeq	r0, r0, r3, asr r0
    1bb0:	02110704 	andseq	r0, r1, #1048576	; 0x100000
    1bb4:	69090023 	stmdbvs	r9, {r0, r1, r5}
    1bb8:	0300000c 	movweq	r0, #12
    1bbc:	00530296 			; <UNDEFINED> instruction: 0x00530296
    1bc0:	01040000 	mrseq	r0, (UNDEF: 4)
    1bc4:	00230210 	eoreq	r0, r3, r0, lsl r2
    1bc8:	000e6d09 	andeq	r6, lr, r9, lsl #26
    1bcc:	02970300 	addseq	r0, r7, #0
    1bd0:	00000053 	andeq	r0, r0, r3, asr r0
    1bd4:	02090704 	andeq	r0, r9, #1048576	; 0x100000
    1bd8:	53090023 	movwpl	r0, #36899	; 0x9023
    1bdc:	0300000e 	movweq	r0, #14
    1be0:	00530298 			; <UNDEFINED> instruction: 0x00530298
    1be4:	01040000 	mrseq	r0, (UNDEF: 4)
    1be8:	00230208 	eoreq	r0, r3, r8, lsl #4
    1bec:	00047909 	andeq	r7, r4, r9, lsl #18
    1bf0:	02990300 	addseq	r0, r9, #0
    1bf4:	00000053 	andeq	r0, r0, r3, asr r0
    1bf8:	02050304 	andeq	r0, r5, #268435456	; 0x10000000
    1bfc:	58090023 	stmdapl	r9, {r0, r1, r5}
    1c00:	0300000e 	movweq	r0, #14
    1c04:	0053029a 			; <UNDEFINED> instruction: 0x0053029a
    1c08:	01040000 	mrseq	r0, (UNDEF: 4)
    1c0c:	00230204 	eoreq	r0, r3, r4, lsl #4
    1c10:	000bdc09 	andeq	sp, fp, r9, lsl #24
    1c14:	029b0300 	addseq	r0, fp, #0
    1c18:	00000053 	andeq	r0, r0, r3, asr r0
    1c1c:	02010304 	andeq	r0, r1, #268435456	; 0x10000000
    1c20:	5d090023 	stcpl	0, cr0, [r9, #-140]	; 0xffffff74
    1c24:	0300000e 	movweq	r0, #14
    1c28:	0053029c 			; <UNDEFINED> instruction: 0x0053029c
    1c2c:	01040000 	mrseq	r0, (UNDEF: 4)
    1c30:	00230200 	eoreq	r0, r3, r0, lsl #4
    1c34:	03040d00 	movweq	r0, #19712	; 0x4d00
    1c38:	17ad028e 	strne	r0, [sp, lr, lsl #5]!
    1c3c:	d30a0000 	movwle	r0, #40960	; 0xa000
    1c40:	03000002 	movweq	r0, #2
    1c44:	00530290 			; <UNDEFINED> instruction: 0x00530290
    1c48:	2a0a0000 	bcs	281c50 <__bss_end+0x26eb04>
    1c4c:	03000009 	movweq	r0, #9
    1c50:	16cd029d 			; <UNDEFINED> instruction: 0x16cd029d
    1c54:	0b000000 	bleq	1c5c <__resume1_start+0x1c5c>
    1c58:	000008d2 	ldrdeq	r0, [r0], -r2
    1c5c:	8b029e03 	blhi	a9470 <__bss_end+0x96324>
    1c60:	0c000017 	stceq	0, cr0, [r0], {23}
    1c64:	02a30304 	adceq	r0, r3, #268435456	; 0x10000000
    1c68:	00001877 	andeq	r1, r0, r7, ror r8
    1c6c:	000b7709 	andeq	r7, fp, r9, lsl #14
    1c70:	02a50300 	adceq	r0, r5, #0
    1c74:	00000053 	andeq	r0, r0, r3, asr r0
    1c78:	02190704 	andseq	r0, r9, #1048576	; 0x100000
    1c7c:	67090023 	strvs	r0, [r9, -r3, lsr #32]
    1c80:	0300000e 	movweq	r0, #14
    1c84:	005302a6 	subseq	r0, r3, r6, lsr #5
    1c88:	01040000 	mrseq	r0, (UNDEF: 4)
    1c8c:	00230218 	eoreq	r0, r3, r8, lsl r2
    1c90:	0009db09 	andeq	sp, r9, r9, lsl #22
    1c94:	02a70300 	adceq	r0, r7, #0
    1c98:	00000053 	andeq	r0, r0, r3, asr r0
    1c9c:	02110704 	andseq	r0, r1, #1048576	; 0x100000
    1ca0:	69090023 	stmdbvs	r9, {r0, r1, r5}
    1ca4:	0300000c 	movweq	r0, #12
    1ca8:	005302a8 	subseq	r0, r3, r8, lsr #5
    1cac:	01040000 	mrseq	r0, (UNDEF: 4)
    1cb0:	00230210 	eoreq	r0, r3, r0, lsl r2
    1cb4:	000e6d09 	andeq	r6, lr, r9, lsl #26
    1cb8:	02a90300 	adceq	r0, r9, #0
    1cbc:	00000053 	andeq	r0, r0, r3, asr r0
    1cc0:	02090704 	andeq	r0, r9, #1048576	; 0x100000
    1cc4:	53090023 	movwpl	r0, #36899	; 0x9023
    1cc8:	0300000e 	movweq	r0, #14
    1ccc:	005302aa 	subseq	r0, r3, sl, lsr #5
    1cd0:	01040000 	mrseq	r0, (UNDEF: 4)
    1cd4:	00230208 	eoreq	r0, r3, r8, lsl #4
    1cd8:	00047909 	andeq	r7, r4, r9, lsl #18
    1cdc:	02ab0300 	adceq	r0, fp, #0
    1ce0:	00000053 	andeq	r0, r0, r3, asr r0
    1ce4:	02050304 	andeq	r0, r5, #268435456	; 0x10000000
    1ce8:	58090023 	stmdapl	r9, {r0, r1, r5}
    1cec:	0300000e 	movweq	r0, #14
    1cf0:	005302ac 	subseq	r0, r3, ip, lsr #5
    1cf4:	01040000 	mrseq	r0, (UNDEF: 4)
    1cf8:	00230204 	eoreq	r0, r3, r4, lsl #4
    1cfc:	000bdc09 	andeq	sp, fp, r9, lsl #24
    1d00:	02ad0300 	adceq	r0, sp, #0
    1d04:	00000053 	andeq	r0, r0, r3, asr r0
    1d08:	02010304 	andeq	r0, r1, #268435456	; 0x10000000
    1d0c:	5d090023 	stcpl	0, cr0, [r9, #-140]	; 0xffffff74
    1d10:	0300000e 	movweq	r0, #14
    1d14:	005302ae 	subseq	r0, r3, lr, lsr #5
    1d18:	01040000 	mrseq	r0, (UNDEF: 4)
    1d1c:	00230200 	eoreq	r0, r3, r0, lsl #4
    1d20:	03040d00 	movweq	r0, #19712	; 0x4d00
    1d24:	189902a0 	ldmne	r9, {r5, r7, r9}
    1d28:	d30a0000 	movwle	r0, #40960	; 0xa000
    1d2c:	03000002 	movweq	r0, #2
    1d30:	005302a2 	subseq	r0, r3, r2, lsr #5
    1d34:	2a0a0000 	bcs	281d3c <__bss_end+0x26ebf0>
    1d38:	03000009 	movweq	r0, #9
    1d3c:	17b902af 	ldrne	r0, [r9, pc, lsr #5]!
    1d40:	0b000000 	bleq	1d48 <__resume1_start+0x1d48>
    1d44:	000006a2 	andeq	r0, r0, r2, lsr #13
    1d48:	7702b003 	strvc	fp, [r2, -r3]
    1d4c:	0c000018 	stceq	0, cr0, [r0], {24}
    1d50:	02b50304 	adcseq	r0, r5, #268435456	; 0x10000000
    1d54:	0000191b 	andeq	r1, r0, fp, lsl r9
    1d58:	0002f309 	andeq	pc, r2, r9, lsl #6
    1d5c:	02b70300 	adcseq	r0, r7, #0
    1d60:	00000053 	andeq	r0, r0, r3, asr r0
    1d64:	020f1104 	andeq	r1, pc, #1
    1d68:	41090023 	tstmi	r9, r3, lsr #32
    1d6c:	03000017 	movweq	r0, #23
    1d70:	005302b8 	ldrheq	r0, [r3], #-40	; 0xffffffd8
    1d74:	02040000 	andeq	r0, r4, #0
    1d78:	0023020d 	eoreq	r0, r3, sp, lsl #4
    1d7c:	000bff09 	andeq	pc, fp, r9, lsl #30
    1d80:	02b90300 	adcseq	r0, r9, #0
    1d84:	00000053 	andeq	r0, r0, r3, asr r0
    1d88:	020c0104 	andeq	r0, ip, #1
    1d8c:	0c090023 	stceq	0, cr0, [r9], {35}	; 0x23
    1d90:	03000007 	movweq	r0, #7
    1d94:	005302ba 	ldrheq	r0, [r3], #-42	; 0xffffffd6
    1d98:	09040000 	stmdbeq	r4, {}	; <UNPREDICTABLE>
    1d9c:	00230203 	eoreq	r0, r3, r3, lsl #4
    1da0:	00031409 	andeq	r1, r3, r9, lsl #8
    1da4:	02bb0300 	adcseq	r0, fp, #0
    1da8:	00000053 	andeq	r0, r0, r3, asr r0
    1dac:	02010204 	andeq	r0, r1, #1073741824	; 0x40000000
    1db0:	c3090023 	movwgt	r0, #36899	; 0x9023
    1db4:	03000004 	movweq	r0, #4
    1db8:	005302bc 	ldrheq	r0, [r3], #-44	; 0xffffffd4
    1dbc:	01040000 	mrseq	r0, (UNDEF: 4)
    1dc0:	00230200 	eoreq	r0, r3, r0, lsl #4
    1dc4:	03040d00 	movweq	r0, #19712	; 0x4d00
    1dc8:	193d02b2 	ldmdbne	sp!, {r1, r4, r5, r7, r9}
    1dcc:	d30a0000 	movwle	r0, #40960	; 0xa000
    1dd0:	03000002 	movweq	r0, #2
    1dd4:	005302b4 	ldrheq	r0, [r3], #-36	; 0xffffffdc
    1dd8:	2a0a0000 	bcs	281de0 <__bss_end+0x26ec94>
    1ddc:	03000009 	movweq	r0, #9
    1de0:	18a502bd 	stmiane	r5!, {r0, r2, r3, r4, r5, r7, r9}
    1de4:	0b000000 	bleq	1dec <__resume1_start+0x1dec>
    1de8:	000002fc 	strdeq	r0, [r0], -ip
    1dec:	1b02be03 	blne	b1600 <__bss_end+0x9e4b4>
    1df0:	0c000019 	stceq	0, cr0, [r0], {25}
    1df4:	02c30304 	sbceq	r0, r3, #268435456	; 0x10000000
    1df8:	000019bf 			; <UNDEFINED> instruction: 0x000019bf
    1dfc:	0002f309 	andeq	pc, r2, r9, lsl #6
    1e00:	02c50300 	sbceq	r0, r5, #0
    1e04:	00000053 	andeq	r0, r0, r3, asr r0
    1e08:	020f1104 	andeq	r1, pc, #1
    1e0c:	41090023 	tstmi	r9, r3, lsr #32
    1e10:	03000017 	movweq	r0, #23
    1e14:	005302c6 	subseq	r0, r3, r6, asr #5
    1e18:	02040000 	andeq	r0, r4, #0
    1e1c:	0023020d 	eoreq	r0, r3, sp, lsl #4
    1e20:	000bff09 	andeq	pc, fp, r9, lsl #30
    1e24:	02c70300 	sbceq	r0, r7, #0
    1e28:	00000053 	andeq	r0, r0, r3, asr r0
    1e2c:	020c0104 	andeq	r0, ip, #1
    1e30:	0c090023 	stceq	0, cr0, [r9], {35}	; 0x23
    1e34:	03000007 	movweq	r0, #7
    1e38:	005302c8 	subseq	r0, r3, r8, asr #5
    1e3c:	09040000 	stmdbeq	r4, {}	; <UNPREDICTABLE>
    1e40:	00230203 	eoreq	r0, r3, r3, lsl #4
    1e44:	00031409 	andeq	r1, r3, r9, lsl #8
    1e48:	02c90300 	sbceq	r0, r9, #0
    1e4c:	00000053 	andeq	r0, r0, r3, asr r0
    1e50:	02010204 	andeq	r0, r1, #1073741824	; 0x40000000
    1e54:	c3090023 	movwgt	r0, #36899	; 0x9023
    1e58:	03000004 	movweq	r0, #4
    1e5c:	005302ca 	subseq	r0, r3, sl, asr #5
    1e60:	01040000 	mrseq	r0, (UNDEF: 4)
    1e64:	00230200 	eoreq	r0, r3, r0, lsl #4
    1e68:	03040d00 	movweq	r0, #19712	; 0x4d00
    1e6c:	19e102c0 	stmibne	r1!, {r6, r7, r9}^
    1e70:	d30a0000 	movwle	r0, #40960	; 0xa000
    1e74:	03000002 	movweq	r0, #2
    1e78:	005302c2 	subseq	r0, r3, r2, asr #5
    1e7c:	2a0a0000 	bcs	281e84 <__bss_end+0x26ed38>
    1e80:	03000009 	movweq	r0, #9
    1e84:	194902cb 	stmdbne	r9, {r0, r1, r3, r6, r7, r9}^
    1e88:	0b000000 	bleq	1e90 <__resume1_start+0x1e90>
    1e8c:	00000abc 			; <UNDEFINED> instruction: 0x00000abc
    1e90:	bf02cc03 	svclt	0x0002cc03
    1e94:	0c000019 	stceq	0, cr0, [r0], {25}
    1e98:	02d10304 	sbcseq	r0, r1, #268435456	; 0x10000000
    1e9c:	00001a63 	andeq	r1, r0, r3, ror #20
    1ea0:	0002f309 	andeq	pc, r2, r9, lsl #6
    1ea4:	02d30300 	sbcseq	r0, r3, #0
    1ea8:	00000053 	andeq	r0, r0, r3, asr r0
    1eac:	020f1104 	andeq	r1, pc, #1
    1eb0:	41090023 	tstmi	r9, r3, lsr #32
    1eb4:	03000017 	movweq	r0, #23
    1eb8:	005302d4 	ldrsbeq	r0, [r3], #-36	; 0xffffffdc
    1ebc:	02040000 	andeq	r0, r4, #0
    1ec0:	0023020d 	eoreq	r0, r3, sp, lsl #4
    1ec4:	000bff09 	andeq	pc, fp, r9, lsl #30
    1ec8:	02d50300 	sbcseq	r0, r5, #0
    1ecc:	00000053 	andeq	r0, r0, r3, asr r0
    1ed0:	020c0104 	andeq	r0, ip, #1
    1ed4:	0c090023 	stceq	0, cr0, [r9], {35}	; 0x23
    1ed8:	03000007 	movweq	r0, #7
    1edc:	005302d6 	ldrsbeq	r0, [r3], #-38	; 0xffffffda
    1ee0:	09040000 	stmdbeq	r4, {}	; <UNPREDICTABLE>
    1ee4:	00230203 	eoreq	r0, r3, r3, lsl #4
    1ee8:	00031409 	andeq	r1, r3, r9, lsl #8
    1eec:	02d70300 	sbcseq	r0, r7, #0
    1ef0:	00000053 	andeq	r0, r0, r3, asr r0
    1ef4:	02010204 	andeq	r0, r1, #1073741824	; 0x40000000
    1ef8:	c3090023 	movwgt	r0, #36899	; 0x9023
    1efc:	03000004 	movweq	r0, #4
    1f00:	005302d8 	ldrsbeq	r0, [r3], #-40	; 0xffffffd8
    1f04:	01040000 	mrseq	r0, (UNDEF: 4)
    1f08:	00230200 	eoreq	r0, r3, r0, lsl #4
    1f0c:	03040d00 	movweq	r0, #19712	; 0x4d00
    1f10:	1a8502ce 	bne	fe142a50 <__bss_end+0xfe12f904>
    1f14:	d30a0000 	movwle	r0, #40960	; 0xa000
    1f18:	03000002 	movweq	r0, #2
    1f1c:	005302d0 	ldrsbeq	r0, [r3], #-32	; 0xffffffe0
    1f20:	2a0a0000 	bcs	281f28 <__bss_end+0x26eddc>
    1f24:	03000009 	movweq	r0, #9
    1f28:	19ed02d9 	stmibne	sp!, {r0, r3, r4, r6, r7, r9}^
    1f2c:	0b000000 	bleq	1f34 <__resume1_start+0x1f34>
    1f30:	00000e17 	andeq	r0, r0, r7, lsl lr
    1f34:	6302da03 	movwvs	sp, #10755	; 0x2a03
    1f38:	0c00001a 	stceq	0, cr0, [r0], {26}
    1f3c:	02df0304 	sbcseq	r0, pc, #268435456	; 0x10000000
    1f40:	00001b07 	andeq	r1, r0, r7, lsl #22
    1f44:	0002f309 	andeq	pc, r2, r9, lsl #6
    1f48:	02e10300 	rsceq	r0, r1, #0
    1f4c:	00000053 	andeq	r0, r0, r3, asr r0
    1f50:	020f1104 	andeq	r1, pc, #1
    1f54:	41090023 	tstmi	r9, r3, lsr #32
    1f58:	03000017 	movweq	r0, #23
    1f5c:	005302e2 	subseq	r0, r3, r2, ror #5
    1f60:	02040000 	andeq	r0, r4, #0
    1f64:	0023020d 	eoreq	r0, r3, sp, lsl #4
    1f68:	000bff09 	andeq	pc, fp, r9, lsl #30
    1f6c:	02e30300 	rsceq	r0, r3, #0
    1f70:	00000053 	andeq	r0, r0, r3, asr r0
    1f74:	020c0104 	andeq	r0, ip, #1
    1f78:	0c090023 	stceq	0, cr0, [r9], {35}	; 0x23
    1f7c:	03000007 	movweq	r0, #7
    1f80:	005302e4 	subseq	r0, r3, r4, ror #5
    1f84:	09040000 	stmdbeq	r4, {}	; <UNPREDICTABLE>
    1f88:	00230203 	eoreq	r0, r3, r3, lsl #4
    1f8c:	00031409 	andeq	r1, r3, r9, lsl #8
    1f90:	02e50300 	rsceq	r0, r5, #0
    1f94:	00000053 	andeq	r0, r0, r3, asr r0
    1f98:	02010204 	andeq	r0, r1, #1073741824	; 0x40000000
    1f9c:	c3090023 	movwgt	r0, #36899	; 0x9023
    1fa0:	03000004 	movweq	r0, #4
    1fa4:	005302e6 	subseq	r0, r3, r6, ror #5
    1fa8:	01040000 	mrseq	r0, (UNDEF: 4)
    1fac:	00230200 	eoreq	r0, r3, r0, lsl #4
    1fb0:	03040d00 	movweq	r0, #19712	; 0x4d00
    1fb4:	1b2902dc 	blne	a42b2c <__bss_end+0xa2f9e0>
    1fb8:	d30a0000 	movwle	r0, #40960	; 0xa000
    1fbc:	03000002 	movweq	r0, #2
    1fc0:	005302de 	ldrsbeq	r0, [r3], #-46	; 0xffffffd2
    1fc4:	2a0a0000 	bcs	281fcc <__bss_end+0x26ee80>
    1fc8:	03000009 	movweq	r0, #9
    1fcc:	1a9102e7 	bne	fe442b70 <__bss_end+0xfe42fa24>
    1fd0:	0b000000 	bleq	1fd8 <__resume1_start+0x1fd8>
    1fd4:	00000960 	andeq	r0, r0, r0, ror #18
    1fd8:	0702e803 	streq	lr, [r2, -r3, lsl #16]
    1fdc:	0c00001b 	stceq	0, cr0, [r0], {27}
    1fe0:	02ed0304 	rsceq	r0, sp, #268435456	; 0x10000000
    1fe4:	00001bab 	andeq	r1, r0, fp, lsr #23
    1fe8:	0002f309 	andeq	pc, r2, r9, lsl #6
    1fec:	02ef0300 	rsceq	r0, pc, #0
    1ff0:	00000053 	andeq	r0, r0, r3, asr r0
    1ff4:	020f1104 	andeq	r1, pc, #1
    1ff8:	41090023 	tstmi	r9, r3, lsr #32
    1ffc:	03000017 	movweq	r0, #23
    2000:	005302f0 	ldrsheq	r0, [r3], #-32	; 0xffffffe0
    2004:	02040000 	andeq	r0, r4, #0
    2008:	0023020d 	eoreq	r0, r3, sp, lsl #4
    200c:	000bff09 	andeq	pc, fp, r9, lsl #30
    2010:	02f10300 	rscseq	r0, r1, #0
    2014:	00000053 	andeq	r0, r0, r3, asr r0
    2018:	020c0104 	andeq	r0, ip, #1
    201c:	0c090023 	stceq	0, cr0, [r9], {35}	; 0x23
    2020:	03000007 	movweq	r0, #7
    2024:	005302f2 	ldrsheq	r0, [r3], #-34	; 0xffffffde
    2028:	09040000 	stmdbeq	r4, {}	; <UNPREDICTABLE>
    202c:	00230203 	eoreq	r0, r3, r3, lsl #4
    2030:	00031409 	andeq	r1, r3, r9, lsl #8
    2034:	02f30300 	rscseq	r0, r3, #0
    2038:	00000053 	andeq	r0, r0, r3, asr r0
    203c:	02010204 	andeq	r0, r1, #1073741824	; 0x40000000
    2040:	c3090023 	movwgt	r0, #36899	; 0x9023
    2044:	03000004 	movweq	r0, #4
    2048:	005302f4 	ldrsheq	r0, [r3], #-36	; 0xffffffdc
    204c:	01040000 	mrseq	r0, (UNDEF: 4)
    2050:	00230200 	eoreq	r0, r3, r0, lsl #4
    2054:	03040d00 	movweq	r0, #19712	; 0x4d00
    2058:	1bcd02ea 	blne	ff342c08 <__bss_end+0xff32fabc>
    205c:	d30a0000 	movwle	r0, #40960	; 0xa000
    2060:	03000002 	movweq	r0, #2
    2064:	005302ec 	subseq	r0, r3, ip, ror #5
    2068:	2a0a0000 	bcs	282070 <__bss_end+0x26ef24>
    206c:	03000009 	movweq	r0, #9
    2070:	1b3502f5 	blne	d42c4c <__bss_end+0xd2fb00>
    2074:	0b000000 	bleq	207c <__resume1_start+0x207c>
    2078:	0000060b 	andeq	r0, r0, fp, lsl #12
    207c:	ab02f603 	blge	bf890 <__bss_end+0xac744>
    2080:	0c00001b 	stceq	0, cr0, [r0], {27}
    2084:	02fb0304 	rscseq	r0, fp, #268435456	; 0x10000000
    2088:	00001c4f 	andeq	r1, r0, pc, asr #24
    208c:	0002f309 	andeq	pc, r2, r9, lsl #6
    2090:	02fd0300 	rscseq	r0, sp, #0
    2094:	00000053 	andeq	r0, r0, r3, asr r0
    2098:	020f1104 	andeq	r1, pc, #1
    209c:	41090023 	tstmi	r9, r3, lsr #32
    20a0:	03000017 	movweq	r0, #23
    20a4:	005302fe 	ldrsheq	r0, [r3], #-46	; 0xffffffd2
    20a8:	02040000 	andeq	r0, r4, #0
    20ac:	0023020d 	eoreq	r0, r3, sp, lsl #4
    20b0:	000bff09 	andeq	pc, fp, r9, lsl #30
    20b4:	02ff0300 	rscseq	r0, pc, #0
    20b8:	00000053 	andeq	r0, r0, r3, asr r0
    20bc:	020c0104 	andeq	r0, ip, #1
    20c0:	0c090023 	stceq	0, cr0, [r9], {35}	; 0x23
    20c4:	03000007 	movweq	r0, #7
    20c8:	00530300 	subseq	r0, r3, r0, lsl #6
    20cc:	09040000 	stmdbeq	r4, {}	; <UNPREDICTABLE>
    20d0:	00230203 	eoreq	r0, r3, r3, lsl #4
    20d4:	00031409 	andeq	r1, r3, r9, lsl #8
    20d8:	03010300 	movweq	r0, #4864	; 0x1300
    20dc:	00000053 	andeq	r0, r0, r3, asr r0
    20e0:	02010204 	andeq	r0, r1, #1073741824	; 0x40000000
    20e4:	c3090023 	movwgt	r0, #36899	; 0x9023
    20e8:	03000004 	movweq	r0, #4
    20ec:	00530302 	subseq	r0, r3, r2, lsl #6
    20f0:	01040000 	mrseq	r0, (UNDEF: 4)
    20f4:	00230200 	eoreq	r0, r3, r0, lsl #4
    20f8:	03040d00 	movweq	r0, #19712	; 0x4d00
    20fc:	1c7102f8 	lfmne	f0, 2, [r1], #-992	; 0xfffffc20
    2100:	d30a0000 	movwle	r0, #40960	; 0xa000
    2104:	03000002 	movweq	r0, #2
    2108:	005302fa 	ldrsheq	r0, [r3], #-42	; 0xffffffd6
    210c:	2a0a0000 	bcs	282114 <__bss_end+0x26efc8>
    2110:	03000009 	movweq	r0, #9
    2114:	1bd90303 	blne	ff642d28 <__bss_end+0xff62fbdc>
    2118:	0b000000 	bleq	2120 <__resume1_start+0x2120>
    211c:	000005f2 	strdeq	r0, [r0], -r2
    2120:	4f030403 	svcmi	0x00030403
    2124:	0c00001c 	stceq	0, cr0, [r0], {28}
    2128:	03090304 	movweq	r0, #37636	; 0x9304
    212c:	00001cf3 	strdeq	r1, [r0], -r3
    2130:	0002f309 	andeq	pc, r2, r9, lsl #6
    2134:	030b0300 	movweq	r0, #45824	; 0xb300
    2138:	00000053 	andeq	r0, r0, r3, asr r0
    213c:	020f1104 	andeq	r1, pc, #1
    2140:	41090023 	tstmi	r9, r3, lsr #32
    2144:	03000017 	movweq	r0, #23
    2148:	0053030c 	subseq	r0, r3, ip, lsl #6
    214c:	02040000 	andeq	r0, r4, #0
    2150:	0023020d 	eoreq	r0, r3, sp, lsl #4
    2154:	000bff09 	andeq	pc, fp, r9, lsl #30
    2158:	030d0300 	movweq	r0, #54016	; 0xd300
    215c:	00000053 	andeq	r0, r0, r3, asr r0
    2160:	020c0104 	andeq	r0, ip, #1
    2164:	0c090023 	stceq	0, cr0, [r9], {35}	; 0x23
    2168:	03000007 	movweq	r0, #7
    216c:	0053030e 	subseq	r0, r3, lr, lsl #6
    2170:	09040000 	stmdbeq	r4, {}	; <UNPREDICTABLE>
    2174:	00230203 	eoreq	r0, r3, r3, lsl #4
    2178:	00031409 	andeq	r1, r3, r9, lsl #8
    217c:	030f0300 	movweq	r0, #62208	; 0xf300
    2180:	00000053 	andeq	r0, r0, r3, asr r0
    2184:	02010204 	andeq	r0, r1, #1073741824	; 0x40000000
    2188:	c3090023 	movwgt	r0, #36899	; 0x9023
    218c:	03000004 	movweq	r0, #4
    2190:	00530310 	subseq	r0, r3, r0, lsl r3
    2194:	01040000 	mrseq	r0, (UNDEF: 4)
    2198:	00230200 	eoreq	r0, r3, r0, lsl #4
    219c:	03040d00 	movweq	r0, #19712	; 0x4d00
    21a0:	1d150306 	ldcne	3, cr0, [r5, #-24]	; 0xffffffe8
    21a4:	d30a0000 	movwle	r0, #40960	; 0xa000
    21a8:	03000002 	movweq	r0, #2
    21ac:	00530308 	subseq	r0, r3, r8, lsl #6
    21b0:	2a0a0000 	bcs	2821b8 <__bss_end+0x26f06c>
    21b4:	03000009 	movweq	r0, #9
    21b8:	1c7d0311 	ldclne	3, cr0, [sp], #-68	; 0xffffffbc
    21bc:	0b000000 	bleq	21c4 <__resume1_start+0x21c4>
    21c0:	00000ed6 	ldrdeq	r0, [r0], -r6
    21c4:	f3031203 	vhsub.u8	d1, d3, d3
    21c8:	0c00001c 	stceq	0, cr0, [r0], {28}
    21cc:	03170304 	tsteq	r7, #268435456	; 0x10000000
    21d0:	00001d97 	muleq	r0, r7, sp
    21d4:	0002f309 	andeq	pc, r2, r9, lsl #6
    21d8:	03190300 	tsteq	r9, #0
    21dc:	00000053 	andeq	r0, r0, r3, asr r0
    21e0:	020f1104 	andeq	r1, pc, #1
    21e4:	41090023 	tstmi	r9, r3, lsr #32
    21e8:	03000017 	movweq	r0, #23
    21ec:	0053031a 	subseq	r0, r3, sl, lsl r3
    21f0:	02040000 	andeq	r0, r4, #0
    21f4:	0023020d 	eoreq	r0, r3, sp, lsl #4
    21f8:	000bff09 	andeq	pc, fp, r9, lsl #30
    21fc:	031b0300 	tsteq	fp, #0
    2200:	00000053 	andeq	r0, r0, r3, asr r0
    2204:	020c0104 	andeq	r0, ip, #1
    2208:	0c090023 	stceq	0, cr0, [r9], {35}	; 0x23
    220c:	03000007 	movweq	r0, #7
    2210:	0053031c 	subseq	r0, r3, ip, lsl r3
    2214:	09040000 	stmdbeq	r4, {}	; <UNPREDICTABLE>
    2218:	00230203 	eoreq	r0, r3, r3, lsl #4
    221c:	00031409 	andeq	r1, r3, r9, lsl #8
    2220:	031d0300 	tsteq	sp, #0
    2224:	00000053 	andeq	r0, r0, r3, asr r0
    2228:	02010204 	andeq	r0, r1, #1073741824	; 0x40000000
    222c:	c3090023 	movwgt	r0, #36899	; 0x9023
    2230:	03000004 	movweq	r0, #4
    2234:	0053031e 	subseq	r0, r3, lr, lsl r3
    2238:	01040000 	mrseq	r0, (UNDEF: 4)
    223c:	00230200 	eoreq	r0, r3, r0, lsl #4
    2240:	03040d00 	movweq	r0, #19712	; 0x4d00
    2244:	1db90314 	ldcne	3, cr0, [r9, #80]!	; 0x50
    2248:	d30a0000 	movwle	r0, #40960	; 0xa000
    224c:	03000002 	movweq	r0, #2
    2250:	00530316 	subseq	r0, r3, r6, lsl r3
    2254:	2a0a0000 	bcs	28225c <__bss_end+0x26f110>
    2258:	03000009 	movweq	r0, #9
    225c:	1d21031f 	stcne	3, cr0, [r1, #-124]!	; 0xffffff84
    2260:	0b000000 	bleq	2268 <__resume1_start+0x2268>
    2264:	000008ff 	strdeq	r0, [r0], -pc	; <UNPREDICTABLE>
    2268:	97032003 	strls	r2, [r3, -r3]
    226c:	0c00001d 	stceq	0, cr0, [r0], {29}
    2270:	03250304 	teqeq	r5, #268435456	; 0x10000000
    2274:	00001e3b 	andeq	r1, r0, fp, lsr lr
    2278:	0002f309 	andeq	pc, r2, r9, lsl #6
    227c:	03270300 	teqeq	r7, #0
    2280:	00000053 	andeq	r0, r0, r3, asr r0
    2284:	020f1104 	andeq	r1, pc, #1
    2288:	41090023 	tstmi	r9, r3, lsr #32
    228c:	03000017 	movweq	r0, #23
    2290:	00530328 	subseq	r0, r3, r8, lsr #6
    2294:	02040000 	andeq	r0, r4, #0
    2298:	0023020d 	eoreq	r0, r3, sp, lsl #4
    229c:	000bff09 	andeq	pc, fp, r9, lsl #30
    22a0:	03290300 	teqeq	r9, #0
    22a4:	00000053 	andeq	r0, r0, r3, asr r0
    22a8:	020c0104 	andeq	r0, ip, #1
    22ac:	0c090023 	stceq	0, cr0, [r9], {35}	; 0x23
    22b0:	03000007 	movweq	r0, #7
    22b4:	0053032a 	subseq	r0, r3, sl, lsr #6
    22b8:	09040000 	stmdbeq	r4, {}	; <UNPREDICTABLE>
    22bc:	00230203 	eoreq	r0, r3, r3, lsl #4
    22c0:	00031409 	andeq	r1, r3, r9, lsl #8
    22c4:	032b0300 	teqeq	fp, #0
    22c8:	00000053 	andeq	r0, r0, r3, asr r0
    22cc:	02010204 	andeq	r0, r1, #1073741824	; 0x40000000
    22d0:	c3090023 	movwgt	r0, #36899	; 0x9023
    22d4:	03000004 	movweq	r0, #4
    22d8:	0053032c 	subseq	r0, r3, ip, lsr #6
    22dc:	01040000 	mrseq	r0, (UNDEF: 4)
    22e0:	00230200 	eoreq	r0, r3, r0, lsl #4
    22e4:	03040d00 	movweq	r0, #19712	; 0x4d00
    22e8:	1e5d0322 	cdpne	3, 5, cr0, cr13, cr2, {1}
    22ec:	d30a0000 	movwle	r0, #40960	; 0xa000
    22f0:	03000002 	movweq	r0, #2
    22f4:	00530324 	subseq	r0, r3, r4, lsr #6
    22f8:	2a0a0000 	bcs	282300 <__bss_end+0x26f1b4>
    22fc:	03000009 	movweq	r0, #9
    2300:	1dc5032d 	stclne	3, cr0, [r5, #180]	; 0xb4
    2304:	0b000000 	bleq	230c <__resume1_start+0x230c>
    2308:	00000806 	andeq	r0, r0, r6, lsl #16
    230c:	3b032e03 	blcc	cdb20 <__bss_end+0xba9d4>
    2310:	0c00001e 	stceq	0, cr0, [r0], {30}
    2314:	03330304 	teqeq	r3, #268435456	; 0x10000000
    2318:	00001edf 	ldrdeq	r1, [r0], -pc	; <UNPREDICTABLE>
    231c:	0002f309 	andeq	pc, r2, r9, lsl #6
    2320:	03350300 	teqeq	r5, #0
    2324:	00000053 	andeq	r0, r0, r3, asr r0
    2328:	020f1104 	andeq	r1, pc, #1
    232c:	41090023 	tstmi	r9, r3, lsr #32
    2330:	03000017 	movweq	r0, #23
    2334:	00530336 	subseq	r0, r3, r6, lsr r3
    2338:	02040000 	andeq	r0, r4, #0
    233c:	0023020d 	eoreq	r0, r3, sp, lsl #4
    2340:	000bff09 	andeq	pc, fp, r9, lsl #30
    2344:	03370300 	teqeq	r7, #0
    2348:	00000053 	andeq	r0, r0, r3, asr r0
    234c:	020c0104 	andeq	r0, ip, #1
    2350:	0c090023 	stceq	0, cr0, [r9], {35}	; 0x23
    2354:	03000007 	movweq	r0, #7
    2358:	00530338 	subseq	r0, r3, r8, lsr r3
    235c:	09040000 	stmdbeq	r4, {}	; <UNPREDICTABLE>
    2360:	00230203 	eoreq	r0, r3, r3, lsl #4
    2364:	00031409 	andeq	r1, r3, r9, lsl #8
    2368:	03390300 	teqeq	r9, #0
    236c:	00000053 	andeq	r0, r0, r3, asr r0
    2370:	02010204 	andeq	r0, r1, #1073741824	; 0x40000000
    2374:	c3090023 	movwgt	r0, #36899	; 0x9023
    2378:	03000004 	movweq	r0, #4
    237c:	0053033a 	subseq	r0, r3, sl, lsr r3
    2380:	01040000 	mrseq	r0, (UNDEF: 4)
    2384:	00230200 	eoreq	r0, r3, r0, lsl #4
    2388:	03040d00 	movweq	r0, #19712	; 0x4d00
    238c:	1f010330 	svcne	0x00010330
    2390:	d30a0000 	movwle	r0, #40960	; 0xa000
    2394:	03000002 	movweq	r0, #2
    2398:	00530332 	subseq	r0, r3, r2, lsr r3
    239c:	2a0a0000 	bcs	2823a4 <__bss_end+0x26f258>
    23a0:	03000009 	movweq	r0, #9
    23a4:	1e69033b 	mcrne	3, 3, r0, cr9, cr11, {1}
    23a8:	0b000000 	bleq	23b0 <__resume1_start+0x23b0>
    23ac:	0000093e 	andeq	r0, r0, lr, lsr r9
    23b0:	df033c03 	svcle	0x00033c03
    23b4:	0c00001e 	stceq	0, cr0, [r0], {30}
    23b8:	03410304 	movteq	r0, #4868	; 0x1304
    23bc:	00001fa7 	andeq	r1, r0, r7, lsr #31
    23c0:	000e5309 	andeq	r5, lr, r9, lsl #6
    23c4:	03430300 	movteq	r0, #13056	; 0x3300
    23c8:	00000053 	andeq	r0, r0, r3, asr r0
    23cc:	02180804 	andseq	r0, r8, #262144	; 0x40000
    23d0:	68090023 	stmdavs	r9, {r0, r1, r5}
    23d4:	03000005 	movweq	r0, #5
    23d8:	00530344 	subseq	r0, r3, r4, asr #6
    23dc:	05040000 	streq	r0, [r4, #-0]
    23e0:	00230213 	eoreq	r0, r3, r3, lsl r2
    23e4:	000e5809 	andeq	r5, lr, r9, lsl #16
    23e8:	03450300 	movteq	r0, #21248	; 0x5300
    23ec:	00000053 	andeq	r0, r0, r3, asr r0
    23f0:	020c0704 	andeq	r0, ip, #1048576	; 0x100000
    23f4:	72090023 	andvc	r0, r9, #35	; 0x23
    23f8:	03000005 	movweq	r0, #5
    23fc:	00530346 	subseq	r0, r3, r6, asr #6
    2400:	02040000 	andeq	r0, r4, #0
    2404:	0023020a 	eoreq	r0, r3, sl, lsl #4
    2408:	000e5d09 	andeq	r5, lr, r9, lsl #26
    240c:	03470300 	movteq	r0, #29440	; 0x7300
    2410:	00000053 	andeq	r0, r0, r3, asr r0
    2414:	02080204 	andeq	r0, r8, #1073741824	; 0x40000000
    2418:	74090023 	strvc	r0, [r9], #-35	; 0x23
    241c:	0300000d 	movweq	r0, #13
    2420:	00530348 	subseq	r0, r3, r8, asr #6
    2424:	02040000 	andeq	r0, r4, #0
    2428:	00230206 	eoreq	r0, r3, r6, lsl #4
    242c:	000e6209 	andeq	r6, lr, r9, lsl #4
    2430:	03490300 	movteq	r0, #37632	; 0x9300
    2434:	00000053 	andeq	r0, r0, r3, asr r0
    2438:	02010504 	andeq	r0, r1, #16777216	; 0x1000000
    243c:	97090023 	strls	r0, [r9, -r3, lsr #32]
    2440:	03000006 	movweq	r0, #6
    2444:	0053034a 	subseq	r0, r3, sl, asr #6
    2448:	01040000 	mrseq	r0, (UNDEF: 4)
    244c:	00230200 	eoreq	r0, r3, r0, lsl #4
    2450:	03040d00 	movweq	r0, #19712	; 0x4d00
    2454:	1fc9033e 	svcne	0x00c9033e
    2458:	d30a0000 	movwle	r0, #40960	; 0xa000
    245c:	03000002 	movweq	r0, #2
    2460:	00530340 	subseq	r0, r3, r0, asr #6
    2464:	2a0a0000 	bcs	28246c <__bss_end+0x26f320>
    2468:	03000009 	movweq	r0, #9
    246c:	1f0d034b 	svcne	0x000d034b
    2470:	0b000000 	bleq	2478 <__resume1_start+0x2478>
    2474:	00000ba3 	andeq	r0, r0, r3, lsr #23
    2478:	a7034c03 	strge	r4, [r3, -r3, lsl #24]
    247c:	0c00001f 	stceq	0, cr0, [r0], {31}
    2480:	03510304 	cmpeq	r1, #268435456	; 0x10000000
    2484:	0000206f 	andeq	r2, r0, pc, rrx
    2488:	000e5309 	andeq	r5, lr, r9, lsl #6
    248c:	03530300 	cmpeq	r3, #0
    2490:	00000053 	andeq	r0, r0, r3, asr r0
    2494:	02180804 	andseq	r0, r8, #262144	; 0x40000
    2498:	68090023 	stmdavs	r9, {r0, r1, r5}
    249c:	03000005 	movweq	r0, #5
    24a0:	00530354 	subseq	r0, r3, r4, asr r3
    24a4:	05040000 	streq	r0, [r4, #-0]
    24a8:	00230213 	eoreq	r0, r3, r3, lsl r2
    24ac:	000e5809 	andeq	r5, lr, r9, lsl #16
    24b0:	03550300 	cmpeq	r5, #0
    24b4:	00000053 	andeq	r0, r0, r3, asr r0
    24b8:	020c0704 	andeq	r0, ip, #1048576	; 0x100000
    24bc:	72090023 	andvc	r0, r9, #35	; 0x23
    24c0:	03000005 	movweq	r0, #5
    24c4:	00530356 	subseq	r0, r3, r6, asr r3
    24c8:	02040000 	andeq	r0, r4, #0
    24cc:	0023020a 	eoreq	r0, r3, sl, lsl #4
    24d0:	000e5d09 	andeq	r5, lr, r9, lsl #26
    24d4:	03570300 	cmpeq	r7, #0
    24d8:	00000053 	andeq	r0, r0, r3, asr r0
    24dc:	02080204 	andeq	r0, r8, #1073741824	; 0x40000000
    24e0:	74090023 	strvc	r0, [r9], #-35	; 0x23
    24e4:	0300000d 	movweq	r0, #13
    24e8:	00530358 	subseq	r0, r3, r8, asr r3
    24ec:	02040000 	andeq	r0, r4, #0
    24f0:	00230206 	eoreq	r0, r3, r6, lsl #4
    24f4:	000e6209 	andeq	r6, lr, r9, lsl #4
    24f8:	03590300 	cmpeq	r9, #0
    24fc:	00000053 	andeq	r0, r0, r3, asr r0
    2500:	02010504 	andeq	r0, r1, #16777216	; 0x1000000
    2504:	97090023 	strls	r0, [r9, -r3, lsr #32]
    2508:	03000006 	movweq	r0, #6
    250c:	0053035a 	subseq	r0, r3, sl, asr r3
    2510:	01040000 	mrseq	r0, (UNDEF: 4)
    2514:	00230200 	eoreq	r0, r3, r0, lsl #4
    2518:	03040d00 	movweq	r0, #19712	; 0x4d00
    251c:	2091034e 	addscs	r0, r1, lr, asr #6
    2520:	d30a0000 	movwle	r0, #40960	; 0xa000
    2524:	03000002 	movweq	r0, #2
    2528:	00530350 	subseq	r0, r3, r0, asr r3
    252c:	2a0a0000 	bcs	282534 <__bss_end+0x26f3e8>
    2530:	03000009 	movweq	r0, #9
    2534:	1fd5035b 	svcne	0x00d5035b
    2538:	0b000000 	bleq	2540 <__resume1_start+0x2540>
    253c:	000005cf 	andeq	r0, r0, pc, asr #11
    2540:	6f035c03 	svcvs	0x00035c03
    2544:	0e000020 	cdpeq	0, 0, cr0, cr0, cr0, {1}
    2548:	00000f22 	andeq	r0, r0, r2, lsr #30
    254c:	5e030184 	adfpld	f0, f3, f4
    2550:	00246303 	eoreq	r6, r4, r3, lsl #6
    2554:	088d0f00 	stmeq	sp, {r8, r9, sl, fp}
    2558:	61030000 	mrsvs	r0, (UNDEF: 3)
    255c:	00246303 	eoreq	r6, r4, r3, lsl #6
    2560:	00230200 	eoreq	r0, r3, r0, lsl #4
    2564:	0003c00f 	andeq	ip, r3, pc
    2568:	03620300 	cmneq	r2, #0
    256c:	00002468 	andeq	r2, r0, r8, ror #8
    2570:	0f042302 	svceq	0x00042302
    2574:	00000a59 	andeq	r0, r0, r9, asr sl
    2578:	6d036303 	stcvs	3, cr6, [r3, #-12]
    257c:	02000024 	andeq	r0, r0, #36	; 0x24
    2580:	4d0f0823 	stcmi	8, cr0, [pc, #-140]	; 24fc <__resume1_start+0x24fc>
    2584:	03000008 	movweq	r0, #8
    2588:	24720364 	ldrbtcs	r0, [r2], #-868	; 0x364
    258c:	23020000 	movwcs	r0, #8192	; 0x2000
    2590:	08e30f0c 	stmiaeq	r3!, {r2, r3, r8, r9, sl, fp}^
    2594:	65030000 	strvs	r0, [r3, #-0]
    2598:	00247703 	eoreq	r7, r4, r3, lsl #14
    259c:	10230200 	eorne	r0, r3, r0, lsl #4
    25a0:	0006fb0f 	andeq	pc, r6, pc, lsl #22
    25a4:	03660300 	cmneq	r6, #0
    25a8:	0000247c 	andeq	r2, r0, ip, ror r4
    25ac:	0f142302 	svceq	0x00142302
    25b0:	0000049a 	muleq	r0, sl, r4
    25b4:	81036703 	tsthi	r3, r3, lsl #14
    25b8:	02000024 	andeq	r0, r0, #36	; 0x24
    25bc:	5a0f1823 	bpl	3c8650 <__bss_end+0x3b5504>
    25c0:	0300000d 	movweq	r0, #13
    25c4:	24860368 	strcs	r0, [r6], #872	; 0x368
    25c8:	23020000 	movwcs	r0, #8192	; 0x2000
    25cc:	08c60f1c 	stmiaeq	r6, {r2, r3, r4, r8, r9, sl, fp}^
    25d0:	69030000 	stmdbvs	r3, {}	; <UNPREDICTABLE>
    25d4:	00248b03 	eoreq	r8, r4, r3, lsl #22
    25d8:	20230200 	eorcs	r0, r3, r0, lsl #4
    25dc:	000ab10f 	andeq	fp, sl, pc, lsl #2
    25e0:	036a0300 	cmneq	sl, #0
    25e4:	00002490 	muleq	r0, r0, r4
    25e8:	0f242302 	svceq	0x00242302
    25ec:	00000976 	andeq	r0, r0, r6, ror r9
    25f0:	95036b03 	strls	r6, [r3, #-2819]	; 0xb03
    25f4:	02000024 	andeq	r0, r0, #36	; 0x24
    25f8:	8c0f2823 	stchi	8, cr2, [pc], {35}	; 0x23
    25fc:	03000003 	movweq	r0, #3
    2600:	249a036c 	ldrcs	r0, [sl], #876	; 0x36c
    2604:	23020000 	movwcs	r0, #8192	; 0x2000
    2608:	0c5f0f2c 	mrrceq	15, 2, r0, pc, cr12	; <UNPREDICTABLE>
    260c:	6e030000 	cdpvs	0, 0, cr0, cr3, cr0, {0}
    2610:	0024af03 	eoreq	sl, r4, r3, lsl #30
    2614:	30230200 	eorcc	r0, r3, r0, lsl #4
    2618:	000a710f 	andeq	r7, sl, pc, lsl #2
    261c:	036f0300 	cmneq	pc, #0
    2620:	000024b4 			; <UNDEFINED> instruction: 0x000024b4
    2624:	0f502302 	svceq	0x00502302
    2628:	0000039c 	muleq	r0, ip, r3
    262c:	b9037003 	stmdblt	r3, {r0, r1, ip, sp, lr}
    2630:	02000024 	andeq	r0, r0, #36	; 0x24
    2634:	560f5423 	strpl	r5, [pc], -r3, lsr #8
    2638:	0300000c 	movweq	r0, #12
    263c:	24be0371 	ldrtcs	r0, [lr], #881	; 0x371
    2640:	23020000 	movwcs	r0, #8192	; 0x2000
    2644:	0c0b0f58 	stceq	15, cr0, [fp], {88}	; 0x58
    2648:	72030000 	andvc	r0, r3, #0
    264c:	0024c303 	eoreq	ip, r4, r3, lsl #6
    2650:	5c230200 	sfmpl	f0, 4, [r3], #-0
    2654:	000dbf0f 	andeq	fp, sp, pc, lsl #30
    2658:	03730300 	cmneq	r3, #0
    265c:	000024c8 	andeq	r2, r0, r8, asr #9
    2660:	0f602302 	svceq	0x00602302
    2664:	0000082d 	andeq	r0, r0, sp, lsr #16
    2668:	cd037403 	cfstrsgt	mvf7, [r3, #-12]
    266c:	02000024 	andeq	r0, r0, #36	; 0x24
    2670:	2e0f6423 	cdpcs	4, 0, cr6, cr15, cr3, {1}
    2674:	03000005 	movweq	r0, #5
    2678:	24d20375 	ldrbcs	r0, [r2], #885	; 0x375
    267c:	23020000 	movwcs	r0, #8192	; 0x2000
    2680:	04650f68 	strbteq	r0, [r5], #-3944	; 0xf68
    2684:	76030000 	strvc	r0, [r3], -r0
    2688:	0024d703 	eoreq	sp, r4, r3, lsl #14
    268c:	6c230200 	sfmvs	f0, 4, [r3], #-0
    2690:	00068e0f 	andeq	r8, r6, pc, lsl #28
    2694:	03770300 	cmneq	r7, #0
    2698:	000024dc 	ldrdeq	r2, [r0], -ip
    269c:	0f702302 	svceq	0x00702302
    26a0:	00000f57 	andeq	r0, r0, r7, asr pc
    26a4:	e1037803 	tst	r3, r3, lsl #16
    26a8:	02000024 	andeq	r0, r0, #36	; 0x24
    26ac:	b20f7423 	andlt	r7, pc, #587202560	; 0x23000000
    26b0:	03000005 	movweq	r0, #5
    26b4:	24e60379 	strbtcs	r0, [r6], #889	; 0x379
    26b8:	23020000 	movwcs	r0, #8192	; 0x2000
    26bc:	0c6e0f78 	stcleq	15, cr0, [lr], #-480	; 0xfffffe20
    26c0:	7a030000 	bvc	c26c8 <__bss_end+0xaf57c>
    26c4:	0024d703 	eoreq	sp, r4, r3, lsl #14
    26c8:	7c230200 	sfmvc	f0, 4, [r3], #-0
    26cc:	0009580f 	andeq	r5, r9, pc, lsl #16
    26d0:	037b0300 	cmneq	fp, #0
    26d4:	000024eb 	andeq	r2, r0, fp, ror #9
    26d8:	01802303 	orreq	r2, r0, r3, lsl #6
    26dc:	000ebe0f 	andeq	fp, lr, pc, lsl #28
    26e0:	037c0300 	cmneq	ip, #0
    26e4:	000024f0 	strdeq	r2, [r0], -r0
    26e8:	01842303 	orreq	r2, r4, r3, lsl #6
    26ec:	000c780f 	andeq	r7, ip, pc, lsl #16
    26f0:	037d0300 	cmneq	sp, #0
    26f4:	00002505 	andeq	r2, r0, r5, lsl #10
    26f8:	01882303 	orreq	r2, r8, r3, lsl #6
    26fc:	000c820f 	andeq	r8, ip, pc, lsl #4
    2700:	037e0300 	cmneq	lr, #0
    2704:	0000250a 	andeq	r2, r0, sl, lsl #10
    2708:	01902303 	orrseq	r2, r0, r3, lsl #6
    270c:	0007880f 	andeq	r8, r7, pc, lsl #16
    2710:	037f0300 	cmneq	pc, #0
    2714:	0000250f 	andeq	r2, r0, pc, lsl #10
    2718:	01942303 	orrseq	r2, r4, r3, lsl #6
    271c:	00046f0f 	andeq	r6, r4, pc, lsl #30
    2720:	03800300 	orreq	r0, r0, #0
    2724:	000024d7 	ldrdeq	r2, [r0], -r7
    2728:	01982303 	orrseq	r2, r8, r3, lsl #6
    272c:	000f8b0f 	andeq	r8, pc, pc, lsl #22
    2730:	03810300 	orreq	r0, r1, #0
    2734:	00002514 	andeq	r2, r0, r4, lsl r5
    2738:	019c2303 	orrseq	r2, ip, r3, lsl #6
    273c:	000b080f 	andeq	r0, fp, pc, lsl #16
    2740:	03830300 	orreq	r0, r3, #0
    2744:	00002519 	andeq	r2, r0, r9, lsl r5
    2748:	01a02303 	lsleq	r2, r3, #6
    274c:	0004430f 	andeq	r4, r4, pc, lsl #6
    2750:	03840300 	orreq	r0, r4, #0
    2754:	0000251e 	andeq	r2, r0, lr, lsl r5
    2758:	01a42303 			; <UNDEFINED> instruction: 0x01a42303
    275c:	000e440f 	andeq	r4, lr, pc, lsl #8
    2760:	03850300 	orreq	r0, r5, #0
    2764:	00002523 	andeq	r2, r0, r3, lsr #10
    2768:	01a82303 			; <UNDEFINED> instruction: 0x01a82303
    276c:	000d840f 	andeq	r8, sp, pc, lsl #8
    2770:	03860300 	orreq	r0, r6, #0
    2774:	00002528 	andeq	r2, r0, r8, lsr #10
    2778:	01ac2303 			; <UNDEFINED> instruction: 0x01ac2303
    277c:	0006360f 	andeq	r3, r6, pc, lsl #12
    2780:	03870300 	orreq	r0, r7, #0
    2784:	0000252d 	andeq	r2, r0, sp, lsr #10
    2788:	01b02303 	lslseq	r2, r3, #6
    278c:	00029b0f 	andeq	r9, r2, pc, lsl #22
    2790:	03880300 	orreq	r0, r8, #0
    2794:	00002532 	andeq	r2, r0, r2, lsr r5
    2798:	01b42303 			; <UNDEFINED> instruction: 0x01b42303
    279c:	000a020f 	andeq	r0, sl, pc, lsl #4
    27a0:	03890300 	orreq	r0, r9, #0
    27a4:	00002537 	andeq	r2, r0, r7, lsr r5
    27a8:	01b82303 			; <UNDEFINED> instruction: 0x01b82303
    27ac:	0003a50f 	andeq	sl, r3, pc, lsl #10
    27b0:	038a0300 	orreq	r0, sl, #0
    27b4:	0000253c 	andeq	r2, r0, ip, lsr r5
    27b8:	01bc2303 			; <UNDEFINED> instruction: 0x01bc2303
    27bc:	000cca0f 	andeq	ip, ip, pc, lsl #20
    27c0:	038b0300 	orreq	r0, fp, #0
    27c4:	00002541 	andeq	r2, r0, r1, asr #10
    27c8:	01c02303 	biceq	r2, r0, r3, lsl #6
    27cc:	0005950f 	andeq	r9, r5, pc, lsl #10
    27d0:	038c0300 	orreq	r0, ip, #0
    27d4:	00002546 	andeq	r2, r0, r6, asr #10
    27d8:	01c42303 	biceq	r2, r4, r3, lsl #6
    27dc:	000f600f 	andeq	r6, pc, pc
    27e0:	038d0300 	orreq	r0, sp, #0
    27e4:	0000254b 	andeq	r2, r0, fp, asr #10
    27e8:	01c82303 	biceq	r2, r8, r3, lsl #6
    27ec:	0008ee0f 	andeq	lr, r8, pc, lsl #28
    27f0:	038e0300 	orreq	r0, lr, #0
    27f4:	00002550 	andeq	r2, r0, r0, asr r5
    27f8:	01cc2303 	biceq	r2, ip, r3, lsl #6
    27fc:	000a7d0f 	andeq	r7, sl, pc, lsl #26
    2800:	038f0300 	orreq	r0, pc, #0
    2804:	00002565 	andeq	r2, r0, r5, ror #10
    2808:	01d02303 	bicseq	r2, r0, r3, lsl #6
    280c:	0004a90f 	andeq	sl, r4, pc, lsl #18
    2810:	03900300 	orrseq	r0, r0, #0
    2814:	0000256a 	andeq	r2, r0, sl, ror #10
    2818:	01e02303 	mvneq	r2, r3, lsl #6
    281c:	000d690f 	andeq	r6, sp, pc, lsl #18
    2820:	03910300 	orrseq	r0, r1, #0
    2824:	0000256f 	andeq	r2, r0, pc, ror #10
    2828:	01e42303 	mvneq	r2, r3, lsl #6
    282c:	000ca00f 	andeq	sl, ip, pc
    2830:	03920300 	orrseq	r0, r2, #0
    2834:	00002584 	andeq	r2, r0, r4, lsl #11
    2838:	01e82303 	mvneq	r2, r3, lsl #6
    283c:	000b910f 	andeq	r9, fp, pc, lsl #2
    2840:	03930300 	orrseq	r0, r3, #0
    2844:	00002589 	andeq	r2, r0, r9, lsl #11
    2848:	02842303 	addeq	r2, r4, #201326592	; 0xc000000
    284c:	000a280f 	andeq	r2, sl, pc, lsl #16
    2850:	03940300 	orrseq	r0, r4, #0
    2854:	0000258e 	andeq	r2, r0, lr, lsl #11
    2858:	02882303 	addeq	r2, r8, #201326592	; 0xc000000
    285c:	000b230f 	andeq	r2, fp, pc, lsl #6
    2860:	03950300 	orrseq	r0, r5, #0
    2864:	00002593 	muleq	r0, r3, r5
    2868:	028c2303 	addeq	r2, ip, #201326592	; 0xc000000
    286c:	0004fc0f 	andeq	pc, r4, pc, lsl #24
    2870:	03960300 	orrseq	r0, r6, #0
    2874:	00002598 	muleq	r0, r8, r5
    2878:	02902303 	addseq	r2, r0, #201326592	; 0xc000000
    287c:	0005820f 	andeq	r8, r5, pc, lsl #4
    2880:	03970300 	orrseq	r0, r7, #0
    2884:	0000259d 	muleq	r0, sp, r5
    2888:	02942303 	addseq	r2, r4, #201326592	; 0xc000000
    288c:	0009a50f 	andeq	sl, r9, pc, lsl #10
    2890:	03980300 	orrseq	r0, r8, #0
    2894:	000025a2 	andeq	r2, r0, r2, lsr #11
    2898:	02982303 	addseq	r2, r8, #201326592	; 0xc000000
    289c:	0007970f 	andeq	r9, r7, pc, lsl #14
    28a0:	03990300 	orrseq	r0, r9, #0
    28a4:	000025a7 	andeq	r2, r0, r7, lsr #11
    28a8:	029c2303 	addseq	r2, ip, #201326592	; 0xc000000
    28ac:	00087e0f 	andeq	r7, r8, pc, lsl #28
    28b0:	039a0300 	orrseq	r0, sl, #0
    28b4:	000025ac 	andeq	r2, r0, ip, lsr #11
    28b8:	02a02303 	adceq	r2, r0, #201326592	; 0xc000000
    28bc:	0006d70f 	andeq	sp, r6, pc, lsl #14
    28c0:	039b0300 	orrseq	r0, fp, #0
    28c4:	000025b1 			; <UNDEFINED> instruction: 0x000025b1
    28c8:	02a42303 	adceq	r2, r4, #201326592	; 0xc000000
    28cc:	000e030f 	andeq	r0, lr, pc, lsl #6
    28d0:	039c0300 	orrseq	r0, ip, #0
    28d4:	000025b6 			; <UNDEFINED> instruction: 0x000025b6
    28d8:	02a82303 	adceq	r2, r8, #201326592	; 0xc000000
    28dc:	000caa0f 	andeq	sl, ip, pc, lsl #20
    28e0:	039d0300 	orrseq	r0, sp, #0
    28e4:	000025cb 	andeq	r2, r0, fp, asr #11
    28e8:	02ac2303 	adceq	r2, ip, #201326592	; 0xc000000
    28ec:	00077f0f 	andeq	r7, r7, pc, lsl #30
    28f0:	039e0300 	orrseq	r0, lr, #0
    28f4:	000025d0 	ldrdeq	r2, [r0], -r0
    28f8:	02fc2303 	rscseq	r2, ip, #201326592	; 0xc000000
    28fc:	0003610f 	andeq	r6, r3, pc, lsl #2
    2900:	039f0300 	orrseq	r0, pc, #0
    2904:	000025d5 	ldrdeq	r2, [r0], -r5
    2908:	03802303 	orreq	r2, r0, #201326592	; 0xc000000
    290c:	01231000 	teqeq	r3, r0
    2910:	de100000 	cdple	0, 1, cr0, cr0, cr0, {0}
    2914:	10000001 	andne	r0, r0, r1
    2918:	000002bb 			; <UNDEFINED> instruction: 0x000002bb
    291c:	00038710 	andeq	r8, r3, r0, lsl r7
    2920:	04531000 	ldrbeq	r1, [r3], #-0
    2924:	30100000 	andscc	r0, r0, r0
    2928:	10000005 	andne	r0, r0, r5
    292c:	000005ff 	strdeq	r0, [r0], -pc	; <UNPREDICTABLE>
    2930:	0006eb10 	andeq	lr, r6, r0, lsl fp
    2934:	07c51000 	strbeq	r1, [r5, r0]
    2938:	9f100000 	svcls	0x00100000
    293c:	10000008 	andne	r0, r0, r8
    2940:	00000979 	andeq	r0, r0, r9, ror r9
    2944:	000a5310 	andeq	r5, sl, r0, lsl r3
    2948:	00531100 	subseq	r1, r3, r0, lsl #2
    294c:	24af0000 	strtcs	r0, [pc], #0	; 2954 <__resume1_start+0x2954>
    2950:	5e120000 	cdppl	0, 1, cr0, cr2, cr0, {0}
    2954:	07000000 	streq	r0, [r0, -r0]
    2958:	249f1000 	ldrcs	r1, [pc], #0	; 2960 <__resume1_start+0x2960>
    295c:	d3100000 	tstle	r0, #0
    2960:	1000000a 	andne	r0, r0, sl
    2964:	00000b53 	andeq	r0, r0, r3, asr fp
    2968:	000bd310 	andeq	sp, fp, r0, lsl r3
    296c:	0c531000 	mraeq	r1, r3, acc0
    2970:	d3100000 	tstle	r0, #0
    2974:	1000000c 	andne	r0, r0, ip
    2978:	00000d53 	andeq	r0, r0, r3, asr sp
    297c:	000dd310 	andeq	sp, sp, r0, lsl r3
    2980:	00531000 	subseq	r1, r3, r0
    2984:	53100000 	tstpl	r0, #0
    2988:	1000000e 	andne	r0, r0, lr
    298c:	00000ef7 	strdeq	r0, [r0], -r7
    2990:	000f7710 	andeq	r7, pc, r0, lsl r7	; <UNPREDICTABLE>
    2994:	10091000 	andne	r1, r9, r0
    2998:	9b100000 	blls	4029a0 <__bss_end+0x3ef854>
    299c:	11000010 	tstne	r0, r0, lsl r0
    29a0:	00000053 	andeq	r0, r0, r3, asr r0
    29a4:	00002505 	andeq	r2, r0, r5, lsl #10
    29a8:	00005e12 	andeq	r5, r0, r2, lsl lr
    29ac:	10000100 	andne	r0, r0, r0, lsl #2
    29b0:	000024f5 	strdeq	r2, [r0], -r5
    29b4:	0010f710 	andseq	pc, r0, r0, lsl r7	; <UNPREDICTABLE>
    29b8:	11531000 	cmpne	r3, r0
    29bc:	75100000 	ldrvc	r0, [r0, #-0]
    29c0:	10000011 	andne	r0, r0, r1, lsl r0
    29c4:	000011f5 	strdeq	r1, [r0], -r5
    29c8:	00127510 	andseq	r7, r2, r0, lsl r5
    29cc:	12e31000 	rscne	r1, r3, #0
    29d0:	51100000 	tstpl	r0, r0
    29d4:	10000013 	andne	r0, r0, r3, lsl r0
    29d8:	000013bf 			; <UNDEFINED> instruction: 0x000013bf
    29dc:	00142d10 	andseq	r2, r4, r0, lsl sp
    29e0:	149b1000 	ldrne	r1, [fp], #0
    29e4:	09100000 	ldmdbeq	r0, {}	; <UNPREDICTABLE>
    29e8:	10000015 	andne	r0, r0, r5, lsl r0
    29ec:	00001577 	andeq	r1, r0, r7, ror r5
    29f0:	0015e510 	andseq	lr, r5, r0, lsl r5
    29f4:	16531000 	ldrbne	r1, [r3], -r0
    29f8:	c1100000 	tstgt	r0, r0
    29fc:	11000016 	tstne	r0, r6, lsl r0
    2a00:	00000053 	andeq	r0, r0, r3, asr r0
    2a04:	00002565 	andeq	r2, r0, r5, ror #10
    2a08:	00005e12 	andeq	r5, r0, r2, lsl lr
    2a0c:	10000300 	andne	r0, r0, r0, lsl #6
    2a10:	00002555 	andeq	r2, r0, r5, asr r5
    2a14:	0017ad10 	andseq	sl, r7, r0, lsl sp
    2a18:	18991000 	ldmne	r9, {ip}
    2a1c:	53110000 	tstpl	r1, #0
    2a20:	84000000 	strhi	r0, [r0], #-0
    2a24:	12000025 	andne	r0, r0, #37	; 0x25
    2a28:	0000005e 	andeq	r0, r0, lr, asr r0
    2a2c:	74100006 	ldrvc	r0, [r0], #-6
    2a30:	10000025 	andne	r0, r0, r5, lsr #32
    2a34:	0000193d 	andeq	r1, r0, sp, lsr r9
    2a38:	0019e110 	andseq	lr, r9, r0, lsl r1
    2a3c:	1a851000 	bne	fe146a44 <__bss_end+0xfe1338f8>
    2a40:	29100000 	ldmdbcs	r0, {}	; <UNPREDICTABLE>
    2a44:	1000001b 	andne	r0, r0, fp, lsl r0
    2a48:	00001bcd 	andeq	r1, r0, sp, asr #23
    2a4c:	001c7110 	andseq	r7, ip, r0, lsl r1
    2a50:	1d151000 	ldcne	0, cr1, [r5, #-0]
    2a54:	b9100000 	ldmdblt	r0, {}	; <UNPREDICTABLE>
    2a58:	1000001d 	andne	r0, r0, sp, lsl r0
    2a5c:	00001e5d 	andeq	r1, r0, sp, asr lr
    2a60:	001f0110 	andseq	r0, pc, r0, lsl r1	; <UNPREDICTABLE>
    2a64:	00531100 	subseq	r1, r3, r0, lsl #2
    2a68:	25cb0000 	strbcs	r0, [fp]
    2a6c:	5e120000 	cdppl	0, 1, cr0, cr2, cr0, {0}
    2a70:	13000000 	movwne	r0, #0
    2a74:	25bb1000 	ldrcs	r1, [fp, #0]!
    2a78:	c9100000 	ldmdbgt	r0, {}	; <UNPREDICTABLE>
    2a7c:	1000001f 	andne	r0, r0, pc, lsl r0
    2a80:	00002091 	muleq	r0, r1, r0
    2a84:	000dd60b 	andeq	sp, sp, fp, lsl #12
    2a88:	03a00300 	moveq	r0, #0
    2a8c:	0000209d 	muleq	r0, sp, r0
    2a90:	25da0413 	ldrbcs	r0, [sl, #1043]	; 0x413
    2a94:	b2140000 	andslt	r0, r4, #0
    2a98:	0400000b 	streq	r0, [r0], #-11
    2a9c:	26074004 	strcs	r4, [r7], -r4
    2aa0:	9c150000 	ldcls	0, cr0, [r5], {-0}
    2aa4:	04000003 	streq	r0, [r0], #-3
    2aa8:	00005341 	andeq	r5, r0, r1, asr #6
    2aac:	00230200 	eoreq	r0, r3, r0, lsl #4
    2ab0:	0bbc1400 	bleq	fef07ab8 <__bss_end+0xfeef496c>
    2ab4:	04340000 	ldrteq	r0, [r4], #-0
    2ab8:	0026ca44 	eoreq	ip, r6, r4, asr #20
    2abc:	0b081500 	bleq	207ec4 <__bss_end+0x1f4d78>
    2ac0:	45040000 	strmi	r0, [r4, #-0]
    2ac4:	00000053 	andeq	r0, r0, r3, asr r0
    2ac8:	15002302 	strne	r2, [r0, #-770]	; 0x302
    2acc:	00000d84 	andeq	r0, r0, r4, lsl #27
    2ad0:	00534604 	subseq	r4, r3, r4, lsl #12
    2ad4:	23020000 	movwcs	r0, #8192	; 0x2000
    2ad8:	08ee1504 	stmiaeq	lr!, {r2, r8, sl, ip}^
    2adc:	47040000 	strmi	r0, [r4, -r0]
    2ae0:	00000053 	andeq	r0, r0, r3, asr r0
    2ae4:	15082302 	strne	r2, [r8, #-770]	; 0x302
    2ae8:	000004a9 	andeq	r0, r0, r9, lsr #9
    2aec:	00534804 	subseq	r4, r3, r4, lsl #16
    2af0:	23020000 	movwcs	r0, #8192	; 0x2000
    2af4:	0443150c 	strbeq	r1, [r3], #-1292	; 0x50c
    2af8:	49040000 	stmdbmi	r4, {}	; <UNPREDICTABLE>
    2afc:	00000053 	andeq	r0, r0, r3, asr r0
    2b00:	15102302 	ldrne	r2, [r0, #-770]	; 0x302
    2b04:	00000a02 	andeq	r0, r0, r2, lsl #20
    2b08:	00534a04 	subseq	r4, r3, r4, lsl #20
    2b0c:	23020000 	movwcs	r0, #8192	; 0x2000
    2b10:	03a51514 			; <UNDEFINED> instruction: 0x03a51514
    2b14:	4b040000 	blmi	102b1c <__bss_end+0xef9d0>
    2b18:	00000053 	andeq	r0, r0, r3, asr r0
    2b1c:	15182302 	ldrne	r2, [r8, #-770]	; 0x302
    2b20:	00000d69 	andeq	r0, r0, r9, ror #26
    2b24:	00534c04 	subseq	r4, r3, r4, lsl #24
    2b28:	23020000 	movwcs	r0, #8192	; 0x2000
    2b2c:	0582151c 	streq	r1, [r2, #1308]	; 0x51c
    2b30:	4d040000 	stcmi	0, cr0, [r4, #-0]
    2b34:	00000053 	andeq	r0, r0, r3, asr r0
    2b38:	15202302 	strne	r2, [r0, #-770]!	; 0x302
    2b3c:	000009a5 	andeq	r0, r0, r5, lsr #19
    2b40:	00534e04 	subseq	r4, r3, r4, lsl #28
    2b44:	23020000 	movwcs	r0, #8192	; 0x2000
    2b48:	03c01524 	biceq	r1, r0, #150994944	; 0x9000000
    2b4c:	4f040000 	svcmi	0x00040000
    2b50:	00000053 	andeq	r0, r0, r3, asr r0
    2b54:	15282302 	strne	r2, [r8, #-770]!	; 0x302
    2b58:	0000049a 	muleq	r0, sl, r4
    2b5c:	00535004 	subseq	r5, r3, r4
    2b60:	23020000 	movwcs	r0, #8192	; 0x2000
    2b64:	0d5a152c 	cfldr64eq	mvdx1, [sl, #-176]	; 0xffffff50
    2b68:	51040000 	mrspl	r0, (UNDEF: 4)
    2b6c:	00000053 	andeq	r0, r0, r3, asr r0
    2b70:	00302302 	eorseq	r2, r0, r2, lsl #6
    2b74:	00043614 	andeq	r3, r4, r4, lsl r6
    2b78:	54040800 	strpl	r0, [r4], #-2048	; 0x800
    2b7c:	0000271d 	andeq	r2, r0, sp, lsl r7
    2b80:	00055815 	andeq	r5, r5, r5, lsl r8
    2b84:	2c550400 	cfldrdcs	mvd0, [r5], {-0}
    2b88:	02000000 	andeq	r0, r0, #0
    2b8c:	37150023 	ldrcc	r0, [r5, -r3, lsr #32]
    2b90:	04000005 	streq	r0, [r0], #-5
    2b94:	00002c56 	andeq	r2, r0, r6, asr ip
    2b98:	01230200 	teqeq	r3, r0, lsl #4
    2b9c:	00055015 	andeq	r5, r5, r5, lsl r0
    2ba0:	2c570400 	cfldrdcs	mvd0, [r7], {-0}
    2ba4:	02000000 	andeq	r0, r0, #0
    2ba8:	60150223 	andsvs	r0, r5, r3, lsr #4
    2bac:	04000005 	streq	r0, [r0], #-5
    2bb0:	00002c58 	andeq	r2, r0, r8, asr ip
    2bb4:	03230200 	teqeq	r3, #0
    2bb8:	6c6c5016 	stclvs	0, cr5, [ip], #-88	; 0xffffffa8
    2bbc:	53590400 	cmppl	r9, #0
    2bc0:	02000000 	andeq	r0, r0, #0
    2bc4:	02000423 	andeq	r0, r0, #587202560	; 0x23000000
    2bc8:	00730704 	rsbseq	r0, r3, r4, lsl #14
    2bcc:	04130000 	ldreq	r0, [r3], #-0
    2bd0:	0000005e 	andeq	r0, r0, lr, asr r0
    2bd4:	24050417 	strcs	r0, [r5], #-1047	; 0x417
    2bd8:	0000277a 	andeq	r2, r0, sl, ror r7
    2bdc:	0007a718 	andeq	sl, r7, r8, lsl r7
    2be0:	66180100 	ldrvs	r0, [r8], -r0, lsl #2
    2be4:	02000008 	andeq	r0, r0, #8
    2be8:	00064218 	andeq	r4, r6, r8, lsl r2
    2bec:	e2180400 	ands	r0, r8, #0
    2bf0:	08000009 	stmdaeq	r0, {r0, r3}
    2bf4:	0004e018 	andeq	lr, r4, r8, lsl r0
    2bf8:	02181000 	andseq	r1, r8, #0
    2bfc:	2000000f 	andcs	r0, r0, pc
    2c00:	00050c18 	andeq	r0, r5, r8, lsl ip
    2c04:	1800c000 	stmdane	r0, {lr, pc}
    2c08:	00000e7a 	andeq	r0, r0, sl, ror lr
    2c0c:	d7180180 	ldrle	r0, [r8, -r0, lsl #3]
    2c10:	8000000c 	andhi	r0, r0, ip
    2c14:	07641802 	strbeq	r1, [r4, -r2, lsl #16]!
    2c18:	04800000 	streq	r0, [r0], #0
    2c1c:	000d4a18 	andeq	r4, sp, r8, lsl sl
    2c20:	00088000 	andeq	r8, r8, r0
    2c24:	0003d114 	andeq	sp, r3, r4, lsl r1
    2c28:	35052400 	strcc	r2, [r5, #-1024]	; 0x400
    2c2c:	00002804 	andeq	r2, r0, r4, lsl #16
    2c30:	000efd15 	andeq	pc, lr, r5, lsl sp	; <UNPREDICTABLE>
    2c34:	53370500 	teqpl	r7, #0
    2c38:	02000000 	andeq	r0, r0, #0
    2c3c:	63160023 	tstvs	r6, #35	; 0x23
    2c40:	39050072 	stmdbcc	r5, {r1, r4, r5, r6}
    2c44:	00000053 	andeq	r0, r0, r3, asr r0
    2c48:	15042302 	strne	r2, [r4, #-770]	; 0x302
    2c4c:	00000cb4 			; <UNDEFINED> instruction: 0x00000cb4
    2c50:	00533a05 	subseq	r3, r3, r5, lsl #20
    2c54:	23020000 	movwcs	r0, #8192	; 0x2000
    2c58:	0d271508 	cfstr32eq	mvfx1, [r7, #-32]!	; 0xffffffe0
    2c5c:	3c050000 	stccc	0, cr0, [r5], {-0}
    2c60:	00000053 	andeq	r0, r0, r3, asr r0
    2c64:	150c2302 	strne	r2, [ip, #-770]	; 0x302
    2c68:	00000e2c 	andeq	r0, r0, ip, lsr #28
    2c6c:	00533d05 	subseq	r3, r3, r5, lsl #26
    2c70:	23020000 	movwcs	r0, #8192	; 0x2000
    2c74:	0d3d1510 	cfldr32eq	mvfx1, [sp, #-64]!	; 0xffffffc0
    2c78:	3e050000 	cdpcc	0, 0, cr0, cr5, cr0, {0}
    2c7c:	00000053 	andeq	r0, r0, r3, asr r0
    2c80:	15142302 	ldrne	r2, [r4, #-770]	; 0x302
    2c84:	00000707 	andeq	r0, r0, r7, lsl #14
    2c88:	00534105 	subseq	r4, r3, r5, lsl #2
    2c8c:	23020000 	movwcs	r0, #8192	; 0x2000
    2c90:	0f9b1518 	svceq	0x009b1518
    2c94:	44050000 	strmi	r0, [r5], #-0
    2c98:	00000053 	andeq	r0, r0, r3, asr r0
    2c9c:	151c2302 	ldrne	r2, [ip, #-770]	; 0x302
    2ca0:	00000da6 	andeq	r0, r0, r6, lsr #27
    2ca4:	00534505 	subseq	r4, r3, r5, lsl #10
    2ca8:	23020000 	movwcs	r0, #8192	; 0x2000
    2cac:	7f140020 	svcvc	0x00140020
    2cb0:	b400000f 	strlt	r0, [r0], #-15
    2cb4:	28ad4b05 	stmiacs	sp!, {r0, r2, r8, r9, fp, lr}
    2cb8:	96150000 	ldrls	r0, [r5], -r0
    2cbc:	05000009 	streq	r0, [r0, #-9]
    2cc0:	0028ad4c 	eoreq	sl, r8, ip, asr #26
    2cc4:	00230200 	eoreq	r0, r3, r0, lsl #4
    2cc8:	00113b15 	andseq	r3, r1, r5, lsl fp
    2ccc:	d74d0500 	strble	r0, [sp, -r0, lsl #10]
    2cd0:	02000024 	andeq	r0, r0, #36	; 0x24
    2cd4:	fe150423 	cdp2	4, 1, cr0, cr5, cr3, {1}
    2cd8:	0500000a 	streq	r0, [r0, #-10]
    2cdc:	0000534e 	andeq	r5, r0, lr, asr #6
    2ce0:	08230200 	stmdaeq	r3!, {r9}
    2ce4:	000df915 	andeq	pc, sp, r5, lsl r9	; <UNPREDICTABLE>
    2ce8:	534f0500 	movtpl	r0, #62720	; 0xf500
    2cec:	02000000 	andeq	r0, r0, #0
    2cf0:	b3150c23 	tstlt	r5, #8960	; 0x2300
    2cf4:	05000002 	streq	r0, [r0, #-2]
    2cf8:	00005350 	andeq	r5, r0, r0, asr r3
    2cfc:	10230200 	eorne	r0, r3, r0, lsl #4
    2d00:	0005a115 	andeq	sl, r5, r5, lsl r1
    2d04:	53510500 	cmppl	r1, #0
    2d08:	02000000 	andeq	r0, r0, #0
    2d0c:	d9151423 	ldmdble	r5, {r0, r1, r5, sl, ip}
    2d10:	05000002 	streq	r0, [r0, #-2]
    2d14:	0028b552 	eoreq	fp, r8, r2, asr r5
    2d18:	18230200 	stmdane	r3!, {r9}
    2d1c:	00037315 	andeq	r7, r3, r5, lsl r3
    2d20:	ec530500 	cfldr64	mvdx0, [r3], {-0}
    2d24:	02000025 	andeq	r0, r0, #37	; 0x25
    2d28:	5d155023 	ldcpl	0, cr5, [r5, #-140]	; 0xffffff74
    2d2c:	05000008 	streq	r0, [r0, #-8]
    2d30:	00260754 	eoreq	r0, r6, r4, asr r7
    2d34:	54230200 	strtpl	r0, [r3], #-512	; 0x200
    2d38:	001e7215 	andseq	r7, lr, r5, lsl r2
    2d3c:	ca550500 	bgt	1544144 <__bss_end+0x1530ff8>
    2d40:	03000026 	movweq	r0, #38	; 0x26
    2d44:	15018823 	strne	r8, [r1, #-2083]	; 0x823
    2d48:	000003cb 	andeq	r0, r0, fp, asr #7
    2d4c:	277a5605 	ldrbcs	r5, [sl, -r5, lsl #12]!
    2d50:	23030000 	movwcs	r0, #12288	; 0x3000
    2d54:	13000190 	movwne	r0, #400	; 0x190
    2d58:	0028b304 	eoreq	fp, r8, r4, lsl #6
    2d5c:	11041900 	tstne	r4, r0, lsl #18
    2d60:	00000053 	andeq	r0, r0, r3, asr r0
    2d64:	000028c5 	andeq	r2, r0, r5, asr #17
    2d68:	00005e12 	andeq	r5, r0, r2, lsl lr
    2d6c:	1a000d00 	bne	6174 <__resume1_start+0x6174>
    2d70:	0004b401 	andeq	fp, r4, r1, lsl #8
    2d74:	012e0100 	teqeq	lr, r0, lsl #2
    2d78:	0000004c 	andeq	r0, r0, ip, asr #32
    2d7c:	000100cc 	andeq	r0, r1, ip, asr #1
    2d80:	000101b4 			; <UNDEFINED> instruction: 0x000101b4
    2d84:	00000064 	andeq	r0, r0, r4, rrx
    2d88:	0c15011b 	ldfeqs	f0, [r5], {27}
    2d8c:	76010000 	strvc	r0, [r1], -r0
    2d90:	0101b401 	tsteq	r1, r1, lsl #8
    2d94:	0102e400 	tsteq	r2, r0, lsl #8
    2d98:	00008400 	andeq	r8, r0, r0, lsl #8
    2d9c:	00295e00 	eoreq	r5, r9, r0, lsl #28
    2da0:	0d431c00 	stcleq	12, cr1, [r3, #-0]
    2da4:	78010000 	stmdavc	r1, {}	; <UNPREDICTABLE>
    2da8:	000025e6 	andeq	r2, r0, r6, ror #11
    2dac:	000000a4 	andeq	r0, r0, r4, lsr #1
    2db0:	000a211c 	andeq	r2, sl, ip, lsl r1
    2db4:	5e790100 	rpwple	f0, f1, f0
    2db8:	cd000000 	stcgt	0, cr0, [r0, #-0]
    2dbc:	1d000000 	stcne	0, cr0, [r0, #-0]
    2dc0:	000002a8 	andeq	r0, r0, r8, lsr #5
    2dc4:	005e7a01 	subseq	r7, lr, r1, lsl #20
    2dc8:	1d000000 	stcne	0, cr0, [r0, #-0]
    2dcc:	00000a4e 	andeq	r0, r0, lr, asr #20
    2dd0:	005e7b01 	subseq	r7, lr, r1, lsl #22
    2dd4:	1d000000 	stcne	0, cr0, [r0, #-0]
    2dd8:	00000405 	andeq	r0, r0, r5, lsl #8
    2ddc:	005e7c01 	subseq	r7, lr, r1, lsl #24
    2de0:	1d000000 	stcne	0, cr0, [r0, #-0]
    2de4:	00000cb9 			; <UNDEFINED> instruction: 0x00000cb9
    2de8:	005e7d01 	subseq	r7, lr, r1, lsl #26
    2dec:	1d000000 	stcne	0, cr0, [r0, #-0]
    2df0:	00000cc1 	andeq	r0, r0, r1, asr #25
    2df4:	005e7e01 	subseq	r7, lr, r1, lsl #28
    2df8:	1d000000 	stcne	0, cr0, [r0, #-0]
    2dfc:	0000057c 	andeq	r0, r0, ip, ror r5
    2e00:	005e7f01 	subseq	r7, lr, r1, lsl #30
    2e04:	00000000 	andeq	r0, r0, r0
    2e08:	0008411e 	andeq	r4, r8, lr, lsl r1
    2e0c:	4c0a0100 	stfmis	f0, [sl], {-0}
    2e10:	1e000000 	cdpne	0, 0, cr0, cr0, cr0, {0}
    2e14:	00000847 	andeq	r0, r0, r7, asr #16
    2e18:	004c0a01 	subeq	r0, ip, r1, lsl #20
    2e1c:	671e0000 	ldrvs	r0, [lr, -r0]
    2e20:	0100000a 	tsteq	r0, sl
    2e24:	00005e0b 	andeq	r5, r0, fp, lsl #28
    2e28:	0db81f00 	ldceq	15, cr1, [r8]
    2e2c:	0c010000 	stceq	0, cr0, [r1], {-0}
    2e30:	00002724 	andeq	r2, r0, r4, lsr #14
    2e34:	2d780305 	ldclcs	3, cr0, [r8, #-20]!	; 0xffffffec
    2e38:	141d0001 	ldrne	r0, [sp], #-1
    2e3c:	01000010 	tsteq	r0, r0, lsl r0
    2e40:	00005e0d 	andeq	r5, r0, sp, lsl #28
    2e44:	c8200000 	stmdagt	r0!, {}	; <UNPREDICTABLE>
    2e48:	0100000d 	tsteq	r0, sp
    2e4c:	00280406 	eoreq	r0, r8, r6, lsl #8
    2e50:	03050100 	movweq	r0, #20736	; 0x5100
    2e54:	00012f80 	andeq	r2, r1, r0, lsl #31
    2e58:	0005e621 	andeq	lr, r5, r1, lsr #12
    2e5c:	bb080100 	bllt	203264 <__bss_end+0x1f0118>
    2e60:	01000029 	tsteq	r0, r9, lsr #32
    2e64:	c1041301 	tstgt	r4, r1, lsl #6
    2e68:	02000029 	andeq	r0, r0, #41	; 0x29
    2e6c:	00e70801 	rsceq	r0, r7, r1, lsl #16
    2e70:	5b210000 	blpl	842e78 <__bss_end+0x82fd2c>
    2e74:	01000004 	tsteq	r0, r4
    2e78:	0029bb09 	eoreq	fp, r9, r9, lsl #22
    2e7c:	00010100 	andeq	r0, r1, r0, lsl #2
    2e80:	00000368 	andeq	r0, r0, r8, ror #6
    2e84:	03aa0002 			; <UNDEFINED> instruction: 0x03aa0002
    2e88:	01040000 	mrseq	r0, (UNDEF: 4)
    2e8c:	0000011a 	andeq	r0, r0, sl, lsl r1
    2e90:	00109d01 	andseq	r9, r0, r1, lsl #26
    2e94:	00003500 	andeq	r3, r0, r0, lsl #10
    2e98:	0102e400 	tsteq	r2, r0, lsl #8
    2e9c:	01062800 	tsteq	r6, r0, lsl #16
    2ea0:	0003ac00 	andeq	sl, r3, r0, lsl #24
    2ea4:	06010200 	streq	r0, [r1], -r0, lsl #4
    2ea8:	000000e0 	andeq	r0, r0, r0, ror #1
    2eac:	de080102 	adflee	f0, f0, f2
    2eb0:	02000000 	andeq	r0, r0, #0
    2eb4:	014e0502 	cmpeq	lr, r2, lsl #10
    2eb8:	02020000 	andeq	r0, r2, #0
    2ebc:	00010707 	andeq	r0, r1, r7, lsl #14
    2ec0:	05040300 	streq	r0, [r4, #-768]	; 0x300
    2ec4:	00746e69 	rsbseq	r6, r4, r9, ror #28
    2ec8:	0008ad04 	andeq	sl, r8, r4, lsl #26
    2ecc:	53130300 	tstpl	r3, #0
    2ed0:	02000000 	andeq	r0, r0, #0
    2ed4:	00780704 	rsbseq	r0, r8, r4, lsl #14
    2ed8:	08020000 	stmdaeq	r2, {}	; <UNPREDICTABLE>
    2edc:	00000005 	andeq	r0, r0, r5
    2ee0:	07080200 	streq	r0, [r8, -r0, lsl #4]
    2ee4:	0000006e 	andeq	r0, r0, lr, rrx
    2ee8:	00107405 	andseq	r7, r0, r5, lsl #8
    2eec:	1d020400 	cfstrsne	mvf0, [r2, #-0]
    2ef0:	000000ca 	andeq	r0, r0, sl, asr #1
    2ef4:	00106406 	andseq	r6, r0, r6, lsl #8
    2ef8:	481f0200 	ldmdami	pc, {r9}	; <UNPREDICTABLE>
    2efc:	04000000 	streq	r0, [r0], #-0
    2f00:	23021808 	movwcs	r1, #10248	; 0x2808
    2f04:	0fcb0600 	svceq	0x00cb0600
    2f08:	20020000 	andcs	r0, r2, r0
    2f0c:	00000048 	andeq	r0, r0, r8, asr #32
    2f10:	02100804 	andseq	r0, r0, #262144	; 0x40000
    2f14:	6c060023 	stcvs	0, cr0, [r6], {35}	; 0x23
    2f18:	02000010 	andeq	r0, r0, #16
    2f1c:	00004821 	andeq	r4, r0, r1, lsr #16
    2f20:	0e020400 	cfcpyseq	mvf0, mvf2
    2f24:	06002302 	streq	r2, [r0], -r2, lsl #6
    2f28:	00000fc2 	andeq	r0, r0, r2, asr #31
    2f2c:	00482202 	subeq	r2, r8, r2, lsl #4
    2f30:	0d040000 	stceq	0, cr0, [r4, #-0]
    2f34:	00230201 	eoreq	r0, r3, r1, lsl #4
    2f38:	000fd306 	andeq	sp, pc, r6, lsl #6
    2f3c:	48230200 	stmdami	r3!, {r9}
    2f40:	04000000 	streq	r0, [r0], #-0
    2f44:	23020001 	movwcs	r0, #8193	; 0x2001
    2f48:	04070000 	streq	r0, [r7], #-0
    2f4c:	00e91b02 	rsceq	r1, r9, r2, lsl #22
    2f50:	d3080000 	movwle	r0, #32768	; 0x8000
    2f54:	02000002 	andeq	r0, r0, #2
    2f58:	0000481c 	andeq	r4, r0, ip, lsl r8
    2f5c:	092a0800 	stmdbeq	sl!, {fp}
    2f60:	26020000 	strcs	r0, [r2], -r0
    2f64:	00000068 	andeq	r0, r0, r8, rrx
    2f68:	104e0400 	subne	r0, lr, r0, lsl #8
    2f6c:	27020000 	strcs	r0, [r2, -r0]
    2f70:	000000ca 	andeq	r0, r0, sl, asr #1
    2f74:	00004809 	andeq	r4, r0, r9, lsl #16
    2f78:	07040200 	streq	r0, [r4, -r0, lsl #4]
    2f7c:	00000073 	andeq	r0, r0, r3, ror r0
    2f80:	0fb5010a 	svceq	0x00b5010a
    2f84:	0b010000 	bleq	42f8c <__bss_end+0x2fe40>
    2f88:	0102e401 	tsteq	r2, r1, lsl #8
    2f8c:	01030400 	tsteq	r3, r0, lsl #8
    2f90:	00011200 	andeq	r1, r1, r0, lsl #4
    2f94:	00012800 	andeq	r2, r1, r0, lsl #16
    2f98:	0fa00b00 	svceq	0x00a00b00
    2f9c:	0e010000 	cdpeq	0, 0, cr0, cr1, cr0, {0}
    2fa0:	000000f4 	strdeq	r0, [r0], -r4
    2fa4:	00749102 	rsbseq	r9, r4, r2, lsl #2
    2fa8:	1136010c 	teqne	r6, ip, lsl #2
    2fac:	19010000 	stmdbne	r1, {}	; <UNPREDICTABLE>
    2fb0:	01030401 	tsteq	r3, r1, lsl #8
    2fb4:	01030800 	tsteq	r3, r0, lsl #16
    2fb8:	007d0200 	rsbseq	r0, sp, r0, lsl #4
    2fbc:	0fee010c 	svceq	0x00ee010c
    2fc0:	29010000 	stmdbcs	r1, {}	; <UNPREDICTABLE>
    2fc4:	01030801 	tsteq	r3, r1, lsl #16
    2fc8:	01030c00 	tsteq	r3, r0, lsl #24
    2fcc:	007d0200 	rsbseq	r0, sp, r0, lsl #4
    2fd0:	110f010c 	tstne	pc, ip, lsl #2
    2fd4:	38010000 	stmdacc	r1, {}	; <UNPREDICTABLE>
    2fd8:	01030c01 	tsteq	r3, r1, lsl #24
    2fdc:	01033000 	mrseq	r3, (UNDEF: 3)
    2fe0:	007d0200 	rsbseq	r0, sp, r0, lsl #4
    2fe4:	1020010c 	eorne	r0, r0, ip, lsl #2
    2fe8:	41010000 	mrsmi	r0, (UNDEF: 1)
    2fec:	01033001 	tsteq	r3, r1
    2ff0:	01035400 	tsteq	r3, r0, lsl #8
    2ff4:	007d0200 	rsbseq	r0, sp, r0, lsl #4
    2ff8:	10ef010a 	rscne	r0, pc, sl, lsl #2
    2ffc:	4a010000 	bmi	43004 <__bss_end+0x2feb8>
    3000:	01035401 	tsteq	r3, r1, lsl #8
    3004:	0103e400 	tsteq	r3, r0, lsl #8
    3008:	00013200 	andeq	r3, r1, r0, lsl #4
    300c:	00019f00 	andeq	r9, r1, r0, lsl #30
    3010:	00690d00 	rsbeq	r0, r9, r0, lsl #26
    3014:	00414c01 	subeq	r4, r1, r1, lsl #24
    3018:	01520000 	cmpeq	r2, r0
    301c:	0c000000 	stceq	0, cr0, [r0], {-0}
    3020:	00108501 	andseq	r8, r0, r1, lsl #10
    3024:	015f0100 	cmpeq	pc, r0, lsl #2
    3028:	000103e4 	andeq	r0, r1, r4, ror #7
    302c:	000103e8 	andeq	r0, r1, r8, ror #7
    3030:	0a007d02 	beq	22440 <__bss_end+0xf2f4>
    3034:	00100b01 	andseq	r0, r0, r1, lsl #22
    3038:	01640100 	cmneq	r4, r0, lsl #2
    303c:	000103e8 	andeq	r0, r1, r8, ror #7
    3040:	00010474 	andeq	r0, r1, r4, ror r4
    3044:	00000166 	andeq	r0, r0, r6, ror #2
    3048:	000001dc 	ldrdeq	r0, [r0], -ip
    304c:	6c61760e 	stclvs	6, cr7, [r1], #-56	; 0xffffffc8
    3050:	f4640100 	vld4.8	{d16,d18,d20,d22}, [r4], r0
    3054:	92000000 	andls	r0, r0, #0
    3058:	00000001 	andeq	r0, r0, r1
    305c:	10e0010f 	rscne	r0, r0, pc, lsl #2
    3060:	77010000 	strvc	r0, [r1, -r0]
    3064:	00004801 	andeq	r4, r0, r1, lsl #16
    3068:	01047400 	tsteq	r4, r0, lsl #8
    306c:	0104c000 	mrseq	ip, (UNDEF: 4)
    3070:	0001b100 	andeq	fp, r1, r0, lsl #2
    3074:	00020900 	andeq	r0, r2, r0, lsl #18
    3078:	61760d00 	cmnvs	r6, r0, lsl #26
    307c:	7901006c 	stmdbvc	r1, {r2, r3, r5, r6}
    3080:	00000041 	andeq	r0, r0, r1, asr #32
    3084:	000001d1 	ldrdeq	r0, [r0], -r1
    3088:	36010a00 	strcc	r0, [r1], -r0, lsl #20
    308c:	01000010 	tsteq	r0, r0, lsl r0
    3090:	04c00186 	strbeq	r0, [r0], #390	; 0x186
    3094:	05280001 	streq	r0, [r8, #-1]!
    3098:	01fb0001 	mvnseq	r0, r1
    309c:	023f0000 	eorseq	r0, pc, #0
    30a0:	690d0000 	stmdbvs	sp, {}	; <UNPREDICTABLE>
    30a4:	41880100 	orrmi	r0, r8, r0, lsl #2
    30a8:	1b000000 	blne	30b0 <__resume1_start+0x30b0>
    30ac:	0d000002 	stceq	0, cr0, [r0, #-8]
    30b0:	006c6176 	rsbeq	r6, ip, r6, ror r1
    30b4:	00418901 	subeq	r8, r1, r1, lsl #18
    30b8:	023a0000 	eorseq	r0, sl, #0
    30bc:	0a000000 	beq	30c4 <__resume1_start+0x30c4>
    30c0:	0010ca01 	andseq	ip, r0, r1, lsl #20
    30c4:	019b0100 	orrseq	r0, fp, r0, lsl #2
    30c8:	00010528 	andeq	r0, r1, r8, lsr #10
    30cc:	000105ac 	andeq	r0, r1, ip, lsr #11
    30d0:	00000264 	andeq	r0, r0, r4, ror #4
    30d4:	00000268 	andeq	r0, r0, r8, ror #4
    30d8:	6c61760e 	stclvs	6, cr7, [r1], #-56	; 0xffffffc8
    30dc:	f49b0100 			; <UNDEFINED> instruction: 0xf49b0100
    30e0:	90000000 	andls	r0, r0, r0
    30e4:	00000002 	andeq	r0, r0, r2
    30e8:	1095010c 	addsne	r0, r5, ip, lsl #2
    30ec:	f2010000 	vhadd.s8	d0, d1, d0
    30f0:	0105ac01 	tsteq	r5, r1, lsl #24
    30f4:	0105c400 	tsteq	r5, r0, lsl #8
    30f8:	007d0200 	rsbseq	r0, sp, r0, lsl #4
    30fc:	11440110 	cmpne	r4, r0, lsl r1
    3100:	fa010000 	blx	43108 <__bss_end+0x2ffbc>
    3104:	0105c401 	tsteq	r5, r1, lsl #8
    3108:	0105dc00 	tsteq	r5, r0, lsl #24
    310c:	007d0200 	rsbseq	r0, sp, r0, lsl #4
    3110:	000002a2 	andeq	r0, r0, r2, lsr #5
    3114:	00101b0b 	andseq	r1, r0, fp, lsl #22
    3118:	48fc0100 	ldmmi	ip!, {r8}^
    311c:	01000000 	mrseq	r0, (UNDEF: 0)
    3120:	01110052 	tsteq	r1, r2, asr r0
    3124:	0000112a 	andeq	r1, r0, sl, lsr #2
    3128:	01010601 	tsteq	r1, r1, lsl #12
    312c:	000105dc 	ldrdeq	r0, [r1], -ip
    3130:	000105f4 	strdeq	r0, [r1], -r4
    3134:	ca007d02 	bgt	22544 <__bss_end+0xf3f8>
    3138:	12000002 	andne	r0, r0, #2
    313c:	0000101b 	andeq	r1, r0, fp, lsl r0
    3140:	48010801 	stmdami	r1, {r0, fp}
    3144:	01000000 	mrseq	r0, (UNDEF: 0)
    3148:	01130052 	tsteq	r3, r2, asr r0
    314c:	00001046 	andeq	r1, r0, r6, asr #32
    3150:	01011501 	tsteq	r1, r1, lsl #10
    3154:	000105f4 	strdeq	r0, [r1], -r4
    3158:	00010628 	andeq	r0, r1, r8, lsr #12
    315c:	000002af 	andeq	r0, r0, pc, lsr #5
    3160:	00000305 	andeq	r0, r0, r5, lsl #6
    3164:	6d756e14 	ldclvs	14, cr6, [r5, #-80]!	; 0xffffffb0
    3168:	01150100 	tsteq	r5, r0, lsl #2
    316c:	00000041 	andeq	r0, r0, r1, asr #32
    3170:	000002cf 	andeq	r0, r0, pc, asr #5
    3174:	00101b15 	andseq	r1, r0, r5, lsl fp
    3178:	01170100 	tsteq	r7, r0, lsl #2
    317c:	00000048 	andeq	r0, r0, r8, asr #32
    3180:	000002e2 	andeq	r0, r0, r2, ror #5
    3184:	0faa0b00 	svceq	0x00aa0b00
    3188:	34010000 	strcc	r0, [r1], #-0
    318c:	00000316 	andeq	r0, r0, r6, lsl r3
    3190:	2d7c0305 	ldclcs	3, cr0, [ip, #-20]!	; 0xffffffec
    3194:	04160001 	ldreq	r0, [r6], #-1
    3198:	0000031c 	andeq	r0, r0, ip, lsl r3
    319c:	0000e909 	andeq	lr, r0, r9, lsl #18
    31a0:	11000b00 	tstne	r0, r0, lsl #22
    31a4:	35010000 	strcc	r0, [r1, #-0]
    31a8:	000000e9 	andeq	r0, r0, r9, ror #1
    31ac:	2d840305 	stccs	3, cr0, [r4, #20]
    31b0:	fd0b0001 	stc2	0, cr0, [fp, #-4]
    31b4:	0100000f 	tsteq	r0, pc
    31b8:	00031636 	andeq	r1, r3, r6, lsr r6
    31bc:	80030500 	andhi	r0, r3, r0, lsl #10
    31c0:	0b00012d 	bleq	367c <__resume1_start+0x367c>
    31c4:	00000fdc 	ldrdeq	r0, [r0], -ip
    31c8:	00e93701 	rsceq	r3, r9, r1, lsl #14
    31cc:	03050000 	movweq	r0, #20480	; 0x5000
    31d0:	00012d88 	andeq	r2, r1, r8, lsl #27
    31d4:	00111f17 	andseq	r1, r1, r7, lsl pc
    31d8:	66090100 	strvs	r0, [r9], -r0, lsl #2
    31dc:	01000003 	tsteq	r0, r3
    31e0:	2d8c0305 	stccs	3, cr0, [ip, #20]
    31e4:	41090001 	tstmi	r9, r1
    31e8:	00000000 	andeq	r0, r0, r0
    31ec:	0000046d 	andeq	r0, r0, sp, ror #8
    31f0:	05240002 	streq	r0, [r4, #-2]!
    31f4:	01040000 	mrseq	r0, (UNDEF: 4)
    31f8:	0000011a 	andeq	r0, r0, sl, lsl r1
    31fc:	00115101 	andseq	r5, r1, r1, lsl #2
    3200:	00003500 	andeq	r3, r0, r0, lsl #10
    3204:	01062800 	tsteq	r6, r0, lsl #16
    3208:	0107e400 	tsteq	r7, r0, lsl #8
    320c:	0004d400 	andeq	sp, r4, r0, lsl #8
    3210:	06010200 	streq	r0, [r1], -r0, lsl #4
    3214:	000000e0 	andeq	r0, r0, r0, ror #1
    3218:	de080102 	adflee	f0, f0, f2
    321c:	02000000 	andeq	r0, r0, #0
    3220:	014e0502 	cmpeq	lr, r2, lsl #10
    3224:	02020000 	andeq	r0, r2, #0
    3228:	00010707 	andeq	r0, r1, r7, lsl #14
    322c:	12010300 	andne	r0, r1, #0
    3230:	12020000 	andne	r0, r2, #0
    3234:	0000004c 	andeq	r0, r0, ip, asr #32
    3238:	69050404 	stmdbvs	r5, {r2, sl}
    323c:	0300746e 	movweq	r7, #1134	; 0x46e
    3240:	000008ad 	andeq	r0, r0, sp, lsr #17
    3244:	005e1302 	subseq	r1, lr, r2, lsl #6
    3248:	04020000 	streq	r0, [r2], #-0
    324c:	00007807 	andeq	r7, r0, r7, lsl #16
    3250:	05080200 	streq	r0, [r8, #-512]	; 0x200
    3254:	00000000 	andeq	r0, r0, r0
    3258:	6e070802 	cdpvs	8, 0, cr0, cr7, cr2, {0}
    325c:	05000000 	streq	r0, [r0, #-0]
    3260:	00001302 	andeq	r1, r0, r2, lsl #6
    3264:	98140304 	ldmdals	r4, {r2, r8, r9}
    3268:	06000000 	streq	r0, [r0], -r0
    326c:	00001180 	andeq	r1, r0, r0, lsl #3
    3270:	11b60601 			; <UNDEFINED> instruction: 0x11b60601
    3274:	06020000 	streq	r0, [r2], -r0
    3278:	000012a7 	andeq	r1, r0, r7, lsr #5
    327c:	12b40603 	adcsne	r0, r4, #3145728	; 0x300000
    3280:	00050000 	andeq	r0, r5, r0
    3284:	73070402 	movwvc	r0, #29698	; 0x7402
    3288:	07000000 	streq	r0, [r0, -r0]
    328c:	00125e01 	andseq	r5, r2, r1, lsl #28
    3290:	013e0100 	teqeq	lr, r0, lsl #2
    3294:	00000053 	andeq	r0, r0, r3, asr r0
    3298:	0000bd01 	andeq	fp, r0, r1, lsl #26
    329c:	15550800 	ldrbne	r0, [r5, #-2048]	; 0x800
    32a0:	40010000 	andmi	r0, r1, r0
    32a4:	00000053 	andeq	r0, r0, r3, asr r0
    32a8:	0e010900 	cdpeq	9, 0, cr0, cr1, cr0, {0}
    32ac:	01000012 	tsteq	r0, r2, lsl r0
    32b0:	ed01010b 	stfs	f0, [r1, #-44]	; 0xffffffd4
    32b4:	0a000000 	beq	32bc <__resume1_start+0x32bc>
    32b8:	00001272 	andeq	r1, r0, r2, ror r2
    32bc:	00530b01 	subseq	r0, r3, r1, lsl #22
    32c0:	330a0000 	movwcc	r0, #40960	; 0xa000
    32c4:	01000012 	tsteq	r0, r2, lsl r0
    32c8:	0000530b 	andeq	r5, r0, fp, lsl #6
    32cc:	15550800 	ldrbne	r0, [r5, #-2048]	; 0x800
    32d0:	0e010000 	cdpeq	0, 0, cr0, cr1, cr0, {0}
    32d4:	00000053 	andeq	r0, r0, r3, asr r0
    32d8:	12930b00 	addsne	r0, r3, #0
    32dc:	a9010000 	stmdbge	r1, {}	; <UNPREDICTABLE>
    32e0:	00005301 	andeq	r5, r0, r1, lsl #6
    32e4:	01150100 	tsteq	r5, r0, lsl #2
    32e8:	6d0a0000 	stcvs	0, cr0, [sl, #-0]
    32ec:	01000012 	tsteq	r0, r2, lsl r0
    32f0:	000073a9 	andeq	r7, r0, r9, lsr #7
    32f4:	127b0800 	rsbsne	r0, fp, #0
    32f8:	ab010000 	blge	43300 <__bss_end+0x301b4>
    32fc:	0000004c 	andeq	r0, r0, ip, asr #32
    3300:	00bd0c00 	adcseq	r0, sp, r0, lsl #24
    3304:	06280000 	strteq	r0, [r8], -r0
    3308:	06540001 	ldrbeq	r0, [r4], -r1
    330c:	7d020001 	stcvc	0, cr0, [r2, #-4]
    3310:	00014300 	andeq	r4, r1, r0, lsl #6
    3314:	00cb0d00 	sbceq	r0, fp, r0, lsl #26
    3318:	03000000 	movweq	r0, #0
    331c:	d60e0000 	strle	r0, [lr], -r0
    3320:	01000000 	mrseq	r0, (UNDEF: 0)
    3324:	00e10f51 	rsceq	r0, r1, r1, asr pc
    3328:	03130000 	tsteq	r3, #0
    332c:	10000000 	andne	r0, r0, r0
    3330:	0011e501 	andseq	lr, r1, r1, lsl #10
    3334:	01290100 	teqeq	r9, r0, lsl #2
    3338:	00010654 	andeq	r0, r1, r4, asr r6
    333c:	00010670 	andeq	r0, r1, r0, ror r6
    3340:	10007d02 	andne	r7, r0, r2, lsl #26
    3344:	0012dc01 	andseq	sp, r2, r1, lsl #24
    3348:	01330100 	teqeq	r3, r0, lsl #2
    334c:	00010670 	andeq	r0, r1, r0, ror r6
    3350:	00010694 	muleq	r1, r4, r6
    3354:	0c007d02 	stceq	13, cr7, [r0], {2}
    3358:	0000009f 	muleq	r0, pc, r0	; <UNPREDICTABLE>
    335c:	00010694 	muleq	r1, r4, r6
    3360:	0001069c 	muleq	r1, ip, r6
    3364:	87007d02 	strhi	r7, [r0, -r2, lsl #26]
    3368:	11000001 	tstne	r0, r1
    336c:	000000b1 	strheq	r0, [r0], -r1
    3370:	12005001 	andne	r5, r0, #1
    3374:	0011d701 	andseq	sp, r1, r1, lsl #14
    3378:	01460100 	mrseq	r0, (UNDEF: 86)
    337c:	0001069c 	muleq	r1, ip, r6
    3380:	000106ac 	andeq	r0, r1, ip, lsr #13
    3384:	af007d02 	svcge	0x00007d02
    3388:	13000001 	movwne	r0, #1
    338c:	00001555 	andeq	r1, r0, r5, asr r5
    3390:	00534801 	subseq	r4, r3, r1, lsl #16
    3394:	035c0000 	cmpeq	ip, #0
    3398:	14000000 	strne	r0, [r0], #-0
    339c:	00124201 	andseq	r4, r2, r1, lsl #4
    33a0:	01510100 	cmpeq	r1, r0, lsl #2
    33a4:	000106ac 	andeq	r0, r1, ip, lsr #13
    33a8:	000106d4 	ldrdeq	r0, [r1], -r4
    33ac:	0000038a 	andeq	r0, r0, sl, lsl #7
    33b0:	00000222 	andeq	r0, r0, r2, lsr #4
    33b4:	0005ec13 	andeq	lr, r5, r3, lsl ip
    33b8:	53530100 	cmppl	r3, #0
    33bc:	aa000000 	bge	33c4 <__resume1_start+0x33c4>
    33c0:	15000003 	strne	r0, [r0, #-3]
    33c4:	0000009f 	muleq	r0, pc, r0	; <UNPREDICTABLE>
    33c8:	000106b0 			; <UNDEFINED> instruction: 0x000106b0
    33cc:	000106b4 			; <UNDEFINED> instruction: 0x000106b4
    33d0:	01fe5801 	mvnseq	r5, r1, lsl #16
    33d4:	b0160000 	andslt	r0, r6, r0
    33d8:	b4000106 	strlt	r0, [r0], #-262	; 0x106
    33dc:	0f000106 	svceq	0x00000106
    33e0:	000000b1 	strheq	r0, [r0], -r1
    33e4:	000003be 			; <UNDEFINED> instruction: 0x000003be
    33e8:	9f170000 	svcls	0x00170000
    33ec:	b4000000 	strlt	r0, [r0], #-0
    33f0:	b8000106 	stmdalt	r0, {r1, r2, r8}
    33f4:	01000106 	tsteq	r0, r6, lsl #2
    33f8:	06b41659 	ssateq	r1, #21, r9, asr #12
    33fc:	06b80001 	ldrteq	r0, [r8], r1
    3400:	b10f0001 	tstlt	pc, r1
    3404:	d1000000 	mrsle	r0, (UNDEF: 0)
    3408:	00000003 	andeq	r0, r0, r3
    340c:	01140000 	tsteq	r4, r0
    3410:	000011f8 	strdeq	r1, [r0], -r8
    3414:	d4016101 	strle	r6, [r1], #-257	; 0x101
    3418:	54000106 	strpl	r0, [r0], #-262	; 0x106
    341c:	e4000107 	str	r0, [r0], #-263	; 0x107
    3420:	12000003 	andne	r0, r0, #3
    3424:	18000003 	stmdane	r0, {r0, r1}
    3428:	01007375 	tsteq	r0, r5, ror r3
    342c:	00005361 	andeq	r5, r0, r1, ror #6
    3430:	00040400 	andeq	r0, r4, r0, lsl #8
    3434:	12071300 	andne	r1, r7, #0
    3438:	63010000 	movwvs	r0, #4096	; 0x1000
    343c:	00000053 	andeq	r0, r0, r3, asr r0
    3440:	0000042d 	andeq	r0, r0, sp, lsr #8
    3444:	72756319 	rsbsvc	r6, r5, #1677721600	; 0x64000000
    3448:	53640100 	cmnpl	r4, #0
    344c:	5d000000 	stcpl	0, cr0, [r0, #-0]
    3450:	13000004 	movwne	r0, #4
    3454:	000011d0 	ldrdeq	r1, [r0], -r0
    3458:	00536501 	subseq	r6, r3, r1, lsl #10
    345c:	04930000 	ldreq	r0, [r3], #0
    3460:	c1130000 	tstgt	r3, r0
    3464:	01000011 	tsteq	r0, r1, lsl r0
    3468:	00005366 	andeq	r5, r0, r6, ror #6
    346c:	0004be00 	andeq	fp, r4, r0, lsl #28
    3470:	756f1a00 	strbvc	r1, [pc, #-2560]!	; 2a78 <__resume1_start+0x2a78>
    3474:	9a010074 	bls	4364c <__bss_end+0x30500>
    3478:	000106ec 	andeq	r0, r1, ip, ror #13
    347c:	00009f15 	andeq	r9, r0, r5, lsl pc
    3480:	01070000 	mrseq	r0, (UNDEF: 7)
    3484:	01070400 	tsteq	r7, r0, lsl #8
    3488:	b5710100 	ldrblt	r0, [r1, #-256]!	; 0x100
    348c:	16000002 	strne	r0, [r0], -r2
    3490:	00010700 	andeq	r0, r1, r0, lsl #14
    3494:	00010704 	andeq	r0, r1, r4, lsl #14
    3498:	0000b111 	andeq	fp, r0, r1, lsl r1
    349c:	00530100 	subseq	r0, r3, r0, lsl #2
    34a0:	00bd1500 	adcseq	r1, sp, r0, lsl #10
    34a4:	07240000 	streq	r0, [r4, -r0]!
    34a8:	073c0001 	ldreq	r0, [ip, -r1]!
    34ac:	77010001 	strvc	r0, [r1, -r1]
    34b0:	000002ee 	andeq	r0, r0, lr, ror #5
    34b4:	0000d60d 	andeq	sp, r0, sp, lsl #12
    34b8:	0004e900 	andeq	lr, r4, r0, lsl #18
    34bc:	00cb0d00 	sbceq	r0, fp, r0, lsl #26
    34c0:	04fd0000 	ldrbteq	r0, [sp], #0
    34c4:	24160000 	ldrcs	r0, [r6], #-0
    34c8:	3c000107 	stfccs	f0, [r0], {7}
    34cc:	0f000107 	svceq	0x00000107
    34d0:	000000e1 	andeq	r0, r0, r1, ror #1
    34d4:	00000511 	andeq	r0, r0, r1, lsl r5
    34d8:	9f170000 	svcls	0x00170000
    34dc:	3c000000 	stccc	0, cr0, [r0], {-0}
    34e0:	40000107 	andmi	r0, r0, r7, lsl #2
    34e4:	01000107 	tsteq	r0, r7, lsl #2
    34e8:	073c167b 			; <UNDEFINED> instruction: 0x073c167b
    34ec:	07400001 	strbeq	r0, [r0, -r1]
    34f0:	b10f0001 	tstlt	pc, r1
    34f4:	35000000 	strcc	r0, [r0, #-0]
    34f8:	00000005 	andeq	r0, r0, r5
    34fc:	01120000 	tsteq	r2, r0
    3500:	000005a9 	andeq	r0, r0, r9, lsr #11
    3504:	5401a101 	strpl	sl, [r1], #-257	; 0x101
    3508:	60000107 	andvs	r0, r0, r7, lsl #2
    350c:	02000107 	andeq	r0, r0, #-1073741823	; 0xc0000001
    3510:	0339007d 	teqeq	r9, #125	; 0x7d
    3514:	6d180000 	ldcvs	0, cr0, [r8, #-0]
    3518:	a1010073 	tstge	r1, r3, ror r0
    351c:	00000053 	andeq	r0, r0, r3, asr r0
    3520:	00000548 	andeq	r0, r0, r8, asr #10
    3524:	20011200 	andcs	r1, r1, r0, lsl #4
    3528:	01000012 	tsteq	r0, r2, lsl r0
    352c:	076001c3 	strbeq	r0, [r0, -r3, asr #3]!
    3530:	078c0001 	streq	r0, [ip, r1]
    3534:	7d020001 	stcvc	0, cr0, [r2, #-4]
    3538:	00037d00 	andeq	r7, r3, r0, lsl #26
    353c:	12721b00 	rsbsne	r1, r2, #0
    3540:	c3010000 	movwgt	r0, #4096	; 0x1000
    3544:	00000053 	andeq	r0, r0, r3, asr r0
    3548:	0000055b 	andeq	r0, r0, fp, asr r5
    354c:	0012331c 	andseq	r3, r2, ip, lsl r3
    3550:	53c30100 	bicpl	r0, r3, #0
    3554:	01000000 	mrseq	r0, (UNDEF: 0)
    3558:	15551351 	ldrbne	r1, [r5, #-849]	; 0x351
    355c:	c6010000 	strgt	r0, [r1], -r0
    3560:	00000053 	andeq	r0, r0, r3, asr r0
    3564:	0000056e 	andeq	r0, r0, lr, ror #10
    3568:	81011200 	mrshi	r1, R9_usr
    356c:	01000012 	tsteq	r0, r2, lsl r0
    3570:	078c01e1 	streq	r0, [ip, r1, ror #3]
    3574:	07b80001 	ldreq	r0, [r8, r1]!
    3578:	7d020001 	stcvc	0, cr0, [r2, #-4]
    357c:	0003c900 	andeq	ip, r3, r0, lsl #18
    3580:	126d1c00 	rsbne	r1, sp, #0
    3584:	e1010000 	mrs	r0, (UNDEF: 1)
    3588:	00000073 	andeq	r0, r0, r3, ror r0
    358c:	7b135001 	blvc	4d7598 <__bss_end+0x4c444c>
    3590:	01000012 	tsteq	r0, r2, lsl r0
    3594:	000053e4 	andeq	r5, r0, r4, ror #7
    3598:	0005b700 	andeq	fp, r5, r0, lsl #14
    359c:	00ed1700 	rsceq	r1, sp, r0, lsl #14
    35a0:	078c0000 	streq	r0, [ip, r0]
    35a4:	07a00001 	streq	r0, [r0, r1]!
    35a8:	e5010001 	str	r0, [r1, #-1]
    35ac:	0000fe0e 	andeq	pc, r0, lr, lsl #28
    35b0:	00500100 	subseq	r0, r0, r0, lsl #2
    35b4:	f0011d00 			; <UNDEFINED> instruction: 0xf0011d00
    35b8:	01000012 	tsteq	r0, r2, lsl r0
    35bc:	004c01f4 	strdeq	r0, [ip], #-20	; 0xffffffec
    35c0:	07b80000 	ldreq	r0, [r8, r0]!
    35c4:	07e40001 	strbeq	r0, [r4, r1]!
    35c8:	7d020001 	stcvc	0, cr0, [r2, #-4]
    35cc:	00042c00 	andeq	r2, r4, r0, lsl #24
    35d0:	126d1b00 	rsbne	r1, sp, #0
    35d4:	f4010000 	vst4.8	{d0-d3}, [r1], r0
    35d8:	00000073 	andeq	r0, r0, r3, ror r0
    35dc:	000005cb 	andeq	r0, r0, fp, asr #11
    35e0:	00127b13 	andseq	r7, r2, r3, lsl fp
    35e4:	4cf60100 	ldfmie	f0, [r6]
    35e8:	eb000000 	bl	35f0 <__resume1_start+0x35f0>
    35ec:	13000005 	movwne	r0, #5
    35f0:	0000118d 	andeq	r1, r0, sp, lsl #3
    35f4:	004cf701 	subeq	pc, ip, r1, lsl #14
    35f8:	060a0000 	streq	r0, [sl], -r0
    35fc:	ed170000 	ldc	0, cr0, [r7, #-0]
    3600:	b8000000 	stmdalt	r0, {}	; <UNPREDICTABLE>
    3604:	cc000107 	stfgts	f0, [r0], {7}
    3608:	01000107 	tsteq	r0, r7, lsl #2
    360c:	00fe0df8 	ldrshteq	r0, [lr], #216	; 0xd8
    3610:	06290000 	strteq	r0, [r9], -r0
    3614:	00000000 	andeq	r0, r0, r0
    3618:	001e1c1e 	andseq	r1, lr, lr, lsl ip
    361c:	53040100 	movwpl	r0, #16640	; 0x4100
    3620:	05000000 	streq	r0, [r0, #-0]
    3624:	012d9c03 	teqeq	sp, r3, lsl #24
    3628:	12551e00 	subsne	r1, r5, #0
    362c:	05010000 	streq	r0, [r1, #-0]
    3630:	00000053 	andeq	r0, r0, r3, asr r0
    3634:	2d980305 	ldccs	3, cr0, [r8, #20]
    3638:	bf1e0001 	svclt	0x001e0001
    363c:	01000012 	tsteq	r0, r2, lsl r0
    3640:	00005306 	andeq	r5, r0, r6, lsl #6
    3644:	90030500 	andls	r0, r3, r0, lsl #10
    3648:	1e00012d 	adfnesp	f0, f0, #5.0
    364c:	00001197 	muleq	r0, r7, r1
    3650:	00530701 	subseq	r0, r3, r1, lsl #14
    3654:	03050000 	movweq	r0, #20480	; 0x5000
    3658:	00012d94 	muleq	r1, r4, sp
    365c:	00014400 	andeq	r4, r1, r0, lsl #8
    3660:	e7000200 	str	r0, [r0, -r0, lsl #4]
    3664:	04000006 	streq	r0, [r0], #-6
    3668:	00011a01 	andeq	r1, r1, r1, lsl #20
    366c:	13110100 	tstne	r1, #0
    3670:	00350000 	eorseq	r0, r5, r0
    3674:	08000000 	stmdaeq	r0, {}	; <UNPREDICTABLE>
    3678:	08a00001 	stmiaeq	r0!, {r0}
    367c:	05d70001 	ldrbeq	r0, [r7, #1]
    3680:	04020000 	streq	r0, [r2], #-0
    3684:	746e6905 	strbtvc	r6, [lr], #-2309	; 0x905
    3688:	07040300 	streq	r0, [r4, -r0, lsl #6]
    368c:	00000073 	andeq	r0, r0, r3, ror r0
    3690:	78070403 	stmdavc	r7, {r0, r1, sl}
    3694:	03000000 	movweq	r0, #0
    3698:	00de0801 	sbcseq	r0, lr, r1, lsl #16
    369c:	01030000 	mrseq	r0, (UNDEF: 3)
    36a0:	0000e006 	andeq	lr, r0, r6
    36a4:	05020300 	streq	r0, [r2, #-768]	; 0x300
    36a8:	0000014e 	andeq	r0, r0, lr, asr #2
    36ac:	07070203 	streq	r0, [r7, -r3, lsl #4]
    36b0:	04000001 	streq	r0, [r0], #-1
    36b4:	000008ad 	andeq	r0, r0, sp, lsr #17
    36b8:	00331303 	eorseq	r1, r3, r3, lsl #6
    36bc:	08030000 	stmdaeq	r3, {}	; <UNPREDICTABLE>
    36c0:	00000005 	andeq	r0, r0, r5
    36c4:	07080300 	streq	r0, [r8, -r0, lsl #6]
    36c8:	0000006e 	andeq	r0, r0, lr, rrx
    36cc:	0003d105 	andeq	sp, r3, r5, lsl #2
    36d0:	35022400 	strcc	r2, [r2, #-1024]	; 0x400
    36d4:	000000f9 	strdeq	r0, [r0], -r9
    36d8:	000efd06 	andeq	pc, lr, r6, lsl #26
    36dc:	56370200 	ldrtpl	r0, [r7], -r0, lsl #4
    36e0:	02000000 	andeq	r0, r0, #0
    36e4:	63070023 	movwvs	r0, #28707	; 0x7023
    36e8:	39020072 	stmdbcc	r2, {r1, r4, r5, r6}
    36ec:	00000056 	andeq	r0, r0, r6, asr r0
    36f0:	06042302 	streq	r2, [r4], -r2, lsl #6
    36f4:	00000cb4 			; <UNDEFINED> instruction: 0x00000cb4
    36f8:	00563a02 	subseq	r3, r6, r2, lsl #20
    36fc:	23020000 	movwcs	r0, #8192	; 0x2000
    3700:	0d270608 	stceq	6, cr0, [r7, #-32]!	; 0xffffffe0
    3704:	3c020000 	stccc	0, cr0, [r2], {-0}
    3708:	00000056 	andeq	r0, r0, r6, asr r0
    370c:	060c2302 	streq	r2, [ip], -r2, lsl #6
    3710:	00000e2c 	andeq	r0, r0, ip, lsr #28
    3714:	00563d02 	subseq	r3, r6, r2, lsl #26
    3718:	23020000 	movwcs	r0, #8192	; 0x2000
    371c:	0d3d0610 	ldceq	6, cr0, [sp, #-64]!	; 0xffffffc0
    3720:	3e020000 	cdpcc	0, 0, cr0, cr2, cr0, {0}
    3724:	00000056 	andeq	r0, r0, r6, asr r0
    3728:	06142302 	ldreq	r2, [r4], -r2, lsl #6
    372c:	00000707 	andeq	r0, r0, r7, lsl #14
    3730:	00564102 	subseq	r4, r6, r2, lsl #2
    3734:	23020000 	movwcs	r0, #8192	; 0x2000
    3738:	0f9b0618 	svceq	0x009b0618
    373c:	44020000 	strmi	r0, [r2], #-0
    3740:	00000056 	andeq	r0, r0, r6, asr r0
    3744:	061c2302 	ldreq	r2, [ip], -r2, lsl #6
    3748:	00000da6 	andeq	r0, r0, r6, lsr #27
    374c:	00564502 	subseq	r4, r6, r2, lsl #10
    3750:	23020000 	movwcs	r0, #8192	; 0x2000
    3754:	01080020 	tsteq	r8, r0, lsr #32
    3758:	00001352 	andeq	r1, r0, r2, asr r3
    375c:	00010701 	andeq	r0, r1, r1, lsl #14
    3760:	3c000108 	stfccs	f0, [r0], {8}
    3764:	02000108 	andeq	r0, r0, #2
    3768:	011f007d 	tsteq	pc, sp, ror r0	; <UNPREDICTABLE>
    376c:	cb090000 	blgt	243774 <__bss_end+0x230628>
    3770:	01000003 	tsteq	r0, r3
    3774:	00011f07 	andeq	r1, r1, r7, lsl #30
    3778:	00500100 	subseq	r0, r0, r0, lsl #2
    377c:	006f040a 	rsbeq	r0, pc, sl, lsl #8
    3780:	010b0000 	mrseq	r0, (UNDEF: 11)
    3784:	00001340 	andeq	r1, r0, r0, asr #6
    3788:	3c011e01 	stccc	14, cr1, [r1], {1}
    378c:	a0000108 	andge	r0, r0, r8, lsl #2
    3790:	02000108 	andeq	r0, r0, #2
    3794:	cb09007d 	blgt	243990 <__bss_end+0x230844>
    3798:	01000003 	tsteq	r0, r3
    379c:	00011f1e 	andeq	r1, r1, lr, lsl pc
    37a0:	00500100 	subseq	r0, r0, r0, lsl #2
    37a4:	00008100 	andeq	r8, r0, r0, lsl #2
    37a8:	8f000200 	svchi	0x00000200
    37ac:	04000007 	streq	r0, [r0], #-7
    37b0:	00068701 	andeq	r8, r6, r1, lsl #14
    37b4:	0108a000 	mrseq	sl, (UNDEF: 8)
    37b8:	010dc800 	tsteq	sp, r0, lsl #16
    37bc:	63726100 	cmnvs	r2, #0
    37c0:	72612f68 	rsbvc	r2, r1, #416	; 0x1a0
    37c4:	616d2f6d 	cmnvs	sp, sp, ror #30
    37c8:	732d6863 	teqvc	sp, #6488064	; 0x630000
    37cc:	69786e75 	ldmdbvs	r8!, {r0, r2, r4, r5, r6, r9, sl, fp, sp, lr}^
    37d0:	2f6d702f 	svccs	0x006d702f
    37d4:	6e617473 	mcrvs	4, 3, r7, cr1, cr3, {3}
    37d8:	2f796264 	svccs	0x00796264
    37dc:	6d2f2e2e 	stcvs	14, cr2, [pc, #-184]!	; 372c <__resume1_start+0x372c>
    37e0:	6d5f6d65 	ldclvs	13, cr6, [pc, #-404]	; 3654 <__resume1_start+0x3654>
    37e4:	705f756d 	subsvc	r7, pc, sp, ror #10
    37e8:	73615f63 	cmnvc	r1, #396	; 0x18c
    37ec:	00532e6d 	subseq	r2, r3, sp, ror #28
    37f0:	6d6f682f 	stclvs	8, cr6, [pc, #-188]!	; 373c <__resume1_start+0x373c>
    37f4:	61612f65 	cmnvs	r1, r5, ror #30
    37f8:	2f6e6f72 	svccs	0x006e6f72
    37fc:	6b726f57 	blvs	1c9f560 <__bss_end+0x1c8c414>
    3800:	2d63632f 	stclcs	3, cr6, [r3, #-188]!	; 0xffffff44
    3804:	2d303861 	ldccs	8, cr3, [r0, #-388]!	; 0xfffffe7c
    3808:	2d6b6473 	cfstrdcs	mvd6, [fp, #-460]!	; 0xfffffe34
    380c:	756e696c 	strbvc	r6, [lr, #-2412]!	; 0x96c
    3810:	696c2f78 	stmdbvs	ip!, {r3, r4, r5, r6, r8, r9, sl, fp, sp}^
    3814:	2d78756e 	cfldr64cs	mvdx7, [r8, #-440]!	; 0xfffffe48
    3818:	00342e33 	eorseq	r2, r4, r3, lsr lr
    381c:	20554e47 	subscs	r4, r5, r7, asr #28
    3820:	32205341 	eorcc	r5, r0, #67108865	; 0x4000001
    3824:	0032322e 	eorseq	r3, r2, lr, lsr #4
    3828:	051c8001 	ldreq	r8, [ip, #-1]
    382c:	00020000 	andeq	r0, r2, r0
    3830:	000007a3 	andeq	r0, r0, r3, lsr #15
    3834:	011a0104 	tsteq	sl, r4, lsl #2
    3838:	af010000 	svcge	0x00010000
    383c:	35000014 	strcc	r0, [r0, #-20]
    3840:	e0000000 	and	r0, r0, r0
    3844:	bc00010d 	stflts	f0, [r0], {13}
    3848:	36000110 			; <UNDEFINED> instruction: 0x36000110
    384c:	02000008 	andeq	r0, r0, #8
    3850:	00e00601 	rsceq	r0, r0, r1, lsl #12
    3854:	01020000 	mrseq	r0, (UNDEF: 2)
    3858:	0000de08 	andeq	sp, r0, r8, lsl #28
    385c:	05020200 	streq	r0, [r2, #-512]	; 0x200
    3860:	0000014e 	andeq	r0, r0, lr, asr #2
    3864:	07070202 	streq	r0, [r7, -r2, lsl #4]
    3868:	03000001 	movweq	r0, #1
    386c:	6e690504 	cdpvs	5, 6, cr0, cr9, cr4, {0}
    3870:	ad040074 	stcge	0, cr0, [r4, #-464]	; 0xfffffe30
    3874:	03000008 	movweq	r0, #8
    3878:	00005313 	andeq	r5, r0, r3, lsl r3
    387c:	07040200 	streq	r0, [r4, -r0, lsl #4]
    3880:	00000078 	andeq	r0, r0, r8, ror r0
    3884:	00050802 	andeq	r0, r5, r2, lsl #16
    3888:	02000000 	andeq	r0, r0, #0
    388c:	006e0708 	rsbeq	r0, lr, r8, lsl #14
    3890:	75050000 	strvc	r0, [r5, #-0]
    3894:	a0000014 	andge	r0, r0, r4, lsl r0
    3898:	02ac1202 	adceq	r1, ip, #536870912	; 0x20000000
    389c:	fd060000 	stc2	0, cr0, [r6, #-0]
    38a0:	0200000e 	andeq	r0, r0, #14
    38a4:	00004817 	andeq	r4, r0, r7, lsl r8
    38a8:	00230200 	eoreq	r0, r3, r0, lsl #4
    38ac:	00726307 	rsbseq	r6, r2, r7, lsl #6
    38b0:	00482702 	subeq	r2, r8, r2, lsl #14
    38b4:	23020000 	movwcs	r0, #8192	; 0x2000
    38b8:	63610704 	cmnvs	r1, #1048576	; 0x100000
    38bc:	28020072 	stmdacs	r2, {r1, r4, r5, r6}
    38c0:	00000048 	andeq	r0, r0, r8, asr #32
    38c4:	06082302 	streq	r2, [r8], -r2, lsl #6
    38c8:	00000cb4 			; <UNDEFINED> instruction: 0x00000cb4
    38cc:	00482902 	subeq	r2, r8, r2, lsl #18
    38d0:	23020000 	movwcs	r0, #8192	; 0x2000
    38d4:	136e060c 	cmnne	lr, #12582912	; 0xc00000
    38d8:	2a020000 	bcs	838e0 <__bss_end+0x70794>
    38dc:	00000048 	andeq	r0, r0, r8, asr #32
    38e0:	06102302 	ldreq	r2, [r0], -r2, lsl #6
    38e4:	000013b0 			; <UNDEFINED> instruction: 0x000013b0
    38e8:	00482b02 	subeq	r2, r8, r2, lsl #22
    38ec:	23020000 	movwcs	r0, #8192	; 0x2000
    38f0:	148b0614 	strne	r0, [fp], #1556	; 0x614
    38f4:	2c020000 	stccs	0, cr0, [r2], {-0}
    38f8:	00000048 	andeq	r0, r0, r8, asr #32
    38fc:	06182302 	ldreq	r2, [r8], -r2, lsl #6
    3900:	00000d27 	andeq	r0, r0, r7, lsr #26
    3904:	00483002 	subeq	r3, r8, r2
    3908:	23020000 	movwcs	r0, #8192	; 0x2000
    390c:	0e2c061c 	mcreq	6, 1, r0, cr12, cr12, {0}
    3910:	31020000 	mrscc	r0, (UNDEF: 2)
    3914:	00000048 	andeq	r0, r0, r8, asr #32
    3918:	06202302 	strteq	r2, [r0], -r2, lsl #6
    391c:	00000d3d 	andeq	r0, r0, sp, lsr sp
    3920:	00483202 	subeq	r3, r8, r2, lsl #4
    3924:	23020000 	movwcs	r0, #8192	; 0x2000
    3928:	07070624 	streq	r0, [r7, -r4, lsr #12]
    392c:	34020000 	strcc	r0, [r2], #-0
    3930:	00000048 	andeq	r0, r0, r8, asr #32
    3934:	06282302 	strteq	r2, [r8], -r2, lsl #6
    3938:	0000138c 	andeq	r1, r0, ip, lsl #7
    393c:	00483602 	subeq	r3, r8, r2, lsl #12
    3940:	23020000 	movwcs	r0, #8192	; 0x2000
    3944:	155b062c 	ldrbne	r0, [fp, #-1580]	; 0x62c
    3948:	37020000 	strcc	r0, [r2, -r0]
    394c:	00000048 	andeq	r0, r0, r8, asr #32
    3950:	06302302 	ldrteq	r2, [r0], -r2, lsl #6
    3954:	0000146e 	andeq	r1, r0, lr, ror #8
    3958:	00483802 	subeq	r3, r8, r2, lsl #16
    395c:	23020000 	movwcs	r0, #8192	; 0x2000
    3960:	15760634 	ldrbne	r0, [r6, #-1588]!	; 0x634
    3964:	39020000 	stmdbcc	r2, {}	; <UNPREDICTABLE>
    3968:	00000048 	andeq	r0, r0, r8, asr #32
    396c:	06382302 	ldrteq	r2, [r8], -r2, lsl #6
    3970:	00001561 	andeq	r1, r0, r1, ror #10
    3974:	00483b02 	subeq	r3, r8, r2, lsl #22
    3978:	23020000 	movwcs	r0, #8192	; 0x2000
    397c:	1368063c 	cmnne	r8, #62914560	; 0x3c00000
    3980:	3c020000 	stccc	0, cr0, [r2], {-0}
    3984:	00000048 	andeq	r0, r0, r8, asr #32
    3988:	07402302 	strbeq	r2, [r0, -r2, lsl #6]
    398c:	00726170 	rsbseq	r6, r2, r0, ror r1
    3990:	00483e02 	subeq	r3, r8, r2, lsl #28
    3994:	23020000 	movwcs	r0, #8192	; 0x2000
    3998:	15370644 	ldrne	r0, [r7, #-1604]!	; 0x644
    399c:	40020000 	andmi	r0, r2, r0
    39a0:	00000048 	andeq	r0, r0, r8, asr #32
    39a4:	06482302 	strbeq	r2, [r8], -r2, lsl #6
    39a8:	00001542 	andeq	r1, r0, r2, asr #10
    39ac:	00484102 	subeq	r4, r8, r2, lsl #2
    39b0:	23020000 	movwcs	r0, #8192	; 0x2000
    39b4:	1498064c 	ldrne	r0, [r8], #1612	; 0x64c
    39b8:	42020000 	andmi	r0, r2, #0
    39bc:	00000048 	andeq	r0, r0, r8, asr #32
    39c0:	06502302 	ldrbeq	r2, [r0], -r2, lsl #6
    39c4:	00001532 	andeq	r1, r0, r2, lsr r5
    39c8:	00484302 	subeq	r4, r8, r2, lsl #6
    39cc:	23020000 	movwcs	r0, #8192	; 0x2000
    39d0:	69730754 	ldmdbvs	r3!, {r2, r4, r6, r8, r9, sl}^
    39d4:	47020072 	smlsdxmi	r2, r2, r0, r0
    39d8:	00000048 	andeq	r0, r0, r8, asr #32
    39dc:	06582302 	ldrbeq	r2, [r8], -r2, lsl #6
    39e0:	00001455 	andeq	r1, r0, r5, asr r4
    39e4:	00484902 	subeq	r4, r8, r2, lsl #18
    39e8:	23020000 	movwcs	r0, #8192	; 0x2000
    39ec:	6363075c 	cmnvs	r3, #24117248	; 0x1700000
    39f0:	4a020072 	bmi	83bc0 <__bss_end+0x70a74>
    39f4:	00000048 	andeq	r0, r0, r8, asr #32
    39f8:	07602302 	strbeq	r2, [r0, -r2, lsl #6]!
    39fc:	00727365 	rsbseq	r7, r2, r5, ror #6
    3a00:	00484b02 	subeq	r4, r8, r2, lsl #22
    3a04:	23020000 	movwcs	r0, #8192	; 0x2000
    3a08:	156d0664 	strbne	r0, [sp, #-1636]!	; 0x664
    3a0c:	4c020000 	stcmi	0, cr0, [r2], {-0}
    3a10:	00000048 	andeq	r0, r0, r8, asr #32
    3a14:	07682302 	strbeq	r2, [r8, -r2, lsl #6]!
    3a18:	00726575 	rsbseq	r6, r2, r5, ror r5
    3a1c:	00484d02 	subeq	r4, r8, r2, lsl #26
    3a20:	23020000 	movwcs	r0, #8192	; 0x2000
    3a24:	1441066c 	strbne	r0, [r1], #-1644	; 0x66c
    3a28:	4e020000 	cdpmi	0, 0, cr0, cr2, cr0, {0}
    3a2c:	00000048 	andeq	r0, r0, r8, asr #32
    3a30:	06702302 	ldrbteq	r2, [r0], -r2, lsl #6
    3a34:	00001387 	andeq	r1, r0, r7, lsl #7
    3a38:	00484f02 	subeq	r4, r8, r2, lsl #30
    3a3c:	23020000 	movwcs	r0, #8192	; 0x2000
    3a40:	0f9b0674 	svceq	0x009b0674
    3a44:	5d020000 	stcpl	0, cr0, [r2, #-0]
    3a48:	00000048 	andeq	r0, r0, r8, asr #32
    3a4c:	06782302 	ldrbteq	r2, [r8], -r2, lsl #6
    3a50:	00000da6 	andeq	r0, r0, r6, lsr #27
    3a54:	00485e02 	subeq	r5, r8, r2, lsl #28
    3a58:	23020000 	movwcs	r0, #8192	; 0x2000
    3a5c:	1568067c 	strbne	r0, [r8, #-1660]!	; 0x67c
    3a60:	74020000 	strvc	r0, [r2], #-0
    3a64:	00000048 	andeq	r0, r0, r8, asr #32
    3a68:	01802303 	orreq	r2, r0, r3, lsl #6
    3a6c:	00156706 	andseq	r6, r5, r6, lsl #14
    3a70:	48750200 	ldmdami	r5!, {r9}^
    3a74:	03000000 	movweq	r0, #0
    3a78:	07018423 	streq	r8, [r1, -r3, lsr #8]
    3a7c:	00727369 	rsbseq	r7, r2, r9, ror #6
    3a80:	00487602 	subeq	r7, r8, r2, lsl #12
    3a84:	23030000 	movwcs	r0, #12288	; 0x3000
    3a88:	f2060188 	vrhadd.s8	d0, d22, d8
    3a8c:	02000014 	andeq	r0, r0, #20
    3a90:	0000487a 	andeq	r4, r0, sl, ror r8
    3a94:	8c230300 	stchi	3, cr0, [r3], #-0
    3a98:	69630701 	stmdbvs	r3!, {r0, r8, r9, sl}^
    3a9c:	7b020064 	blvc	83c34 <__bss_end+0x70ae8>
    3aa0:	00000048 	andeq	r0, r0, r8, asr #32
    3aa4:	01902303 	orrseq	r2, r0, r3, lsl #6
    3aa8:	00148306 	andseq	r8, r4, r6, lsl #6
    3aac:	487c0200 	ldmdami	ip!, {r9}^
    3ab0:	03000000 	movweq	r0, #0
    3ab4:	06019423 	streq	r9, [r1], -r3, lsr #8
    3ab8:	000014a7 	andeq	r1, r0, r7, lsr #9
    3abc:	00487d02 	subeq	r7, r8, r2, lsl #26
    3ac0:	23030000 	movwcs	r0, #12288	; 0x3000
    3ac4:	61060198 			; <UNDEFINED> instruction: 0x61060198
    3ac8:	02000013 	andeq	r0, r0, #19
    3acc:	0000487e 	andeq	r4, r0, lr, ror r8
    3ad0:	9c230300 	stcls	3, cr0, [r3], #-0
    3ad4:	04020001 	streq	r0, [r2], #-1
    3ad8:	00007307 	andeq	r7, r0, r7, lsl #6
    3adc:	db010800 	blle	45ae4 <__bss_end+0x32998>
    3ae0:	01000014 	tsteq	r0, r4, lsl r0
    3ae4:	0de00189 	stfeqe	f0, [r0, #548]!	; 0x224
    3ae8:	0eec0001 	cdpeq	0, 14, cr0, cr12, cr1, {0}
    3aec:	7d020001 	stcvc	0, cr0, [r2, #-4]
    3af0:	0002d900 	andeq	sp, r2, r0, lsl #18
    3af4:	145a0900 	ldrbne	r0, [sl], #-2304	; 0x900
    3af8:	89010000 	stmdbhi	r1, {}	; <UNPREDICTABLE>
    3afc:	000002d9 	ldrdeq	r0, [r0], -r9
    3b00:	0a005001 	beq	17b0c <__bss_end+0x49c0>
    3b04:	00006804 	andeq	r6, r0, r4, lsl #16
    3b08:	27010b00 	strcs	r0, [r1, -r0, lsl #22]
    3b0c:	01000014 	tsteq	r0, r4, lsl r0
    3b10:	ec010116 	stfs	f0, [r1], {22}
    3b14:	c000010e 	andgt	r0, r0, lr, lsl #2
    3b18:	0200010f 	andeq	r0, r0, #-1073741821	; 0xc0000003
    3b1c:	0307007d 	movweq	r0, #28797	; 0x707d
    3b20:	5a0c0000 	bpl	303b28 <__bss_end+0x2f09dc>
    3b24:	01000014 	tsteq	r0, r4, lsl r0
    3b28:	02d90116 	sbcseq	r0, r9, #-2147483643	; 0x80000005
    3b2c:	50010000 	andpl	r0, r1, r0
    3b30:	0e010b00 	vmlaeq.f64	d0, d1, d0
    3b34:	01000014 	tsteq	r0, r4, lsl r0
    3b38:	c0010178 	andgt	r0, r1, r8, ror r1
    3b3c:	d800010f 	stmdale	r0, {r0, r1, r2, r3, r8}
    3b40:	0200010f 	andeq	r0, r0, #-1073741821	; 0xc0000003
    3b44:	0331007d 	teqeq	r1, #125	; 0x7d
    3b48:	760d0000 	strvc	r0, [sp], -r0
    3b4c:	01006c61 	tsteq	r0, r1, ror #24
    3b50:	0048017b 	subeq	r0, r8, fp, ror r1
    3b54:	06490000 	strbeq	r0, [r9], -r0
    3b58:	0b000000 	bleq	3b60 <__resume1_start+0x3b60>
    3b5c:	00137501 	andseq	r7, r3, r1, lsl #10
    3b60:	01860100 	orreq	r0, r6, r0, lsl #2
    3b64:	010fd801 	tsteq	pc, r1, lsl #16
    3b68:	01108000 	tsteq	r0, r0
    3b6c:	007d0200 	rsbseq	r0, sp, r0, lsl #4
    3b70:	00000357 	andeq	r0, r0, r7, asr r3
    3b74:	00145a0e 	andseq	r5, r4, lr, lsl #20
    3b78:	01880100 	orreq	r0, r8, r0, lsl #2
    3b7c:	000002d9 	ldrdeq	r0, [r0], -r9
    3b80:	dd010f00 	stcle	15, cr0, [r1, #-0]
    3b84:	01000014 	tsteq	r0, r4, lsl r0
    3b88:	800101e5 	andhi	r0, r1, r5, ror #3
    3b8c:	8c000110 	stfhis	f0, [r0], {16}
    3b90:	02000110 	andeq	r0, r0, #4
    3b94:	010f007d 	tsteq	pc, sp, ror r0	; <UNPREDICTABLE>
    3b98:	00001429 	andeq	r1, r0, r9, lsr #8
    3b9c:	0101eb01 	tsteq	r1, r1, lsl #22
    3ba0:	0001108c 	andeq	r1, r1, ip, lsl #1
    3ba4:	00011098 	muleq	r1, r8, r0
    3ba8:	0f007d02 	svceq	0x00007d02
    3bac:	0013e701 	andseq	lr, r3, r1, lsl #14
    3bb0:	01f00100 	mvnseq	r0, r0, lsl #2
    3bb4:	01109801 	tsteq	r0, r1, lsl #16
    3bb8:	0110ac00 	tsteq	r0, r0, lsl #24
    3bbc:	007d0200 	rsbseq	r0, sp, r0, lsl #4
    3bc0:	149d010b 	ldrne	r0, [sp], #267	; 0x10b
    3bc4:	f6010000 			; <UNDEFINED> instruction: 0xf6010000
    3bc8:	10ac0101 	adcne	r0, ip, r1, lsl #2
    3bcc:	10bc0001 	adcsne	r0, ip, r1
    3bd0:	7d020001 	stcvc	0, cr0, [r2, #-4]
    3bd4:	0003c000 	andeq	ip, r3, r0
    3bd8:	74740d00 	ldrbtvc	r0, [r4], #-3328	; 0xd00
    3bdc:	f8010062 			; <UNDEFINED> instruction: 0xf8010062
    3be0:	00004801 	andeq	r4, r0, r1, lsl #16
    3be4:	00066c00 	andeq	r6, r6, r0, lsl #24
    3be8:	75100000 	ldrvc	r0, [r0, #-0]
    3bec:	01000014 	tsteq	r0, r4, lsl r0
    3bf0:	0000681f 	andeq	r6, r0, pc, lsl r8
    3bf4:	a0030500 	andge	r0, r3, r0, lsl #10
    3bf8:	1100012d 	tstne	r0, sp, lsr #2
    3bfc:	00001547 	andeq	r1, r0, r7, asr #10
    3c00:	03dc2101 	bicseq	r2, ip, #1073741824	; 0x40000000
    3c04:	68120000 	ldmdavs	r2, {}	; <UNPREDICTABLE>
    3c08:	13000000 	movwne	r0, #0
    3c0c:	000002ac 	andeq	r0, r0, ip, lsr #5
    3c10:	000003f1 	strdeq	r0, [r0], -r1
    3c14:	00005314 	andeq	r5, r0, r4, lsl r3
    3c18:	15000100 	strne	r0, [r0, #-256]	; 0x100
    3c1c:	000015ba 			; <UNDEFINED> instruction: 0x000015ba
    3c20:	03e10f01 	mvneq	r0, #4
    3c24:	05010000 	streq	r0, [r1, #-0]
    3c28:	01312c03 	teqeq	r1, r3, lsl #24
    3c2c:	15231500 	strne	r1, [r3, #-1280]!	; 0x500
    3c30:	10010000 	andne	r0, r1, r0
    3c34:	000002ac 	andeq	r0, r0, ip, lsr #5
    3c38:	28030501 	stmdacs	r3, {r0, r8, sl}
    3c3c:	15000131 	strne	r0, [r0, #-305]	; 0x131
    3c40:	0000150d 	andeq	r1, r0, sp, lsl #10
    3c44:	03e11101 	mvneq	r1, #1073741824	; 0x40000000
    3c48:	05010000 	streq	r0, [r1, #-0]
    3c4c:	01303c03 	teqeq	r0, r3, lsl #24
    3c50:	13ff1500 	mvnsne	r1, #0
    3c54:	12010000 	andne	r0, r1, #0
    3c58:	000002ac 	andeq	r0, r0, ip, lsr #5
    3c5c:	40030501 	andmi	r0, r3, r1, lsl #10
    3c60:	13000131 	movwne	r0, #305	; 0x131
    3c64:	000002ac 	andeq	r0, r0, ip, lsr #5
    3c68:	00000449 	andeq	r0, r0, r9, asr #8
    3c6c:	00005314 	andeq	r5, r0, r4, lsl r3
    3c70:	15000600 	strne	r0, [r0, #-1536]	; 0x600
    3c74:	000013bb 			; <UNDEFINED> instruction: 0x000013bb
    3c78:	04391301 	ldrteq	r1, [r9], #-769	; 0x301
    3c7c:	05010000 	streq	r0, [r1, #-0]
    3c80:	01310c03 	teqeq	r1, r3, lsl #24
    3c84:	14461500 	strbne	r1, [r6], #-1280	; 0x500
    3c88:	14010000 	strne	r0, [r1], #-0
    3c8c:	000002ac 	andeq	r0, r0, ip, lsr #5
    3c90:	44030501 	strmi	r0, [r3], #-1281	; 0x501
    3c94:	15000130 	strne	r0, [r0, #-304]	; 0x130
    3c98:	0000158c 	andeq	r1, r0, ip, lsl #11
    3c9c:	03e11501 	mvneq	r1, #4194304	; 0x400000
    3ca0:	05010000 	streq	r0, [r1, #-0]
    3ca4:	01305003 	teqeq	r0, r3
    3ca8:	13921500 	orrsne	r1, r2, #0
    3cac:	16010000 	strne	r0, [r1], -r0
    3cb0:	000002ac 	andeq	r0, r0, ip, lsr #5
    3cb4:	34030501 	strcc	r0, [r3], #-1281	; 0x501
    3cb8:	15000131 	strne	r0, [r0, #-305]	; 0x131
    3cbc:	000013d1 	ldrdeq	r1, [r0], -r1	; <UNPREDICTABLE>
    3cc0:	03e11701 	mvneq	r1, #262144	; 0x40000
    3cc4:	05010000 	streq	r0, [r1, #-0]
    3cc8:	01303403 	teqeq	r0, r3, lsl #8
    3ccc:	145f1500 	ldrbne	r1, [pc], #-1280	; 3cd4 <__resume1_start+0x3cd4>
    3cd0:	18010000 	stmdane	r1, {}	; <UNPREDICTABLE>
    3cd4:	000002ac 	andeq	r0, r0, ip, lsr #5
    3cd8:	4c030501 	cfstr32mi	mvfx0, [r3], {1}
    3cdc:	15000130 	strne	r0, [r0, #-304]	; 0x130
    3ce0:	000014f7 	strdeq	r1, [r0], -r7
    3ce4:	03e11901 	mvneq	r1, #16384	; 0x4000
    3ce8:	05010000 	streq	r0, [r1, #-0]
    3cec:	01314403 	teqeq	r1, r3, lsl #8
    3cf0:	157d1500 	ldrbne	r1, [sp, #-1280]!	; 0x500
    3cf4:	1a010000 	bne	43cfc <__bss_end+0x30bb0>
    3cf8:	000002ac 	andeq	r0, r0, ip, lsr #5
    3cfc:	48030501 	stmdami	r3, {r0, r8, sl}
    3d00:	15000130 	strne	r0, [r0, #-304]	; 0x130
    3d04:	000015d0 	ldrdeq	r1, [r0], -r0
    3d08:	03e11b01 	mvneq	r1, #1024	; 0x400
    3d0c:	05010000 	streq	r0, [r1, #-0]
    3d10:	01313803 	teqeq	r1, r3, lsl #16
    3d14:	13a11500 			; <UNDEFINED> instruction: 0x13a11500
    3d18:	1c010000 	stcne	0, cr0, [r1], {-0}
    3d1c:	000002ac 	andeq	r0, r0, ip, lsr #5
    3d20:	58030501 	stmdapl	r3, {r0, r8, sl}
    3d24:	13000130 	movwne	r0, #304	; 0x130
    3d28:	000002ac 	andeq	r0, r0, ip, lsr #5
    3d2c:	0000050d 	andeq	r0, r0, sp, lsl #10
    3d30:	00005314 	andeq	r5, r0, r4, lsl r3
    3d34:	15002b00 	strne	r2, [r0, #-2816]	; 0xb00
    3d38:	000015a2 	andeq	r1, r0, r2, lsr #11
    3d3c:	04fd1d01 	ldrbteq	r1, [sp], #3329	; 0xd01
    3d40:	05010000 	streq	r0, [r1, #-0]
    3d44:	01305c03 	teqeq	r0, r3, lsl #24
    3d48:	2aaa0000 	bcs	fea83d50 <__bss_end+0xfea70c04>
    3d4c:	00020000 	andeq	r0, r2, r0
    3d50:	000008d3 	ldrdeq	r0, [r0], -r3
    3d54:	011a0104 	tsteq	sl, r4, lsl #2
    3d58:	e7010000 	str	r0, [r1, -r0]
    3d5c:	35000016 	strcc	r0, [r0, #-22]
    3d60:	bc000000 	stclt	0, cr0, [r0], {-0}
    3d64:	f8000110 			; <UNDEFINED> instruction: 0xf8000110
    3d68:	5b000114 	blpl	41c0 <__resume1_start+0x41c0>
    3d6c:	02000009 	andeq	r0, r0, #9
    3d70:	00e00601 	rsceq	r0, r0, r1, lsl #12
    3d74:	01020000 	mrseq	r0, (UNDEF: 2)
    3d78:	0000de08 	andeq	sp, r0, r8, lsl #28
    3d7c:	05020200 	streq	r0, [r2, #-512]	; 0x200
    3d80:	0000014e 	andeq	r0, r0, lr, asr #2
    3d84:	07070202 	streq	r0, [r7, -r2, lsl #4]
    3d88:	03000001 	movweq	r0, #1
    3d8c:	00001201 	andeq	r1, r0, r1, lsl #4
    3d90:	004c1202 	subeq	r1, ip, r2, lsl #4
    3d94:	04040000 	streq	r0, [r4], #-0
    3d98:	746e6905 	strbtvc	r6, [lr], #-2309	; 0x905
    3d9c:	08ad0300 	stmiaeq	sp!, {r8, r9}
    3da0:	13020000 	movwne	r0, #8192	; 0x2000
    3da4:	0000005e 	andeq	r0, r0, lr, asr r0
    3da8:	78070402 	stmdavc	r7, {r1, sl}
    3dac:	02000000 	andeq	r0, r0, #0
    3db0:	00000508 	andeq	r0, r0, r8, lsl #10
    3db4:	08020000 	stmdaeq	r2, {}	; <UNPREDICTABLE>
    3db8:	00006e07 	andeq	r6, r0, r7, lsl #28
    3dbc:	03040500 	movweq	r0, #17664	; 0x4500
    3dc0:	00010491 	muleq	r1, r1, r4
    3dc4:	03450600 	movteq	r0, #22016	; 0x5600
    3dc8:	93030000 	movwls	r0, #12288	; 0x3000
    3dcc:	00000053 	andeq	r0, r0, r3, asr r0
    3dd0:	021e0204 	andseq	r0, lr, #1073741824	; 0x40000000
    3dd4:	53060023 	movwpl	r0, #24611	; 0x6023
    3dd8:	0300000e 	movweq	r0, #14
    3ddc:	00005394 	muleq	r0, r4, r3
    3de0:	18060400 	stmdane	r6, {sl}
    3de4:	06002302 	streq	r2, [r0], -r2, lsl #6
    3de8:	00000dab 	andeq	r0, r0, fp, lsr #27
    3dec:	00539503 	subseq	r9, r3, r3, lsl #10
    3df0:	08040000 	stmdaeq	r4, {}	; <UNPREDICTABLE>
    3df4:	00230210 	eoreq	r0, r3, r0, lsl r2
    3df8:	000c8f06 	andeq	r8, ip, r6, lsl #30
    3dfc:	53960300 	orrspl	r0, r6, #0
    3e00:	04000000 	streq	r0, [r0], #-0
    3e04:	23020f01 	movwcs	r0, #12033	; 0x2f01
    3e08:	0e580600 	cdpeq	6, 5, cr0, cr8, cr0, {0}
    3e0c:	97030000 	strls	r0, [r3, -r0]
    3e10:	00000053 	andeq	r0, r0, r3, asr r0
    3e14:	02080704 	andeq	r0, r8, #1048576	; 0x100000
    3e18:	f8060023 			; <UNDEFINED> instruction: 0xf8060023
    3e1c:	03000007 	movweq	r0, #7
    3e20:	00005398 	muleq	r0, r8, r3
    3e24:	05030400 	streq	r0, [r3, #-1024]	; 0x400
    3e28:	06002302 	streq	r2, [r0], -r2, lsl #6
    3e2c:	00000e5d 	andeq	r0, r0, sp, asr lr
    3e30:	00539903 	subseq	r9, r3, r3, lsl #18
    3e34:	04040000 	streq	r0, [r4], #-0
    3e38:	00230201 	eoreq	r0, r3, r1, lsl #4
    3e3c:	000d1c06 	andeq	r1, sp, r6, lsl #24
    3e40:	539a0300 	orrspl	r0, sl, #0
    3e44:	04000000 	streq	r0, [r0], #-0
    3e48:	23020001 	movwcs	r0, #8193	; 0x2001
    3e4c:	04070000 	streq	r0, [r7], #-0
    3e50:	01238e03 	teqeq	r3, r3, lsl #28
    3e54:	d3080000 	movwle	r0, #32768	; 0x8000
    3e58:	03000002 	movweq	r0, #2
    3e5c:	00005390 	muleq	r0, r0, r3
    3e60:	092a0800 	stmdbeq	sl!, {fp}
    3e64:	9b030000 	blls	c3e6c <__bss_end+0xb0d20>
    3e68:	00000073 	andeq	r0, r0, r3, ror r0
    3e6c:	053f0300 	ldreq	r0, [pc, #-768]!	; 3b74 <__resume1_start+0x3b74>
    3e70:	9c030000 	stcls	0, cr0, [r3], {-0}
    3e74:	00000104 	andeq	r0, r0, r4, lsl #2
    3e78:	a1030405 	tstge	r3, r5, lsl #8
    3e7c:	000001bf 			; <UNDEFINED> instruction: 0x000001bf
    3e80:	00034506 	andeq	r4, r3, r6, lsl #10
    3e84:	53a30300 			; <UNDEFINED> instruction: 0x53a30300
    3e88:	04000000 	streq	r0, [r0], #-0
    3e8c:	23021e02 	movwcs	r1, #11778	; 0x2e02
    3e90:	0e530600 	cdpeq	6, 5, cr0, cr3, cr0, {0}
    3e94:	a4030000 	strge	r0, [r3], #-0
    3e98:	00000053 	andeq	r0, r0, r3, asr r0
    3e9c:	02180604 	andseq	r0, r8, #4194304	; 0x400000
    3ea0:	ab060023 	blge	183f34 <__bss_end+0x170de8>
    3ea4:	0300000d 	movweq	r0, #13
    3ea8:	000053a5 	andeq	r5, r0, r5, lsr #7
    3eac:	10080400 	andne	r0, r8, r0, lsl #8
    3eb0:	06002302 	streq	r2, [r0], -r2, lsl #6
    3eb4:	00000c8f 	andeq	r0, r0, pc, lsl #25
    3eb8:	0053a603 	subseq	sl, r3, r3, lsl #12
    3ebc:	01040000 	mrseq	r0, (UNDEF: 4)
    3ec0:	0023020f 	eoreq	r0, r3, pc, lsl #4
    3ec4:	000e5806 	andeq	r5, lr, r6, lsl #16
    3ec8:	53a70300 			; <UNDEFINED> instruction: 0x53a70300
    3ecc:	04000000 	streq	r0, [r0], #-0
    3ed0:	23020807 	movwcs	r0, #10247	; 0x2807
    3ed4:	07f80600 	ldrbeq	r0, [r8, r0, lsl #12]!
    3ed8:	a8030000 	stmdage	r3, {}	; <UNPREDICTABLE>
    3edc:	00000053 	andeq	r0, r0, r3, asr r0
    3ee0:	02050304 	andeq	r0, r5, #268435456	; 0x10000000
    3ee4:	5d060023 	stcpl	0, cr0, [r6, #-140]	; 0xffffff74
    3ee8:	0300000e 	movweq	r0, #14
    3eec:	000053a9 	andeq	r5, r0, r9, lsr #7
    3ef0:	01040400 	tsteq	r4, r0, lsl #8
    3ef4:	06002302 	streq	r2, [r0], -r2, lsl #6
    3ef8:	00000d1c 	andeq	r0, r0, ip, lsl sp
    3efc:	0053aa03 	subseq	sl, r3, r3, lsl #20
    3f00:	01040000 	mrseq	r0, (UNDEF: 4)
    3f04:	00230200 	eoreq	r0, r3, r0, lsl #4
    3f08:	03040700 	movweq	r0, #18176	; 0x4700
    3f0c:	0001de9e 	muleq	r1, lr, lr
    3f10:	02d30800 	sbcseq	r0, r3, #0
    3f14:	a0030000 	andge	r0, r3, r0
    3f18:	00000053 	andeq	r0, r0, r3, asr r0
    3f1c:	00092a08 	andeq	r2, r9, r8, lsl #20
    3f20:	2eab0300 	cdpcs	3, 10, cr0, cr11, cr0, {0}
    3f24:	00000001 	andeq	r0, r0, r1
    3f28:	00037b03 	andeq	r7, r3, r3, lsl #22
    3f2c:	bfac0300 	svclt	0x00ac0300
    3f30:	05000001 	streq	r0, [r0, #-1]
    3f34:	9cb10304 	ldcls	3, cr0, [r1], #16
    3f38:	06000002 	streq	r0, [r0], -r2
    3f3c:	00000353 	andeq	r0, r0, r3, asr r3
    3f40:	0053b303 	subseq	fp, r3, r3, lsl #6
    3f44:	06040000 	streq	r0, [r4], -r0
    3f48:	0023021a 	eoreq	r0, r3, sl, lsl r2
    3f4c:	000e5306 	andeq	r5, lr, r6, lsl #6
    3f50:	53b40300 			; <UNDEFINED> instruction: 0x53b40300
    3f54:	04000000 	streq	r0, [r0], #-0
    3f58:	23021802 	movwcs	r1, #10242	; 0x2802
    3f5c:	0dab0600 	stceq	6, cr0, [fp]
    3f60:	b5030000 	strlt	r0, [r3, #-0]
    3f64:	00000053 	andeq	r0, r0, r3, asr r0
    3f68:	02100804 	andseq	r0, r0, #262144	; 0x40000
    3f6c:	f8060023 			; <UNDEFINED> instruction: 0xf8060023
    3f70:	0300000c 	movweq	r0, #12
    3f74:	000053b6 			; <UNDEFINED> instruction: 0x000053b6
    3f78:	0f010400 	svceq	0x00010400
    3f7c:	06002302 	streq	r2, [r0], -r2, lsl #6
    3f80:	00000e58 	andeq	r0, r0, r8, asr lr
    3f84:	0053b703 	subseq	fp, r3, r3, lsl #14
    3f88:	01040000 	mrseq	r0, (UNDEF: 4)
    3f8c:	0023020e 	eoreq	r0, r3, lr, lsl #4
    3f90:	000d0106 	andeq	r0, sp, r6, lsl #2
    3f94:	53b80300 			; <UNDEFINED> instruction: 0x53b80300
    3f98:	04000000 	streq	r0, [r0], #-0
    3f9c:	23020d01 	movwcs	r0, #11521	; 0x2d01
    3fa0:	0e5d0600 	cdpeq	6, 5, cr0, cr13, cr0, {0}
    3fa4:	b9030000 	stmdblt	r3, {}	; <UNPREDICTABLE>
    3fa8:	00000053 	andeq	r0, r0, r3, asr r0
    3fac:	02080504 	andeq	r0, r8, #16777216	; 0x1000000
    3fb0:	b5060023 	strlt	r0, [r6, #-35]	; 0x23
    3fb4:	03000003 	movweq	r0, #3
    3fb8:	000053ba 			; <UNDEFINED> instruction: 0x000053ba
    3fbc:	07010400 	streq	r0, [r1, -r0, lsl #8]
    3fc0:	06002302 	streq	r2, [r0], -r2, lsl #6
    3fc4:	00000e62 	andeq	r0, r0, r2, ror #28
    3fc8:	0053bb03 	subseq	fp, r3, r3, lsl #22
    3fcc:	06040000 	streq	r0, [r4], -r0
    3fd0:	00230201 	eoreq	r0, r3, r1, lsl #4
    3fd4:	000d1c06 	andeq	r1, sp, r6, lsl #24
    3fd8:	53bc0300 			; <UNDEFINED> instruction: 0x53bc0300
    3fdc:	04000000 	streq	r0, [r0], #-0
    3fe0:	23020001 	movwcs	r0, #8193	; 0x2001
    3fe4:	04070000 	streq	r0, [r7], #-0
    3fe8:	02bbae03 	adcseq	sl, fp, #48	; 0x30
    3fec:	d3080000 	movwle	r0, #32768	; 0x8000
    3ff0:	03000002 	movweq	r0, #2
    3ff4:	000053b0 			; <UNDEFINED> instruction: 0x000053b0
    3ff8:	092a0800 	stmdbeq	sl!, {fp}
    3ffc:	bd030000 	stclt	0, cr0, [r3, #-0]
    4000:	000001e9 	andeq	r0, r0, r9, ror #3
    4004:	09c70300 	stmibeq	r7, {r8, r9}^
    4008:	be030000 	cdplt	0, 0, cr0, cr3, cr0, {0}
    400c:	0000029c 	muleq	r0, ip, r2
    4010:	c3030405 	movwgt	r0, #13317	; 0x3405
    4014:	00000368 	andeq	r0, r0, r8, ror #6
    4018:	000e5306 	andeq	r5, lr, r6, lsl #6
    401c:	53c50300 	bicpl	r0, r5, #0
    4020:	04000000 	streq	r0, [r0], #-0
    4024:	23021808 	movwcs	r1, #10248	; 0x2808
    4028:	0dab0600 	stceq	6, cr0, [fp]
    402c:	c6030000 	strgt	r0, [r3], -r0
    4030:	00000053 	andeq	r0, r0, r3, asr r0
    4034:	02100804 	andseq	r0, r0, #262144	; 0x40000
    4038:	f8060023 			; <UNDEFINED> instruction: 0xf8060023
    403c:	0300000c 	movweq	r0, #12
    4040:	000053c7 	andeq	r5, r0, r7, asr #7
    4044:	0f010400 	svceq	0x00010400
    4048:	06002302 	streq	r2, [r0], -r2, lsl #6
    404c:	00000e58 	andeq	r0, r0, r8, asr lr
    4050:	0053c803 	subseq	ip, r3, r3, lsl #16
    4054:	01040000 	mrseq	r0, (UNDEF: 4)
    4058:	0023020e 	eoreq	r0, r3, lr, lsl #4
    405c:	000d0106 	andeq	r0, sp, r6, lsl #2
    4060:	53c90300 	bicpl	r0, r9, #0
    4064:	04000000 	streq	r0, [r0], #-0
    4068:	23020d01 	movwcs	r0, #11521	; 0x2d01
    406c:	0e5d0600 	cdpeq	6, 5, cr0, cr13, cr0, {0}
    4070:	ca030000 	bgt	c4078 <__bss_end+0xb0f2c>
    4074:	00000053 	andeq	r0, r0, r3, asr r0
    4078:	02080504 	andeq	r0, r8, #16777216	; 0x1000000
    407c:	b5060023 	strlt	r0, [r6, #-35]	; 0x23
    4080:	03000003 	movweq	r0, #3
    4084:	000053cb 	andeq	r5, r0, fp, asr #7
    4088:	07010400 	streq	r0, [r1, -r0, lsl #8]
    408c:	06002302 	streq	r2, [r0], -r2, lsl #6
    4090:	00000e62 	andeq	r0, r0, r2, ror #28
    4094:	0053cc03 	subseq	ip, r3, r3, lsl #24
    4098:	06040000 	streq	r0, [r4], -r0
    409c:	00230201 	eoreq	r0, r3, r1, lsl #4
    40a0:	000d1c06 	andeq	r1, sp, r6, lsl #24
    40a4:	53cd0300 	bicpl	r0, sp, #0
    40a8:	04000000 	streq	r0, [r0], #-0
    40ac:	23020001 	movwcs	r0, #8193	; 0x2001
    40b0:	04070000 	streq	r0, [r7], #-0
    40b4:	0387c003 	orreq	ip, r7, #3
    40b8:	d3080000 	movwle	r0, #32768	; 0x8000
    40bc:	03000002 	movweq	r0, #2
    40c0:	000053c2 	andeq	r5, r0, r2, asr #7
    40c4:	092a0800 	stmdbeq	sl!, {fp}
    40c8:	ce030000 	cdpgt	0, 0, cr0, cr3, cr0, {0}
    40cc:	000002c6 	andeq	r0, r0, r6, asr #5
    40d0:	0b450300 	bleq	1144cd8 <__bss_end+0x1131b8c>
    40d4:	cf030000 	svcgt	0x00030000
    40d8:	00000368 	andeq	r0, r0, r8, ror #6
    40dc:	d4030405 	strle	r0, [r3], #-1029	; 0x405
    40e0:	00000434 	andeq	r0, r0, r4, lsr r4
    40e4:	000e5306 	andeq	r5, lr, r6, lsl #6
    40e8:	53d60300 	bicspl	r0, r6, #0
    40ec:	04000000 	streq	r0, [r0], #-0
    40f0:	23021808 	movwcs	r1, #10248	; 0x2808
    40f4:	0dab0600 	stceq	6, cr0, [fp]
    40f8:	d7030000 	strle	r0, [r3, -r0]
    40fc:	00000053 	andeq	r0, r0, r3, asr r0
    4100:	02100804 	andseq	r0, r0, #262144	; 0x40000
    4104:	f8060023 			; <UNDEFINED> instruction: 0xf8060023
    4108:	0300000c 	movweq	r0, #12
    410c:	000053d8 	ldrdeq	r5, [r0], -r8
    4110:	0f010400 	svceq	0x00010400
    4114:	06002302 	streq	r2, [r0], -r2, lsl #6
    4118:	00000e58 	andeq	r0, r0, r8, asr lr
    411c:	0053d903 	subseq	sp, r3, r3, lsl #18
    4120:	01040000 	mrseq	r0, (UNDEF: 4)
    4124:	0023020e 	eoreq	r0, r3, lr, lsl #4
    4128:	000d0106 	andeq	r0, sp, r6, lsl #2
    412c:	53da0300 	bicspl	r0, sl, #0
    4130:	04000000 	streq	r0, [r0], #-0
    4134:	23020d01 	movwcs	r0, #11521	; 0x2d01
    4138:	0e5d0600 	cdpeq	6, 5, cr0, cr13, cr0, {0}
    413c:	db030000 	blle	c4144 <__bss_end+0xb0ff8>
    4140:	00000053 	andeq	r0, r0, r3, asr r0
    4144:	02080504 	andeq	r0, r8, #16777216	; 0x1000000
    4148:	b5060023 	strlt	r0, [r6, #-35]	; 0x23
    414c:	03000003 	movweq	r0, #3
    4150:	000053dc 	ldrdeq	r5, [r0], -ip
    4154:	07010400 	streq	r0, [r1, -r0, lsl #8]
    4158:	06002302 	streq	r2, [r0], -r2, lsl #6
    415c:	00000e62 	andeq	r0, r0, r2, ror #28
    4160:	0053dd03 	subseq	sp, r3, r3, lsl #26
    4164:	06040000 	streq	r0, [r4], -r0
    4168:	00230201 	eoreq	r0, r3, r1, lsl #4
    416c:	000d1c06 	andeq	r1, sp, r6, lsl #24
    4170:	53de0300 	bicspl	r0, lr, #0
    4174:	04000000 	streq	r0, [r0], #-0
    4178:	23020001 	movwcs	r0, #8193	; 0x2001
    417c:	04070000 	streq	r0, [r7], #-0
    4180:	0453d103 	ldrbeq	sp, [r3], #-259	; 0x103
    4184:	d3080000 	movwle	r0, #32768	; 0x8000
    4188:	03000002 	movweq	r0, #2
    418c:	000053d3 	ldrdeq	r5, [r0], -r3
    4190:	092a0800 	stmdbeq	sl!, {fp}
    4194:	df030000 	svcle	0x00030000
    4198:	00000392 	muleq	r0, r2, r3
    419c:	065d0300 	ldrbeq	r0, [sp], -r0, lsl #6
    41a0:	e0030000 	and	r0, r3, r0
    41a4:	00000434 	andeq	r0, r0, r4, lsr r4
    41a8:	e5030405 	str	r0, [r3, #-1029]	; 0x405
    41ac:	00000511 	andeq	r0, r0, r1, lsl r5
    41b0:	000e5306 	andeq	r5, lr, r6, lsl #6
    41b4:	53e70300 	mvnpl	r0, #0
    41b8:	04000000 	streq	r0, [r0], #-0
    41bc:	23021808 	movwcs	r1, #10248	; 0x2808
    41c0:	0dab0600 	stceq	6, cr0, [fp]
    41c4:	e8030000 	stmda	r3, {}	; <UNPREDICTABLE>
    41c8:	00000053 	andeq	r0, r0, r3, asr r0
    41cc:	02100804 	andseq	r0, r0, #262144	; 0x40000
    41d0:	f8060023 			; <UNDEFINED> instruction: 0xf8060023
    41d4:	0300000c 	movweq	r0, #12
    41d8:	000053e9 	andeq	r5, r0, r9, ror #7
    41dc:	0f010400 	svceq	0x00010400
    41e0:	06002302 	streq	r2, [r0], -r2, lsl #6
    41e4:	00000e58 	andeq	r0, r0, r8, asr lr
    41e8:	0053ea03 	subseq	lr, r3, r3, lsl #20
    41ec:	01040000 	mrseq	r0, (UNDEF: 4)
    41f0:	0023020e 	eoreq	r0, r3, lr, lsl #4
    41f4:	000d0106 	andeq	r0, sp, r6, lsl #2
    41f8:	53eb0300 	mvnpl	r0, #0
    41fc:	04000000 	streq	r0, [r0], #-0
    4200:	23020d01 	movwcs	r0, #11521	; 0x2d01
    4204:	0e5d0600 	cdpeq	6, 5, cr0, cr13, cr0, {0}
    4208:	ec030000 	stc	0, cr0, [r3], {-0}
    420c:	00000053 	andeq	r0, r0, r3, asr r0
    4210:	02080504 	andeq	r0, r8, #16777216	; 0x1000000
    4214:	b5060023 	strlt	r0, [r6, #-35]	; 0x23
    4218:	03000003 	movweq	r0, #3
    421c:	000053ed 	andeq	r5, r0, sp, ror #7
    4220:	07010400 	streq	r0, [r1, -r0, lsl #8]
    4224:	06002302 	streq	r2, [r0], -r2, lsl #6
    4228:	00000e62 	andeq	r0, r0, r2, ror #28
    422c:	0053ee03 	subseq	lr, r3, r3, lsl #28
    4230:	05040000 	streq	r0, [r4, #-0]
    4234:	00230202 	eoreq	r0, r3, r2, lsl #4
    4238:	00083606 	andeq	r3, r8, r6, lsl #12
    423c:	53ef0300 	mvnpl	r0, #0
    4240:	04000000 	streq	r0, [r0], #-0
    4244:	23020101 	movwcs	r0, #8449	; 0x2101
    4248:	0d1c0600 	ldceq	6, cr0, [ip, #-0]
    424c:	f0030000 			; <UNDEFINED> instruction: 0xf0030000
    4250:	00000053 	andeq	r0, r0, r3, asr r0
    4254:	02000104 	andeq	r0, r0, #1
    4258:	07000023 	streq	r0, [r0, -r3, lsr #32]
    425c:	30e20304 	rsccc	r0, r2, r4, lsl #6
    4260:	08000005 	stmdaeq	r0, {r0, r2}
    4264:	000002d3 	ldrdeq	r0, [r0], -r3
    4268:	0053e403 	subseq	lr, r3, r3, lsl #8
    426c:	2a080000 	bcs	204274 <__bss_end+0x1f1128>
    4270:	03000009 	movweq	r0, #9
    4274:	00045ef1 	strdeq	r5, [r4], -r1
    4278:	6d030000 	stcvs	0, cr0, [r3, #-0]
    427c:	0300000f 	movweq	r0, #15
    4280:	000511f2 	strdeq	r1, [r5], -r2
    4284:	03040500 	movweq	r0, #17664	; 0x4500
    4288:	0005dff7 	strdeq	sp, [r5], -r7
    428c:	0e530600 	cdpeq	6, 5, cr0, cr3, cr0, {0}
    4290:	f9030000 			; <UNDEFINED> instruction: 0xf9030000
    4294:	00000053 	andeq	r0, r0, r3, asr r0
    4298:	02180804 	andseq	r0, r8, #262144	; 0x40000
    429c:	ab060023 	blge	184330 <__bss_end+0x1711e4>
    42a0:	0300000d 	movweq	r0, #13
    42a4:	000053fa 	strdeq	r5, [r0], -sl
    42a8:	10080400 	andne	r0, r8, r0, lsl #8
    42ac:	06002302 	streq	r2, [r0], -r2, lsl #6
    42b0:	000003fd 	strdeq	r0, [r0], -sp
    42b4:	0053fb03 	subseq	pc, r3, r3, lsl #22
    42b8:	01040000 	mrseq	r0, (UNDEF: 4)
    42bc:	0023020f 	eoreq	r0, r3, pc, lsl #4
    42c0:	000e5806 	andeq	r5, lr, r6, lsl #16
    42c4:	53fc0300 	mvnspl	r0, #0
    42c8:	04000000 	streq	r0, [r0], #-0
    42cc:	23020e01 	movwcs	r0, #11777	; 0x2e01
    42d0:	0d010600 	stceq	6, cr0, [r1, #-0]
    42d4:	fd030000 	stc2	0, cr0, [r3, #-0]
    42d8:	00000053 	andeq	r0, r0, r3, asr r0
    42dc:	020d0104 	andeq	r0, sp, #1
    42e0:	5d060023 	stcpl	0, cr0, [r6, #-140]	; 0xffffff74
    42e4:	0300000e 	movweq	r0, #14
    42e8:	000053fe 	strdeq	r5, [r0], -lr
    42ec:	08050400 	stmdaeq	r5, {sl}
    42f0:	06002302 	streq	r2, [r0], -r2, lsl #6
    42f4:	000003b5 			; <UNDEFINED> instruction: 0x000003b5
    42f8:	0053ff03 	subseq	pc, r3, r3, lsl #30
    42fc:	01040000 	mrseq	r0, (UNDEF: 4)
    4300:	00230207 	eoreq	r0, r3, r7, lsl #4
    4304:	000e6209 	andeq	r6, lr, r9, lsl #4
    4308:	01000300 	mrseq	r0, LR_irq
    430c:	00000053 	andeq	r0, r0, r3, asr r0
    4310:	02010604 	andeq	r0, r1, #4194304	; 0x400000
    4314:	1c090023 	stcne	0, cr0, [r9], {35}	; 0x23
    4318:	0300000d 	movweq	r0, #13
    431c:	00530101 	subseq	r0, r3, r1, lsl #2
    4320:	01040000 	mrseq	r0, (UNDEF: 4)
    4324:	00230200 	eoreq	r0, r3, r0, lsl #4
    4328:	03040700 	movweq	r0, #18176	; 0x4700
    432c:	0005fff4 	strdeq	pc, [r5], -r4
    4330:	02d30800 	sbcseq	r0, r3, #0
    4334:	f6030000 			; <UNDEFINED> instruction: 0xf6030000
    4338:	00000053 	andeq	r0, r0, r3, asr r0
    433c:	00092a0a 	andeq	r2, r9, sl, lsl #20
    4340:	01020300 	mrseq	r0, LR_svc
    4344:	0000053b 	andeq	r0, r0, fp, lsr r5
    4348:	0bc70b00 	bleq	ff1c6f50 <__bss_end+0xff1b3e04>
    434c:	03030000 	movweq	r0, #12288	; 0x3000
    4350:	0005df01 	andeq	sp, r5, r1, lsl #30
    4354:	03040c00 	movweq	r0, #19456	; 0x4c00
    4358:	06c90108 	strbeq	r0, [r9], r8, lsl #2
    435c:	8f090000 	svchi	0x00090000
    4360:	0300000c 	movweq	r0, #12
    4364:	0053010a 	subseq	r0, r3, sl, lsl #2
    4368:	02040000 	andeq	r0, r4, #0
    436c:	0023021e 	eoreq	r0, r3, lr, lsl r2
    4370:	000e5309 	andeq	r5, lr, r9, lsl #6
    4374:	010b0300 	mrseq	r0, (UNDEF: 59)
    4378:	00000053 	andeq	r0, r0, r3, asr r0
    437c:	02180604 	andseq	r0, r8, #4194304	; 0x400000
    4380:	ab090023 	blge	244414 <__bss_end+0x2312c8>
    4384:	0300000d 	movweq	r0, #13
    4388:	0053010c 	subseq	r0, r3, ip, lsl #2
    438c:	08040000 	stmdaeq	r4, {}	; <UNPREDICTABLE>
    4390:	00230210 	eoreq	r0, r3, r0, lsl r2
    4394:	0003fd09 	andeq	pc, r3, r9, lsl #26
    4398:	010d0300 	mrseq	r0, SP_mon
    439c:	00000053 	andeq	r0, r0, r3, asr r0
    43a0:	020f0104 	andeq	r0, pc, #1
    43a4:	58090023 	stmdapl	r9, {r0, r1, r5}
    43a8:	0300000e 	movweq	r0, #14
    43ac:	0053010e 	subseq	r0, r3, lr, lsl #2
    43b0:	01040000 	mrseq	r0, (UNDEF: 4)
    43b4:	0023020e 	eoreq	r0, r3, lr, lsl #4
    43b8:	000d0109 	andeq	r0, sp, r9, lsl #2
    43bc:	010f0300 	mrseq	r0, SP_hyp
    43c0:	00000053 	andeq	r0, r0, r3, asr r0
    43c4:	020d0104 	andeq	r0, sp, #1
    43c8:	5d090023 	stcpl	0, cr0, [r9, #-140]	; 0xffffff74
    43cc:	0300000e 	movweq	r0, #14
    43d0:	00530110 	subseq	r0, r3, r0, lsl r1
    43d4:	05040000 	streq	r0, [r4, #-0]
    43d8:	00230208 	eoreq	r0, r3, r8, lsl #4
    43dc:	0003b509 	andeq	fp, r3, r9, lsl #10
    43e0:	01110300 	tsteq	r1, r0, lsl #6
    43e4:	00000053 	andeq	r0, r0, r3, asr r0
    43e8:	02070104 	andeq	r0, r7, #1
    43ec:	62090023 	andvs	r0, r9, #35	; 0x23
    43f0:	0300000e 	movweq	r0, #14
    43f4:	00530112 	subseq	r0, r3, r2, lsl r1
    43f8:	06040000 	streq	r0, [r4], -r0
    43fc:	00230201 	eoreq	r0, r3, r1, lsl #4
    4400:	000d1c09 	andeq	r1, sp, r9, lsl #24
    4404:	01130300 	tsteq	r3, r0, lsl #6
    4408:	00000053 	andeq	r0, r0, r3, asr r0
    440c:	02000104 	andeq	r0, r0, #1
    4410:	0d000023 	stceq	0, cr0, [r0, #-140]	; 0xffffff74
    4414:	01050304 	tsteq	r5, r4, lsl #6
    4418:	000006eb 	andeq	r0, r0, fp, ror #13
    441c:	0002d30a 	andeq	sp, r2, sl, lsl #6
    4420:	01070300 	mrseq	r0, SP_und
    4424:	00000053 	andeq	r0, r0, r3, asr r0
    4428:	00092a0a 	andeq	r2, r9, sl, lsl #20
    442c:	01140300 	tsteq	r4, r0, lsl #6
    4430:	0000060b 	andeq	r0, r0, fp, lsl #12
    4434:	08980b00 	ldmeq	r8, {r8, r9, fp}
    4438:	15030000 	strne	r0, [r3, #-0]
    443c:	0006c901 	andeq	ip, r6, r1, lsl #18
    4440:	03040c00 	movweq	r0, #19456	; 0x4c00
    4444:	07a3011a 			; <UNDEFINED> instruction: 0x07a3011a
    4448:	53090000 	movwpl	r0, #36864	; 0x9000
    444c:	0300000e 	movweq	r0, #14
    4450:	0053011c 	subseq	r0, r3, ip, lsl r1
    4454:	08040000 	stmdaeq	r4, {}	; <UNPREDICTABLE>
    4458:	00230218 	eoreq	r0, r3, r8, lsl r2
    445c:	000dab09 	andeq	sl, sp, r9, lsl #22
    4460:	011d0300 	tsteq	sp, r0, lsl #6
    4464:	00000053 	andeq	r0, r0, r3, asr r0
    4468:	02100804 	andseq	r0, r0, #262144	; 0x40000
    446c:	f8090023 			; <UNDEFINED> instruction: 0xf8090023
    4470:	0300000c 	movweq	r0, #12
    4474:	0053011e 	subseq	r0, r3, lr, lsl r1
    4478:	01040000 	mrseq	r0, (UNDEF: 4)
    447c:	0023020f 	eoreq	r0, r3, pc, lsl #4
    4480:	000e5809 	andeq	r5, lr, r9, lsl #16
    4484:	011f0300 	tsteq	pc, r0, lsl #6
    4488:	00000053 	andeq	r0, r0, r3, asr r0
    448c:	020e0104 	andeq	r0, lr, #1
    4490:	01090023 	tsteq	r9, r3, lsr #32
    4494:	0300000d 	movweq	r0, #13
    4498:	00530120 	subseq	r0, r3, r0, lsr #2
    449c:	01040000 	mrseq	r0, (UNDEF: 4)
    44a0:	0023020d 	eoreq	r0, r3, sp, lsl #4
    44a4:	000e5d09 	andeq	r5, lr, r9, lsl #26
    44a8:	01210300 	teqeq	r1, r0, lsl #6
    44ac:	00000053 	andeq	r0, r0, r3, asr r0
    44b0:	02080504 	andeq	r0, r8, #16777216	; 0x1000000
    44b4:	b5090023 	strlt	r0, [r9, #-35]	; 0x23
    44b8:	03000003 	movweq	r0, #3
    44bc:	00530122 	subseq	r0, r3, r2, lsr #2
    44c0:	01040000 	mrseq	r0, (UNDEF: 4)
    44c4:	00230207 	eoreq	r0, r3, r7, lsl #4
    44c8:	000e6209 	andeq	r6, lr, r9, lsl #4
    44cc:	01230300 	teqeq	r3, r0, lsl #6
    44d0:	00000053 	andeq	r0, r0, r3, asr r0
    44d4:	02010604 	andeq	r0, r1, #4194304	; 0x400000
    44d8:	1c090023 	stcne	0, cr0, [r9], {35}	; 0x23
    44dc:	0300000d 	movweq	r0, #13
    44e0:	00530124 	subseq	r0, r3, r4, lsr #2
    44e4:	01040000 	mrseq	r0, (UNDEF: 4)
    44e8:	00230200 	eoreq	r0, r3, r0, lsl #4
    44ec:	03040d00 	movweq	r0, #19712	; 0x4d00
    44f0:	07c50117 	bfieq	r0, r7, #2, #4
    44f4:	d30a0000 	movwle	r0, #40960	; 0xa000
    44f8:	03000002 	movweq	r0, #2
    44fc:	00530119 	subseq	r0, r3, r9, lsl r1
    4500:	2a0a0000 	bcs	284508 <__bss_end+0x2713bc>
    4504:	03000009 	movweq	r0, #9
    4508:	06f70125 	ldrbteq	r0, [r7], r5, lsr #2
    450c:	0b000000 	bleq	4514 <__resume1_start+0x4514>
    4510:	00000289 	andeq	r0, r0, r9, lsl #5
    4514:	a3012603 	movwge	r2, #5635	; 0x1603
    4518:	0c000007 	stceq	0, cr0, [r0], {7}
    451c:	012b0304 	teqeq	fp, r4, lsl #6
    4520:	0000087d 	andeq	r0, r0, sp, ror r8
    4524:	000e5309 	andeq	r5, lr, r9, lsl #6
    4528:	012d0300 	teqeq	sp, r0, lsl #6
    452c:	00000053 	andeq	r0, r0, r3, asr r0
    4530:	02180804 	andseq	r0, r8, #262144	; 0x40000
    4534:	ab090023 	blge	2445c8 <__bss_end+0x23147c>
    4538:	0300000d 	movweq	r0, #13
    453c:	0053012e 	subseq	r0, r3, lr, lsr #2
    4540:	08040000 	stmdaeq	r4, {}	; <UNPREDICTABLE>
    4544:	00230210 	eoreq	r0, r3, r0, lsl r2
    4548:	000cf809 	andeq	pc, ip, r9, lsl #16
    454c:	012f0300 	teqeq	pc, r0, lsl #6
    4550:	00000053 	andeq	r0, r0, r3, asr r0
    4554:	020f0104 	andeq	r0, pc, #1
    4558:	58090023 	stmdapl	r9, {r0, r1, r5}
    455c:	0300000e 	movweq	r0, #14
    4560:	00530130 	subseq	r0, r3, r0, lsr r1
    4564:	01040000 	mrseq	r0, (UNDEF: 4)
    4568:	0023020e 	eoreq	r0, r3, lr, lsl #4
    456c:	000d0109 	andeq	r0, sp, r9, lsl #2
    4570:	01310300 	teqeq	r1, r0, lsl #6
    4574:	00000053 	andeq	r0, r0, r3, asr r0
    4578:	020d0104 	andeq	r0, sp, #1
    457c:	5d090023 	stcpl	0, cr0, [r9, #-140]	; 0xffffff74
    4580:	0300000e 	movweq	r0, #14
    4584:	00530132 	subseq	r0, r3, r2, lsr r1
    4588:	05040000 	streq	r0, [r4, #-0]
    458c:	00230208 	eoreq	r0, r3, r8, lsl #4
    4590:	0003b509 	andeq	fp, r3, r9, lsl #10
    4594:	01330300 	teqeq	r3, r0, lsl #6
    4598:	00000053 	andeq	r0, r0, r3, asr r0
    459c:	02070104 	andeq	r0, r7, #1
    45a0:	62090023 	andvs	r0, r9, #35	; 0x23
    45a4:	0300000e 	movweq	r0, #14
    45a8:	00530134 	subseq	r0, r3, r4, lsr r1
    45ac:	06040000 	streq	r0, [r4], -r0
    45b0:	00230201 	eoreq	r0, r3, r1, lsl #4
    45b4:	000d1c09 	andeq	r1, sp, r9, lsl #24
    45b8:	01350300 	teqeq	r5, r0, lsl #6
    45bc:	00000053 	andeq	r0, r0, r3, asr r0
    45c0:	02000104 	andeq	r0, r0, #1
    45c4:	0d000023 	stceq	0, cr0, [r0, #-140]	; 0xffffff74
    45c8:	01280304 	teqeq	r8, r4, lsl #6
    45cc:	0000089f 	muleq	r0, pc, r8	; <UNPREDICTABLE>
    45d0:	0002d30a 	andeq	sp, r2, sl, lsl #6
    45d4:	012a0300 	teqeq	sl, r0, lsl #6
    45d8:	00000053 	andeq	r0, r0, r3, asr r0
    45dc:	00092a0a 	andeq	r2, r9, sl, lsl #20
    45e0:	01360300 	teqeq	r6, r0, lsl #6
    45e4:	000007d1 	ldrdeq	r0, [r0], -r1
    45e8:	0eec0b00 	vfmaeq.f64	d16, d12, d0
    45ec:	37030000 	strcc	r0, [r3, -r0]
    45f0:	00087d01 	andeq	r7, r8, r1, lsl #26
    45f4:	03040c00 	movweq	r0, #19456	; 0x4c00
    45f8:	0957013c 	ldmdbeq	r7, {r2, r3, r4, r5, r8}^
    45fc:	53090000 	movwpl	r0, #36864	; 0x9000
    4600:	0300000e 	movweq	r0, #14
    4604:	0053013e 	subseq	r0, r3, lr, lsr r1
    4608:	08040000 	stmdaeq	r4, {}	; <UNPREDICTABLE>
    460c:	00230218 	eoreq	r0, r3, r8, lsl r2
    4610:	000dab09 	andeq	sl, sp, r9, lsl #22
    4614:	013f0300 	teqeq	pc, r0, lsl #6
    4618:	00000053 	andeq	r0, r0, r3, asr r0
    461c:	02100804 	andseq	r0, r0, #262144	; 0x40000
    4620:	f8090023 			; <UNDEFINED> instruction: 0xf8090023
    4624:	0300000c 	movweq	r0, #12
    4628:	00530140 	subseq	r0, r3, r0, asr #2
    462c:	01040000 	mrseq	r0, (UNDEF: 4)
    4630:	0023020f 	eoreq	r0, r3, pc, lsl #4
    4634:	000e5809 	andeq	r5, lr, r9, lsl #16
    4638:	01410300 	mrseq	r0, (UNDEF: 113)
    463c:	00000053 	andeq	r0, r0, r3, asr r0
    4640:	020e0104 	andeq	r0, lr, #1
    4644:	01090023 	tsteq	r9, r3, lsr #32
    4648:	0300000d 	movweq	r0, #13
    464c:	00530142 	subseq	r0, r3, r2, asr #2
    4650:	01040000 	mrseq	r0, (UNDEF: 4)
    4654:	0023020d 	eoreq	r0, r3, sp, lsl #4
    4658:	000e5d09 	andeq	r5, lr, r9, lsl #26
    465c:	01430300 	mrseq	r0, (UNDEF: 115)
    4660:	00000053 	andeq	r0, r0, r3, asr r0
    4664:	02080504 	andeq	r0, r8, #16777216	; 0x1000000
    4668:	b5090023 	strlt	r0, [r9, #-35]	; 0x23
    466c:	03000003 	movweq	r0, #3
    4670:	00530144 	subseq	r0, r3, r4, asr #2
    4674:	01040000 	mrseq	r0, (UNDEF: 4)
    4678:	00230207 	eoreq	r0, r3, r7, lsl #4
    467c:	000e6209 	andeq	r6, lr, r9, lsl #4
    4680:	01450300 	mrseq	r0, (UNDEF: 117)
    4684:	00000053 	andeq	r0, r0, r3, asr r0
    4688:	02010604 	andeq	r0, r1, #4194304	; 0x400000
    468c:	1c090023 	stcne	0, cr0, [r9], {35}	; 0x23
    4690:	0300000d 	movweq	r0, #13
    4694:	00530146 	subseq	r0, r3, r6, asr #2
    4698:	01040000 	mrseq	r0, (UNDEF: 4)
    469c:	00230200 	eoreq	r0, r3, r0, lsl #4
    46a0:	03040d00 	movweq	r0, #19712	; 0x4d00
    46a4:	09790139 	ldmdbeq	r9!, {r0, r3, r4, r5, r8}^
    46a8:	d30a0000 	movwle	r0, #40960	; 0xa000
    46ac:	03000002 	movweq	r0, #2
    46b0:	0053013b 	subseq	r0, r3, fp, lsr r1
    46b4:	2a0a0000 	bcs	2846bc <__bss_end+0x271570>
    46b8:	03000009 	movweq	r0, #9
    46bc:	08ab0147 	stmiaeq	fp!, {r0, r1, r2, r6, r8}
    46c0:	0b000000 	bleq	46c8 <__resume1_start+0x46c8>
    46c4:	00000f32 	andeq	r0, r0, r2, lsr pc
    46c8:	57014803 	strpl	r4, [r1, -r3, lsl #16]
    46cc:	0c000009 	stceq	0, cr0, [r0], {9}
    46d0:	014d0304 	cmpeq	sp, r4, lsl #6
    46d4:	00000a31 	andeq	r0, r0, r1, lsr sl
    46d8:	000e5309 	andeq	r5, lr, r9, lsl #6
    46dc:	014f0300 	mrseq	r0, (UNDEF: 127)
    46e0:	00000053 	andeq	r0, r0, r3, asr r0
    46e4:	02180804 	andseq	r0, r8, #262144	; 0x40000
    46e8:	ab090023 	blge	24477c <__bss_end+0x231630>
    46ec:	0300000d 	movweq	r0, #13
    46f0:	00530150 	subseq	r0, r3, r0, asr r1
    46f4:	08040000 	stmdaeq	r4, {}	; <UNPREDICTABLE>
    46f8:	00230210 	eoreq	r0, r3, r0, lsl r2
    46fc:	000cf809 	andeq	pc, ip, r9, lsl #16
    4700:	01510300 	cmpeq	r1, r0, lsl #6
    4704:	00000053 	andeq	r0, r0, r3, asr r0
    4708:	020f0104 	andeq	r0, pc, #1
    470c:	58090023 	stmdapl	r9, {r0, r1, r5}
    4710:	0300000e 	movweq	r0, #14
    4714:	00530152 	subseq	r0, r3, r2, asr r1
    4718:	01040000 	mrseq	r0, (UNDEF: 4)
    471c:	0023020e 	eoreq	r0, r3, lr, lsl #4
    4720:	000d0109 	andeq	r0, sp, r9, lsl #2
    4724:	01530300 	cmpeq	r3, r0, lsl #6
    4728:	00000053 	andeq	r0, r0, r3, asr r0
    472c:	020d0104 	andeq	r0, sp, #1
    4730:	5d090023 	stcpl	0, cr0, [r9, #-140]	; 0xffffff74
    4734:	0300000e 	movweq	r0, #14
    4738:	00530154 	subseq	r0, r3, r4, asr r1
    473c:	05040000 	streq	r0, [r4, #-0]
    4740:	00230208 	eoreq	r0, r3, r8, lsl #4
    4744:	0003b509 	andeq	fp, r3, r9, lsl #10
    4748:	01550300 	cmpeq	r5, r0, lsl #6
    474c:	00000053 	andeq	r0, r0, r3, asr r0
    4750:	02070104 	andeq	r0, r7, #1
    4754:	62090023 	andvs	r0, r9, #35	; 0x23
    4758:	0300000e 	movweq	r0, #14
    475c:	00530156 	subseq	r0, r3, r6, asr r1
    4760:	06040000 	streq	r0, [r4], -r0
    4764:	00230201 	eoreq	r0, r3, r1, lsl #4
    4768:	000d1c09 	andeq	r1, sp, r9, lsl #24
    476c:	01570300 	cmpeq	r7, r0, lsl #6
    4770:	00000053 	andeq	r0, r0, r3, asr r0
    4774:	02000104 	andeq	r0, r0, #1
    4778:	0d000023 	stceq	0, cr0, [r0, #-140]	; 0xffffff74
    477c:	014a0304 	cmpeq	sl, r4, lsl #6
    4780:	00000a53 	andeq	r0, r0, r3, asr sl
    4784:	0002d30a 	andeq	sp, r2, sl, lsl #6
    4788:	014c0300 	mrseq	r0, SPSR_mon
    478c:	00000053 	andeq	r0, r0, r3, asr r0
    4790:	00092a0a 	andeq	r2, r9, sl, lsl #20
    4794:	01580300 	cmpeq	r8, r0, lsl #6
    4798:	00000985 	andeq	r0, r0, r5, lsl #19
    479c:	07e20b00 	strbeq	r0, [r2, r0, lsl #22]!
    47a0:	59030000 	stmdbpl	r3, {}	; <UNPREDICTABLE>
    47a4:	000a3101 	andeq	r3, sl, r1, lsl #2
    47a8:	03040c00 	movweq	r0, #19456	; 0x4c00
    47ac:	0ab1015e 	beq	fec44d2c <__bss_end+0xfec31be0>
    47b0:	32090000 	andcc	r0, r9, #0
    47b4:	0300000b 	movweq	r0, #11
    47b8:	00530160 	subseq	r0, r3, r0, ror #2
    47bc:	01040000 	mrseq	r0, (UNDEF: 4)
    47c0:	0023021f 	eoreq	r0, r3, pc, lsl r2
    47c4:	000e5309 	andeq	r5, lr, r9, lsl #6
    47c8:	01610300 	cmneq	r1, r0, lsl #6
    47cc:	00000053 	andeq	r0, r0, r3, asr r0
    47d0:	02180704 	andseq	r0, r8, #1048576	; 0x100000
    47d4:	87090023 	strhi	r0, [r9, -r3, lsr #32]
    47d8:	03000004 	movweq	r0, #4
    47dc:	00530162 	subseq	r0, r3, r2, ror #2
    47e0:	01040000 	mrseq	r0, (UNDEF: 4)
    47e4:	00230217 	eoreq	r0, r3, r7, lsl r2
    47e8:	000e5809 	andeq	r5, lr, r9, lsl #16
    47ec:	01630300 	cmneq	r3, r0, lsl #6
    47f0:	00000053 	andeq	r0, r0, r3, asr r0
    47f4:	02001704 	andeq	r1, r0, #1048576	; 0x100000
    47f8:	0d000023 	stceq	0, cr0, [r0, #-140]	; 0xffffff74
    47fc:	015b0304 	cmpeq	fp, r4, lsl #6
    4800:	00000ad3 	ldrdeq	r0, [r0], -r3
    4804:	0002d30a 	andeq	sp, r2, sl, lsl #6
    4808:	015d0300 	cmpeq	sp, r0, lsl #6
    480c:	00000053 	andeq	r0, r0, r3, asr r0
    4810:	00092a0a 	andeq	r2, r9, sl, lsl #20
    4814:	01640300 	cmneq	r4, r0, lsl #6
    4818:	00000a5f 	andeq	r0, r0, pc, asr sl
    481c:	06240b00 	strteq	r0, [r4], -r0, lsl #22
    4820:	65030000 	strvs	r0, [r3, #-0]
    4824:	000ab101 	andeq	fp, sl, r1, lsl #2
    4828:	03040c00 	movweq	r0, #19456	; 0x4c00
    482c:	0b31016a 	bleq	c44ddc <__bss_end+0xc31c90>
    4830:	b3090000 	movwlt	r0, #36864	; 0x9000
    4834:	03000008 	movweq	r0, #8
    4838:	0053016c 	subseq	r0, r3, ip, ror #2
    483c:	03040000 	movweq	r0, #16384	; 0x4000
    4840:	0023021d 	eoreq	r0, r3, sp, lsl r2
    4844:	000e5309 	andeq	r5, lr, r9, lsl #6
    4848:	016d0300 	cmneq	sp, r0, lsl #6
    484c:	00000053 	andeq	r0, r0, r3, asr r0
    4850:	02180504 	andseq	r0, r8, #16777216	; 0x1000000
    4854:	6a090023 	bvs	2448e8 <__bss_end+0x23179c>
    4858:	03000003 	movweq	r0, #3
    485c:	0053016e 	subseq	r0, r3, lr, ror #2
    4860:	02040000 	andeq	r0, r4, #0
    4864:	00230216 	eoreq	r0, r3, r6, lsl r2
    4868:	000e5809 	andeq	r5, lr, r9, lsl #16
    486c:	016f0300 	cmneq	pc, r0, lsl #6
    4870:	00000053 	andeq	r0, r0, r3, asr r0
    4874:	02100604 	andseq	r0, r0, #4194304	; 0x400000
    4878:	0d000023 	stceq	0, cr0, [r0, #-140]	; 0xffffff74
    487c:	01670304 	cmneq	r7, r4, lsl #6
    4880:	00000b53 	andeq	r0, r0, r3, asr fp
    4884:	0002d30a 	andeq	sp, r2, sl, lsl #6
    4888:	01690300 	cmneq	r9, r0, lsl #6
    488c:	00000053 	andeq	r0, r0, r3, asr r0
    4890:	00092a0a 	andeq	r2, r9, sl, lsl #20
    4894:	01700300 	cmneq	r0, r0, lsl #6
    4898:	00000adf 	ldrdeq	r0, [r0], -pc	; <UNPREDICTABLE>
    489c:	09b80b00 	ldmibeq	r8!, {r8, r9, fp}
    48a0:	71030000 	mrsvc	r0, (UNDEF: 3)
    48a4:	000b3101 	andeq	r3, fp, r1, lsl #2
    48a8:	03040c00 	movweq	r0, #19456	; 0x4c00
    48ac:	0bb10176 	bleq	fec44e8c <__bss_end+0xfec31d40>
    48b0:	c4090000 	strgt	r0, [r9], #-0
    48b4:	03000006 	movweq	r0, #6
    48b8:	00530178 	subseq	r0, r3, r8, ror r1
    48bc:	03040000 	movweq	r0, #16384	; 0x4000
    48c0:	0023021d 	eoreq	r0, r3, sp, lsl r2
    48c4:	000e5309 	andeq	r5, lr, r9, lsl #6
    48c8:	01790300 	cmneq	r9, r0, lsl #6
    48cc:	00000053 	andeq	r0, r0, r3, asr r0
    48d0:	02180504 	andseq	r0, r8, #16777216	; 0x1000000
    48d4:	b3090023 	movwlt	r0, #36899	; 0x9023
    48d8:	03000006 	movweq	r0, #6
    48dc:	0053017a 	subseq	r0, r3, sl, ror r1
    48e0:	02040000 	andeq	r0, r4, #0
    48e4:	00230216 	eoreq	r0, r3, r6, lsl r2
    48e8:	000e5809 	andeq	r5, lr, r9, lsl #16
    48ec:	017b0300 	cmneq	fp, r0, lsl #6
    48f0:	00000053 	andeq	r0, r0, r3, asr r0
    48f4:	02100604 	andseq	r0, r0, #4194304	; 0x400000
    48f8:	0d000023 	stceq	0, cr0, [r0, #-140]	; 0xffffff74
    48fc:	01730304 	cmneq	r3, r4, lsl #6
    4900:	00000bd3 	ldrdeq	r0, [r0], -r3
    4904:	0002d30a 	andeq	sp, r2, sl, lsl #6
    4908:	01750300 	cmneq	r5, r0, lsl #6
    490c:	00000053 	andeq	r0, r0, r3, asr r0
    4910:	00092a0a 	andeq	r2, r9, sl, lsl #20
    4914:	017c0300 	cmneq	ip, r0, lsl #6
    4918:	00000b5f 	andeq	r0, r0, pc, asr fp
    491c:	0d2e0b00 	vstmdbeq	lr!, {d0-d-1}
    4920:	7d030000 	stcvc	0, cr0, [r3, #-0]
    4924:	000bb101 	andeq	fp, fp, r1, lsl #2
    4928:	03040c00 	movweq	r0, #19456	; 0x4c00
    492c:	0c310182 	ldfeqs	f0, [r1], #-520	; 0xfffffdf8
    4930:	e7090000 	str	r0, [r9, -r0]
    4934:	03000006 	movweq	r0, #6
    4938:	00530184 	subseq	r0, r3, r4, lsl #3
    493c:	02040000 	andeq	r0, r4, #0
    4940:	0023021e 	eoreq	r0, r3, lr, lsl r2
    4944:	000e5309 	andeq	r5, lr, r9, lsl #6
    4948:	01850300 	orreq	r0, r5, r0, lsl #6
    494c:	00000053 	andeq	r0, r0, r3, asr r0
    4950:	02081604 	andeq	r1, r8, #4194304	; 0x400000
    4954:	c0090023 	andgt	r0, r9, r3, lsr #32
    4958:	03000007 	movweq	r0, #7
    495c:	00530186 	subseq	r0, r3, r6, lsl #3
    4960:	02040000 	andeq	r0, r4, #0
    4964:	00230206 	eoreq	r0, r3, r6, lsl #4
    4968:	000e5809 	andeq	r5, lr, r9, lsl #16
    496c:	01870300 	orreq	r0, r7, r0, lsl #6
    4970:	00000053 	andeq	r0, r0, r3, asr r0
    4974:	02000604 	andeq	r0, r0, #4194304	; 0x400000
    4978:	0d000023 	stceq	0, cr0, [r0, #-140]	; 0xffffff74
    497c:	017f0304 	cmneq	pc, r4, lsl #6
    4980:	00000c53 	andeq	r0, r0, r3, asr ip
    4984:	0002d30a 	andeq	sp, r2, sl, lsl #6
    4988:	01810300 	orreq	r0, r1, r0, lsl #6
    498c:	00000053 	andeq	r0, r0, r3, asr r0
    4990:	00092a0a 	andeq	r2, r9, sl, lsl #20
    4994:	01880300 	orreq	r0, r8, r0, lsl #6
    4998:	00000bdf 	ldrdeq	r0, [r0], -pc	; <UNPREDICTABLE>
    499c:	03350b00 	teqeq	r5, #0
    49a0:	89030000 	stmdbhi	r3, {}	; <UNPREDICTABLE>
    49a4:	000c3101 	andeq	r3, ip, r1, lsl #2
    49a8:	03040c00 	movweq	r0, #19456	; 0x4c00
    49ac:	0cb1018e 	ldfeqs	f0, [r1], #568	; 0x238
    49b0:	30090000 	andcc	r0, r9, r0
    49b4:	0300000c 	movweq	r0, #12
    49b8:	00530190 			; <UNDEFINED> instruction: 0x00530190
    49bc:	02040000 	andeq	r0, r4, #0
    49c0:	0023021e 	eoreq	r0, r3, lr, lsl r2
    49c4:	000e5309 	andeq	r5, lr, r9, lsl #6
    49c8:	01910300 	orrseq	r0, r1, r0, lsl #6
    49cc:	00000053 	andeq	r0, r0, r3, asr r0
    49d0:	02081604 	andeq	r1, r8, #4194304	; 0x400000
    49d4:	33090023 	movwcc	r0, #36899	; 0x9023
    49d8:	0300000e 	movweq	r0, #14
    49dc:	00530192 			; <UNDEFINED> instruction: 0x00530192
    49e0:	02040000 	andeq	r0, r4, #0
    49e4:	00230206 	eoreq	r0, r3, r6, lsl #4
    49e8:	000e5809 	andeq	r5, lr, r9, lsl #16
    49ec:	01930300 	orrseq	r0, r3, r0, lsl #6
    49f0:	00000053 	andeq	r0, r0, r3, asr r0
    49f4:	02000604 	andeq	r0, r0, #4194304	; 0x400000
    49f8:	0d000023 	stceq	0, cr0, [r0, #-140]	; 0xffffff74
    49fc:	018b0304 	orreq	r0, fp, r4, lsl #6
    4a00:	00000cd3 	ldrdeq	r0, [r0], -r3
    4a04:	0002d30a 	andeq	sp, r2, sl, lsl #6
    4a08:	018d0300 	orreq	r0, sp, r0, lsl #6
    4a0c:	00000053 	andeq	r0, r0, r3, asr r0
    4a10:	00092a0a 	andeq	r2, r9, sl, lsl #20
    4a14:	01940300 	orrseq	r0, r4, r0, lsl #6
    4a18:	00000c5f 	andeq	r0, r0, pc, asr ip
    4a1c:	0be90b00 	bleq	ffa47624 <__bss_end+0xffa344d8>
    4a20:	95030000 	strls	r0, [r3, #-0]
    4a24:	000cb101 	andeq	fp, ip, r1, lsl #2
    4a28:	03040c00 	movweq	r0, #19456	; 0x4c00
    4a2c:	0d31019a 	ldfeqs	f0, [r1, #-616]!	; 0xfffffd98
    4a30:	eb090000 	bl	244a38 <__bss_end+0x2318ec>
    4a34:	0300000a 	movweq	r0, #10
    4a38:	0053019c 			; <UNDEFINED> instruction: 0x0053019c
    4a3c:	02040000 	andeq	r0, r4, #0
    4a40:	0023021e 	eoreq	r0, r3, lr, lsl r2
    4a44:	000e5309 	andeq	r5, lr, r9, lsl #6
    4a48:	019d0300 	orrseq	r0, sp, r0, lsl #6
    4a4c:	00000053 	andeq	r0, r0, r3, asr r0
    4a50:	02081604 	andeq	r1, r8, #4194304	; 0x400000
    4a54:	6e090023 	cdpvs	0, 0, cr0, cr9, cr3, {1}
    4a58:	03000006 	movweq	r0, #6
    4a5c:	0053019e 			; <UNDEFINED> instruction: 0x0053019e
    4a60:	02040000 	andeq	r0, r4, #0
    4a64:	00230206 	eoreq	r0, r3, r6, lsl #4
    4a68:	000e5809 	andeq	r5, lr, r9, lsl #16
    4a6c:	019f0300 	orrseq	r0, pc, r0, lsl #6
    4a70:	00000053 	andeq	r0, r0, r3, asr r0
    4a74:	02000604 	andeq	r0, r0, #4194304	; 0x400000
    4a78:	0d000023 	stceq	0, cr0, [r0, #-140]	; 0xffffff74
    4a7c:	01970304 	orrseq	r0, r7, r4, lsl #6
    4a80:	00000d53 	andeq	r0, r0, r3, asr sp
    4a84:	0002d30a 	andeq	sp, r2, sl, lsl #6
    4a88:	01990300 	orrseq	r0, r9, r0, lsl #6
    4a8c:	00000053 	andeq	r0, r0, r3, asr r0
    4a90:	00092a0a 	andeq	r2, r9, sl, lsl #20
    4a94:	01a00300 	lsleq	r0, r0, #6
    4a98:	00000cdf 	ldrdeq	r0, [r0], -pc	; <UNPREDICTABLE>
    4a9c:	0a120b00 	beq	4876a4 <__bss_end+0x474558>
    4aa0:	a1030000 	mrsge	r0, (UNDEF: 3)
    4aa4:	000d3101 	andeq	r3, sp, r1, lsl #2
    4aa8:	03040c00 	movweq	r0, #19456	; 0x4c00
    4aac:	0db101a6 	ldfeqs	f0, [r1, #664]!	; 0x298
    4ab0:	9e090000 	cdpls	0, 0, cr0, cr9, cr0, {0}
    4ab4:	0300000a 	movweq	r0, #10
    4ab8:	005301a8 	subseq	r0, r3, r8, lsr #3
    4abc:	02040000 	andeq	r0, r4, #0
    4ac0:	0023021e 	eoreq	r0, r3, lr, lsl r2
    4ac4:	000e5309 	andeq	r5, lr, r9, lsl #6
    4ac8:	01a90300 			; <UNDEFINED> instruction: 0x01a90300
    4acc:	00000053 	andeq	r0, r0, r3, asr r0
    4ad0:	02081604 	andeq	r1, r8, #4194304	; 0x400000
    4ad4:	95090023 	strls	r0, [r9, #-35]	; 0x23
    4ad8:	0300000d 	movweq	r0, #13
    4adc:	005301aa 	subseq	r0, r3, sl, lsr #3
    4ae0:	02040000 	andeq	r0, r4, #0
    4ae4:	00230206 	eoreq	r0, r3, r6, lsl #4
    4ae8:	000e5809 	andeq	r5, lr, r9, lsl #16
    4aec:	01ab0300 			; <UNDEFINED> instruction: 0x01ab0300
    4af0:	00000053 	andeq	r0, r0, r3, asr r0
    4af4:	02000604 	andeq	r0, r0, #4194304	; 0x400000
    4af8:	0d000023 	stceq	0, cr0, [r0, #-140]	; 0xffffff74
    4afc:	01a30304 			; <UNDEFINED> instruction: 0x01a30304
    4b00:	00000dd3 	ldrdeq	r0, [r0], -r3
    4b04:	0002d30a 	andeq	sp, r2, sl, lsl #6
    4b08:	01a50300 			; <UNDEFINED> instruction: 0x01a50300
    4b0c:	00000053 	andeq	r0, r0, r3, asr r0
    4b10:	00092a0a 	andeq	r2, r9, sl, lsl #20
    4b14:	01ac0300 			; <UNDEFINED> instruction: 0x01ac0300
    4b18:	00000d5f 	andeq	r0, r0, pc, asr sp
    4b1c:	067f0b00 	ldrbteq	r0, [pc], -r0, lsl #22
    4b20:	ad030000 	stcge	0, cr0, [r3, #-0]
    4b24:	000db101 	andeq	fp, sp, r1, lsl #2
    4b28:	03040c00 	movweq	r0, #19456	; 0x4c00
    4b2c:	0e3101b2 	mrceq	1, 1, r0, cr1, cr2, {5}
    4b30:	43090000 	movwmi	r0, #36864	; 0x9000
    4b34:	0300000c 	movweq	r0, #12
    4b38:	005301b4 	ldrheq	r0, [r3], #-20	; 0xffffffec
    4b3c:	02040000 	andeq	r0, r4, #0
    4b40:	0023021e 	eoreq	r0, r3, lr, lsl r2
    4b44:	000e5309 	andeq	r5, lr, r9, lsl #6
    4b48:	01b50300 			; <UNDEFINED> instruction: 0x01b50300
    4b4c:	00000053 	andeq	r0, r0, r3, asr r0
    4b50:	02081604 	andeq	r1, r8, #4194304	; 0x400000
    4b54:	16090023 	strne	r0, [r9], -r3, lsr #32
    4b58:	03000007 	movweq	r0, #7
    4b5c:	005301b6 	ldrheq	r0, [r3], #-22	; 0xffffffea
    4b60:	01040000 	mrseq	r0, (UNDEF: 4)
    4b64:	00230207 	eoreq	r0, r3, r7, lsl #4
    4b68:	000e5809 	andeq	r5, lr, r9, lsl #16
    4b6c:	01b70300 			; <UNDEFINED> instruction: 0x01b70300
    4b70:	00000053 	andeq	r0, r0, r3, asr r0
    4b74:	02000704 	andeq	r0, r0, #1048576	; 0x100000
    4b78:	0d000023 	stceq	0, cr0, [r0, #-140]	; 0xffffff74
    4b7c:	01af0304 			; <UNDEFINED> instruction: 0x01af0304
    4b80:	00000e53 	andeq	r0, r0, r3, asr lr
    4b84:	0002d30a 	andeq	sp, r2, sl, lsl #6
    4b88:	01b10300 			; <UNDEFINED> instruction: 0x01b10300
    4b8c:	00000053 	andeq	r0, r0, r3, asr r0
    4b90:	00092a0a 	andeq	r2, r9, sl, lsl #20
    4b94:	01b80300 			; <UNDEFINED> instruction: 0x01b80300
    4b98:	00000ddf 	ldrdeq	r0, [r0], -pc	; <UNPREDICTABLE>
    4b9c:	0b140b00 	bleq	5077a4 <__bss_end+0x4f4658>
    4ba0:	b9030000 	stmdblt	r3, {}	; <UNPREDICTABLE>
    4ba4:	000e3101 	andeq	r3, lr, r1, lsl #2
    4ba8:	03040c00 	movweq	r0, #19456	; 0x4c00
    4bac:	0ed501be 	mrceq	1, 6, r0, cr5, cr14, {5}
    4bb0:	ce090000 	cdpgt	0, 0, cr0, cr9, cr0, {0}
    4bb4:	03000007 	movweq	r0, #7
    4bb8:	005301c0 	subseq	r0, r3, r0, asr #3
    4bbc:	05040000 	streq	r0, [r4, #-0]
    4bc0:	0023021b 	eoreq	r0, r3, fp, lsl r2
    4bc4:	000e5309 	andeq	r5, lr, r9, lsl #6
    4bc8:	01c10300 	biceq	r0, r1, r0, lsl #6
    4bcc:	00000053 	andeq	r0, r0, r3, asr r0
    4bd0:	02100b04 	andseq	r0, r0, #4096	; 0x1000
    4bd4:	d8090023 	stmdale	r9, {r0, r1, r5}
    4bd8:	03000007 	movweq	r0, #7
    4bdc:	005301c2 	subseq	r0, r3, r2, asr #3
    4be0:	02040000 	andeq	r0, r4, #0
    4be4:	0023020e 	eoreq	r0, r3, lr, lsl #4
    4be8:	000e5809 	andeq	r5, lr, r9, lsl #16
    4bec:	01c30300 	biceq	r0, r3, r0, lsl #6
    4bf0:	00000053 	andeq	r0, r0, r3, asr r0
    4bf4:	02080604 	andeq	r0, r8, #4194304	; 0x400000
    4bf8:	1c090023 	stcne	0, cr0, [r9], {35}	; 0x23
    4bfc:	03000008 	movweq	r0, #8
    4c00:	005301c4 	subseq	r0, r3, r4, asr #3
    4c04:	01040000 	mrseq	r0, (UNDEF: 4)
    4c08:	00230207 	eoreq	r0, r3, r7, lsl #4
    4c0c:	000e5d09 	andeq	r5, lr, r9, lsl #26
    4c10:	01c50300 	biceq	r0, r5, r0, lsl #6
    4c14:	00000053 	andeq	r0, r0, r3, asr r0
    4c18:	02000704 	andeq	r0, r0, #1048576	; 0x100000
    4c1c:	0d000023 	stceq	0, cr0, [r0, #-140]	; 0xffffff74
    4c20:	01bb0304 			; <UNDEFINED> instruction: 0x01bb0304
    4c24:	00000ef7 	strdeq	r0, [r0], -r7
    4c28:	0002d30a 	andeq	sp, r2, sl, lsl #6
    4c2c:	01bd0300 			; <UNDEFINED> instruction: 0x01bd0300
    4c30:	00000053 	andeq	r0, r0, r3, asr r0
    4c34:	00092a0a 	andeq	r2, r9, sl, lsl #20
    4c38:	01c60300 	biceq	r0, r6, r0, lsl #6
    4c3c:	00000e5f 	andeq	r0, r0, pc, asr lr
    4c40:	092f0b00 	stmdbeq	pc!, {r8, r9, fp}	; <UNPREDICTABLE>
    4c44:	c7030000 	strgt	r0, [r3, -r0]
    4c48:	000ed501 	andeq	sp, lr, r1, lsl #10
    4c4c:	03040c00 	movweq	r0, #19456	; 0x4c00
    4c50:	0f5501cc 	svceq	0x005501cc
    4c54:	be090000 	cdplt	0, 0, cr0, cr9, cr0, {0}
    4c58:	03000002 	movweq	r0, #2
    4c5c:	005301ce 	subseq	r0, r3, lr, asr #3
    4c60:	02040000 	andeq	r0, r4, #0
    4c64:	0023021e 	eoreq	r0, r3, lr, lsl r2
    4c68:	000e5309 	andeq	r5, lr, r9, lsl #6
    4c6c:	01cf0300 	biceq	r0, pc, r0, lsl #6
    4c70:	00000053 	andeq	r0, r0, r3, asr r0
    4c74:	02081604 	andeq	r1, r8, #4194304	; 0x400000
    4c78:	f8090023 			; <UNDEFINED> instruction: 0xf8090023
    4c7c:	0300000b 	movweq	r0, #11
    4c80:	005301d0 	ldrsbeq	r0, [r3], #-16
    4c84:	02040000 	andeq	r0, r4, #0
    4c88:	00230206 	eoreq	r0, r3, r6, lsl #4
    4c8c:	000e5809 	andeq	r5, lr, r9, lsl #16
    4c90:	01d10300 	bicseq	r0, r1, r0, lsl #6
    4c94:	00000053 	andeq	r0, r0, r3, asr r0
    4c98:	02000604 	andeq	r0, r0, #4194304	; 0x400000
    4c9c:	0d000023 	stceq	0, cr0, [r0, #-140]	; 0xffffff74
    4ca0:	01c90304 	biceq	r0, r9, r4, lsl #6
    4ca4:	00000f77 	andeq	r0, r0, r7, ror pc
    4ca8:	0002d30a 	andeq	sp, r2, sl, lsl #6
    4cac:	01cb0300 	biceq	r0, fp, r0, lsl #6
    4cb0:	00000053 	andeq	r0, r0, r3, asr r0
    4cb4:	00092a0a 	andeq	r2, r9, sl, lsl #20
    4cb8:	01d20300 	bicseq	r0, r2, r0, lsl #6
    4cbc:	00000f03 	andeq	r0, r0, r3, lsl #30
    4cc0:	0de80b00 	stcleq	11, cr0, [r8]
    4cc4:	d3030000 	movwle	r0, #12288	; 0x3000
    4cc8:	000f5501 	andeq	r5, pc, r1, lsl #10
    4ccc:	03040c00 	movweq	r0, #19456	; 0x4c00
    4cd0:	0fe701d8 	svceq	0x00e701d8
    4cd4:	26090000 	strcs	r0, [r9], -r0
    4cd8:	03000004 	movweq	r0, #4
    4cdc:	005301da 	ldrsbeq	r0, [r3], #-26	; 0xffffffe6
    4ce0:	03040000 	movweq	r0, #16384	; 0x4000
    4ce4:	0023021d 	eoreq	r0, r3, sp, lsl r2
    4ce8:	000e5309 	andeq	r5, lr, r9, lsl #6
    4cec:	01db0300 	bicseq	r0, fp, r0, lsl #6
    4cf0:	00000053 	andeq	r0, r0, r3, asr r0
    4cf4:	02081504 	andeq	r1, r8, #16777216	; 0x1000000
    4cf8:	ff090023 			; <UNDEFINED> instruction: 0xff090023
    4cfc:	0300000b 	movweq	r0, #11
    4d00:	005301dc 	ldrsbeq	r0, [r3], #-28	; 0xffffffe4
    4d04:	02040000 	andeq	r0, r4, #0
    4d08:	00230206 	eoreq	r0, r3, r6, lsl #4
    4d0c:	000e5809 	andeq	r5, lr, r9, lsl #16
    4d10:	01dd0300 	bicseq	r0, sp, r0, lsl #6
    4d14:	00000053 	andeq	r0, r0, r3, asr r0
    4d18:	02010504 	andeq	r0, r1, #16777216	; 0x1000000
    4d1c:	6b090023 	blvs	244db0 <__bss_end+0x231c64>
    4d20:	0300000b 	movweq	r0, #11
    4d24:	005301de 	ldrsbeq	r0, [r3], #-30	; 0xffffffe2
    4d28:	01040000 	mrseq	r0, (UNDEF: 4)
    4d2c:	00230200 	eoreq	r0, r3, r0, lsl #4
    4d30:	03040d00 	movweq	r0, #19712	; 0x4d00
    4d34:	100901d5 	ldrdne	r0, [r9], -r5
    4d38:	d30a0000 	movwle	r0, #40960	; 0xa000
    4d3c:	03000002 	movweq	r0, #2
    4d40:	005301d7 	ldrsbeq	r0, [r3], #-23	; 0xffffffe9
    4d44:	2a0a0000 	bcs	284d4c <__bss_end+0x271c00>
    4d48:	03000009 	movweq	r0, #9
    4d4c:	0f8301df 	svceq	0x008301df
    4d50:	0b000000 	bleq	4d58 <__resume1_start+0x4d58>
    4d54:	000003ef 	andeq	r0, r0, pc, ror #7
    4d58:	e701e003 	str	lr, [r1, -r3]
    4d5c:	0c00000f 	stceq	0, cr0, [r0], {15}
    4d60:	01e50304 	mvneq	r0, r4, lsl #6
    4d64:	00001079 	andeq	r1, r0, r9, ror r0
    4d68:	00042609 	andeq	r2, r4, r9, lsl #12
    4d6c:	01e70300 	mvneq	r0, r0, lsl #6
    4d70:	00000053 	andeq	r0, r0, r3, asr r0
    4d74:	021d0304 	andseq	r0, sp, #268435456	; 0x10000000
    4d78:	53090023 	movwpl	r0, #36899	; 0x9023
    4d7c:	0300000e 	movweq	r0, #14
    4d80:	005301e8 	subseq	r0, r3, r8, ror #3
    4d84:	15040000 	strne	r0, [r4, #-0]
    4d88:	00230208 	eoreq	r0, r3, r8, lsl #4
    4d8c:	000bff09 	andeq	pc, fp, r9, lsl #30
    4d90:	01e90300 	mvneq	r0, r0, lsl #6
    4d94:	00000053 	andeq	r0, r0, r3, asr r0
    4d98:	02060204 	andeq	r0, r6, #1073741824	; 0x40000000
    4d9c:	58090023 	stmdapl	r9, {r0, r1, r5}
    4da0:	0300000e 	movweq	r0, #14
    4da4:	005301ea 	subseq	r0, r3, sl, ror #3
    4da8:	05040000 	streq	r0, [r4, #-0]
    4dac:	00230201 	eoreq	r0, r3, r1, lsl #4
    4db0:	000b6b09 	andeq	r6, fp, r9, lsl #22
    4db4:	01eb0300 	mvneq	r0, r0, lsl #6
    4db8:	00000053 	andeq	r0, r0, r3, asr r0
    4dbc:	02000104 	andeq	r0, r0, #1
    4dc0:	0d000023 	stceq	0, cr0, [r0, #-140]	; 0xffffff74
    4dc4:	01e20304 	mvneq	r0, r4, lsl #6
    4dc8:	0000109b 	muleq	r0, fp, r0
    4dcc:	0002d30a 	andeq	sp, r2, sl, lsl #6
    4dd0:	01e40300 	mvneq	r0, r0, lsl #6
    4dd4:	00000053 	andeq	r0, r0, r3, asr r0
    4dd8:	00092a0a 	andeq	r2, r9, sl, lsl #20
    4ddc:	01ec0300 	mvneq	r0, r0, lsl #6
    4de0:	00001015 	andeq	r1, r0, r5, lsl r0
    4de4:	0b5b0b00 	bleq	16c79ec <__bss_end+0x16b48a0>
    4de8:	ed030000 	stc	0, cr0, [r3, #-0]
    4dec:	00107901 	andseq	r7, r0, r1, lsl #18
    4df0:	03040c00 	movweq	r0, #19456	; 0x4c00
    4df4:	10d501f2 	ldrshne	r0, [r5], #18
    4df8:	f8090000 			; <UNDEFINED> instruction: 0xf8090000
    4dfc:	03000007 	movweq	r0, #7
    4e00:	005301f4 	ldrsheq	r0, [r3], #-20	; 0xffffffec
    4e04:	10040000 	andne	r0, r4, r0
    4e08:	00230210 	eoreq	r0, r3, r0, lsl r2
    4e0c:	000e5309 	andeq	r5, lr, r9, lsl #6
    4e10:	01f50300 	mvnseq	r0, r0, lsl #6
    4e14:	00000053 	andeq	r0, r0, r3, asr r0
    4e18:	02001004 	andeq	r1, r0, #4
    4e1c:	0d000023 	stceq	0, cr0, [r0, #-140]	; 0xffffff74
    4e20:	01ef0304 	mvneq	r0, r4, lsl #6
    4e24:	000010f7 	strdeq	r1, [r0], -r7
    4e28:	0002d30a 	andeq	sp, r2, sl, lsl #6
    4e2c:	01f10300 	mvnseq	r0, r0, lsl #6
    4e30:	00000053 	andeq	r0, r0, r3, asr r0
    4e34:	00092a0a 	andeq	r2, r9, sl, lsl #20
    4e38:	01f60300 	mvnseq	r0, r0, lsl #6
    4e3c:	000010a7 	andeq	r1, r0, r7, lsr #1
    4e40:	03db0b00 	bicseq	r0, fp, #0
    4e44:	f7030000 			; <UNDEFINED> instruction: 0xf7030000
    4e48:	0010d501 	andseq	sp, r0, r1, lsl #10
    4e4c:	03040c00 	movweq	r0, #19456	; 0x4c00
    4e50:	113101fc 			; <UNDEFINED> instruction: 0x113101fc
    4e54:	f8090000 			; <UNDEFINED> instruction: 0xf8090000
    4e58:	03000007 	movweq	r0, #7
    4e5c:	005301fe 	ldrsheq	r0, [r3], #-30	; 0xffffffe2
    4e60:	10040000 	andne	r0, r4, r0
    4e64:	00230210 	eoreq	r0, r3, r0, lsl r2
    4e68:	000e5309 	andeq	r5, lr, r9, lsl #6
    4e6c:	01ff0300 	mvnseq	r0, r0, lsl #6
    4e70:	00000053 	andeq	r0, r0, r3, asr r0
    4e74:	02001004 	andeq	r1, r0, #4
    4e78:	0d000023 	stceq	0, cr0, [r0, #-140]	; 0xffffff74
    4e7c:	01f90304 	mvnseq	r0, r4, lsl #6
    4e80:	00001153 	andeq	r1, r0, r3, asr r1
    4e84:	0002d30a 	andeq	sp, r2, sl, lsl #6
    4e88:	01fb0300 	mvnseq	r0, r0, lsl #6
    4e8c:	00000053 	andeq	r0, r0, r3, asr r0
    4e90:	00092a0a 	andeq	r2, r9, sl, lsl #20
    4e94:	02000300 	andeq	r0, r0, #0
    4e98:	00001103 	andeq	r1, r0, r3, lsl #2
    4e9c:	09820b00 	stmibeq	r2, {r8, r9, fp}
    4ea0:	01030000 	mrseq	r0, (UNDEF: 3)
    4ea4:	00113102 	andseq	r3, r1, r2, lsl #2
    4ea8:	03040d00 	movweq	r0, #19712	; 0x4d00
    4eac:	11750203 	cmnne	r5, r3, lsl #4
    4eb0:	d30a0000 	movwle	r0, #40960	; 0xa000
    4eb4:	03000002 	movweq	r0, #2
    4eb8:	00530205 	subseq	r0, r3, r5, lsl #4
    4ebc:	0b000000 	bleq	4ec4 <__resume1_start+0x4ec4>
    4ec0:	00000e91 	muleq	r0, r1, lr
    4ec4:	5f020603 	svcpl	0x00020603
    4ec8:	0c000011 	stceq	0, cr0, [r0], {17}
    4ecc:	020b0304 	andeq	r0, fp, #268435456	; 0x10000000
    4ed0:	000011d3 	ldrdeq	r1, [r0], -r3
    4ed4:	000e5309 	andeq	r5, lr, r9, lsl #6
    4ed8:	020d0300 	andeq	r0, sp, #0
    4edc:	00000053 	andeq	r0, r0, r3, asr r0
    4ee0:	02101004 	andseq	r1, r0, #4
    4ee4:	d3090023 	movwle	r0, #36899	; 0x9023
    4ee8:	03000004 	movweq	r0, #4
    4eec:	0053020e 	subseq	r0, r3, lr, lsl #4
    4ef0:	05040000 	streq	r0, [r4, #-0]
    4ef4:	0023020b 	eoreq	r0, r3, fp, lsl #4
    4ef8:	000e5809 	andeq	r5, lr, r9, lsl #16
    4efc:	020f0300 	andeq	r0, pc, #0
    4f00:	00000053 	andeq	r0, r0, r3, asr r0
    4f04:	02010a04 	andeq	r0, r1, #16384	; 0x4000
    4f08:	de090023 	cdple	0, 0, cr0, cr9, cr3, {1}
    4f0c:	03000005 	movweq	r0, #5
    4f10:	00530210 	subseq	r0, r3, r0, lsl r2
    4f14:	01040000 	mrseq	r0, (UNDEF: 4)
    4f18:	00230200 	eoreq	r0, r3, r0, lsl #4
    4f1c:	03040d00 	movweq	r0, #19712	; 0x4d00
    4f20:	11f50208 	mvnsne	r0, r8, lsl #4
    4f24:	d30a0000 	movwle	r0, #40960	; 0xa000
    4f28:	03000002 	movweq	r0, #2
    4f2c:	0053020a 	subseq	r0, r3, sl, lsl #4
    4f30:	2a0a0000 	bcs	284f38 <__bss_end+0x271dec>
    4f34:	03000009 	movweq	r0, #9
    4f38:	11810211 	orrne	r0, r1, r1, lsl r2
    4f3c:	0b000000 	bleq	4f44 <__resume1_start+0x4f44>
    4f40:	00000d0a 	andeq	r0, r0, sl, lsl #26
    4f44:	d3021203 	movwle	r1, #8707	; 0x2203
    4f48:	0c000011 	stceq	0, cr0, [r0], {17}
    4f4c:	02170304 	andseq	r0, r7, #268435456	; 0x10000000
    4f50:	00001253 	andeq	r1, r0, r3, asr r2
    4f54:	000e5309 	andeq	r5, lr, r9, lsl #6
    4f58:	02190300 	andseq	r0, r9, #0
    4f5c:	00000053 	andeq	r0, r0, r3, asr r0
    4f60:	02101004 	andseq	r1, r0, #4
    4f64:	d3090023 	movwle	r0, #36899	; 0x9023
    4f68:	03000004 	movweq	r0, #4
    4f6c:	0053021a 	subseq	r0, r3, sl, lsl r2
    4f70:	05040000 	streq	r0, [r4, #-0]
    4f74:	0023020b 	eoreq	r0, r3, fp, lsl #4
    4f78:	000e5809 	andeq	r5, lr, r9, lsl #16
    4f7c:	021b0300 	andseq	r0, fp, #0
    4f80:	00000053 	andeq	r0, r0, r3, asr r0
    4f84:	02010a04 	andeq	r0, r1, #16384	; 0x4000
    4f88:	de090023 	cdple	0, 0, cr0, cr9, cr3, {1}
    4f8c:	03000005 	movweq	r0, #5
    4f90:	0053021c 	subseq	r0, r3, ip, lsl r2
    4f94:	01040000 	mrseq	r0, (UNDEF: 4)
    4f98:	00230200 	eoreq	r0, r3, r0, lsl #4
    4f9c:	03040d00 	movweq	r0, #19712	; 0x4d00
    4fa0:	12750214 	rsbsne	r0, r5, #1073741825	; 0x40000001
    4fa4:	d30a0000 	movwle	r0, #40960	; 0xa000
    4fa8:	03000002 	movweq	r0, #2
    4fac:	00530216 	subseq	r0, r3, r6, lsl r2
    4fb0:	2a0a0000 	bcs	284fb8 <__bss_end+0x271e6c>
    4fb4:	03000009 	movweq	r0, #9
    4fb8:	1201021d 	andne	r0, r1, #-805306367	; 0xd0000001
    4fbc:	0b000000 	bleq	4fc4 <__resume1_start+0x4fc4>
    4fc0:	000005bd 			; <UNDEFINED> instruction: 0x000005bd
    4fc4:	53021e03 	movwpl	r1, #11779	; 0x2e03
    4fc8:	0c000012 	stceq	0, cr0, [r0], {18}
    4fcc:	02230304 	eoreq	r0, r3, #268435456	; 0x10000000
    4fd0:	000012c1 	andeq	r1, r0, r1, asr #5
    4fd4:	000e5309 	andeq	r5, lr, r9, lsl #6
    4fd8:	02250300 	eoreq	r0, r5, #0
    4fdc:	00000053 	andeq	r0, r0, r3, asr r0
    4fe0:	02101004 	andseq	r1, r0, #4
    4fe4:	c8090023 	stmdagt	r9, {r0, r1, r5}
    4fe8:	0300000e 	movweq	r0, #14
    4fec:	00530226 	subseq	r0, r3, r6, lsr #4
    4ff0:	05040000 	streq	r0, [r4, #-0]
    4ff4:	0023020b 	eoreq	r0, r3, fp, lsl #4
    4ff8:	000e5809 	andeq	r5, lr, r9, lsl #16
    4ffc:	02270300 	eoreq	r0, r7, #0
    5000:	00000053 	andeq	r0, r0, r3, asr r0
    5004:	02000b04 	andeq	r0, r0, #4096	; 0x1000
    5008:	0d000023 	stceq	0, cr0, [r0, #-140]	; 0xffffff74
    500c:	02200304 	eoreq	r0, r0, #268435456	; 0x10000000
    5010:	000012e3 	andeq	r1, r0, r3, ror #5
    5014:	0002d30a 	andeq	sp, r2, sl, lsl #6
    5018:	02220300 	eoreq	r0, r2, #0
    501c:	00000053 	andeq	r0, r0, r3, asr r0
    5020:	00092a0a 	andeq	r2, r9, sl, lsl #20
    5024:	02280300 	eoreq	r0, r8, #0
    5028:	00001281 	andeq	r1, r0, r1, lsl #5
    502c:	0ad60b00 	beq	ff587c34 <__bss_end+0xff574ae8>
    5030:	29030000 	stmdbcs	r3, {}	; <UNPREDICTABLE>
    5034:	0012c102 	andseq	ip, r2, r2, lsl #2
    5038:	03040c00 	movweq	r0, #19456	; 0x4c00
    503c:	132f022e 	teqne	pc, #-536870910	; 0xe0000002
    5040:	53090000 	movwpl	r0, #36864	; 0x9000
    5044:	0300000e 	movweq	r0, #14
    5048:	00530230 	subseq	r0, r3, r0, lsr r2
    504c:	10040000 	andne	r0, r4, r0
    5050:	00230210 	eoreq	r0, r3, r0, lsl r2
    5054:	000ec809 	andeq	ip, lr, r9, lsl #16
    5058:	02310300 	eorseq	r0, r1, #0
    505c:	00000053 	andeq	r0, r0, r3, asr r0
    5060:	020b0504 	andeq	r0, fp, #16777216	; 0x1000000
    5064:	58090023 	stmdapl	r9, {r0, r1, r5}
    5068:	0300000e 	movweq	r0, #14
    506c:	00530232 	subseq	r0, r3, r2, lsr r2
    5070:	0b040000 	bleq	105078 <__bss_end+0xf1f2c>
    5074:	00230200 	eoreq	r0, r3, r0, lsl #4
    5078:	03040d00 	movweq	r0, #19712	; 0x4d00
    507c:	1351022b 	cmpne	r1, #-1342177278	; 0xb0000002
    5080:	d30a0000 	movwle	r0, #40960	; 0xa000
    5084:	03000002 	movweq	r0, #2
    5088:	0053022d 	subseq	r0, r3, sp, lsr #4
    508c:	2a0a0000 	bcs	285094 <__bss_end+0x271f48>
    5090:	03000009 	movweq	r0, #9
    5094:	12ef0233 	rscne	r0, pc, #805306371	; 0x30000003
    5098:	0b000000 	bleq	50a0 <__resume1_start+0x50a0>
    509c:	00000a87 	andeq	r0, r0, r7, lsl #21
    50a0:	2f023403 	svccs	0x00023403
    50a4:	0c000013 	stceq	0, cr0, [r0], {19}
    50a8:	02390304 	eorseq	r0, r9, #268435456	; 0x10000000
    50ac:	0000139d 	muleq	r0, sp, r3
    50b0:	000e5309 	andeq	r5, lr, r9, lsl #6
    50b4:	023b0300 	eorseq	r0, fp, #0
    50b8:	00000053 	andeq	r0, r0, r3, asr r0
    50bc:	02101004 	andseq	r1, r0, #4
    50c0:	c8090023 	stmdagt	r9, {r0, r1, r5}
    50c4:	0300000e 	movweq	r0, #14
    50c8:	0053023c 	subseq	r0, r3, ip, lsr r2
    50cc:	05040000 	streq	r0, [r4, #-0]
    50d0:	0023020b 	eoreq	r0, r3, fp, lsl #4
    50d4:	000e5809 	andeq	r5, lr, r9, lsl #16
    50d8:	023d0300 	eorseq	r0, sp, #0
    50dc:	00000053 	andeq	r0, r0, r3, asr r0
    50e0:	02000b04 	andeq	r0, r0, #4096	; 0x1000
    50e4:	0d000023 	stceq	0, cr0, [r0, #-140]	; 0xffffff74
    50e8:	02360304 	eorseq	r0, r6, #268435456	; 0x10000000
    50ec:	000013bf 			; <UNDEFINED> instruction: 0x000013bf
    50f0:	0002d30a 	andeq	sp, r2, sl, lsl #6
    50f4:	02380300 	eorseq	r0, r8, #0
    50f8:	00000053 	andeq	r0, r0, r3, asr r0
    50fc:	00092a0a 	andeq	r2, r9, sl, lsl #20
    5100:	023e0300 	eorseq	r0, lr, #0
    5104:	0000135d 	andeq	r1, r0, sp, asr r3
    5108:	0a3c0b00 	beq	f07d10 <__bss_end+0xef4bc4>
    510c:	3f030000 	svccc	0x00030000
    5110:	00139d02 	andseq	r9, r3, r2, lsl #26
    5114:	03040c00 	movweq	r0, #19456	; 0x4c00
    5118:	140b0244 	strne	r0, [fp], #-580	; 0x244
    511c:	53090000 	movwpl	r0, #36864	; 0x9000
    5120:	0300000e 	movweq	r0, #14
    5124:	00530246 	subseq	r0, r3, r6, asr #4
    5128:	10040000 	andne	r0, r4, r0
    512c:	00230210 	eoreq	r0, r3, r0, lsl r2
    5130:	00044f09 	andeq	r4, r4, r9, lsl #30
    5134:	02470300 	subeq	r0, r7, #0
    5138:	00000053 	andeq	r0, r0, r3, asr r0
    513c:	020b0504 	andeq	r0, fp, #16777216	; 0x1000000
    5140:	58090023 	stmdapl	r9, {r0, r1, r5}
    5144:	0300000e 	movweq	r0, #14
    5148:	00530248 	subseq	r0, r3, r8, asr #4
    514c:	0b040000 	bleq	105154 <__bss_end+0xf2008>
    5150:	00230200 	eoreq	r0, r3, r0, lsl #4
    5154:	03040d00 	movweq	r0, #19712	; 0x4d00
    5158:	142d0241 	strtne	r0, [sp], #-577	; 0x241
    515c:	d30a0000 	movwle	r0, #40960	; 0xa000
    5160:	03000002 	movweq	r0, #2
    5164:	00530243 	subseq	r0, r3, r3, asr #4
    5168:	2a0a0000 	bcs	285170 <__bss_end+0x272024>
    516c:	03000009 	movweq	r0, #9
    5170:	13cb0249 	bicne	r0, fp, #-1879048188	; 0x90000004
    5174:	0b000000 	bleq	517c <__resume1_start+0x517c>
    5178:	00000322 	andeq	r0, r0, r2, lsr #6
    517c:	0b024a03 	bleq	97990 <__bss_end+0x84844>
    5180:	0c000014 	stceq	0, cr0, [r0], {20}
    5184:	024f0304 	subeq	r0, pc, #268435456	; 0x10000000
    5188:	00001479 	andeq	r1, r0, r9, ror r4
    518c:	000e5309 	andeq	r5, lr, r9, lsl #6
    5190:	02510300 	subseq	r0, r1, #0
    5194:	00000053 	andeq	r0, r0, r3, asr r0
    5198:	02101004 	andseq	r1, r0, #4
    519c:	c8090023 	stmdagt	r9, {r0, r1, r5}
    51a0:	0300000e 	movweq	r0, #14
    51a4:	00530252 	subseq	r0, r3, r2, asr r2
    51a8:	05040000 	streq	r0, [r4, #-0]
    51ac:	0023020b 	eoreq	r0, r3, fp, lsl #4
    51b0:	000e5809 	andeq	r5, lr, r9, lsl #16
    51b4:	02530300 	subseq	r0, r3, #0
    51b8:	00000053 	andeq	r0, r0, r3, asr r0
    51bc:	02000b04 	andeq	r0, r0, #4096	; 0x1000
    51c0:	0d000023 	stceq	0, cr0, [r0, #-140]	; 0xffffff74
    51c4:	024c0304 	subeq	r0, ip, #268435456	; 0x10000000
    51c8:	0000149b 	muleq	r0, fp, r4
    51cc:	0002d30a 	andeq	sp, r2, sl, lsl #6
    51d0:	024e0300 	subeq	r0, lr, #0
    51d4:	00000053 	andeq	r0, r0, r3, asr r0
    51d8:	00092a0a 	andeq	r2, r9, sl, lsl #20
    51dc:	02540300 	subseq	r0, r4, #0
    51e0:	00001439 	andeq	r1, r0, r9, lsr r4
    51e4:	04100b00 	ldreq	r0, [r0], #-2816	; 0xb00
    51e8:	55030000 	strpl	r0, [r3, #-0]
    51ec:	00147902 	andseq	r7, r4, r2, lsl #18
    51f0:	03040c00 	movweq	r0, #19456	; 0x4c00
    51f4:	14e7025a 	strbtne	r0, [r7], #602	; 0x25a
    51f8:	53090000 	movwpl	r0, #36864	; 0x9000
    51fc:	0300000e 	movweq	r0, #14
    5200:	0053025c 	subseq	r0, r3, ip, asr r2
    5204:	10040000 	andne	r0, r4, r0
    5208:	00230210 	eoreq	r0, r3, r0, lsl r2
    520c:	000ec809 	andeq	ip, lr, r9, lsl #16
    5210:	025d0300 	subseq	r0, sp, #0
    5214:	00000053 	andeq	r0, r0, r3, asr r0
    5218:	020b0504 	andeq	r0, fp, #16777216	; 0x1000000
    521c:	58090023 	stmdapl	r9, {r0, r1, r5}
    5220:	0300000e 	movweq	r0, #14
    5224:	0053025e 	subseq	r0, r3, lr, asr r2
    5228:	0b040000 	bleq	105230 <__bss_end+0xf20e4>
    522c:	00230200 	eoreq	r0, r3, r0, lsl #4
    5230:	03040d00 	movweq	r0, #19712	; 0x4d00
    5234:	15090257 	strne	r0, [r9, #-599]	; 0x257
    5238:	d30a0000 	movwle	r0, #40960	; 0xa000
    523c:	03000002 	movweq	r0, #2
    5240:	00530259 	subseq	r0, r3, r9, asr r2
    5244:	2a0a0000 	bcs	28524c <__bss_end+0x272100>
    5248:	03000009 	movweq	r0, #9
    524c:	14a7025f 	strtne	r0, [r7], #607	; 0x25f
    5250:	0b000000 	bleq	5258 <__resume1_start+0x5258>
    5254:	00000914 	andeq	r0, r0, r4, lsl r9
    5258:	e7026003 	str	r6, [r2, -r3]
    525c:	0c000014 	stceq	0, cr0, [r0], {20}
    5260:	02650304 	rsbeq	r0, r5, #268435456	; 0x10000000
    5264:	00001555 	andeq	r1, r0, r5, asr r5
    5268:	000e5309 	andeq	r5, lr, r9, lsl #6
    526c:	02670300 	rsbeq	r0, r7, #0
    5270:	00000053 	andeq	r0, r0, r3, asr r0
    5274:	02101004 	andseq	r1, r0, #4
    5278:	c8090023 	stmdagt	r9, {r0, r1, r5}
    527c:	0300000e 	movweq	r0, #14
    5280:	00530268 	subseq	r0, r3, r8, ror #4
    5284:	05040000 	streq	r0, [r4, #-0]
    5288:	0023020b 	eoreq	r0, r3, fp, lsl #4
    528c:	000e5809 	andeq	r5, lr, r9, lsl #16
    5290:	02690300 	rsbeq	r0, r9, #0
    5294:	00000053 	andeq	r0, r0, r3, asr r0
    5298:	02000b04 	andeq	r0, r0, #4096	; 0x1000
    529c:	0d000023 	stceq	0, cr0, [r0, #-140]	; 0xffffff74
    52a0:	02620304 	rsbeq	r0, r2, #268435456	; 0x10000000
    52a4:	00001577 	andeq	r1, r0, r7, ror r5
    52a8:	0002d30a 	andeq	sp, r2, sl, lsl #6
    52ac:	02640300 	rsbeq	r0, r4, #0
    52b0:	00000053 	andeq	r0, r0, r3, asr r0
    52b4:	00092a0a 	andeq	r2, r9, sl, lsl #20
    52b8:	026a0300 	rsbeq	r0, sl, #0
    52bc:	00001515 	andeq	r1, r0, r5, lsl r5
    52c0:	0f440b00 	svceq	0x00440b00
    52c4:	6b030000 	blvs	c52cc <__bss_end+0xb2180>
    52c8:	00155502 	andseq	r5, r5, r2, lsl #10
    52cc:	03040c00 	movweq	r0, #19456	; 0x4c00
    52d0:	15c30270 	strbne	r0, [r3, #624]	; 0x270
    52d4:	53090000 	movwpl	r0, #36864	; 0x9000
    52d8:	0300000e 	movweq	r0, #14
    52dc:	00530272 	subseq	r0, r3, r2, ror r2
    52e0:	10040000 	andne	r0, r4, r0
    52e4:	00230210 	eoreq	r0, r3, r0, lsl r2
    52e8:	000ec809 	andeq	ip, lr, r9, lsl #16
    52ec:	02730300 	rsbseq	r0, r3, #0
    52f0:	00000053 	andeq	r0, r0, r3, asr r0
    52f4:	020b0504 	andeq	r0, fp, #16777216	; 0x1000000
    52f8:	58090023 	stmdapl	r9, {r0, r1, r5}
    52fc:	0300000e 	movweq	r0, #14
    5300:	00530274 	subseq	r0, r3, r4, ror r2
    5304:	0b040000 	bleq	10530c <__bss_end+0xf21c0>
    5308:	00230200 	eoreq	r0, r3, r0, lsl #4
    530c:	03040d00 	movweq	r0, #19712	; 0x4d00
    5310:	15e5026d 	strbne	r0, [r5, #621]!	; 0x26d
    5314:	d30a0000 	movwle	r0, #40960	; 0xa000
    5318:	03000002 	movweq	r0, #2
    531c:	0053026f 	subseq	r0, r3, pc, ror #4
    5320:	2a0a0000 	bcs	285328 <__bss_end+0x2721dc>
    5324:	03000009 	movweq	r0, #9
    5328:	15830275 	strne	r0, [r3, #629]	; 0x275
    532c:	0b000000 	bleq	5334 <__resume1_start+0x5334>
    5330:	00000b7f 	andeq	r0, r0, pc, ror fp
    5334:	c3027603 	movwgt	r7, #9731	; 0x2603
    5338:	0c000015 	stceq	0, cr0, [r0], {21}
    533c:	027b0304 	rsbseq	r0, fp, #268435456	; 0x10000000
    5340:	00001631 	andeq	r1, r0, r1, lsr r6
    5344:	000e5309 	andeq	r5, lr, r9, lsl #6
    5348:	027d0300 	rsbseq	r0, sp, #0
    534c:	00000053 	andeq	r0, r0, r3, asr r0
    5350:	02101004 	andseq	r1, r0, #4
    5354:	c8090023 	stmdagt	r9, {r0, r1, r5}
    5358:	0300000e 	movweq	r0, #14
    535c:	0053027e 	subseq	r0, r3, lr, ror r2
    5360:	05040000 	streq	r0, [r4, #-0]
    5364:	0023020b 	eoreq	r0, r3, fp, lsl #4
    5368:	000e5809 	andeq	r5, lr, r9, lsl #16
    536c:	027f0300 	rsbseq	r0, pc, #0
    5370:	00000053 	andeq	r0, r0, r3, asr r0
    5374:	02000b04 	andeq	r0, r0, #4096	; 0x1000
    5378:	0d000023 	stceq	0, cr0, [r0, #-140]	; 0xffffff74
    537c:	02780304 	rsbseq	r0, r8, #268435456	; 0x10000000
    5380:	00001653 	andeq	r1, r0, r3, asr r6
    5384:	0002d30a 	andeq	sp, r2, sl, lsl #6
    5388:	027a0300 	rsbseq	r0, sl, #0
    538c:	00000053 	andeq	r0, r0, r3, asr r0
    5390:	00092a0a 	andeq	r2, r9, sl, lsl #20
    5394:	02800300 	addeq	r0, r0, #0
    5398:	000015f1 	strdeq	r1, [r0], -r1	; <UNPREDICTABLE>
    539c:	0c1d0b00 	ldceq	11, cr0, [sp], {-0}
    53a0:	81030000 	mrshi	r0, (UNDEF: 3)
    53a4:	00163102 	andseq	r3, r6, r2, lsl #2
    53a8:	03040c00 	movweq	r0, #19456	; 0x4c00
    53ac:	169f0286 	ldrne	r0, [pc], r6, lsl #5
    53b0:	53090000 	movwpl	r0, #36864	; 0x9000
    53b4:	0300000e 	movweq	r0, #14
    53b8:	00530288 	subseq	r0, r3, r8, lsl #5
    53bc:	10040000 	andne	r0, r4, r0
    53c0:	00230210 	eoreq	r0, r3, r0, lsl r2
    53c4:	000ec809 	andeq	ip, lr, r9, lsl #16
    53c8:	02890300 	addeq	r0, r9, #0
    53cc:	00000053 	andeq	r0, r0, r3, asr r0
    53d0:	020b0504 	andeq	r0, fp, #16777216	; 0x1000000
    53d4:	58090023 	stmdapl	r9, {r0, r1, r5}
    53d8:	0300000e 	movweq	r0, #14
    53dc:	0053028a 	subseq	r0, r3, sl, lsl #5
    53e0:	0b040000 	bleq	1053e8 <__bss_end+0xf229c>
    53e4:	00230200 	eoreq	r0, r3, r0, lsl #4
    53e8:	03040d00 	movweq	r0, #19712	; 0x4d00
    53ec:	16c10283 	strbne	r0, [r1], r3, lsl #5
    53f0:	d30a0000 	movwle	r0, #40960	; 0xa000
    53f4:	03000002 	movweq	r0, #2
    53f8:	00530285 	subseq	r0, r3, r5, lsl #5
    53fc:	2a0a0000 	bcs	285404 <__bss_end+0x2722b8>
    5400:	03000009 	movweq	r0, #9
    5404:	165f028b 	ldrbne	r0, [pc], -fp, lsl #5
    5408:	0b000000 	bleq	5410 <__resume1_start+0x5410>
    540c:	00000ea7 	andeq	r0, r0, r7, lsr #29
    5410:	9f028c03 	svcls	0x00028c03
    5414:	0c000016 	stceq	0, cr0, [r0], {22}
    5418:	02910304 	addseq	r0, r1, #268435456	; 0x10000000
    541c:	0000178b 	andeq	r1, r0, fp, lsl #15
    5420:	000b7709 	andeq	r7, fp, r9, lsl #14
    5424:	02930300 	addseq	r0, r3, #0
    5428:	00000053 	andeq	r0, r0, r3, asr r0
    542c:	02190704 	andseq	r0, r9, #1048576	; 0x100000
    5430:	67090023 	strvs	r0, [r9, -r3, lsr #32]
    5434:	0300000e 	movweq	r0, #14
    5438:	00530294 			; <UNDEFINED> instruction: 0x00530294
    543c:	01040000 	mrseq	r0, (UNDEF: 4)
    5440:	00230218 	eoreq	r0, r3, r8, lsl r2
    5444:	0009db09 	andeq	sp, r9, r9, lsl #22
    5448:	02950300 	addseq	r0, r5, #0
    544c:	00000053 	andeq	r0, r0, r3, asr r0
    5450:	02110704 	andseq	r0, r1, #1048576	; 0x100000
    5454:	69090023 	stmdbvs	r9, {r0, r1, r5}
    5458:	0300000c 	movweq	r0, #12
    545c:	00530296 			; <UNDEFINED> instruction: 0x00530296
    5460:	01040000 	mrseq	r0, (UNDEF: 4)
    5464:	00230210 	eoreq	r0, r3, r0, lsl r2
    5468:	000e6d09 	andeq	r6, lr, r9, lsl #26
    546c:	02970300 	addseq	r0, r7, #0
    5470:	00000053 	andeq	r0, r0, r3, asr r0
    5474:	02090704 	andeq	r0, r9, #1048576	; 0x100000
    5478:	53090023 	movwpl	r0, #36899	; 0x9023
    547c:	0300000e 	movweq	r0, #14
    5480:	00530298 			; <UNDEFINED> instruction: 0x00530298
    5484:	01040000 	mrseq	r0, (UNDEF: 4)
    5488:	00230208 	eoreq	r0, r3, r8, lsl #4
    548c:	00047909 	andeq	r7, r4, r9, lsl #18
    5490:	02990300 	addseq	r0, r9, #0
    5494:	00000053 	andeq	r0, r0, r3, asr r0
    5498:	02050304 	andeq	r0, r5, #268435456	; 0x10000000
    549c:	58090023 	stmdapl	r9, {r0, r1, r5}
    54a0:	0300000e 	movweq	r0, #14
    54a4:	0053029a 			; <UNDEFINED> instruction: 0x0053029a
    54a8:	01040000 	mrseq	r0, (UNDEF: 4)
    54ac:	00230204 	eoreq	r0, r3, r4, lsl #4
    54b0:	000bdc09 	andeq	sp, fp, r9, lsl #24
    54b4:	029b0300 	addseq	r0, fp, #0
    54b8:	00000053 	andeq	r0, r0, r3, asr r0
    54bc:	02010304 	andeq	r0, r1, #268435456	; 0x10000000
    54c0:	5d090023 	stcpl	0, cr0, [r9, #-140]	; 0xffffff74
    54c4:	0300000e 	movweq	r0, #14
    54c8:	0053029c 			; <UNDEFINED> instruction: 0x0053029c
    54cc:	01040000 	mrseq	r0, (UNDEF: 4)
    54d0:	00230200 	eoreq	r0, r3, r0, lsl #4
    54d4:	03040d00 	movweq	r0, #19712	; 0x4d00
    54d8:	17ad028e 	strne	r0, [sp, lr, lsl #5]!
    54dc:	d30a0000 	movwle	r0, #40960	; 0xa000
    54e0:	03000002 	movweq	r0, #2
    54e4:	00530290 			; <UNDEFINED> instruction: 0x00530290
    54e8:	2a0a0000 	bcs	2854f0 <__bss_end+0x2723a4>
    54ec:	03000009 	movweq	r0, #9
    54f0:	16cd029d 			; <UNDEFINED> instruction: 0x16cd029d
    54f4:	0b000000 	bleq	54fc <__resume1_start+0x54fc>
    54f8:	000008d2 	ldrdeq	r0, [r0], -r2
    54fc:	8b029e03 	blhi	acd10 <__bss_end+0x99bc4>
    5500:	0c000017 	stceq	0, cr0, [r0], {23}
    5504:	02a30304 	adceq	r0, r3, #268435456	; 0x10000000
    5508:	00001877 	andeq	r1, r0, r7, ror r8
    550c:	000b7709 	andeq	r7, fp, r9, lsl #14
    5510:	02a50300 	adceq	r0, r5, #0
    5514:	00000053 	andeq	r0, r0, r3, asr r0
    5518:	02190704 	andseq	r0, r9, #1048576	; 0x100000
    551c:	67090023 	strvs	r0, [r9, -r3, lsr #32]
    5520:	0300000e 	movweq	r0, #14
    5524:	005302a6 	subseq	r0, r3, r6, lsr #5
    5528:	01040000 	mrseq	r0, (UNDEF: 4)
    552c:	00230218 	eoreq	r0, r3, r8, lsl r2
    5530:	0009db09 	andeq	sp, r9, r9, lsl #22
    5534:	02a70300 	adceq	r0, r7, #0
    5538:	00000053 	andeq	r0, r0, r3, asr r0
    553c:	02110704 	andseq	r0, r1, #1048576	; 0x100000
    5540:	69090023 	stmdbvs	r9, {r0, r1, r5}
    5544:	0300000c 	movweq	r0, #12
    5548:	005302a8 	subseq	r0, r3, r8, lsr #5
    554c:	01040000 	mrseq	r0, (UNDEF: 4)
    5550:	00230210 	eoreq	r0, r3, r0, lsl r2
    5554:	000e6d09 	andeq	r6, lr, r9, lsl #26
    5558:	02a90300 	adceq	r0, r9, #0
    555c:	00000053 	andeq	r0, r0, r3, asr r0
    5560:	02090704 	andeq	r0, r9, #1048576	; 0x100000
    5564:	53090023 	movwpl	r0, #36899	; 0x9023
    5568:	0300000e 	movweq	r0, #14
    556c:	005302aa 	subseq	r0, r3, sl, lsr #5
    5570:	01040000 	mrseq	r0, (UNDEF: 4)
    5574:	00230208 	eoreq	r0, r3, r8, lsl #4
    5578:	00047909 	andeq	r7, r4, r9, lsl #18
    557c:	02ab0300 	adceq	r0, fp, #0
    5580:	00000053 	andeq	r0, r0, r3, asr r0
    5584:	02050304 	andeq	r0, r5, #268435456	; 0x10000000
    5588:	58090023 	stmdapl	r9, {r0, r1, r5}
    558c:	0300000e 	movweq	r0, #14
    5590:	005302ac 	subseq	r0, r3, ip, lsr #5
    5594:	01040000 	mrseq	r0, (UNDEF: 4)
    5598:	00230204 	eoreq	r0, r3, r4, lsl #4
    559c:	000bdc09 	andeq	sp, fp, r9, lsl #24
    55a0:	02ad0300 	adceq	r0, sp, #0
    55a4:	00000053 	andeq	r0, r0, r3, asr r0
    55a8:	02010304 	andeq	r0, r1, #268435456	; 0x10000000
    55ac:	5d090023 	stcpl	0, cr0, [r9, #-140]	; 0xffffff74
    55b0:	0300000e 	movweq	r0, #14
    55b4:	005302ae 	subseq	r0, r3, lr, lsr #5
    55b8:	01040000 	mrseq	r0, (UNDEF: 4)
    55bc:	00230200 	eoreq	r0, r3, r0, lsl #4
    55c0:	03040d00 	movweq	r0, #19712	; 0x4d00
    55c4:	189902a0 	ldmne	r9, {r5, r7, r9}
    55c8:	d30a0000 	movwle	r0, #40960	; 0xa000
    55cc:	03000002 	movweq	r0, #2
    55d0:	005302a2 	subseq	r0, r3, r2, lsr #5
    55d4:	2a0a0000 	bcs	2855dc <__bss_end+0x272490>
    55d8:	03000009 	movweq	r0, #9
    55dc:	17b902af 	ldrne	r0, [r9, pc, lsr #5]!
    55e0:	0b000000 	bleq	55e8 <__resume1_start+0x55e8>
    55e4:	000006a2 	andeq	r0, r0, r2, lsr #13
    55e8:	7702b003 	strvc	fp, [r2, -r3]
    55ec:	0c000018 	stceq	0, cr0, [r0], {24}
    55f0:	02b50304 	adcseq	r0, r5, #268435456	; 0x10000000
    55f4:	0000191b 	andeq	r1, r0, fp, lsl r9
    55f8:	0002f309 	andeq	pc, r2, r9, lsl #6
    55fc:	02b70300 	adcseq	r0, r7, #0
    5600:	00000053 	andeq	r0, r0, r3, asr r0
    5604:	020f1104 	andeq	r1, pc, #1
    5608:	41090023 	tstmi	r9, r3, lsr #32
    560c:	03000017 	movweq	r0, #23
    5610:	005302b8 	ldrheq	r0, [r3], #-40	; 0xffffffd8
    5614:	02040000 	andeq	r0, r4, #0
    5618:	0023020d 	eoreq	r0, r3, sp, lsl #4
    561c:	000bff09 	andeq	pc, fp, r9, lsl #30
    5620:	02b90300 	adcseq	r0, r9, #0
    5624:	00000053 	andeq	r0, r0, r3, asr r0
    5628:	020c0104 	andeq	r0, ip, #1
    562c:	0c090023 	stceq	0, cr0, [r9], {35}	; 0x23
    5630:	03000007 	movweq	r0, #7
    5634:	005302ba 	ldrheq	r0, [r3], #-42	; 0xffffffd6
    5638:	09040000 	stmdbeq	r4, {}	; <UNPREDICTABLE>
    563c:	00230203 	eoreq	r0, r3, r3, lsl #4
    5640:	00031409 	andeq	r1, r3, r9, lsl #8
    5644:	02bb0300 	adcseq	r0, fp, #0
    5648:	00000053 	andeq	r0, r0, r3, asr r0
    564c:	02010204 	andeq	r0, r1, #1073741824	; 0x40000000
    5650:	c3090023 	movwgt	r0, #36899	; 0x9023
    5654:	03000004 	movweq	r0, #4
    5658:	005302bc 	ldrheq	r0, [r3], #-44	; 0xffffffd4
    565c:	01040000 	mrseq	r0, (UNDEF: 4)
    5660:	00230200 	eoreq	r0, r3, r0, lsl #4
    5664:	03040d00 	movweq	r0, #19712	; 0x4d00
    5668:	193d02b2 	ldmdbne	sp!, {r1, r4, r5, r7, r9}
    566c:	d30a0000 	movwle	r0, #40960	; 0xa000
    5670:	03000002 	movweq	r0, #2
    5674:	005302b4 	ldrheq	r0, [r3], #-36	; 0xffffffdc
    5678:	2a0a0000 	bcs	285680 <__bss_end+0x272534>
    567c:	03000009 	movweq	r0, #9
    5680:	18a502bd 	stmiane	r5!, {r0, r2, r3, r4, r5, r7, r9}
    5684:	0b000000 	bleq	568c <__resume1_start+0x568c>
    5688:	000002fc 	strdeq	r0, [r0], -ip
    568c:	1b02be03 	blne	b4ea0 <__bss_end+0xa1d54>
    5690:	0c000019 	stceq	0, cr0, [r0], {25}
    5694:	02c30304 	sbceq	r0, r3, #268435456	; 0x10000000
    5698:	000019bf 			; <UNDEFINED> instruction: 0x000019bf
    569c:	0002f309 	andeq	pc, r2, r9, lsl #6
    56a0:	02c50300 	sbceq	r0, r5, #0
    56a4:	00000053 	andeq	r0, r0, r3, asr r0
    56a8:	020f1104 	andeq	r1, pc, #1
    56ac:	41090023 	tstmi	r9, r3, lsr #32
    56b0:	03000017 	movweq	r0, #23
    56b4:	005302c6 	subseq	r0, r3, r6, asr #5
    56b8:	02040000 	andeq	r0, r4, #0
    56bc:	0023020d 	eoreq	r0, r3, sp, lsl #4
    56c0:	000bff09 	andeq	pc, fp, r9, lsl #30
    56c4:	02c70300 	sbceq	r0, r7, #0
    56c8:	00000053 	andeq	r0, r0, r3, asr r0
    56cc:	020c0104 	andeq	r0, ip, #1
    56d0:	0c090023 	stceq	0, cr0, [r9], {35}	; 0x23
    56d4:	03000007 	movweq	r0, #7
    56d8:	005302c8 	subseq	r0, r3, r8, asr #5
    56dc:	09040000 	stmdbeq	r4, {}	; <UNPREDICTABLE>
    56e0:	00230203 	eoreq	r0, r3, r3, lsl #4
    56e4:	00031409 	andeq	r1, r3, r9, lsl #8
    56e8:	02c90300 	sbceq	r0, r9, #0
    56ec:	00000053 	andeq	r0, r0, r3, asr r0
    56f0:	02010204 	andeq	r0, r1, #1073741824	; 0x40000000
    56f4:	c3090023 	movwgt	r0, #36899	; 0x9023
    56f8:	03000004 	movweq	r0, #4
    56fc:	005302ca 	subseq	r0, r3, sl, asr #5
    5700:	01040000 	mrseq	r0, (UNDEF: 4)
    5704:	00230200 	eoreq	r0, r3, r0, lsl #4
    5708:	03040d00 	movweq	r0, #19712	; 0x4d00
    570c:	19e102c0 	stmibne	r1!, {r6, r7, r9}^
    5710:	d30a0000 	movwle	r0, #40960	; 0xa000
    5714:	03000002 	movweq	r0, #2
    5718:	005302c2 	subseq	r0, r3, r2, asr #5
    571c:	2a0a0000 	bcs	285724 <__bss_end+0x2725d8>
    5720:	03000009 	movweq	r0, #9
    5724:	194902cb 	stmdbne	r9, {r0, r1, r3, r6, r7, r9}^
    5728:	0b000000 	bleq	5730 <__resume1_start+0x5730>
    572c:	00000abc 			; <UNDEFINED> instruction: 0x00000abc
    5730:	bf02cc03 	svclt	0x0002cc03
    5734:	0c000019 	stceq	0, cr0, [r0], {25}
    5738:	02d10304 	sbcseq	r0, r1, #268435456	; 0x10000000
    573c:	00001a63 	andeq	r1, r0, r3, ror #20
    5740:	0002f309 	andeq	pc, r2, r9, lsl #6
    5744:	02d30300 	sbcseq	r0, r3, #0
    5748:	00000053 	andeq	r0, r0, r3, asr r0
    574c:	020f1104 	andeq	r1, pc, #1
    5750:	41090023 	tstmi	r9, r3, lsr #32
    5754:	03000017 	movweq	r0, #23
    5758:	005302d4 	ldrsbeq	r0, [r3], #-36	; 0xffffffdc
    575c:	02040000 	andeq	r0, r4, #0
    5760:	0023020d 	eoreq	r0, r3, sp, lsl #4
    5764:	000bff09 	andeq	pc, fp, r9, lsl #30
    5768:	02d50300 	sbcseq	r0, r5, #0
    576c:	00000053 	andeq	r0, r0, r3, asr r0
    5770:	020c0104 	andeq	r0, ip, #1
    5774:	0c090023 	stceq	0, cr0, [r9], {35}	; 0x23
    5778:	03000007 	movweq	r0, #7
    577c:	005302d6 	ldrsbeq	r0, [r3], #-38	; 0xffffffda
    5780:	09040000 	stmdbeq	r4, {}	; <UNPREDICTABLE>
    5784:	00230203 	eoreq	r0, r3, r3, lsl #4
    5788:	00031409 	andeq	r1, r3, r9, lsl #8
    578c:	02d70300 	sbcseq	r0, r7, #0
    5790:	00000053 	andeq	r0, r0, r3, asr r0
    5794:	02010204 	andeq	r0, r1, #1073741824	; 0x40000000
    5798:	c3090023 	movwgt	r0, #36899	; 0x9023
    579c:	03000004 	movweq	r0, #4
    57a0:	005302d8 	ldrsbeq	r0, [r3], #-40	; 0xffffffd8
    57a4:	01040000 	mrseq	r0, (UNDEF: 4)
    57a8:	00230200 	eoreq	r0, r3, r0, lsl #4
    57ac:	03040d00 	movweq	r0, #19712	; 0x4d00
    57b0:	1a8502ce 	bne	fe1462f0 <__bss_end+0xfe1331a4>
    57b4:	d30a0000 	movwle	r0, #40960	; 0xa000
    57b8:	03000002 	movweq	r0, #2
    57bc:	005302d0 	ldrsbeq	r0, [r3], #-32	; 0xffffffe0
    57c0:	2a0a0000 	bcs	2857c8 <__bss_end+0x27267c>
    57c4:	03000009 	movweq	r0, #9
    57c8:	19ed02d9 	stmibne	sp!, {r0, r3, r4, r6, r7, r9}^
    57cc:	0b000000 	bleq	57d4 <__resume1_start+0x57d4>
    57d0:	00000e17 	andeq	r0, r0, r7, lsl lr
    57d4:	6302da03 	movwvs	sp, #10755	; 0x2a03
    57d8:	0c00001a 	stceq	0, cr0, [r0], {26}
    57dc:	02df0304 	sbcseq	r0, pc, #268435456	; 0x10000000
    57e0:	00001b07 	andeq	r1, r0, r7, lsl #22
    57e4:	0002f309 	andeq	pc, r2, r9, lsl #6
    57e8:	02e10300 	rsceq	r0, r1, #0
    57ec:	00000053 	andeq	r0, r0, r3, asr r0
    57f0:	020f1104 	andeq	r1, pc, #1
    57f4:	41090023 	tstmi	r9, r3, lsr #32
    57f8:	03000017 	movweq	r0, #23
    57fc:	005302e2 	subseq	r0, r3, r2, ror #5
    5800:	02040000 	andeq	r0, r4, #0
    5804:	0023020d 	eoreq	r0, r3, sp, lsl #4
    5808:	000bff09 	andeq	pc, fp, r9, lsl #30
    580c:	02e30300 	rsceq	r0, r3, #0
    5810:	00000053 	andeq	r0, r0, r3, asr r0
    5814:	020c0104 	andeq	r0, ip, #1
    5818:	0c090023 	stceq	0, cr0, [r9], {35}	; 0x23
    581c:	03000007 	movweq	r0, #7
    5820:	005302e4 	subseq	r0, r3, r4, ror #5
    5824:	09040000 	stmdbeq	r4, {}	; <UNPREDICTABLE>
    5828:	00230203 	eoreq	r0, r3, r3, lsl #4
    582c:	00031409 	andeq	r1, r3, r9, lsl #8
    5830:	02e50300 	rsceq	r0, r5, #0
    5834:	00000053 	andeq	r0, r0, r3, asr r0
    5838:	02010204 	andeq	r0, r1, #1073741824	; 0x40000000
    583c:	c3090023 	movwgt	r0, #36899	; 0x9023
    5840:	03000004 	movweq	r0, #4
    5844:	005302e6 	subseq	r0, r3, r6, ror #5
    5848:	01040000 	mrseq	r0, (UNDEF: 4)
    584c:	00230200 	eoreq	r0, r3, r0, lsl #4
    5850:	03040d00 	movweq	r0, #19712	; 0x4d00
    5854:	1b2902dc 	blne	a463cc <__bss_end+0xa33280>
    5858:	d30a0000 	movwle	r0, #40960	; 0xa000
    585c:	03000002 	movweq	r0, #2
    5860:	005302de 	ldrsbeq	r0, [r3], #-46	; 0xffffffd2
    5864:	2a0a0000 	bcs	28586c <__bss_end+0x272720>
    5868:	03000009 	movweq	r0, #9
    586c:	1a9102e7 	bne	fe446410 <__bss_end+0xfe4332c4>
    5870:	0b000000 	bleq	5878 <__resume1_start+0x5878>
    5874:	00000960 	andeq	r0, r0, r0, ror #18
    5878:	0702e803 	streq	lr, [r2, -r3, lsl #16]
    587c:	0c00001b 	stceq	0, cr0, [r0], {27}
    5880:	02ed0304 	rsceq	r0, sp, #268435456	; 0x10000000
    5884:	00001bab 	andeq	r1, r0, fp, lsr #23
    5888:	0002f309 	andeq	pc, r2, r9, lsl #6
    588c:	02ef0300 	rsceq	r0, pc, #0
    5890:	00000053 	andeq	r0, r0, r3, asr r0
    5894:	020f1104 	andeq	r1, pc, #1
    5898:	41090023 	tstmi	r9, r3, lsr #32
    589c:	03000017 	movweq	r0, #23
    58a0:	005302f0 	ldrsheq	r0, [r3], #-32	; 0xffffffe0
    58a4:	02040000 	andeq	r0, r4, #0
    58a8:	0023020d 	eoreq	r0, r3, sp, lsl #4
    58ac:	000bff09 	andeq	pc, fp, r9, lsl #30
    58b0:	02f10300 	rscseq	r0, r1, #0
    58b4:	00000053 	andeq	r0, r0, r3, asr r0
    58b8:	020c0104 	andeq	r0, ip, #1
    58bc:	0c090023 	stceq	0, cr0, [r9], {35}	; 0x23
    58c0:	03000007 	movweq	r0, #7
    58c4:	005302f2 	ldrsheq	r0, [r3], #-34	; 0xffffffde
    58c8:	09040000 	stmdbeq	r4, {}	; <UNPREDICTABLE>
    58cc:	00230203 	eoreq	r0, r3, r3, lsl #4
    58d0:	00031409 	andeq	r1, r3, r9, lsl #8
    58d4:	02f30300 	rscseq	r0, r3, #0
    58d8:	00000053 	andeq	r0, r0, r3, asr r0
    58dc:	02010204 	andeq	r0, r1, #1073741824	; 0x40000000
    58e0:	c3090023 	movwgt	r0, #36899	; 0x9023
    58e4:	03000004 	movweq	r0, #4
    58e8:	005302f4 	ldrsheq	r0, [r3], #-36	; 0xffffffdc
    58ec:	01040000 	mrseq	r0, (UNDEF: 4)
    58f0:	00230200 	eoreq	r0, r3, r0, lsl #4
    58f4:	03040d00 	movweq	r0, #19712	; 0x4d00
    58f8:	1bcd02ea 	blne	ff3464a8 <__bss_end+0xff33335c>
    58fc:	d30a0000 	movwle	r0, #40960	; 0xa000
    5900:	03000002 	movweq	r0, #2
    5904:	005302ec 	subseq	r0, r3, ip, ror #5
    5908:	2a0a0000 	bcs	285910 <__bss_end+0x2727c4>
    590c:	03000009 	movweq	r0, #9
    5910:	1b3502f5 	blne	d464ec <__bss_end+0xd333a0>
    5914:	0b000000 	bleq	591c <__resume1_start+0x591c>
    5918:	0000060b 	andeq	r0, r0, fp, lsl #12
    591c:	ab02f603 	blge	c3130 <__bss_end+0xaffe4>
    5920:	0c00001b 	stceq	0, cr0, [r0], {27}
    5924:	02fb0304 	rscseq	r0, fp, #268435456	; 0x10000000
    5928:	00001c4f 	andeq	r1, r0, pc, asr #24
    592c:	0002f309 	andeq	pc, r2, r9, lsl #6
    5930:	02fd0300 	rscseq	r0, sp, #0
    5934:	00000053 	andeq	r0, r0, r3, asr r0
    5938:	020f1104 	andeq	r1, pc, #1
    593c:	41090023 	tstmi	r9, r3, lsr #32
    5940:	03000017 	movweq	r0, #23
    5944:	005302fe 	ldrsheq	r0, [r3], #-46	; 0xffffffd2
    5948:	02040000 	andeq	r0, r4, #0
    594c:	0023020d 	eoreq	r0, r3, sp, lsl #4
    5950:	000bff09 	andeq	pc, fp, r9, lsl #30
    5954:	02ff0300 	rscseq	r0, pc, #0
    5958:	00000053 	andeq	r0, r0, r3, asr r0
    595c:	020c0104 	andeq	r0, ip, #1
    5960:	0c090023 	stceq	0, cr0, [r9], {35}	; 0x23
    5964:	03000007 	movweq	r0, #7
    5968:	00530300 	subseq	r0, r3, r0, lsl #6
    596c:	09040000 	stmdbeq	r4, {}	; <UNPREDICTABLE>
    5970:	00230203 	eoreq	r0, r3, r3, lsl #4
    5974:	00031409 	andeq	r1, r3, r9, lsl #8
    5978:	03010300 	movweq	r0, #4864	; 0x1300
    597c:	00000053 	andeq	r0, r0, r3, asr r0
    5980:	02010204 	andeq	r0, r1, #1073741824	; 0x40000000
    5984:	c3090023 	movwgt	r0, #36899	; 0x9023
    5988:	03000004 	movweq	r0, #4
    598c:	00530302 	subseq	r0, r3, r2, lsl #6
    5990:	01040000 	mrseq	r0, (UNDEF: 4)
    5994:	00230200 	eoreq	r0, r3, r0, lsl #4
    5998:	03040d00 	movweq	r0, #19712	; 0x4d00
    599c:	1c7102f8 	lfmne	f0, 2, [r1], #-992	; 0xfffffc20
    59a0:	d30a0000 	movwle	r0, #40960	; 0xa000
    59a4:	03000002 	movweq	r0, #2
    59a8:	005302fa 	ldrsheq	r0, [r3], #-42	; 0xffffffd6
    59ac:	2a0a0000 	bcs	2859b4 <__bss_end+0x272868>
    59b0:	03000009 	movweq	r0, #9
    59b4:	1bd90303 	blne	ff6465c8 <__bss_end+0xff63347c>
    59b8:	0b000000 	bleq	59c0 <__resume1_start+0x59c0>
    59bc:	000005f2 	strdeq	r0, [r0], -r2
    59c0:	4f030403 	svcmi	0x00030403
    59c4:	0c00001c 	stceq	0, cr0, [r0], {28}
    59c8:	03090304 	movweq	r0, #37636	; 0x9304
    59cc:	00001cf3 	strdeq	r1, [r0], -r3
    59d0:	0002f309 	andeq	pc, r2, r9, lsl #6
    59d4:	030b0300 	movweq	r0, #45824	; 0xb300
    59d8:	00000053 	andeq	r0, r0, r3, asr r0
    59dc:	020f1104 	andeq	r1, pc, #1
    59e0:	41090023 	tstmi	r9, r3, lsr #32
    59e4:	03000017 	movweq	r0, #23
    59e8:	0053030c 	subseq	r0, r3, ip, lsl #6
    59ec:	02040000 	andeq	r0, r4, #0
    59f0:	0023020d 	eoreq	r0, r3, sp, lsl #4
    59f4:	000bff09 	andeq	pc, fp, r9, lsl #30
    59f8:	030d0300 	movweq	r0, #54016	; 0xd300
    59fc:	00000053 	andeq	r0, r0, r3, asr r0
    5a00:	020c0104 	andeq	r0, ip, #1
    5a04:	0c090023 	stceq	0, cr0, [r9], {35}	; 0x23
    5a08:	03000007 	movweq	r0, #7
    5a0c:	0053030e 	subseq	r0, r3, lr, lsl #6
    5a10:	09040000 	stmdbeq	r4, {}	; <UNPREDICTABLE>
    5a14:	00230203 	eoreq	r0, r3, r3, lsl #4
    5a18:	00031409 	andeq	r1, r3, r9, lsl #8
    5a1c:	030f0300 	movweq	r0, #62208	; 0xf300
    5a20:	00000053 	andeq	r0, r0, r3, asr r0
    5a24:	02010204 	andeq	r0, r1, #1073741824	; 0x40000000
    5a28:	c3090023 	movwgt	r0, #36899	; 0x9023
    5a2c:	03000004 	movweq	r0, #4
    5a30:	00530310 	subseq	r0, r3, r0, lsl r3
    5a34:	01040000 	mrseq	r0, (UNDEF: 4)
    5a38:	00230200 	eoreq	r0, r3, r0, lsl #4
    5a3c:	03040d00 	movweq	r0, #19712	; 0x4d00
    5a40:	1d150306 	ldcne	3, cr0, [r5, #-24]	; 0xffffffe8
    5a44:	d30a0000 	movwle	r0, #40960	; 0xa000
    5a48:	03000002 	movweq	r0, #2
    5a4c:	00530308 	subseq	r0, r3, r8, lsl #6
    5a50:	2a0a0000 	bcs	285a58 <__bss_end+0x27290c>
    5a54:	03000009 	movweq	r0, #9
    5a58:	1c7d0311 	ldclne	3, cr0, [sp], #-68	; 0xffffffbc
    5a5c:	0b000000 	bleq	5a64 <__resume1_start+0x5a64>
    5a60:	00000ed6 	ldrdeq	r0, [r0], -r6
    5a64:	f3031203 	vhsub.u8	d1, d3, d3
    5a68:	0c00001c 	stceq	0, cr0, [r0], {28}
    5a6c:	03170304 	tsteq	r7, #268435456	; 0x10000000
    5a70:	00001d97 	muleq	r0, r7, sp
    5a74:	0002f309 	andeq	pc, r2, r9, lsl #6
    5a78:	03190300 	tsteq	r9, #0
    5a7c:	00000053 	andeq	r0, r0, r3, asr r0
    5a80:	020f1104 	andeq	r1, pc, #1
    5a84:	41090023 	tstmi	r9, r3, lsr #32
    5a88:	03000017 	movweq	r0, #23
    5a8c:	0053031a 	subseq	r0, r3, sl, lsl r3
    5a90:	02040000 	andeq	r0, r4, #0
    5a94:	0023020d 	eoreq	r0, r3, sp, lsl #4
    5a98:	000bff09 	andeq	pc, fp, r9, lsl #30
    5a9c:	031b0300 	tsteq	fp, #0
    5aa0:	00000053 	andeq	r0, r0, r3, asr r0
    5aa4:	020c0104 	andeq	r0, ip, #1
    5aa8:	0c090023 	stceq	0, cr0, [r9], {35}	; 0x23
    5aac:	03000007 	movweq	r0, #7
    5ab0:	0053031c 	subseq	r0, r3, ip, lsl r3
    5ab4:	09040000 	stmdbeq	r4, {}	; <UNPREDICTABLE>
    5ab8:	00230203 	eoreq	r0, r3, r3, lsl #4
    5abc:	00031409 	andeq	r1, r3, r9, lsl #8
    5ac0:	031d0300 	tsteq	sp, #0
    5ac4:	00000053 	andeq	r0, r0, r3, asr r0
    5ac8:	02010204 	andeq	r0, r1, #1073741824	; 0x40000000
    5acc:	c3090023 	movwgt	r0, #36899	; 0x9023
    5ad0:	03000004 	movweq	r0, #4
    5ad4:	0053031e 	subseq	r0, r3, lr, lsl r3
    5ad8:	01040000 	mrseq	r0, (UNDEF: 4)
    5adc:	00230200 	eoreq	r0, r3, r0, lsl #4
    5ae0:	03040d00 	movweq	r0, #19712	; 0x4d00
    5ae4:	1db90314 	ldcne	3, cr0, [r9, #80]!	; 0x50
    5ae8:	d30a0000 	movwle	r0, #40960	; 0xa000
    5aec:	03000002 	movweq	r0, #2
    5af0:	00530316 	subseq	r0, r3, r6, lsl r3
    5af4:	2a0a0000 	bcs	285afc <__bss_end+0x2729b0>
    5af8:	03000009 	movweq	r0, #9
    5afc:	1d21031f 	stcne	3, cr0, [r1, #-124]!	; 0xffffff84
    5b00:	0b000000 	bleq	5b08 <__resume1_start+0x5b08>
    5b04:	000008ff 	strdeq	r0, [r0], -pc	; <UNPREDICTABLE>
    5b08:	97032003 	strls	r2, [r3, -r3]
    5b0c:	0c00001d 	stceq	0, cr0, [r0], {29}
    5b10:	03250304 	teqeq	r5, #268435456	; 0x10000000
    5b14:	00001e3b 	andeq	r1, r0, fp, lsr lr
    5b18:	0002f309 	andeq	pc, r2, r9, lsl #6
    5b1c:	03270300 	teqeq	r7, #0
    5b20:	00000053 	andeq	r0, r0, r3, asr r0
    5b24:	020f1104 	andeq	r1, pc, #1
    5b28:	41090023 	tstmi	r9, r3, lsr #32
    5b2c:	03000017 	movweq	r0, #23
    5b30:	00530328 	subseq	r0, r3, r8, lsr #6
    5b34:	02040000 	andeq	r0, r4, #0
    5b38:	0023020d 	eoreq	r0, r3, sp, lsl #4
    5b3c:	000bff09 	andeq	pc, fp, r9, lsl #30
    5b40:	03290300 	teqeq	r9, #0
    5b44:	00000053 	andeq	r0, r0, r3, asr r0
    5b48:	020c0104 	andeq	r0, ip, #1
    5b4c:	0c090023 	stceq	0, cr0, [r9], {35}	; 0x23
    5b50:	03000007 	movweq	r0, #7
    5b54:	0053032a 	subseq	r0, r3, sl, lsr #6
    5b58:	09040000 	stmdbeq	r4, {}	; <UNPREDICTABLE>
    5b5c:	00230203 	eoreq	r0, r3, r3, lsl #4
    5b60:	00031409 	andeq	r1, r3, r9, lsl #8
    5b64:	032b0300 	teqeq	fp, #0
    5b68:	00000053 	andeq	r0, r0, r3, asr r0
    5b6c:	02010204 	andeq	r0, r1, #1073741824	; 0x40000000
    5b70:	c3090023 	movwgt	r0, #36899	; 0x9023
    5b74:	03000004 	movweq	r0, #4
    5b78:	0053032c 	subseq	r0, r3, ip, lsr #6
    5b7c:	01040000 	mrseq	r0, (UNDEF: 4)
    5b80:	00230200 	eoreq	r0, r3, r0, lsl #4
    5b84:	03040d00 	movweq	r0, #19712	; 0x4d00
    5b88:	1e5d0322 	cdpne	3, 5, cr0, cr13, cr2, {1}
    5b8c:	d30a0000 	movwle	r0, #40960	; 0xa000
    5b90:	03000002 	movweq	r0, #2
    5b94:	00530324 	subseq	r0, r3, r4, lsr #6
    5b98:	2a0a0000 	bcs	285ba0 <__bss_end+0x272a54>
    5b9c:	03000009 	movweq	r0, #9
    5ba0:	1dc5032d 	stclne	3, cr0, [r5, #180]	; 0xb4
    5ba4:	0b000000 	bleq	5bac <__resume1_start+0x5bac>
    5ba8:	00000806 	andeq	r0, r0, r6, lsl #16
    5bac:	3b032e03 	blcc	d13c0 <__bss_end+0xbe274>
    5bb0:	0c00001e 	stceq	0, cr0, [r0], {30}
    5bb4:	03330304 	teqeq	r3, #268435456	; 0x10000000
    5bb8:	00001edf 	ldrdeq	r1, [r0], -pc	; <UNPREDICTABLE>
    5bbc:	0002f309 	andeq	pc, r2, r9, lsl #6
    5bc0:	03350300 	teqeq	r5, #0
    5bc4:	00000053 	andeq	r0, r0, r3, asr r0
    5bc8:	020f1104 	andeq	r1, pc, #1
    5bcc:	41090023 	tstmi	r9, r3, lsr #32
    5bd0:	03000017 	movweq	r0, #23
    5bd4:	00530336 	subseq	r0, r3, r6, lsr r3
    5bd8:	02040000 	andeq	r0, r4, #0
    5bdc:	0023020d 	eoreq	r0, r3, sp, lsl #4
    5be0:	000bff09 	andeq	pc, fp, r9, lsl #30
    5be4:	03370300 	teqeq	r7, #0
    5be8:	00000053 	andeq	r0, r0, r3, asr r0
    5bec:	020c0104 	andeq	r0, ip, #1
    5bf0:	0c090023 	stceq	0, cr0, [r9], {35}	; 0x23
    5bf4:	03000007 	movweq	r0, #7
    5bf8:	00530338 	subseq	r0, r3, r8, lsr r3
    5bfc:	09040000 	stmdbeq	r4, {}	; <UNPREDICTABLE>
    5c00:	00230203 	eoreq	r0, r3, r3, lsl #4
    5c04:	00031409 	andeq	r1, r3, r9, lsl #8
    5c08:	03390300 	teqeq	r9, #0
    5c0c:	00000053 	andeq	r0, r0, r3, asr r0
    5c10:	02010204 	andeq	r0, r1, #1073741824	; 0x40000000
    5c14:	c3090023 	movwgt	r0, #36899	; 0x9023
    5c18:	03000004 	movweq	r0, #4
    5c1c:	0053033a 	subseq	r0, r3, sl, lsr r3
    5c20:	01040000 	mrseq	r0, (UNDEF: 4)
    5c24:	00230200 	eoreq	r0, r3, r0, lsl #4
    5c28:	03040d00 	movweq	r0, #19712	; 0x4d00
    5c2c:	1f010330 	svcne	0x00010330
    5c30:	d30a0000 	movwle	r0, #40960	; 0xa000
    5c34:	03000002 	movweq	r0, #2
    5c38:	00530332 	subseq	r0, r3, r2, lsr r3
    5c3c:	2a0a0000 	bcs	285c44 <__bss_end+0x272af8>
    5c40:	03000009 	movweq	r0, #9
    5c44:	1e69033b 	mcrne	3, 3, r0, cr9, cr11, {1}
    5c48:	0b000000 	bleq	5c50 <__resume1_start+0x5c50>
    5c4c:	0000093e 	andeq	r0, r0, lr, lsr r9
    5c50:	df033c03 	svcle	0x00033c03
    5c54:	0c00001e 	stceq	0, cr0, [r0], {30}
    5c58:	03410304 	movteq	r0, #4868	; 0x1304
    5c5c:	00001fa7 	andeq	r1, r0, r7, lsr #31
    5c60:	000e5309 	andeq	r5, lr, r9, lsl #6
    5c64:	03430300 	movteq	r0, #13056	; 0x3300
    5c68:	00000053 	andeq	r0, r0, r3, asr r0
    5c6c:	02180804 	andseq	r0, r8, #262144	; 0x40000
    5c70:	68090023 	stmdavs	r9, {r0, r1, r5}
    5c74:	03000005 	movweq	r0, #5
    5c78:	00530344 	subseq	r0, r3, r4, asr #6
    5c7c:	05040000 	streq	r0, [r4, #-0]
    5c80:	00230213 	eoreq	r0, r3, r3, lsl r2
    5c84:	000e5809 	andeq	r5, lr, r9, lsl #16
    5c88:	03450300 	movteq	r0, #21248	; 0x5300
    5c8c:	00000053 	andeq	r0, r0, r3, asr r0
    5c90:	020c0704 	andeq	r0, ip, #1048576	; 0x100000
    5c94:	72090023 	andvc	r0, r9, #35	; 0x23
    5c98:	03000005 	movweq	r0, #5
    5c9c:	00530346 	subseq	r0, r3, r6, asr #6
    5ca0:	02040000 	andeq	r0, r4, #0
    5ca4:	0023020a 	eoreq	r0, r3, sl, lsl #4
    5ca8:	000e5d09 	andeq	r5, lr, r9, lsl #26
    5cac:	03470300 	movteq	r0, #29440	; 0x7300
    5cb0:	00000053 	andeq	r0, r0, r3, asr r0
    5cb4:	02080204 	andeq	r0, r8, #1073741824	; 0x40000000
    5cb8:	74090023 	strvc	r0, [r9], #-35	; 0x23
    5cbc:	0300000d 	movweq	r0, #13
    5cc0:	00530348 	subseq	r0, r3, r8, asr #6
    5cc4:	02040000 	andeq	r0, r4, #0
    5cc8:	00230206 	eoreq	r0, r3, r6, lsl #4
    5ccc:	000e6209 	andeq	r6, lr, r9, lsl #4
    5cd0:	03490300 	movteq	r0, #37632	; 0x9300
    5cd4:	00000053 	andeq	r0, r0, r3, asr r0
    5cd8:	02010504 	andeq	r0, r1, #16777216	; 0x1000000
    5cdc:	97090023 	strls	r0, [r9, -r3, lsr #32]
    5ce0:	03000006 	movweq	r0, #6
    5ce4:	0053034a 	subseq	r0, r3, sl, asr #6
    5ce8:	01040000 	mrseq	r0, (UNDEF: 4)
    5cec:	00230200 	eoreq	r0, r3, r0, lsl #4
    5cf0:	03040d00 	movweq	r0, #19712	; 0x4d00
    5cf4:	1fc9033e 	svcne	0x00c9033e
    5cf8:	d30a0000 	movwle	r0, #40960	; 0xa000
    5cfc:	03000002 	movweq	r0, #2
    5d00:	00530340 	subseq	r0, r3, r0, asr #6
    5d04:	2a0a0000 	bcs	285d0c <__bss_end+0x272bc0>
    5d08:	03000009 	movweq	r0, #9
    5d0c:	1f0d034b 	svcne	0x000d034b
    5d10:	0b000000 	bleq	5d18 <__resume1_start+0x5d18>
    5d14:	00000ba3 	andeq	r0, r0, r3, lsr #23
    5d18:	a7034c03 	strge	r4, [r3, -r3, lsl #24]
    5d1c:	0c00001f 	stceq	0, cr0, [r0], {31}
    5d20:	03510304 	cmpeq	r1, #268435456	; 0x10000000
    5d24:	0000206f 	andeq	r2, r0, pc, rrx
    5d28:	000e5309 	andeq	r5, lr, r9, lsl #6
    5d2c:	03530300 	cmpeq	r3, #0
    5d30:	00000053 	andeq	r0, r0, r3, asr r0
    5d34:	02180804 	andseq	r0, r8, #262144	; 0x40000
    5d38:	68090023 	stmdavs	r9, {r0, r1, r5}
    5d3c:	03000005 	movweq	r0, #5
    5d40:	00530354 	subseq	r0, r3, r4, asr r3
    5d44:	05040000 	streq	r0, [r4, #-0]
    5d48:	00230213 	eoreq	r0, r3, r3, lsl r2
    5d4c:	000e5809 	andeq	r5, lr, r9, lsl #16
    5d50:	03550300 	cmpeq	r5, #0
    5d54:	00000053 	andeq	r0, r0, r3, asr r0
    5d58:	020c0704 	andeq	r0, ip, #1048576	; 0x100000
    5d5c:	72090023 	andvc	r0, r9, #35	; 0x23
    5d60:	03000005 	movweq	r0, #5
    5d64:	00530356 	subseq	r0, r3, r6, asr r3
    5d68:	02040000 	andeq	r0, r4, #0
    5d6c:	0023020a 	eoreq	r0, r3, sl, lsl #4
    5d70:	000e5d09 	andeq	r5, lr, r9, lsl #26
    5d74:	03570300 	cmpeq	r7, #0
    5d78:	00000053 	andeq	r0, r0, r3, asr r0
    5d7c:	02080204 	andeq	r0, r8, #1073741824	; 0x40000000
    5d80:	74090023 	strvc	r0, [r9], #-35	; 0x23
    5d84:	0300000d 	movweq	r0, #13
    5d88:	00530358 	subseq	r0, r3, r8, asr r3
    5d8c:	02040000 	andeq	r0, r4, #0
    5d90:	00230206 	eoreq	r0, r3, r6, lsl #4
    5d94:	000e6209 	andeq	r6, lr, r9, lsl #4
    5d98:	03590300 	cmpeq	r9, #0
    5d9c:	00000053 	andeq	r0, r0, r3, asr r0
    5da0:	02010504 	andeq	r0, r1, #16777216	; 0x1000000
    5da4:	97090023 	strls	r0, [r9, -r3, lsr #32]
    5da8:	03000006 	movweq	r0, #6
    5dac:	0053035a 	subseq	r0, r3, sl, asr r3
    5db0:	01040000 	mrseq	r0, (UNDEF: 4)
    5db4:	00230200 	eoreq	r0, r3, r0, lsl #4
    5db8:	03040d00 	movweq	r0, #19712	; 0x4d00
    5dbc:	2091034e 	addscs	r0, r1, lr, asr #6
    5dc0:	d30a0000 	movwle	r0, #40960	; 0xa000
    5dc4:	03000002 	movweq	r0, #2
    5dc8:	00530350 	subseq	r0, r3, r0, asr r3
    5dcc:	2a0a0000 	bcs	285dd4 <__bss_end+0x272c88>
    5dd0:	03000009 	movweq	r0, #9
    5dd4:	1fd5035b 	svcne	0x00d5035b
    5dd8:	0b000000 	bleq	5de0 <__resume1_start+0x5de0>
    5ddc:	000005cf 	andeq	r0, r0, pc, asr #11
    5de0:	6f035c03 	svcvs	0x00035c03
    5de4:	0e000020 	cdpeq	0, 0, cr0, cr0, cr0, {1}
    5de8:	00000f22 	andeq	r0, r0, r2, lsr #30
    5dec:	5e030184 	adfpld	f0, f3, f4
    5df0:	00246303 	eoreq	r6, r4, r3, lsl #6
    5df4:	088d0f00 	stmeq	sp, {r8, r9, sl, fp}
    5df8:	61030000 	mrsvs	r0, (UNDEF: 3)
    5dfc:	00246303 	eoreq	r6, r4, r3, lsl #6
    5e00:	00230200 	eoreq	r0, r3, r0, lsl #4
    5e04:	0003c00f 	andeq	ip, r3, pc
    5e08:	03620300 	cmneq	r2, #0
    5e0c:	00002468 	andeq	r2, r0, r8, ror #8
    5e10:	0f042302 	svceq	0x00042302
    5e14:	00000a59 	andeq	r0, r0, r9, asr sl
    5e18:	6d036303 	stcvs	3, cr6, [r3, #-12]
    5e1c:	02000024 	andeq	r0, r0, #36	; 0x24
    5e20:	4d0f0823 	stcmi	8, cr0, [pc, #-140]	; 5d9c <__resume1_start+0x5d9c>
    5e24:	03000008 	movweq	r0, #8
    5e28:	24720364 	ldrbtcs	r0, [r2], #-868	; 0x364
    5e2c:	23020000 	movwcs	r0, #8192	; 0x2000
    5e30:	08e30f0c 	stmiaeq	r3!, {r2, r3, r8, r9, sl, fp}^
    5e34:	65030000 	strvs	r0, [r3, #-0]
    5e38:	00247703 	eoreq	r7, r4, r3, lsl #14
    5e3c:	10230200 	eorne	r0, r3, r0, lsl #4
    5e40:	0006fb0f 	andeq	pc, r6, pc, lsl #22
    5e44:	03660300 	cmneq	r6, #0
    5e48:	0000247c 	andeq	r2, r0, ip, ror r4
    5e4c:	0f142302 	svceq	0x00142302
    5e50:	0000049a 	muleq	r0, sl, r4
    5e54:	81036703 	tsthi	r3, r3, lsl #14
    5e58:	02000024 	andeq	r0, r0, #36	; 0x24
    5e5c:	5a0f1823 	bpl	3cbef0 <__bss_end+0x3b8da4>
    5e60:	0300000d 	movweq	r0, #13
    5e64:	24860368 	strcs	r0, [r6], #872	; 0x368
    5e68:	23020000 	movwcs	r0, #8192	; 0x2000
    5e6c:	08c60f1c 	stmiaeq	r6, {r2, r3, r4, r8, r9, sl, fp}^
    5e70:	69030000 	stmdbvs	r3, {}	; <UNPREDICTABLE>
    5e74:	00248b03 	eoreq	r8, r4, r3, lsl #22
    5e78:	20230200 	eorcs	r0, r3, r0, lsl #4
    5e7c:	000ab10f 	andeq	fp, sl, pc, lsl #2
    5e80:	036a0300 	cmneq	sl, #0
    5e84:	00002490 	muleq	r0, r0, r4
    5e88:	0f242302 	svceq	0x00242302
    5e8c:	00000976 	andeq	r0, r0, r6, ror r9
    5e90:	95036b03 	strls	r6, [r3, #-2819]	; 0xb03
    5e94:	02000024 	andeq	r0, r0, #36	; 0x24
    5e98:	8c0f2823 	stchi	8, cr2, [pc], {35}	; 0x23
    5e9c:	03000003 	movweq	r0, #3
    5ea0:	249a036c 	ldrcs	r0, [sl], #876	; 0x36c
    5ea4:	23020000 	movwcs	r0, #8192	; 0x2000
    5ea8:	0c5f0f2c 	mrrceq	15, 2, r0, pc, cr12	; <UNPREDICTABLE>
    5eac:	6e030000 	cdpvs	0, 0, cr0, cr3, cr0, {0}
    5eb0:	0024af03 	eoreq	sl, r4, r3, lsl #30
    5eb4:	30230200 	eorcc	r0, r3, r0, lsl #4
    5eb8:	000a710f 	andeq	r7, sl, pc, lsl #2
    5ebc:	036f0300 	cmneq	pc, #0
    5ec0:	000024b4 			; <UNDEFINED> instruction: 0x000024b4
    5ec4:	0f502302 	svceq	0x00502302
    5ec8:	0000039c 	muleq	r0, ip, r3
    5ecc:	b9037003 	stmdblt	r3, {r0, r1, ip, sp, lr}
    5ed0:	02000024 	andeq	r0, r0, #36	; 0x24
    5ed4:	560f5423 	strpl	r5, [pc], -r3, lsr #8
    5ed8:	0300000c 	movweq	r0, #12
    5edc:	24be0371 	ldrtcs	r0, [lr], #881	; 0x371
    5ee0:	23020000 	movwcs	r0, #8192	; 0x2000
    5ee4:	0c0b0f58 	stceq	15, cr0, [fp], {88}	; 0x58
    5ee8:	72030000 	andvc	r0, r3, #0
    5eec:	0024c303 	eoreq	ip, r4, r3, lsl #6
    5ef0:	5c230200 	sfmpl	f0, 4, [r3], #-0
    5ef4:	000dbf0f 	andeq	fp, sp, pc, lsl #30
    5ef8:	03730300 	cmneq	r3, #0
    5efc:	000024c8 	andeq	r2, r0, r8, asr #9
    5f00:	0f602302 	svceq	0x00602302
    5f04:	0000082d 	andeq	r0, r0, sp, lsr #16
    5f08:	cd037403 	cfstrsgt	mvf7, [r3, #-12]
    5f0c:	02000024 	andeq	r0, r0, #36	; 0x24
    5f10:	2e0f6423 	cdpcs	4, 0, cr6, cr15, cr3, {1}
    5f14:	03000005 	movweq	r0, #5
    5f18:	24d20375 	ldrbcs	r0, [r2], #885	; 0x375
    5f1c:	23020000 	movwcs	r0, #8192	; 0x2000
    5f20:	04650f68 	strbteq	r0, [r5], #-3944	; 0xf68
    5f24:	76030000 	strvc	r0, [r3], -r0
    5f28:	0024d703 	eoreq	sp, r4, r3, lsl #14
    5f2c:	6c230200 	sfmvs	f0, 4, [r3], #-0
    5f30:	00068e0f 	andeq	r8, r6, pc, lsl #28
    5f34:	03770300 	cmneq	r7, #0
    5f38:	000024dc 	ldrdeq	r2, [r0], -ip
    5f3c:	0f702302 	svceq	0x00702302
    5f40:	00000f57 	andeq	r0, r0, r7, asr pc
    5f44:	e1037803 	tst	r3, r3, lsl #16
    5f48:	02000024 	andeq	r0, r0, #36	; 0x24
    5f4c:	b20f7423 	andlt	r7, pc, #587202560	; 0x23000000
    5f50:	03000005 	movweq	r0, #5
    5f54:	24e60379 	strbtcs	r0, [r6], #889	; 0x379
    5f58:	23020000 	movwcs	r0, #8192	; 0x2000
    5f5c:	0c6e0f78 	stcleq	15, cr0, [lr], #-480	; 0xfffffe20
    5f60:	7a030000 	bvc	c5f68 <__bss_end+0xb2e1c>
    5f64:	0024d703 	eoreq	sp, r4, r3, lsl #14
    5f68:	7c230200 	sfmvc	f0, 4, [r3], #-0
    5f6c:	0009580f 	andeq	r5, r9, pc, lsl #16
    5f70:	037b0300 	cmneq	fp, #0
    5f74:	000024eb 	andeq	r2, r0, fp, ror #9
    5f78:	01802303 	orreq	r2, r0, r3, lsl #6
    5f7c:	000ebe0f 	andeq	fp, lr, pc, lsl #28
    5f80:	037c0300 	cmneq	ip, #0
    5f84:	000024f0 	strdeq	r2, [r0], -r0
    5f88:	01842303 	orreq	r2, r4, r3, lsl #6
    5f8c:	000c780f 	andeq	r7, ip, pc, lsl #16
    5f90:	037d0300 	cmneq	sp, #0
    5f94:	00002505 	andeq	r2, r0, r5, lsl #10
    5f98:	01882303 	orreq	r2, r8, r3, lsl #6
    5f9c:	000c820f 	andeq	r8, ip, pc, lsl #4
    5fa0:	037e0300 	cmneq	lr, #0
    5fa4:	0000250a 	andeq	r2, r0, sl, lsl #10
    5fa8:	01902303 	orrseq	r2, r0, r3, lsl #6
    5fac:	0007880f 	andeq	r8, r7, pc, lsl #16
    5fb0:	037f0300 	cmneq	pc, #0
    5fb4:	0000250f 	andeq	r2, r0, pc, lsl #10
    5fb8:	01942303 	orrseq	r2, r4, r3, lsl #6
    5fbc:	00046f0f 	andeq	r6, r4, pc, lsl #30
    5fc0:	03800300 	orreq	r0, r0, #0
    5fc4:	000024d7 	ldrdeq	r2, [r0], -r7
    5fc8:	01982303 	orrseq	r2, r8, r3, lsl #6
    5fcc:	000f8b0f 	andeq	r8, pc, pc, lsl #22
    5fd0:	03810300 	orreq	r0, r1, #0
    5fd4:	00002514 	andeq	r2, r0, r4, lsl r5
    5fd8:	019c2303 	orrseq	r2, ip, r3, lsl #6
    5fdc:	000b080f 	andeq	r0, fp, pc, lsl #16
    5fe0:	03830300 	orreq	r0, r3, #0
    5fe4:	00002519 	andeq	r2, r0, r9, lsl r5
    5fe8:	01a02303 	lsleq	r2, r3, #6
    5fec:	0004430f 	andeq	r4, r4, pc, lsl #6
    5ff0:	03840300 	orreq	r0, r4, #0
    5ff4:	0000251e 	andeq	r2, r0, lr, lsl r5
    5ff8:	01a42303 			; <UNDEFINED> instruction: 0x01a42303
    5ffc:	000e440f 	andeq	r4, lr, pc, lsl #8
    6000:	03850300 	orreq	r0, r5, #0
    6004:	00002523 	andeq	r2, r0, r3, lsr #10
    6008:	01a82303 			; <UNDEFINED> instruction: 0x01a82303
    600c:	000d840f 	andeq	r8, sp, pc, lsl #8
    6010:	03860300 	orreq	r0, r6, #0
    6014:	00002528 	andeq	r2, r0, r8, lsr #10
    6018:	01ac2303 			; <UNDEFINED> instruction: 0x01ac2303
    601c:	0006360f 	andeq	r3, r6, pc, lsl #12
    6020:	03870300 	orreq	r0, r7, #0
    6024:	0000252d 	andeq	r2, r0, sp, lsr #10
    6028:	01b02303 	lslseq	r2, r3, #6
    602c:	00029b0f 	andeq	r9, r2, pc, lsl #22
    6030:	03880300 	orreq	r0, r8, #0
    6034:	00002532 	andeq	r2, r0, r2, lsr r5
    6038:	01b42303 			; <UNDEFINED> instruction: 0x01b42303
    603c:	000a020f 	andeq	r0, sl, pc, lsl #4
    6040:	03890300 	orreq	r0, r9, #0
    6044:	00002537 	andeq	r2, r0, r7, lsr r5
    6048:	01b82303 			; <UNDEFINED> instruction: 0x01b82303
    604c:	0003a50f 	andeq	sl, r3, pc, lsl #10
    6050:	038a0300 	orreq	r0, sl, #0
    6054:	0000253c 	andeq	r2, r0, ip, lsr r5
    6058:	01bc2303 			; <UNDEFINED> instruction: 0x01bc2303
    605c:	000cca0f 	andeq	ip, ip, pc, lsl #20
    6060:	038b0300 	orreq	r0, fp, #0
    6064:	00002541 	andeq	r2, r0, r1, asr #10
    6068:	01c02303 	biceq	r2, r0, r3, lsl #6
    606c:	0005950f 	andeq	r9, r5, pc, lsl #10
    6070:	038c0300 	orreq	r0, ip, #0
    6074:	00002546 	andeq	r2, r0, r6, asr #10
    6078:	01c42303 	biceq	r2, r4, r3, lsl #6
    607c:	000f600f 	andeq	r6, pc, pc
    6080:	038d0300 	orreq	r0, sp, #0
    6084:	0000254b 	andeq	r2, r0, fp, asr #10
    6088:	01c82303 	biceq	r2, r8, r3, lsl #6
    608c:	0008ee0f 	andeq	lr, r8, pc, lsl #28
    6090:	038e0300 	orreq	r0, lr, #0
    6094:	00002550 	andeq	r2, r0, r0, asr r5
    6098:	01cc2303 	biceq	r2, ip, r3, lsl #6
    609c:	000a7d0f 	andeq	r7, sl, pc, lsl #26
    60a0:	038f0300 	orreq	r0, pc, #0
    60a4:	00002565 	andeq	r2, r0, r5, ror #10
    60a8:	01d02303 	bicseq	r2, r0, r3, lsl #6
    60ac:	0004a90f 	andeq	sl, r4, pc, lsl #18
    60b0:	03900300 	orrseq	r0, r0, #0
    60b4:	0000256a 	andeq	r2, r0, sl, ror #10
    60b8:	01e02303 	mvneq	r2, r3, lsl #6
    60bc:	000d690f 	andeq	r6, sp, pc, lsl #18
    60c0:	03910300 	orrseq	r0, r1, #0
    60c4:	0000256f 	andeq	r2, r0, pc, ror #10
    60c8:	01e42303 	mvneq	r2, r3, lsl #6
    60cc:	000ca00f 	andeq	sl, ip, pc
    60d0:	03920300 	orrseq	r0, r2, #0
    60d4:	00002584 	andeq	r2, r0, r4, lsl #11
    60d8:	01e82303 	mvneq	r2, r3, lsl #6
    60dc:	000b910f 	andeq	r9, fp, pc, lsl #2
    60e0:	03930300 	orrseq	r0, r3, #0
    60e4:	00002589 	andeq	r2, r0, r9, lsl #11
    60e8:	02842303 	addeq	r2, r4, #201326592	; 0xc000000
    60ec:	000a280f 	andeq	r2, sl, pc, lsl #16
    60f0:	03940300 	orrseq	r0, r4, #0
    60f4:	0000258e 	andeq	r2, r0, lr, lsl #11
    60f8:	02882303 	addeq	r2, r8, #201326592	; 0xc000000
    60fc:	000b230f 	andeq	r2, fp, pc, lsl #6
    6100:	03950300 	orrseq	r0, r5, #0
    6104:	00002593 	muleq	r0, r3, r5
    6108:	028c2303 	addeq	r2, ip, #201326592	; 0xc000000
    610c:	0004fc0f 	andeq	pc, r4, pc, lsl #24
    6110:	03960300 	orrseq	r0, r6, #0
    6114:	00002598 	muleq	r0, r8, r5
    6118:	02902303 	addseq	r2, r0, #201326592	; 0xc000000
    611c:	0005820f 	andeq	r8, r5, pc, lsl #4
    6120:	03970300 	orrseq	r0, r7, #0
    6124:	0000259d 	muleq	r0, sp, r5
    6128:	02942303 	addseq	r2, r4, #201326592	; 0xc000000
    612c:	0009a50f 	andeq	sl, r9, pc, lsl #10
    6130:	03980300 	orrseq	r0, r8, #0
    6134:	000025a2 	andeq	r2, r0, r2, lsr #11
    6138:	02982303 	addseq	r2, r8, #201326592	; 0xc000000
    613c:	0007970f 	andeq	r9, r7, pc, lsl #14
    6140:	03990300 	orrseq	r0, r9, #0
    6144:	000025a7 	andeq	r2, r0, r7, lsr #11
    6148:	029c2303 	addseq	r2, ip, #201326592	; 0xc000000
    614c:	00087e0f 	andeq	r7, r8, pc, lsl #28
    6150:	039a0300 	orrseq	r0, sl, #0
    6154:	000025ac 	andeq	r2, r0, ip, lsr #11
    6158:	02a02303 	adceq	r2, r0, #201326592	; 0xc000000
    615c:	0006d70f 	andeq	sp, r6, pc, lsl #14
    6160:	039b0300 	orrseq	r0, fp, #0
    6164:	000025b1 			; <UNDEFINED> instruction: 0x000025b1
    6168:	02a42303 	adceq	r2, r4, #201326592	; 0xc000000
    616c:	000e030f 	andeq	r0, lr, pc, lsl #6
    6170:	039c0300 	orrseq	r0, ip, #0
    6174:	000025b6 			; <UNDEFINED> instruction: 0x000025b6
    6178:	02a82303 	adceq	r2, r8, #201326592	; 0xc000000
    617c:	000caa0f 	andeq	sl, ip, pc, lsl #20
    6180:	039d0300 	orrseq	r0, sp, #0
    6184:	000025cb 	andeq	r2, r0, fp, asr #11
    6188:	02ac2303 	adceq	r2, ip, #201326592	; 0xc000000
    618c:	00077f0f 	andeq	r7, r7, pc, lsl #30
    6190:	039e0300 	orrseq	r0, lr, #0
    6194:	000025d0 	ldrdeq	r2, [r0], -r0
    6198:	02fc2303 	rscseq	r2, ip, #201326592	; 0xc000000
    619c:	0003610f 	andeq	r6, r3, pc, lsl #2
    61a0:	039f0300 	orrseq	r0, pc, #0
    61a4:	000025d5 	ldrdeq	r2, [r0], -r5
    61a8:	03802303 	orreq	r2, r0, #201326592	; 0xc000000
    61ac:	01231000 	teqeq	r3, r0
    61b0:	de100000 	cdple	0, 1, cr0, cr0, cr0, {0}
    61b4:	10000001 	andne	r0, r0, r1
    61b8:	000002bb 			; <UNDEFINED> instruction: 0x000002bb
    61bc:	00038710 	andeq	r8, r3, r0, lsl r7
    61c0:	04531000 	ldrbeq	r1, [r3], #-0
    61c4:	30100000 	andscc	r0, r0, r0
    61c8:	10000005 	andne	r0, r0, r5
    61cc:	000005ff 	strdeq	r0, [r0], -pc	; <UNPREDICTABLE>
    61d0:	0006eb10 	andeq	lr, r6, r0, lsl fp
    61d4:	07c51000 	strbeq	r1, [r5, r0]
    61d8:	9f100000 	svcls	0x00100000
    61dc:	10000008 	andne	r0, r0, r8
    61e0:	00000979 	andeq	r0, r0, r9, ror r9
    61e4:	000a5310 	andeq	r5, sl, r0, lsl r3
    61e8:	00531100 	subseq	r1, r3, r0, lsl #2
    61ec:	24af0000 	strtcs	r0, [pc], #0	; 61f4 <__resume1_start+0x61f4>
    61f0:	5e120000 	cdppl	0, 1, cr0, cr2, cr0, {0}
    61f4:	07000000 	streq	r0, [r0, -r0]
    61f8:	249f1000 	ldrcs	r1, [pc], #0	; 6200 <__resume1_start+0x6200>
    61fc:	d3100000 	tstle	r0, #0
    6200:	1000000a 	andne	r0, r0, sl
    6204:	00000b53 	andeq	r0, r0, r3, asr fp
    6208:	000bd310 	andeq	sp, fp, r0, lsl r3
    620c:	0c531000 	mraeq	r1, r3, acc0
    6210:	d3100000 	tstle	r0, #0
    6214:	1000000c 	andne	r0, r0, ip
    6218:	00000d53 	andeq	r0, r0, r3, asr sp
    621c:	000dd310 	andeq	sp, sp, r0, lsl r3
    6220:	00531000 	subseq	r1, r3, r0
    6224:	53100000 	tstpl	r0, #0
    6228:	1000000e 	andne	r0, r0, lr
    622c:	00000ef7 	strdeq	r0, [r0], -r7
    6230:	000f7710 	andeq	r7, pc, r0, lsl r7	; <UNPREDICTABLE>
    6234:	10091000 	andne	r1, r9, r0
    6238:	9b100000 	blls	406240 <__bss_end+0x3f30f4>
    623c:	11000010 	tstne	r0, r0, lsl r0
    6240:	00000053 	andeq	r0, r0, r3, asr r0
    6244:	00002505 	andeq	r2, r0, r5, lsl #10
    6248:	00005e12 	andeq	r5, r0, r2, lsl lr
    624c:	10000100 	andne	r0, r0, r0, lsl #2
    6250:	000024f5 	strdeq	r2, [r0], -r5
    6254:	0010f710 	andseq	pc, r0, r0, lsl r7	; <UNPREDICTABLE>
    6258:	11531000 	cmpne	r3, r0
    625c:	75100000 	ldrvc	r0, [r0, #-0]
    6260:	10000011 	andne	r0, r0, r1, lsl r0
    6264:	000011f5 	strdeq	r1, [r0], -r5
    6268:	00127510 	andseq	r7, r2, r0, lsl r5
    626c:	12e31000 	rscne	r1, r3, #0
    6270:	51100000 	tstpl	r0, r0
    6274:	10000013 	andne	r0, r0, r3, lsl r0
    6278:	000013bf 			; <UNDEFINED> instruction: 0x000013bf
    627c:	00142d10 	andseq	r2, r4, r0, lsl sp
    6280:	149b1000 	ldrne	r1, [fp], #0
    6284:	09100000 	ldmdbeq	r0, {}	; <UNPREDICTABLE>
    6288:	10000015 	andne	r0, r0, r5, lsl r0
    628c:	00001577 	andeq	r1, r0, r7, ror r5
    6290:	0015e510 	andseq	lr, r5, r0, lsl r5
    6294:	16531000 	ldrbne	r1, [r3], -r0
    6298:	c1100000 	tstgt	r0, r0
    629c:	11000016 	tstne	r0, r6, lsl r0
    62a0:	00000053 	andeq	r0, r0, r3, asr r0
    62a4:	00002565 	andeq	r2, r0, r5, ror #10
    62a8:	00005e12 	andeq	r5, r0, r2, lsl lr
    62ac:	10000300 	andne	r0, r0, r0, lsl #6
    62b0:	00002555 	andeq	r2, r0, r5, asr r5
    62b4:	0017ad10 	andseq	sl, r7, r0, lsl sp
    62b8:	18991000 	ldmne	r9, {ip}
    62bc:	53110000 	tstpl	r1, #0
    62c0:	84000000 	strhi	r0, [r0], #-0
    62c4:	12000025 	andne	r0, r0, #37	; 0x25
    62c8:	0000005e 	andeq	r0, r0, lr, asr r0
    62cc:	74100006 	ldrvc	r0, [r0], #-6
    62d0:	10000025 	andne	r0, r0, r5, lsr #32
    62d4:	0000193d 	andeq	r1, r0, sp, lsr r9
    62d8:	0019e110 	andseq	lr, r9, r0, lsl r1
    62dc:	1a851000 	bne	fe14a2e4 <__bss_end+0xfe137198>
    62e0:	29100000 	ldmdbcs	r0, {}	; <UNPREDICTABLE>
    62e4:	1000001b 	andne	r0, r0, fp, lsl r0
    62e8:	00001bcd 	andeq	r1, r0, sp, asr #23
    62ec:	001c7110 	andseq	r7, ip, r0, lsl r1
    62f0:	1d151000 	ldcne	0, cr1, [r5, #-0]
    62f4:	b9100000 	ldmdblt	r0, {}	; <UNPREDICTABLE>
    62f8:	1000001d 	andne	r0, r0, sp, lsl r0
    62fc:	00001e5d 	andeq	r1, r0, sp, asr lr
    6300:	001f0110 	andseq	r0, pc, r0, lsl r1	; <UNPREDICTABLE>
    6304:	00531100 	subseq	r1, r3, r0, lsl #2
    6308:	25cb0000 	strbcs	r0, [fp]
    630c:	5e120000 	cdppl	0, 1, cr0, cr2, cr0, {0}
    6310:	13000000 	movwne	r0, #0
    6314:	25bb1000 	ldrcs	r1, [fp, #0]!
    6318:	c9100000 	ldmdbgt	r0, {}	; <UNPREDICTABLE>
    631c:	1000001f 	andne	r0, r0, pc, lsl r0
    6320:	00002091 	muleq	r0, r1, r0
    6324:	000dd60b 	andeq	sp, sp, fp, lsl #12
    6328:	03a00300 	moveq	r0, #0
    632c:	0000209d 	muleq	r0, sp, r0
    6330:	25da0413 	ldrbcs	r0, [sl, #1043]	; 0x413
    6334:	04020000 	streq	r0, [r2], #-0
    6338:	00007307 	andeq	r7, r0, r7, lsl #6
    633c:	17461400 	strbne	r1, [r6, -r0, lsl #8]
    6340:	6d010000 	stcvs	0, cr0, [r1, #-0]
    6344:	00005301 	andeq	r5, r0, r1, lsl #6
    6348:	26500100 	ldrbcs	r0, [r0], -r0, lsl #2
    634c:	aa150000 	bge	546354 <__bss_end+0x533208>
    6350:	01000016 	tsteq	r0, r6, lsl r0
    6354:	0000536d 	andeq	r5, r0, sp, ror #6
    6358:	173d1600 	ldrne	r1, [sp, -r0, lsl #12]!
    635c:	6f010000 	svcvs	0x00010000
    6360:	00000053 	andeq	r0, r0, r3, asr r0
    6364:	00161216 	andseq	r1, r6, r6, lsl r2
    6368:	53700100 	cmnpl	r0, #0
    636c:	17000000 	strne	r0, [r0, -r0]
    6370:	00676572 	rsbeq	r6, r7, r2, ror r5
    6374:	26507101 	ldrbcs	r7, [r0], -r1, lsl #2
    6378:	a2160000 	andsge	r0, r6, #0
    637c:	01000016 	tsteq	r0, r6, lsl r0
    6380:	0025e672 	eoreq	lr, r5, r2, ror r6
    6384:	172c1600 	strne	r1, [ip, -r0, lsl #12]!
    6388:	73010000 	movwvc	r0, #4096	; 0x1000
    638c:	00000053 	andeq	r0, r0, r3, asr r0
    6390:	01006917 	tsteq	r0, r7, lsl r9
    6394:	00005374 	andeq	r5, r0, r4, ror r3
    6398:	04130000 	ldreq	r0, [r3], #-0
    639c:	00002656 	andeq	r2, r0, r6, asr r6
    63a0:	00005e10 	andeq	r5, r0, r0, lsl lr
    63a4:	15e61800 	strbne	r1, [r6, #2048]!	; 0x800
    63a8:	cf010000 	svcgt	0x00010000
    63ac:	26930101 	ldrcs	r0, [r3], r1, lsl #2
    63b0:	aa150000 	bge	5463b8 <__bss_end+0x53326c>
    63b4:	01000016 	tsteq	r0, r6, lsl r0
    63b8:	000053cf 	andeq	r5, r0, pc, asr #7
    63bc:	172c1600 	strne	r1, [ip, -r0, lsl #12]!
    63c0:	d1010000 	mrsle	r0, (UNDEF: 1)
    63c4:	00000053 	andeq	r0, r0, r3, asr r0
    63c8:	01006917 	tsteq	r0, r7, lsl r9
    63cc:	000053d2 	ldrdeq	r5, [r0], -r2
    63d0:	65721700 	ldrbvs	r1, [r2, #-1792]!	; 0x700
    63d4:	d3010067 	movwle	r0, #4199	; 0x1067
    63d8:	00002650 	andeq	r2, r0, r0, asr r6
    63dc:	16591900 	ldrbne	r1, [r9], -r0, lsl #18
    63e0:	1c010000 	stcne	0, cr0, [r1], {-0}
    63e4:	ac010101 	stfges	f0, [r1], {1}
    63e8:	1a000026 	bne	6488 <__resume1_start+0x6488>
    63ec:	1c010063 	stcne	0, cr0, [r1], {99}	; 0x63
    63f0:	0026ac01 	eoreq	sl, r6, r1, lsl #24
    63f4:	01020000 	mrseq	r0, (UNDEF: 2)
    63f8:	0000e708 	andeq	lr, r0, r8, lsl #14
    63fc:	17161b00 	ldrne	r1, [r6, -r0, lsl #22]
    6400:	24010000 	strcs	r0, [r1], #-0
    6404:	26ac0101 	strtcs	r0, [ip], r1, lsl #2
    6408:	d2010000 	andle	r0, r1, #0
    640c:	1c000026 	stcne	0, cr0, [r0], {38}	; 0x26
    6410:	00000801 	andeq	r0, r0, r1, lsl #16
    6414:	53012601 	movwpl	r2, #5633	; 0x1601
    6418:	00000000 	andeq	r0, r0, r0
    641c:	00166f19 	andseq	r6, r6, r9, lsl pc
    6420:	01820100 	orreq	r0, r2, r0, lsl #2
    6424:	26eb0101 	strbtcs	r0, [fp], r1, lsl #2
    6428:	631a0000 	tstvs	sl, #0
    642c:	01820100 	orreq	r0, r2, r0, lsl #2
    6430:	000026ac 	andeq	r2, r0, ip, lsr #13
    6434:	167f1b00 	ldrbtne	r1, [pc], -r0, lsl #22
    6438:	8a010000 	bhi	46440 <__bss_end+0x332f4>
    643c:	26ac0101 	strtcs	r0, [ip], r1, lsl #2
    6440:	0a010000 	beq	46448 <__bss_end+0x332fc>
    6444:	1c000027 	stcne	0, cr0, [r0], {39}	; 0x27
    6448:	00000801 	andeq	r0, r0, r1, lsl #16
    644c:	53018c01 	movwpl	r8, #7169	; 0x1c01
    6450:	00000000 	andeq	r0, r0, r0
    6454:	0025f31d 	eoreq	pc, r5, sp, lsl r3	; <UNPREDICTABLE>
    6458:	0110bc00 	tsteq	r0, r0, lsl #24
    645c:	01119000 	tsteq	r1, r0
    6460:	00068b00 	andeq	r8, r6, r0, lsl #22
    6464:	00279d00 	eoreq	r9, r7, r0, lsl #26
    6468:	26041e00 	strcs	r1, [r4], -r0, lsl #28
    646c:	06ab0000 	strteq	r0, [fp], r0
    6470:	0f1f0000 	svceq	0x001f0000
    6474:	d4000026 	strle	r0, [r0], #-38	; 0x26
    6478:	1f000006 	svcne	0x00000006
    647c:	0000261a 	andeq	r2, r0, sl, lsl r6
    6480:	000006e8 	andeq	r0, r0, r8, ror #13
    6484:	0026251f 	eoreq	r2, r6, pc, lsl r5
    6488:	00070600 	andeq	r0, r7, r0, lsl #12
    648c:	26301f00 	ldrtcs	r1, [r0], -r0, lsl #30
    6490:	072e0000 	streq	r0, [lr, -r0]!
    6494:	3b200000 	blcc	80649c <__bss_end+0x7f3350>
    6498:	00000026 	andeq	r0, r0, r6, lsr #32
    649c:	00264620 	eoreq	r4, r6, r0, lsr #12
    64a0:	f3210000 	vhadd.u32	d0, d1, d0
    64a4:	48000025 	stmdami	r0, {r0, r2, r5}
    64a8:	90000111 	andls	r0, r0, r1, lsl r1
    64ac:	01000111 	tsteq	r0, r1, lsl r1
    64b0:	1148226d 	cmpne	r8, sp, ror #4
    64b4:	11900001 	orrsne	r0, r0, r1
    64b8:	0f230001 	svceq	0x00230001
    64bc:	23000026 	movwcs	r0, #38	; 0x26
    64c0:	0000261a 	andeq	r2, r0, sl, lsl r6
    64c4:	00262524 	eoreq	r2, r6, r4, lsr #10
    64c8:	808b9400 	addhi	r9, fp, r0, lsl #8
    64cc:	30237fb0 			; <UNDEFINED> instruction: 0x30237fb0
    64d0:	25000026 	strcs	r0, [r0, #-38]	; 0x26
    64d4:	00002604 	andeq	r2, r0, r4, lsl #12
    64d8:	00263b20 	eoreq	r3, r6, r0, lsr #22
    64dc:	46200000 	strtmi	r0, [r0], -r0
    64e0:	00000026 	andeq	r0, r0, r6, lsr #32
    64e4:	26000000 	strcs	r0, [r0], -r0
    64e8:	00163501 	andseq	r3, r6, r1, lsl #10
    64ec:	01fe0100 	mvnseq	r0, r0, lsl #2
    64f0:	00011190 	muleq	r1, r0, r1
    64f4:	00011220 	andeq	r1, r1, r0, lsr #4
    64f8:	00000741 	andeq	r0, r0, r1, asr #14
    64fc:	00002818 	andeq	r2, r0, r8, lsl r8
    6500:	00666427 	rsbeq	r6, r6, r7, lsr #8
    6504:	53010001 	movwpl	r0, #4097	; 0x1001
    6508:	61000000 	mrsvs	r0, (UNDEF: 0)
    650c:	27000007 	strcs	r0, [r0, -r7]
    6510:	0072636c 	rsbseq	r6, r2, ip, ror #6
    6514:	53010101 	movwpl	r0, #4353	; 0x1101
    6518:	78000000 	stmdavc	r0, {}	; <UNPREDICTABLE>
    651c:	28000007 	stmdacs	r0, {r0, r1, r2}
    6520:	00001612 	andeq	r1, r0, r2, lsl r6
    6524:	53010201 	movwpl	r0, #4609	; 0x1201
    6528:	8b000000 	blhi	6530 <__resume1_start+0x6530>
    652c:	29000007 	stmdbcs	r0, {r0, r1, r2}
    6530:	0000265b 	andeq	r2, r0, fp, asr r6
    6534:	00011194 	muleq	r1, r4, r1
    6538:	00000000 	andeq	r0, r0, r0
    653c:	2a010401 	bcs	47548 <__bss_end+0x343fc>
    6540:	00002668 	andeq	r2, r0, r8, ror #12
    6544:	00182b00 	andseq	r2, r8, r0, lsl #22
    6548:	872c0000 	strhi	r0, [ip, -r0]!
    654c:	00000026 	andeq	r0, r0, r6, lsr #32
    6550:	20060009 	andcs	r0, r6, r9
    6554:	00002673 	andeq	r2, r0, r3, ror r6
    6558:	267e2000 	ldrbtcs	r2, [lr], -r0
    655c:	00000000 	andeq	r0, r0, r0
    6560:	012d0000 	teqeq	sp, r0
    6564:	00001647 	andeq	r1, r0, r7, asr #12
    6568:	01012d01 	tsteq	r1, r1, lsl #26
    656c:	00000041 	andeq	r0, r0, r1, asr #32
    6570:	00011220 	andeq	r1, r1, r0, lsr #4
    6574:	000112a4 	andeq	r1, r1, r4, lsr #5
    6578:	7a007d02 	bvc	25988 <__bss_end+0x1283c>
    657c:	2e000028 	cdpcs	0, 0, cr0, cr0, cr8, {1}
    6580:	0000176c 	andeq	r1, r0, ip, ror #14
    6584:	7a012d01 	bvc	51990 <__bss_end+0x3e844>
    6588:	ad000028 	stcge	0, cr0, [r0, #-160]	; 0xffffff60
    658c:	2f000007 	svccs	0x00000007
    6590:	00002693 	muleq	r0, r3, r6
    6594:	00011244 	andeq	r1, r1, r4, asr #4
    6598:	00000030 	andeq	r0, r0, r0, lsr r0
    659c:	5f013b01 	svcpl	0x00013b01
    65a0:	25000028 	strcs	r0, [r0, #-40]	; 0x28
    65a4:	000026a1 	andeq	r2, r0, r1, lsr #13
    65a8:	26933000 	ldrcs	r3, [r3], r0
    65ac:	12580000 	subsne	r0, r8, #0
    65b0:	126c0001 	rsbne	r0, ip, #1
    65b4:	3d010001 	stccc	0, cr0, [r1, #-4]
    65b8:	26a11e01 	strtcs	r1, [r1], r1, lsl #28
    65bc:	07d60000 	ldrbeq	r0, [r6, r0]
    65c0:	00000000 	andeq	r0, r0, r0
    65c4:	28800413 	stmcs	r0, {r0, r1, r4, sl}
    65c8:	ac310000 	ldcge	0, cr0, [r1], #-0
    65cc:	32000026 	andcc	r0, r0, #38	; 0x26
    65d0:	0016b301 	andseq	fp, r6, r1, lsl #6
    65d4:	01430100 	mrseq	r0, (UNDEF: 83)
    65d8:	00005301 	andeq	r5, r0, r1, lsl #6
    65dc:	0112a400 	tsteq	r2, r0, lsl #8
    65e0:	01132c00 	tsteq	r3, r0, lsl #24
    65e4:	0007f500 	andeq	pc, r7, r0, lsl #10
    65e8:	0028fa00 	eoreq	pc, r8, r0, lsl #20
    65ec:	75623300 	strbvc	r3, [r2, #-768]!	; 0x300
    65f0:	43010066 	movwmi	r0, #4198	; 0x1066
    65f4:	0028fa01 	eoreq	pc, r8, r1, lsl #20
    65f8:	00081500 	andeq	r1, r8, r0, lsl #10
    65fc:	006e3400 	rsbeq	r3, lr, r0, lsl #8
    6600:	53014301 	movwpl	r4, #4865	; 0x1301
    6604:	01000000 	mrseq	r0, (UNDEF: 0)
    6608:	00692751 	rsbeq	r2, r9, r1, asr r7
    660c:	53014501 	movwpl	r4, #5377	; 0x1501
    6610:	28000000 	stmdacs	r0, {}	; <UNPREDICTABLE>
    6614:	35000008 	strcc	r0, [r0, #-8]
    6618:	46010063 	strmi	r0, [r1], -r3, rrx
    661c:	0026ac01 	eoreq	sl, r6, r1, lsl #24
    6620:	29530100 	ldmdbcs	r3, {r8}^
    6624:	000026b3 			; <UNDEFINED> instruction: 0x000026b3
    6628:	000112d4 	ldrdeq	r1, [r1], -r4
    662c:	00000048 	andeq	r0, r0, r8, asr #32
    6630:	2b014d01 	blcs	59a3c <__bss_end+0x468f0>
    6634:	00000068 	andeq	r0, r0, r8, rrx
    6638:	0026c51f 	eoreq	ip, r6, pc, lsl r5
    663c:	00084700 	andeq	r4, r8, r0, lsl #14
    6640:	00000000 	andeq	r0, r0, r0
    6644:	26ac0413 	ssatcs	r0, #13, r3, lsl #8
    6648:	01360000 	teqeq	r6, r0
    664c:	00001618 	andeq	r1, r0, r8, lsl r6
    6650:	01015501 	tsteq	r1, r1, lsl #10
    6654:	0001132c 	andeq	r1, r1, ip, lsr #6
    6658:	000113bc 			; <UNDEFINED> instruction: 0x000113bc
    665c:	00000872 	andeq	r0, r0, r2, ror r8
    6660:	0000297d 	andeq	r2, r0, sp, ror r9
    6664:	00161228 	andseq	r1, r6, r8, lsr #4
    6668:	01580100 	cmpeq	r8, r0, lsl #2
    666c:	00000053 	andeq	r0, r0, r3, asr r0
    6670:	00000892 	muleq	r0, r2, r8
    6674:	00666427 	rsbeq	r6, r6, r7, lsr #8
    6678:	53015901 	movwpl	r5, #6401	; 0x1901
    667c:	b4000000 	strlt	r0, [r0], #-0
    6680:	27000008 	strcs	r0, [r0, -r8]
    6684:	0072636c 	rsbseq	r6, r2, ip, ror #6
    6688:	53015a01 	movwpl	r5, #6657	; 0x1a01
    668c:	cb000000 	blgt	6694 <__resume1_start+0x6694>
    6690:	29000008 	stmdbcs	r0, {r3}
    6694:	0000265b 	andeq	r2, r0, fp, asr r6
    6698:	00011330 	andeq	r1, r1, r0, lsr r3
    669c:	00000088 	andeq	r0, r0, r8, lsl #1
    66a0:	2a015c01 	bcs	5d6ac <__bss_end+0x4a560>
    66a4:	00002668 	andeq	r2, r0, r8, ror #12
    66a8:	00a02b01 	adceq	r2, r0, r1, lsl #22
    66ac:	87240000 	strhi	r0, [r4, -r0]!
    66b0:	80000026 	andhi	r0, r0, r6, lsr #32
    66b4:	7fb08092 	svcvc	0x00b08092
    66b8:	00267320 	eoreq	r7, r6, r0, lsr #6
    66bc:	7e200000 	cdpvc	0, 2, cr0, cr0, cr0, {0}
    66c0:	00000026 	andeq	r0, r0, r6, lsr #32
    66c4:	37000000 	strcc	r0, [r0, -r0]
    66c8:	00173101 	andseq	r3, r7, r1, lsl #2
    66cc:	01730100 	cmneq	r3, r0, lsl #2
    66d0:	0113bc01 	tsteq	r3, r1, lsl #24
    66d4:	0113ec00 	tsteq	r3, r0, lsl #24
    66d8:	007d0200 	rsbseq	r0, sp, r0, lsl #4
    66dc:	16db012d 	ldrbne	r0, [fp], sp, lsr #2
    66e0:	9f010000 	svcls	0x00010000
    66e4:	00410101 	subeq	r0, r1, r1, lsl #2
    66e8:	13ec0000 	mvnne	r0, #0
    66ec:	14700001 	ldrbtne	r0, [r0], #-1
    66f0:	7d020001 	stcvc	0, cr0, [r2, #-4]
    66f4:	0029f400 	eoreq	pc, r9, r0, lsl #8
    66f8:	176c2e00 	strbne	r2, [ip, -r0, lsl #28]!
    66fc:	9f010000 	svcls	0x00010000
    6700:	00287a01 	eoreq	r7, r8, r1, lsl #20
    6704:	0008de00 	andeq	sp, r8, r0, lsl #28
    6708:	26d22f00 	ldrbcs	r2, [r2], r0, lsl #30
    670c:	14100000 	ldrne	r0, [r0], #-0
    6710:	00b80001 	adcseq	r0, r8, r1
    6714:	ad010000 	stcge	0, cr0, [r1, #-0]
    6718:	0029d901 	eoreq	sp, r9, r1, lsl #18
    671c:	26e02500 	strbtcs	r2, [r0], r0, lsl #10
    6720:	30000000 	andcc	r0, r0, r0
    6724:	000026d2 	ldrdeq	r2, [r0], -r2	; <UNPREDICTABLE>
    6728:	00011424 	andeq	r1, r1, r4, lsr #8
    672c:	00011438 	andeq	r1, r1, r8, lsr r4
    6730:	1e01af01 	cdpne	15, 0, cr10, cr1, cr1, {0}
    6734:	000026e0 	andeq	r2, r0, r0, ror #13
    6738:	00000907 	andeq	r0, r0, r7, lsl #18
    673c:	01320000 	teqeq	r2, r0
    6740:	00001606 	andeq	r1, r0, r6, lsl #12
    6744:	0101b601 	tsteq	r1, r1, lsl #12
    6748:	00000053 	andeq	r0, r0, r3, asr r0
    674c:	00011470 	andeq	r1, r1, r0, ror r4
    6750:	000114f8 	strdeq	r1, [r1], -r8
    6754:	00000926 	andeq	r0, r0, r6, lsr #18
    6758:	00002a69 	andeq	r2, r0, r9, ror #20
    675c:	66756233 			; <UNDEFINED> instruction: 0x66756233
    6760:	01b60100 			; <UNDEFINED> instruction: 0x01b60100
    6764:	000028fa 	strdeq	r2, [r0], -sl
    6768:	00000946 	andeq	r0, r0, r6, asr #18
    676c:	01006e34 	tsteq	r0, r4, lsr lr
    6770:	005301b6 	ldrheq	r0, [r3], #-22	; 0xffffffea
    6774:	51010000 	mrspl	r0, (UNDEF: 1)
    6778:	01006927 	tsteq	r0, r7, lsr #18
    677c:	005301b8 	ldrheq	r0, [r3], #-24	; 0xffffffe8
    6780:	09590000 	ldmdbeq	r9, {}^	; <UNPREDICTABLE>
    6784:	63350000 	teqvs	r5, #0
    6788:	01b90100 			; <UNDEFINED> instruction: 0x01b90100
    678c:	000026ac 	andeq	r2, r0, ip, lsr #13
    6790:	eb295301 	bl	a5b39c <__bss_end+0xa48250>
    6794:	a0000026 	andge	r0, r0, r6, lsr #32
    6798:	d0000114 	andle	r0, r0, r4, lsl r1
    679c:	01000000 	mrseq	r0, (UNDEF: 0)
    67a0:	f02b01c0 			; <UNDEFINED> instruction: 0xf02b01c0
    67a4:	1f000000 	svcne	0x00000000
    67a8:	000026fd 	strdeq	r2, [r0], -sp
    67ac:	00000978 	andeq	r0, r0, r8, ror r9
    67b0:	38000000 	stmdacc	r0, {}	; <UNPREDICTABLE>
    67b4:	000015f6 	strdeq	r1, [r0], -r6
    67b8:	00531a01 	subseq	r1, r3, r1, lsl #20
    67bc:	03050000 	movweq	r0, #20480	; 0x5000
    67c0:	00012e40 	andeq	r2, r1, r0, asr #28
    67c4:	0016c538 	andseq	ip, r6, r8, lsr r5
    67c8:	531b0100 	tstpl	fp, #0
    67cc:	05000000 	streq	r0, [r0, #-0]
    67d0:	012e4403 	teqeq	lr, r3, lsl #8
    67d4:	16243800 	strtne	r3, [r4], -r0, lsl #16
    67d8:	1c010000 	stcne	0, cr0, [r1], {-0}
    67dc:	00000053 	andeq	r0, r0, r3, asr r0
    67e0:	2e480305 	cdpcs	3, 4, cr0, cr8, cr5, {0}
    67e4:	8f380001 	svchi	0x00380001
    67e8:	01000016 	tsteq	r0, r6, lsl r0
    67ec:	0000531d 	andeq	r5, r0, sp, lsl r3
    67f0:	4c030500 	cfstr32mi	mvfx0, [r3], {-0}
    67f4:	0000012e 	andeq	r0, r0, lr, lsr #2
    67f8:	000007d3 	ldrdeq	r0, [r0], -r3
    67fc:	0bde0002 	bleq	ff78680c <__bss_end+0xff7736c0>
    6800:	01040000 	mrseq	r0, (UNDEF: 4)
    6804:	0000011a 	andeq	r0, r0, sl, lsl r1
    6808:	00177301 	andseq	r7, r7, r1, lsl #6
    680c:	00003500 	andeq	r3, r0, r0, lsl #10
    6810:	0114f800 	tsteq	r4, r0, lsl #16
    6814:	011ce400 	tsteq	ip, r0, lsl #8
    6818:	000b1900 	andeq	r1, fp, r0, lsl #18
    681c:	06010200 	streq	r0, [r1], -r0, lsl #4
    6820:	000000e0 	andeq	r0, r0, r0, ror #1
    6824:	de080102 	adflee	f0, f0, f2
    6828:	02000000 	andeq	r0, r0, #0
    682c:	014e0502 	cmpeq	lr, r2, lsl #10
    6830:	02020000 	andeq	r0, r2, #0
    6834:	00010707 	andeq	r0, r1, r7, lsl #14
    6838:	12010300 	andne	r0, r1, #0
    683c:	12020000 	andne	r0, r2, #0
    6840:	0000004c 	andeq	r0, r0, ip, asr #32
    6844:	69050404 	stmdbvs	r5, {r2, sl}
    6848:	0200746e 	andeq	r7, r0, #1845493760	; 0x6e000000
    684c:	00780704 	rsbseq	r0, r8, r4, lsl #14
    6850:	08020000 	stmdaeq	r2, {}	; <UNPREDICTABLE>
    6854:	00000005 	andeq	r0, r0, r5
    6858:	07080200 	streq	r0, [r8, -r0, lsl #4]
    685c:	0000006e 	andeq	r0, r0, lr, rrx
    6860:	00175a03 	andseq	r5, r7, r3, lsl #20
    6864:	53180200 	tstpl	r8, #0
    6868:	02000000 	andeq	r0, r0, #0
    686c:	00730704 	rsbseq	r0, r3, r4, lsl #14
    6870:	04050000 	streq	r0, [r5], #-0
    6874:	0017be03 	andseq	fp, r7, r3, lsl #28
    6878:	87280300 	strhi	r0, [r8, -r0, lsl #6]!
    687c:	06000000 	streq	r0, [r0], -r0
    6880:	000017cd 	andeq	r1, r0, sp, asr #15
    6884:	a1000404 	tstge	r0, r4, lsl #8
    6888:	07000000 	streq	r0, [r0, -r0]
    688c:	00001805 	andeq	r1, r0, r5, lsl #16
    6890:	0000007a 	andeq	r0, r0, sl, ror r0
    6894:	01002302 	tsteq	r0, r2, lsl #6
    6898:	17cf0300 	strbne	r0, [pc, r0, lsl #6]
    689c:	66030000 	strvs	r0, [r3], -r0
    68a0:	0000007c 	andeq	r0, r0, ip, ror r0
    68a4:	0017ef08 	andseq	lr, r7, r8, lsl #30
    68a8:	015b0100 	cmpeq	fp, r0, lsl #2
    68ac:	000000ea 	andeq	r0, r0, sl, ror #1
    68b0:	0000ea01 	andeq	lr, r0, r1, lsl #20
    68b4:	17b30900 	ldrne	r0, [r3, r0, lsl #18]!
    68b8:	5b010000 	blpl	468c0 <__bss_end+0x33774>
    68bc:	000000ea 	andeq	r0, r0, sl, ror #1
    68c0:	6372730a 	cmnvs	r2, #671088640	; 0x28000000
    68c4:	f75b0100 			; <UNDEFINED> instruction: 0xf75b0100
    68c8:	09000000 	stmdbeq	r0, {}	; <UNPREDICTABLE>
    68cc:	00001267 	andeq	r1, r0, r7, ror #4
    68d0:	00685b01 	rsbeq	r5, r8, r1, lsl #22
    68d4:	740b0000 	strvc	r0, [fp], #-0
    68d8:	0100706d 	tsteq	r0, sp, rrx
    68dc:	0000ea5d 	andeq	lr, r0, sp, asr sl
    68e0:	040c0000 	streq	r0, [ip], #-0
    68e4:	000000f0 	strdeq	r0, [r0], -r0	; <UNPREDICTABLE>
    68e8:	e7080102 	str	r0, [r8, -r2, lsl #2]
    68ec:	0c000000 	stceq	0, cr0, [r0], {-0}
    68f0:	0000fd04 	andeq	pc, r0, r4, lsl #26
    68f4:	00f00d00 	rscseq	r0, r0, r0, lsl #26
    68f8:	fe080000 	cdp2	0, 0, cr0, cr8, cr0, {0}
    68fc:	01000017 	tsteq	r0, r7, lsl r0
    6900:	0068011d 	rsbeq	r0, r8, sp, lsl r1
    6904:	27010000 	strcs	r0, [r1, -r0]
    6908:	0a000001 	beq	6914 <__resume1_start+0x6914>
    690c:	1d010073 	stcne	0, cr0, [r1, #-460]	; 0xfffffe34
    6910:	000000f7 	strdeq	r0, [r0], -r7
    6914:	0063730b 	rsbeq	r7, r3, fp, lsl #6
    6918:	00f71f01 	rscseq	r1, r7, r1, lsl #30
    691c:	08000000 	stmdaeq	r0, {}	; <UNPREDICTABLE>
    6920:	000017e3 	andeq	r1, r0, r3, ror #15
    6924:	ea012e01 	b	52130 <__bss_end+0x3efe4>
    6928:	01000000 	mrseq	r0, (UNDEF: 0)
    692c:	0000015a 	andeq	r0, r0, sl, asr r1
    6930:	0017b309 	andseq	fp, r7, r9, lsl #6
    6934:	ea2e0100 	b	b86d3c <__bss_end+0xb73bf0>
    6938:	0a000000 	beq	6940 <__resume1_start+0x6940>
    693c:	00637273 	rsbeq	r7, r3, r3, ror r2
    6940:	00f72e01 	rscseq	r2, r7, r1, lsl #28
    6944:	740b0000 	strvc	r0, [fp], #-0
    6948:	0100706d 	tsteq	r0, sp, rrx
    694c:	0000ea30 	andeq	lr, r0, r0, lsr sl
    6950:	ea080000 	b	206958 <__bss_end+0x1f380c>
    6954:	01000017 	tsteq	r0, r7, lsl r0
    6958:	00ea019f 	smlaleq	r0, sl, pc, r1	; <UNPREDICTABLE>
    695c:	c0010000 	andgt	r0, r1, r0
    6960:	09000001 	stmdbeq	r0, {r0}
    6964:	00001555 	andeq	r1, r0, r5, asr r5
    6968:	004c9f01 	subeq	r9, ip, r1, lsl #30
    696c:	6c090000 	stcvs	0, cr0, [r9], {-0}
    6970:	01000017 	tsteq	r0, r7, lsl r0
    6974:	0000ea9f 	muleq	r0, pc, sl	; <UNPREDICTABLE>
    6978:	181e0900 	ldmdane	lr, {r8, fp}
    697c:	9f010000 	svcls	0x00010000
    6980:	0000004c 	andeq	r0, r0, ip, asr #32
    6984:	0017b80e 	andseq	fp, r7, lr, lsl #16
    6988:	c0a10100 	adcgt	r0, r1, r0, lsl #2
    698c:	0e000001 	cdpeq	0, 0, cr0, cr0, cr1, {0}
    6990:	00001831 	andeq	r1, r0, r1, lsr r8
    6994:	004ca201 	subeq	sl, ip, r1, lsl #4
    6998:	690b0000 	stmdbvs	fp, {}	; <UNPREDICTABLE>
    699c:	4ca30100 	stfmis	f0, [r3]
    69a0:	0b000000 	bleq	69a8 <__resume1_start+0x69a8>
    69a4:	a401006a 	strge	r0, [r1], #-106	; 0x6a
    69a8:	0000004c 	andeq	r0, r0, ip, asr #32
    69ac:	0017660e 	andseq	r6, r7, lr, lsl #12
    69b0:	d0a50100 	adcle	r0, r5, r0, lsl #2
    69b4:	00000001 	andeq	r0, r0, r1
    69b8:	0000f00f 	andeq	pc, r0, pc
    69bc:	0001d000 	andeq	sp, r1, r0
    69c0:	00531000 	subseq	r1, r3, r0
    69c4:	000f0000 	andeq	r0, pc, r0
    69c8:	0000f00f 	andeq	pc, r0, pc
    69cc:	0001e000 	andeq	lr, r1, r0
    69d0:	00531000 	subseq	r1, r3, r0
    69d4:	00100000 	andseq	r0, r0, r0
    69d8:	00181211 	andseq	r1, r8, r1, lsl r2
    69dc:	01ce0100 	biceq	r0, lr, r0, lsl #2
    69e0:	000000ea 	andeq	r0, r0, sl, ror #1
    69e4:	000114f8 	strdeq	r1, [r1], -r8
    69e8:	000115b4 			; <UNDEFINED> instruction: 0x000115b4
    69ec:	000009a3 	andeq	r0, r0, r3, lsr #19
    69f0:	00000261 	andeq	r0, r0, r1, ror #4
    69f4:	00155512 	andseq	r5, r5, r2, lsl r5
    69f8:	53ce0100 	bicpl	r0, lr, #0
    69fc:	d0000000 	andle	r0, r0, r0
    6a00:	12000009 	andne	r0, r0, #9
    6a04:	0000176c 	andeq	r1, r0, ip, ror #14
    6a08:	00eace01 	rsceq	ip, sl, r1, lsl #28
    6a0c:	0a040000 	beq	106a14 <__bss_end+0xf38c8>
    6a10:	1e120000 	cdpne	0, 1, cr0, cr2, cr0, {0}
    6a14:	01000018 	tsteq	r0, r8, lsl r0
    6a18:	00004cce 	andeq	r4, r0, lr, asr #25
    6a1c:	000a2200 	andeq	r2, sl, r0, lsl #4
    6a20:	17b81300 	ldrne	r1, [r8, r0, lsl #6]!
    6a24:	d0010000 	andle	r0, r1, r0
    6a28:	000001c0 	andeq	r0, r0, r0, asr #3
    6a2c:	14509102 	ldrbne	r9, [r0], #-258	; 0x102
    6a30:	d1010069 	tstle	r1, r9, rrx
    6a34:	0000004c 	andeq	r0, r0, ip, asr #32
    6a38:	00000a40 	andeq	r0, r0, r0, asr #20
    6a3c:	01006a14 	tsteq	r0, r4, lsl sl
    6a40:	00004cd2 	ldrdeq	r4, [r0], -r2
    6a44:	000a6900 	andeq	r6, sl, r0, lsl #18
    6a48:	17661300 	strbne	r1, [r6, -r0, lsl #6]!
    6a4c:	d3010000 	movwle	r0, #4096	; 0x1000
    6a50:	000001d0 	ldrdeq	r0, [r0], -r0	; <UNPREDICTABLE>
    6a54:	7fbc9103 	svcvc	0x00bc9103
    6a58:	17d71500 	ldrbne	r1, [r7, r0, lsl #10]
    6a5c:	6a010000 	bvs	46a64 <__bss_end+0x33918>
    6a60:	00410101 	subeq	r0, r1, r1, lsl #2
    6a64:	15b40000 	ldrne	r0, [r4, #0]!
    6a68:	165c0001 	ldrbne	r0, [ip], -r1
    6a6c:	0a7d0001 	beq	1f46a78 <__bss_end+0x1f3392c>
    6a70:	02f90000 	rscseq	r0, r9, #0
    6a74:	6c160000 	ldcvs	0, cr0, [r6], {-0}
    6a78:	01000017 	tsteq	r0, r7, lsl r0
    6a7c:	00ea016a 	rsceq	r0, sl, sl, ror #2
    6a80:	0aa90000 	beq	fea46a88 <__bss_end+0xfea3393c>
    6a84:	6c170000 	ldcvs	0, cr0, [r7], {-0}
    6a88:	01006e65 	tsteq	r0, r5, ror #28
    6a8c:	0041016a 	subeq	r0, r1, sl, ror #2
    6a90:	0ac70000 	beq	ff1c6a98 <__bss_end+0xff1b394c>
    6a94:	dd160000 	ldcle	0, cr0, [r6, #-0]
    6a98:	01000017 	tsteq	r0, r7, lsl r0
    6a9c:	0041016a 	subeq	r0, r1, sl, ror #2
    6aa0:	0ae50000 	beq	ff946aa8 <__bss_end+0xff93395c>
    6aa4:	0a180000 	beq	606aac <__bss_end+0x5f3960>
    6aa8:	01000018 	tsteq	r0, r8, lsl r0
    6aac:	01d0016e 	bicseq	r0, r0, lr, ror #2
    6ab0:	91020000 	mrsls	r0, (UNDEF: 2)
    6ab4:	00ac195c 	adceq	r1, ip, ip, asr r9
    6ab8:	15f00000 	ldrbne	r0, [r0, #0]!
    6abc:	01100001 	tsteq	r0, r1
    6ac0:	72010000 	andvc	r0, r1, #0
    6ac4:	00d31a01 	sbcseq	r1, r3, r1, lsl #20
    6ac8:	0b030000 	bleq	c6ad0 <__bss_end+0xb3984>
    6acc:	c81a0000 	ldmdagt	sl, {}	; <UNPREDICTABLE>
    6ad0:	39000000 	stmdbcc	r0, {}	; <UNPREDICTABLE>
    6ad4:	1a00000b 	bne	6b08 <__resume1_start+0x6b08>
    6ad8:	000000bd 	strheq	r0, [r0], -sp
    6adc:	00000b5b 	andeq	r0, r0, fp, asr fp
    6ae0:	0001281b 	andeq	r2, r1, fp, lsl r8
    6ae4:	00de1c00 	sbcseq	r1, lr, r0, lsl #24
    6ae8:	0bbb0000 	bleq	feec6af0 <__bss_end+0xfeeb39a4>
    6aec:	00000000 	andeq	r0, r0, r0
    6af0:	015a1d00 	cmpeq	sl, r0, lsl #26
    6af4:	165c0000 	ldrbne	r0, [ip], -r0
    6af8:	17440001 	strbne	r0, [r4, -r1]
    6afc:	0bce0001 	bleq	ff386b08 <__bss_end+0xff3739bc>
    6b00:	03520000 	cmpeq	r2, #0
    6b04:	6b1a0000 	blvs	686b0c <__bss_end+0x6739c0>
    6b08:	fb000001 	blx	6b16 <__resume1_start+0x6b16>
    6b0c:	1a00000b 	bne	6b40 <__resume1_start+0x6b40>
    6b10:	00000176 	andeq	r0, r0, r6, ror r1
    6b14:	00000c2f 	andeq	r0, r0, pc, lsr #24
    6b18:	00018c1e 	andeq	r8, r1, lr, lsl ip
    6b1c:	58910200 	ldmpl	r1, {r9}
    6b20:	0001971c 	andeq	r9, r1, ip, lsl r7
    6b24:	000c4d00 	andeq	r4, ip, r0, lsl #26
    6b28:	01a21c00 			; <UNDEFINED> instruction: 0x01a21c00
    6b2c:	0c780000 	ldcleq	0, cr0, [r8], #-0
    6b30:	ab1c0000 	blge	706b38 <__bss_end+0x6f39ec>
    6b34:	ad000001 	stcge	0, cr0, [r0, #-4]
    6b38:	1e00000c 	cdpne	0, 0, cr0, cr0, cr12, {0}
    6b3c:	000001b4 			; <UNDEFINED> instruction: 0x000001b4
    6b40:	1f449102 	svcne	0x00449102
    6b44:	00000181 	andeq	r0, r0, r1, lsl #3
    6b48:	0120000a 	teqeq	r0, sl
    6b4c:	00001817 	andeq	r1, r0, r7, lsl r8
    6b50:	01010401 	tsteq	r1, r1, lsl #8
    6b54:	00000041 	andeq	r0, r0, r1, asr #32
    6b58:	00011744 	andeq	r1, r1, r4, asr #14
    6b5c:	00011a14 	andeq	r1, r1, r4, lsl sl
    6b60:	00000ccc 	andeq	r0, r0, ip, asr #25
    6b64:	00000583 	andeq	r0, r0, r3, lsl #11
    6b68:	0017f716 	andseq	pc, r7, r6, lsl r7	; <UNPREDICTABLE>
    6b6c:	01040100 	mrseq	r0, (UNDEF: 20)
    6b70:	000000f7 	strdeq	r0, [r0], -r7
    6b74:	00000d05 	andeq	r0, r0, r5, lsl #26
    6b78:	17611821 	strbne	r1, [r1, -r1, lsr #16]!
    6b7c:	06010000 	streq	r0, [r1], -r0
    6b80:	0000a101 	andeq	sl, r0, r1, lsl #2
    6b84:	4c910200 	lfmmi	f0, 4, [r1], {0}
    6b88:	00176c18 	andseq	r6, r7, r8, lsl ip
    6b8c:	01070100 	mrseq	r0, (UNDEF: 23)
    6b90:	000001c0 	andeq	r0, r0, r0, asr #3
    6b94:	7fbc9103 	svcvc	0x00bc9103
    6b98:	0017b222 	andseq	fp, r7, r2, lsr #4
    6b9c:	01080100 	mrseq	r0, (UNDEF: 24)
    6ba0:	000000ea 	andeq	r0, r0, sl, ror #1
    6ba4:	00000d48 	andeq	r0, r0, r8, asr #26
    6ba8:	00175522 	andseq	r5, r7, r2, lsr #10
    6bac:	01090100 	mrseq	r0, (UNDEF: 25)
    6bb0:	000000ea 	andeq	r0, r0, sl, ror #1
    6bb4:	00000dba 			; <UNDEFINED> instruction: 0x00000dba
    6bb8:	0017dd22 	andseq	sp, r7, r2, lsr #26
    6bbc:	010a0100 	mrseq	r0, (UNDEF: 26)
    6bc0:	00000041 	andeq	r0, r0, r1, asr #32
    6bc4:	00000dd0 	ldrdeq	r0, [r0], -r0	; <UNPREDICTABLE>
    6bc8:	6e656c23 	cdpvs	12, 6, cr6, cr5, cr3, {1}
    6bcc:	010b0100 	mrseq	r0, (UNDEF: 27)
    6bd0:	00000041 	andeq	r0, r0, r1, asr #32
    6bd4:	00000dee 	andeq	r0, r0, lr, ror #27
    6bd8:	00010224 	andeq	r0, r1, r4, lsr #4
    6bdc:	01186400 	tsteq	r8, r0, lsl #8
    6be0:	01188400 	tsteq	r8, r0, lsl #8
    6be4:	013c0100 	teqeq	ip, r0, lsl #2
    6be8:	00000411 	andeq	r0, r0, r1, lsl r4
    6bec:	0001131a 	andeq	r1, r1, sl, lsl r3
    6bf0:	000e4400 	andeq	r4, lr, r0, lsl #8
    6bf4:	18642500 	stmdane	r4!, {r8, sl, sp}^
    6bf8:	18840001 	stmne	r4, {r0}
    6bfc:	1c1c0001 	ldcne	0, cr0, [ip], {1}
    6c00:	57000001 	strpl	r0, [r0, -r1]
    6c04:	0000000e 	andeq	r0, r0, lr
    6c08:	01272400 	teqeq	r7, r0, lsl #8
    6c0c:	18a00000 	stmiane	r0!, {}	; <UNPREDICTABLE>
    6c10:	18b00001 	ldmne	r0!, {r0}
    6c14:	3e010001 	cdpcc	0, 0, cr0, cr1, cr1, {0}
    6c18:	00044b01 	andeq	r4, r4, r1, lsl #22
    6c1c:	01431a00 	cmpeq	r3, r0, lsl #20
    6c20:	0e820000 	cdpeq	0, 8, cr0, cr2, cr0, {0}
    6c24:	381a0000 	ldmdacc	sl, {}	; <UNPREDICTABLE>
    6c28:	95000001 	strls	r0, [r0, #-1]
    6c2c:	2500000e 	strcs	r0, [r0, #-14]
    6c30:	000118a0 	andeq	r1, r1, r0, lsr #17
    6c34:	000118b0 			; <UNDEFINED> instruction: 0x000118b0
    6c38:	00014e1c 	andeq	r4, r1, ip, lsl lr
    6c3c:	000eb300 	andeq	fp, lr, r0, lsl #6
    6c40:	24000000 	strcs	r0, [r0], #-0
    6c44:	00000127 	andeq	r0, r0, r7, lsr #2
    6c48:	000118d0 	ldrdeq	r1, [r1], -r0
    6c4c:	000118e0 	andeq	r1, r1, r0, ror #17
    6c50:	85014c01 	strhi	r4, [r1, #-3073]	; 0xc01
    6c54:	1a000004 	bne	6c6c <__resume1_start+0x6c6c>
    6c58:	00000143 	andeq	r0, r0, r3, asr #2
    6c5c:	00000ec6 	andeq	r0, r0, r6, asr #29
    6c60:	0001381a 	andeq	r3, r1, sl, lsl r8
    6c64:	000edc00 	andeq	sp, lr, r0, lsl #24
    6c68:	18d02500 	ldmne	r0, {r8, sl, sp}^
    6c6c:	18e00001 	stmiane	r0!, {r0}^
    6c70:	4e1c0001 	cdpmi	0, 1, cr0, cr12, cr1, {0}
    6c74:	fa000001 	blx	6c80 <__resume1_start+0x6c80>
    6c78:	0000000e 	andeq	r0, r0, lr
    6c7c:	01022400 	tsteq	r2, r0, lsl #8
    6c80:	18e00000 	stmiane	r0!, {}^	; <UNPREDICTABLE>
    6c84:	19000001 	stmdbne	r0, {r0}
    6c88:	4d010001 	stcmi	0, cr0, [r1, #-4]
    6c8c:	0004b201 	andeq	fp, r4, r1, lsl #4
    6c90:	01132600 	tsteq	r3, r0, lsl #12
    6c94:	e0250000 	eor	r0, r5, r0
    6c98:	00000118 	andeq	r0, r0, r8, lsl r1
    6c9c:	1c000119 	stfnes	f0, [r0], {25}
    6ca0:	0000011c 	andeq	r0, r0, ip, lsl r1
    6ca4:	00000f0d 	andeq	r0, r0, sp, lsl #30
    6ca8:	02240000 	eoreq	r0, r4, #0
    6cac:	24000001 	strcs	r0, [r0], #-1
    6cb0:	44000119 	strmi	r0, [r0], #-281	; 0x119
    6cb4:	01000119 	tsteq	r0, r9, lsl r1
    6cb8:	04e30132 	strbteq	r0, [r3], #306	; 0x132
    6cbc:	131a0000 	tstne	sl, #0
    6cc0:	3b000001 	blcc	6ccc <__resume1_start+0x6ccc>
    6cc4:	2500000f 	strcs	r0, [r0, #-15]
    6cc8:	00011924 	andeq	r1, r1, r4, lsr #18
    6ccc:	00011944 	andeq	r1, r1, r4, asr #18
    6cd0:	00011c1c 	andeq	r1, r1, ip, lsl ip
    6cd4:	000f4e00 	andeq	r4, pc, r0, lsl #28
    6cd8:	24000000 	strcs	r0, [r0], #-0
    6cdc:	00000127 	andeq	r0, r0, r7, lsr #2
    6ce0:	00011960 	andeq	r1, r1, r0, ror #18
    6ce4:	00011970 	andeq	r1, r1, r0, ror r9
    6ce8:	1d013401 	cfstrsne	mvf3, [r1, #-4]
    6cec:	1a000005 	bne	6d08 <__resume1_start+0x6d08>
    6cf0:	00000143 	andeq	r0, r0, r3, asr #2
    6cf4:	00000f79 	andeq	r0, r0, r9, ror pc
    6cf8:	0001381a 	andeq	r3, r1, sl, lsl r8
    6cfc:	000f8c00 	andeq	r8, pc, r0, lsl #24
    6d00:	19602500 	stmdbne	r0!, {r8, sl, sp}^
    6d04:	19700001 	ldmdbne	r0!, {r0}^
    6d08:	4e1c0001 	cdpmi	0, 1, cr0, cr12, cr1, {0}
    6d0c:	aa000001 	bge	6d18 <__resume1_start+0x6d18>
    6d10:	0000000f 	andeq	r0, r0, pc
    6d14:	01022400 	tsteq	r2, r0, lsl #8
    6d18:	19bc0000 	ldmibne	ip!, {}	; <UNPREDICTABLE>
    6d1c:	19dc0001 	ldmibne	ip, {r0}^
    6d20:	27010001 	strcs	r0, [r1, -r1]
    6d24:	00054c01 	andeq	r4, r5, r1, lsl #24
    6d28:	01132700 	tsteq	r3, r0, lsl #14
    6d2c:	56010000 	strpl	r0, [r1], -r0
    6d30:	0119bc25 	tsteq	r9, r5, lsr #24
    6d34:	0119dc00 	tsteq	r9, r0, lsl #24
    6d38:	011c1c00 	tsteq	ip, r0, lsl #24
    6d3c:	0fbd0000 	svceq	0x00bd0000
    6d40:	00000000 	andeq	r0, r0, r0
    6d44:	00012728 	andeq	r2, r1, r8, lsr #14
    6d48:	0119f800 	tsteq	r9, r0, lsl #16
    6d4c:	011a0800 	tsteq	sl, r0, lsl #16
    6d50:	01290100 	teqeq	r9, r0, lsl #2
    6d54:	0001431a 	andeq	r4, r1, sl, lsl r3
    6d58:	000fe800 	andeq	lr, pc, r0, lsl #16
    6d5c:	01381a00 	teqeq	r8, r0, lsl #20
    6d60:	0ffb0000 	svceq	0x00fb0000
    6d64:	f8250000 			; <UNDEFINED> instruction: 0xf8250000
    6d68:	08000119 	stmdaeq	r0, {r0, r3, r4, r8}
    6d6c:	1c00011a 	stfnes	f0, [r0], {26}
    6d70:	0000014e 	andeq	r0, r0, lr, asr #2
    6d74:	00001019 	andeq	r1, r0, r9, lsl r0
    6d78:	20000000 	andcs	r0, r0, r0
    6d7c:	00182401 	andseq	r2, r8, r1, lsl #8
    6d80:	01790100 	cmneq	r9, r0, lsl #2
    6d84:	00004101 	andeq	r4, r0, r1, lsl #2
    6d88:	011a1400 	tsteq	sl, r0, lsl #8
    6d8c:	011ce400 	tsteq	ip, r0, lsl #8
    6d90:	00102c00 	andseq	r2, r0, r0, lsl #24
    6d94:	0007b400 	andeq	fp, r7, r0, lsl #8
    6d98:	17f71600 	ldrbne	r1, [r7, r0, lsl #12]!
    6d9c:	79010000 	stmdbvc	r1, {}	; <UNPREDICTABLE>
    6da0:	0000f701 	andeq	pc, r0, r1, lsl #14
    6da4:	00106500 	andseq	r6, r0, r0, lsl #10
    6da8:	61182100 	tstvs	r8, r0, lsl #2
    6dac:	01000017 	tsteq	r0, r7, lsl r0
    6db0:	00a1017b 	adceq	r0, r1, fp, ror r1
    6db4:	91020000 	mrsls	r0, (UNDEF: 2)
    6db8:	176c184c 	strbne	r1, [ip, -ip, asr #16]!
    6dbc:	7c010000 	stcvc	0, cr0, [r1], {-0}
    6dc0:	0001c001 	andeq	ip, r1, r1
    6dc4:	bc910300 	ldclt	3, cr0, [r1], {0}
    6dc8:	17b2227f 			; <UNDEFINED> instruction: 0x17b2227f
    6dcc:	7d010000 	stcvc	0, cr0, [r1, #-0]
    6dd0:	0000ea01 	andeq	lr, r0, r1, lsl #20
    6dd4:	0010a800 	andseq	sl, r0, r0, lsl #16
    6dd8:	17552200 	ldrbne	r2, [r5, -r0, lsl #4]
    6ddc:	7e010000 	cdpvc	0, 0, cr0, cr1, cr0, {0}
    6de0:	0000ea01 	andeq	lr, r0, r1, lsl #20
    6de4:	00111a00 	andseq	r1, r1, r0, lsl #20
    6de8:	17dd2200 	ldrbne	r2, [sp, r0, lsl #4]
    6dec:	7f010000 	svcvc	0x00010000
    6df0:	00004101 	andeq	r4, r0, r1, lsl #2
    6df4:	00113000 	andseq	r3, r1, r0
    6df8:	656c2300 	strbvs	r2, [ip, #-768]!	; 0x300
    6dfc:	8001006e 	andhi	r0, r1, lr, rrx
    6e00:	00004101 	andeq	r4, r0, r1, lsl #2
    6e04:	00114e00 	andseq	r4, r1, r0, lsl #28
    6e08:	01022400 	tsteq	r2, r0, lsl #8
    6e0c:	1b340000 	blne	d06e14 <__bss_end+0xcf3cc8>
    6e10:	1b540001 	blne	1506e1c <__bss_end+0x14f3cd0>
    6e14:	b1010001 	tstlt	r1, r1
    6e18:	00064201 	andeq	r4, r6, r1, lsl #4
    6e1c:	01131a00 	tsteq	r3, r0, lsl #20
    6e20:	11a40000 			; <UNDEFINED> instruction: 0x11a40000
    6e24:	34250000 	strtcc	r0, [r5], #-0
    6e28:	5400011b 	strpl	r0, [r0], #-283	; 0x11b
    6e2c:	1c00011b 	stfnes	f0, [r0], {27}
    6e30:	0000011c 	andeq	r0, r0, ip, lsl r1
    6e34:	000011b7 			; <UNDEFINED> instruction: 0x000011b7
    6e38:	27240000 	strcs	r0, [r4, -r0]!
    6e3c:	70000001 	andvc	r0, r0, r1
    6e40:	8000011b 	andhi	r0, r0, fp, lsl r1
    6e44:	0100011b 	tsteq	r0, fp, lsl r1
    6e48:	067c01b3 			; <UNDEFINED> instruction: 0x067c01b3
    6e4c:	431a0000 	tstmi	sl, #0
    6e50:	e2000001 	and	r0, r0, #1
    6e54:	1a000011 	bne	6ea0 <__resume1_start+0x6ea0>
    6e58:	00000138 	andeq	r0, r0, r8, lsr r1
    6e5c:	000011f5 	strdeq	r1, [r0], -r5
    6e60:	011b7025 	tsteq	fp, r5, lsr #32
    6e64:	011b8000 	tsteq	fp, r0
    6e68:	014e1c00 	cmpeq	lr, r0, lsl #24
    6e6c:	12130000 	andsne	r0, r3, #0
    6e70:	00000000 	andeq	r0, r0, r0
    6e74:	00012724 	andeq	r2, r1, r4, lsr #14
    6e78:	011ba000 	tsteq	fp, r0
    6e7c:	011bb000 	tsteq	fp, r0
    6e80:	01c10100 	biceq	r0, r1, r0, lsl #2
    6e84:	000006b6 			; <UNDEFINED> instruction: 0x000006b6
    6e88:	0001431a 	andeq	r4, r1, sl, lsl r3
    6e8c:	00122600 	andseq	r2, r2, r0, lsl #12
    6e90:	01381a00 	teqeq	r8, r0, lsl #20
    6e94:	123c0000 	eorsne	r0, ip, #0
    6e98:	a0250000 	eorge	r0, r5, r0
    6e9c:	b000011b 	andlt	r0, r0, fp, lsl r1
    6ea0:	1c00011b 	stfnes	f0, [r0], {27}
    6ea4:	0000014e 	andeq	r0, r0, lr, asr #2
    6ea8:	0000125a 	andeq	r1, r0, sl, asr r2
    6eac:	02240000 	eoreq	r0, r4, #0
    6eb0:	b0000001 	andlt	r0, r0, r1
    6eb4:	d000011b 	andle	r0, r0, fp, lsl r1
    6eb8:	0100011b 	tsteq	r0, fp, lsl r1
    6ebc:	06e301c2 	strbteq	r0, [r3], r2, asr #3
    6ec0:	13260000 	teqne	r6, #0
    6ec4:	25000001 	strcs	r0, [r0, #-1]
    6ec8:	00011bb0 			; <UNDEFINED> instruction: 0x00011bb0
    6ecc:	00011bd0 	ldrdeq	r1, [r1], -r0
    6ed0:	00011c1c 	andeq	r1, r1, ip, lsl ip
    6ed4:	00126d00 	andseq	r6, r2, r0, lsl #26
    6ed8:	24000000 	strcs	r0, [r0], #-0
    6edc:	00000102 	andeq	r0, r0, r2, lsl #2
    6ee0:	00011bf4 	strdeq	r1, [r1], -r4
    6ee4:	00011c14 	andeq	r1, r1, r4, lsl ip
    6ee8:	1401a701 	strne	sl, [r1], #-1793	; 0x701
    6eec:	1a000007 	bne	6f10 <__resume1_start+0x6f10>
    6ef0:	00000113 	andeq	r0, r0, r3, lsl r1
    6ef4:	0000129b 	muleq	r0, fp, r2
    6ef8:	011bf425 	tsteq	fp, r5, lsr #8
    6efc:	011c1400 	tsteq	ip, r0, lsl #8
    6f00:	011c1c00 	tsteq	ip, r0, lsl #24
    6f04:	12ae0000 	adcne	r0, lr, #0
    6f08:	00000000 	andeq	r0, r0, r0
    6f0c:	00012724 	andeq	r2, r1, r4, lsr #14
    6f10:	011c3000 	tsteq	ip, r0
    6f14:	011c4000 	tsteq	ip, r0
    6f18:	01a90100 			; <UNDEFINED> instruction: 0x01a90100
    6f1c:	0000074e 	andeq	r0, r0, lr, asr #14
    6f20:	0001431a 	andeq	r4, r1, sl, lsl r3
    6f24:	0012d900 	andseq	sp, r2, r0, lsl #18
    6f28:	01381a00 	teqeq	r8, r0, lsl #20
    6f2c:	12ec0000 	rscne	r0, ip, #0
    6f30:	30250000 	eorcc	r0, r5, r0
    6f34:	4000011c 	andmi	r0, r0, ip, lsl r1
    6f38:	1c00011c 	stfnes	f0, [r0], {28}
    6f3c:	0000014e 	andeq	r0, r0, lr, asr #2
    6f40:	0000130a 	andeq	r1, r0, sl, lsl #6
    6f44:	02240000 	eoreq	r0, r4, #0
    6f48:	8c000001 	stchi	0, cr0, [r0], {1}
    6f4c:	ac00011c 	stfges	f0, [r0], {28}
    6f50:	0100011c 	tsteq	r0, ip, lsl r1
    6f54:	077d019c 			; <UNDEFINED> instruction: 0x077d019c
    6f58:	13270000 	teqne	r7, #0
    6f5c:	01000001 	tsteq	r0, r1
    6f60:	1c8c2556 	cfstr32ne	mvfx2, [ip], {86}	; 0x56
    6f64:	1cac0001 	stcne	0, cr0, [ip], #4
    6f68:	1c1c0001 	ldcne	0, cr0, [ip], {1}
    6f6c:	1d000001 	stcne	0, cr0, [r0, #-4]
    6f70:	00000013 	andeq	r0, r0, r3, lsl r0
    6f74:	01272800 	teqeq	r7, r0, lsl #16
    6f78:	1cc80000 	stclne	0, cr0, [r8], {0}
    6f7c:	1cd80001 	ldclne	0, cr0, [r8], {1}
    6f80:	9e010001 	cdpls	0, 0, cr0, cr1, cr1, {0}
    6f84:	01431a01 	cmpeq	r3, r1, lsl #20
    6f88:	13480000 	movtne	r0, #32768	; 0x8000
    6f8c:	381a0000 	ldmdacc	sl, {}	; <UNPREDICTABLE>
    6f90:	5b000001 	blpl	6f9c <__resume1_start+0x6f9c>
    6f94:	25000013 	strcs	r0, [r0, #-19]
    6f98:	00011cc8 	andeq	r1, r1, r8, asr #25
    6f9c:	00011cd8 	ldrdeq	r1, [r1], -r8
    6fa0:	00014e1c 	andeq	r4, r1, ip, lsl lr
    6fa4:	00137900 	andseq	r7, r3, r0, lsl #18
    6fa8:	00000000 	andeq	r0, r0, r0
    6fac:	0000f00f 	andeq	pc, r0, pc
    6fb0:	0007c400 	andeq	ip, r7, r0, lsl #8
    6fb4:	00531000 	subseq	r1, r3, r0
    6fb8:	00ff0000 	rscseq	r0, pc, r0
    6fbc:	0017a218 	andseq	sl, r7, r8, lsl r2
    6fc0:	01030100 	mrseq	r0, (UNDEF: 19)
    6fc4:	000007b4 			; <UNDEFINED> instruction: 0x000007b4
    6fc8:	2e500305 	cdpcs	3, 5, cr0, cr0, cr5, {0}
    6fcc:	7d000001 	stcvc	0, cr0, [r0, #-4]
    6fd0:	02000000 	andeq	r0, r0, #0
    6fd4:	000de700 	andeq	lr, sp, r0, lsl #14
    6fd8:	23010400 	movwcs	r0, #5120	; 0x1400
    6fdc:	e400000e 	str	r0, [r0], #-14
    6fe0:	c000011c 	andgt	r0, r0, ip, lsl r1
    6fe4:	6100011e 	tstvs	r0, lr, lsl r1
    6fe8:	2f686372 	svccs	0x00686372
    6fec:	2f6d7261 	svccs	0x006d7261
    6ff0:	6863616d 	stmdavs	r3!, {r0, r2, r3, r5, r6, r8, sp, lr}^
    6ff4:	6e75732d 	cdpvs	3, 7, cr7, cr5, cr13, {1}
    6ff8:	702f6978 	eorvc	r6, pc, r8, ror r9	; <UNPREDICTABLE>
    6ffc:	74732f6d 	ldrbtvc	r2, [r3], #-3949	; 0xf6d
    7000:	62646e61 	rsbvs	r6, r4, #1552	; 0x610
    7004:	2e2e2f79 	mcrcs	15, 1, r2, cr14, cr9, {3}
    7008:	6d656d2f 	stclvs	13, cr6, [r5, #-188]!	; 0xffffff44
    700c:	7669645f 			; <UNDEFINED> instruction: 0x7669645f
    7010:	2e62696c 	cdpcs	9, 6, cr6, cr2, cr12, {3}
    7014:	682f0053 	stmdavs	pc!, {r0, r1, r4, r6}	; <UNPREDICTABLE>
    7018:	2f656d6f 	svccs	0x00656d6f
    701c:	6f726161 	svcvs	0x00726161
    7020:	6f572f6e 	svcvs	0x00572f6e
    7024:	632f6b72 	teqvs	pc, #116736	; 0x1c800
    7028:	38612d63 	stmdacc	r1!, {r0, r1, r5, r6, r8, sl, fp, sp}^
    702c:	64732d30 	ldrbtvs	r2, [r3], #-3376	; 0xd30
    7030:	696c2d6b 	stmdbvs	ip!, {r0, r1, r3, r5, r6, r8, sl, fp, sp}^
    7034:	2f78756e 	svccs	0x0078756e
    7038:	756e696c 	strbvc	r6, [lr, #-2412]!	; 0x96c
    703c:	2e332d78 	mrccs	13, 1, r2, cr3, cr8, {3}
    7040:	4e470034 	mcrmi	0, 2, r0, cr7, cr4, {1}
    7044:	53412055 	movtpl	r2, #4181	; 0x1055
    7048:	322e3220 	eorcc	r3, lr, #2
    704c:	80010032 	andhi	r0, r1, r2, lsr r0
    7050:	000000ef 	andeq	r0, r0, pc, ror #1
    7054:	0dfb0002 	ldcleq	0, cr0, [fp, #8]!
    7058:	01040000 	mrseq	r0, (UNDEF: 4)
    705c:	0000011a 	andeq	r0, r0, sl, lsl r1
    7060:	00187301 	andseq	r7, r8, r1, lsl #6
    7064:	00003500 	andeq	r3, r0, r0, lsl #10
    7068:	011ec000 	tsteq	lr, r0
    706c:	011f1800 	tsteq	pc, r0, lsl #16
    7070:	000ed000 	andeq	sp, lr, r0
    7074:	06010200 	streq	r0, [r1], -r0, lsl #4
    7078:	000000e0 	andeq	r0, r0, r0, ror #1
    707c:	de080102 	adflee	f0, f0, f2
    7080:	02000000 	andeq	r0, r0, #0
    7084:	014e0502 	cmpeq	lr, r2, lsl #10
    7088:	02020000 	andeq	r0, r2, #0
    708c:	00010707 	andeq	r0, r1, r7, lsl #14
    7090:	12010300 	andne	r0, r1, #0
    7094:	12020000 	andne	r0, r2, #0
    7098:	0000004c 	andeq	r0, r0, ip, asr #32
    709c:	69050404 	stmdbvs	r5, {r2, sl}
    70a0:	0300746e 	movweq	r7, #1134	; 0x46e
    70a4:	000008ad 	andeq	r0, r0, sp, lsr #17
    70a8:	005e1302 	subseq	r1, lr, r2, lsl #6
    70ac:	04020000 	streq	r0, [r2], #-0
    70b0:	00007807 	andeq	r7, r0, r7, lsl #16
    70b4:	05080200 	streq	r0, [r8, #-512]	; 0x200
    70b8:	00000000 	andeq	r0, r0, r0
    70bc:	6e070802 	cdpvs	8, 0, cr0, cr7, cr2, {0}
    70c0:	02000000 	andeq	r0, r0, #0
    70c4:	00730704 	rsbseq	r0, r3, r4, lsl #14
    70c8:	01050000 	mrseq	r0, (UNDEF: 5)
    70cc:	0000183a 	andeq	r1, r0, sl, lsr r8
    70d0:	c0010301 	andgt	r0, r1, r1, lsl #6
    70d4:	cc00011e 	stfgts	f0, [r0], {30}
    70d8:	0200011e 	andeq	r0, r0, #-2147483641	; 0x80000007
    70dc:	0106007d 	tsteq	r6, sp, ror r0
    70e0:	0000185f 	andeq	r1, r0, pc, asr r8
    70e4:	53010801 	movwpl	r0, #6145	; 0x1801
    70e8:	cc000000 	stcgt	0, cr0, [r0], {-0}
    70ec:	1800011e 	stmdane	r0, {r1, r2, r3, r4, r8}
    70f0:	0200011f 	andeq	r0, r0, #-1073741817	; 0xc0000007
    70f4:	5607007d 			; <UNDEFINED> instruction: 0x5607007d
    70f8:	01000018 	tsteq	r0, r8, lsl r0
    70fc:	00005308 	andeq	r5, r0, r8, lsl #6
    7100:	00138c00 	andseq	r8, r3, r0, lsl #24
    7104:	184d0700 	stmdane	sp, {r8, r9, sl}^
    7108:	08010000 	stmdaeq	r1, {}	; <UNPREDICTABLE>
    710c:	00000053 	andeq	r0, r0, r3, asr r0
    7110:	0000139f 	muleq	r0, pc, r3	; <UNPREDICTABLE>
    7114:	00186c08 	andseq	r6, r8, r8, lsl #24
    7118:	530a0100 	movwpl	r0, #41216	; 0xa100
    711c:	b2000000 	andlt	r0, r0, #0
    7120:	08000013 	stmdaeq	r0, {r0, r1, r4}
    7124:	00001845 	andeq	r1, r0, r5, asr #16
    7128:	00530b01 	subseq	r0, r3, r1, lsl #22
    712c:	13ea0000 	mvnne	r0, #0
    7130:	a3080000 	movwge	r0, #32768	; 0x8000
    7134:	01000018 	tsteq	r0, r8, lsl r0
    7138:	0000410c 	andeq	r4, r0, ip, lsl #2
    713c:	00141400 	andseq	r1, r4, r0, lsl #8
    7140:	db000000 	blle	7148 <__resume1_start+0x7148>
    7144:	02000001 	andeq	r0, r0, #1
    7148:	000e7c00 	andeq	r7, lr, r0, lsl #24
    714c:	1a010400 	bne	48154 <__bss_end+0x35008>
    7150:	01000001 	tsteq	r0, r1
    7154:	000018d7 	ldrdeq	r1, [r0], -r7
    7158:	00000035 	andeq	r0, r0, r5, lsr r0
    715c:	00011f18 	andeq	r1, r1, r8, lsl pc
    7160:	000120a4 	andeq	r2, r1, r4, lsr #1
    7164:	00000f56 	andeq	r0, r0, r6, asr pc
    7168:	e0060102 	and	r0, r6, r2, lsl #2
    716c:	02000000 	andeq	r0, r0, #0
    7170:	00de0801 	sbcseq	r0, lr, r1, lsl #16
    7174:	02020000 	andeq	r0, r2, #0
    7178:	00014e05 	andeq	r4, r1, r5, lsl #28
    717c:	07020200 	streq	r0, [r2, -r0, lsl #4]
    7180:	00000107 	andeq	r0, r0, r7, lsl #2
    7184:	00120103 	andseq	r0, r2, r3, lsl #2
    7188:	4c120200 	lfmmi	f0, 4, [r2], {-0}
    718c:	04000000 	streq	r0, [r0], #-0
    7190:	6e690504 	cdpvs	5, 6, cr0, cr9, cr4, {0}
    7194:	ad030074 	stcge	0, cr0, [r3, #-464]	; 0xfffffe30
    7198:	02000008 	andeq	r0, r0, #8
    719c:	00005e13 	andeq	r5, r0, r3, lsl lr
    71a0:	07040200 	streq	r0, [r4, -r0, lsl #4]
    71a4:	00000078 	andeq	r0, r0, r8, ror r0
    71a8:	00050802 	andeq	r0, r5, r2, lsl #16
    71ac:	02000000 	andeq	r0, r0, #0
    71b0:	006e0708 	rsbeq	r0, lr, r8, lsl #14
    71b4:	53050000 	movwpl	r0, #20480	; 0x5000
    71b8:	06000000 	streq	r0, [r0], -r0
    71bc:	000018b6 			; <UNDEFINED> instruction: 0x000018b6
    71c0:	aa180304 	bge	607dd8 <__bss_end+0x5f4c8c>
    71c4:	07000000 	streq	r0, [r0, -r0]
    71c8:	00001940 	andeq	r1, r0, r0, asr #18
    71cc:	19520732 	ldmdbne	r2, {r1, r4, r5, r8, r9, sl}^
    71d0:	07000000 	streq	r0, [r0, -r0]
    71d4:	00001903 	andeq	r1, r0, r3, lsl #18
    71d8:	19880700 	stmibne	r8, {r8, r9, sl}
    71dc:	07000000 	streq	r0, [r0, -r0]
    71e0:	00001964 	andeq	r1, r0, r4, ror #18
    71e4:	19200700 	stmdbne	r0!, {r8, r9, sl}
    71e8:	00d10000 	sbcseq	r0, r1, r0
    71ec:	07040200 	streq	r0, [r4, -r0, lsl #4]
    71f0:	00000073 	andeq	r0, r0, r3, ror r0
    71f4:	01090408 	tsteq	r9, r8, lsl #8
    71f8:	00001933 	andeq	r1, r0, r3, lsr r9
    71fc:	41012201 	tstmi	r1, r1, lsl #4
    7200:	18000000 	stmdane	r0, {}	; <UNPREDICTABLE>
    7204:	a800011f 	stmdage	r0, {r0, r1, r2, r3, r4, r8}
    7208:	3e00011f 	mcrcc	1, 0, r0, cr0, cr15, {0}
    720c:	de000014 	mcrle	0, 0, r0, cr0, cr4, {0}
    7210:	0a000000 	beq	7218 <__resume1_start+0x7218>
    7214:	24010069 	strcs	r0, [r1], #-105	; 0x69
    7218:	00000053 	andeq	r0, r0, r3, asr r0
    721c:	0000145e 	andeq	r1, r0, lr, asr r4
    7220:	a9010900 	stmdbge	r1, {r8, fp}
    7224:	01000018 	tsteq	r0, r8, lsl r0
    7228:	00410157 	subeq	r0, r1, r7, asr r1
    722c:	1fa80000 	svcne	0x00a80000
    7230:	1ffc0001 	svcne	0x00fc0001
    7234:	147d0001 	ldrbtne	r0, [sp], #-1
    7238:	01180000 	tsteq	r8, r0
    723c:	690a0000 	stmdbvs	sl, {}	; <UNPREDICTABLE>
    7240:	4c590100 	ldfmie	f0, [r9], {-0}
    7244:	9d000000 	stcls	0, cr0, [r0, #-0]
    7248:	0b000014 	bleq	72a0 <__resume1_start+0x72a0>
    724c:	00001976 	andeq	r1, r0, r6, ror r9
    7250:	00735a01 	rsbseq	r5, r3, r1, lsl #20
    7254:	14bc0000 	ldrtne	r0, [ip], #0
    7258:	09000000 	stmdbeq	r0, {}	; <UNPREDICTABLE>
    725c:	0019a701 	andseq	sl, r9, r1, lsl #14
    7260:	01710100 	cmneq	r1, r0, lsl #2
    7264:	00000041 	andeq	r0, r0, r1, asr #32
    7268:	00011ffc 	strdeq	r1, [r1], -ip
    726c:	00012054 	andeq	r2, r1, r4, asr r0
    7270:	000014e7 	andeq	r1, r0, r7, ror #9
    7274:	00000163 	andeq	r0, r0, r3, ror #2
    7278:	6372730c 	cmnvs	r2, #805306368	; 0x30000000
    727c:	78710100 	ldmdavc	r1!, {r8}^
    7280:	07000000 	streq	r0, [r0, -r0]
    7284:	0b000015 	bleq	72e0 <__resume1_start+0x72e0>
    7288:	00001999 	muleq	r0, r9, r9
    728c:	00537301 	subseq	r7, r3, r1, lsl #6
    7290:	151a0000 	ldrne	r0, [sl, #-0]
    7294:	a00b0000 	andge	r0, fp, r0
    7298:	01000019 	tsteq	r0, r9, lsl r0
    729c:	00005374 	andeq	r5, r0, r4, ror r3
    72a0:	00153100 	andseq	r3, r5, r0, lsl #2
    72a4:	010d0000 	mrseq	r0, (UNDEF: 13)
    72a8:	000018c9 	andeq	r1, r0, r9, asr #17
    72ac:	41018f01 	tstmi	r1, r1, lsl #30
    72b0:	54000000 	strpl	r0, [r0], #-0
    72b4:	a4000120 	strge	r0, [r0], #-288	; 0x120
    72b8:	02000120 	andeq	r0, r0, #8
    72bc:	01bc007d 			; <UNDEFINED> instruction: 0x01bc007d
    72c0:	730c0000 	movwvc	r0, #49152	; 0xc000
    72c4:	01006372 	tsteq	r0, r2, ror r3
    72c8:	0000788f 	andeq	r7, r0, pc, lsl #17
    72cc:	00155300 	andseq	r5, r5, r0, lsl #6
    72d0:	19810b00 	stmibne	r1, {r8, r9, fp}
    72d4:	91010000 	mrsls	r0, (UNDEF: 1)
    72d8:	00000041 	andeq	r0, r0, r1, asr #32
    72dc:	00001566 	andeq	r1, r0, r6, ror #10
    72e0:	0019990b 	andseq	r9, r9, fp, lsl #18
    72e4:	53920100 	orrspl	r0, r2, #0
    72e8:	7a000000 	bvc	72f0 <__resume1_start+0x72f0>
    72ec:	0b000015 	bleq	7348 <__resume1_start+0x7348>
    72f0:	000019a0 	andeq	r1, r0, r0, lsr #19
    72f4:	00539301 	subseq	r9, r3, r1, lsl #6
    72f8:	15910000 	ldrne	r0, [r1]
    72fc:	0e000000 	cdpeq	0, 0, cr0, cr0, cr0, {0}
    7300:	000019b6 			; <UNDEFINED> instruction: 0x000019b6
    7304:	00b11401 	adcseq	r1, r1, r1, lsl #8
    7308:	03050000 	movweq	r0, #20480	; 0x5000
    730c:	00012f50 	andeq	r2, r1, r0, asr pc
    7310:	0019170e 	andseq	r1, r9, lr, lsl #14
    7314:	b1150100 	tstlt	r5, r0, lsl #2
    7318:	05000000 	streq	r0, [r0, #-0]
    731c:	012f5403 	teqeq	pc, r3, lsl #8
    7320:	03e90000 	mvneq	r0, #0
    7324:	00020000 	andeq	r0, r2, r0
    7328:	00000f47 	andeq	r0, r0, r7, asr #30
    732c:	011a0104 	tsteq	sl, r4, lsl #2
    7330:	59010000 	stmdbpl	r1, {}	; <UNPREDICTABLE>
    7334:	3500001a 	strcc	r0, [r0, #-26]
    7338:	a4000000 	strge	r0, [r0], #-0
    733c:	40000120 	andmi	r0, r0, r0, lsr #2
    7340:	4e000122 	adfmisp	f0, f0, f2
    7344:	02000010 	andeq	r0, r0, #16
    7348:	00e00601 	rsceq	r0, r0, r1, lsl #12
    734c:	01020000 	mrseq	r0, (UNDEF: 2)
    7350:	0000de08 	andeq	sp, r0, r8, lsl #28
    7354:	05020200 	streq	r0, [r2, #-512]	; 0x200
    7358:	0000014e 	andeq	r0, r0, lr, asr #2
    735c:	07070202 	streq	r0, [r7, -r2, lsl #4]
    7360:	03000001 	movweq	r0, #1
    7364:	00001201 	andeq	r1, r0, r1, lsl #4
    7368:	004c1202 	subeq	r1, ip, r2, lsl #4
    736c:	04040000 	streq	r0, [r4], #-0
    7370:	746e6905 	strbtvc	r6, [lr], #-2309	; 0x905
    7374:	08ad0300 	stmiaeq	sp!, {r8, r9}
    7378:	13020000 	movwne	r0, #8192	; 0x2000
    737c:	0000005e 	andeq	r0, r0, lr, asr r0
    7380:	78070402 	stmdavc	r7, {r1, sl}
    7384:	02000000 	andeq	r0, r0, #0
    7388:	00000508 	andeq	r0, r0, r8, lsl #10
    738c:	08020000 	stmdaeq	r2, {}	; <UNPREDICTABLE>
    7390:	00006e07 	andeq	r6, r0, r7, lsl #28
    7394:	00530500 	subseq	r0, r3, r0, lsl #10
    7398:	53060000 	movwpl	r0, #24576	; 0x6000
    739c:	88000000 	stmdahi	r0, {}	; <UNPREDICTABLE>
    73a0:	07000000 	streq	r0, [r0, -r0]
    73a4:	0000005e 	andeq	r0, r0, lr, asr r0
    73a8:	53060001 	movwpl	r0, #24577	; 0x6001
    73ac:	98000000 	stmdals	r0, {}	; <UNPREDICTABLE>
    73b0:	07000000 	streq	r0, [r0, -r0]
    73b4:	0000005e 	andeq	r0, r0, lr, asr r0
    73b8:	2d080003 	stccs	0, cr0, [r8, #-12]
    73bc:	bc00001b 	stclt	0, cr0, [r0], {27}
    73c0:	02b61503 	adcseq	r1, r6, #12582912	; 0xc00000
    73c4:	d5090000 	strle	r0, [r9, #-0]
    73c8:	03000019 	movweq	r0, #25
    73cc:	00007318 	andeq	r7, r0, r8, lsl r3
    73d0:	00230200 	eoreq	r0, r3, r0, lsl #4
    73d4:	001b8009 	andseq	r8, fp, r9
    73d8:	73190300 	tstvc	r9, #0
    73dc:	02000000 	andeq	r0, r0, #0
    73e0:	5f090423 	svcpl	0x00090423
    73e4:	0300000c 	movweq	r0, #12
    73e8:	0002b61a 	andeq	fp, r2, sl, lsl r6
    73ec:	08230200 	stmdaeq	r3!, {r9}
    73f0:	001bd009 	andseq	sp, fp, r9
    73f4:	731c0300 	tstvc	ip, #0
    73f8:	02000000 	andeq	r0, r0, #0
    73fc:	dc091023 	stcle	0, cr1, [r9], {35}	; 0x23
    7400:	03000019 	movweq	r0, #25
    7404:	0000731d 	andeq	r7, r0, sp, lsl r3
    7408:	14230200 	strtne	r0, [r3], #-512	; 0x200
    740c:	0019fe09 	andseq	pc, r9, r9, lsl #28
    7410:	731e0300 	tstvc	lr, #0
    7414:	02000000 	andeq	r0, r0, #0
    7418:	65091823 	strvs	r1, [r9, #-2083]	; 0x823
    741c:	03000004 	movweq	r0, #4
    7420:	0000731f 	andeq	r7, r0, pc, lsl r3
    7424:	1c230200 	sfmne	f0, 4, [r3], #-0
    7428:	0019f609 	andseq	pc, r9, r9, lsl #12
    742c:	73210300 	teqvc	r1, #0
    7430:	02000000 	andeq	r0, r0, #0
    7434:	54092023 	strpl	r2, [r9], #-35	; 0x23
    7438:	0300001b 	movweq	r0, #27
    743c:	00007322 	andeq	r7, r0, r2, lsr #6
    7440:	24230200 	strtcs	r0, [r3], #-512	; 0x200
    7444:	001b8709 	andseq	r8, fp, r9, lsl #14
    7448:	73230300 	teqvc	r3, #0
    744c:	02000000 	andeq	r0, r0, #0
    7450:	6e092823 	cdpvs	8, 0, cr2, cr9, cr3, {1}
    7454:	0300000c 	movweq	r0, #12
    7458:	00007324 	andeq	r7, r0, r4, lsr #6
    745c:	2c230200 	sfmcs	f0, 4, [r3], #-0
    7460:	001abe09 	andseq	fp, sl, r9, lsl #28
    7464:	73260300 	teqvc	r6, #0
    7468:	02000000 	andeq	r0, r0, #0
    746c:	11093023 	tstne	r9, r3, lsr #32
    7470:	0300001a 	movweq	r0, #26
    7474:	00007327 	andeq	r7, r0, r7, lsr #6
    7478:	34230200 	strtcc	r0, [r3], #-512	; 0x200
    747c:	001a2c09 	andseq	r2, sl, r9, lsl #24
    7480:	73280300 	teqvc	r8, #0
    7484:	02000000 	andeq	r0, r0, #0
    7488:	78093823 	stmdavc	r9, {r0, r1, r5, fp, ip, sp}
    748c:	0300000c 	movweq	r0, #12
    7490:	00007329 	andeq	r7, r0, r9, lsr #6
    7494:	3c230200 	sfmcc	f0, 4, [r3], #-0
    7498:	001b7109 	andseq	r7, fp, r9, lsl #2
    749c:	732b0300 	teqvc	fp, #0
    74a0:	02000000 	andeq	r0, r0, #0
    74a4:	92094023 	andls	r4, r9, #35	; 0x23
    74a8:	0300001b 	movweq	r0, #27
    74ac:	0000732c 	andeq	r7, r0, ip, lsr #6
    74b0:	44230200 	strtmi	r0, [r3], #-512	; 0x200
    74b4:	00046f09 	andeq	r6, r4, r9, lsl #30
    74b8:	bb2d0300 	bllt	b480c0 <__bss_end+0xb34f74>
    74bc:	02000002 	andeq	r0, r0, #2
    74c0:	d8094823 	stmdale	r9, {r0, r1, r5, fp, lr}
    74c4:	0300001b 	movweq	r0, #27
    74c8:	0000732f 	andeq	r7, r0, pc, lsr #6
    74cc:	50230200 	eorpl	r0, r3, r0, lsl #4
    74d0:	001a8509 	andseq	r8, sl, r9, lsl #10
    74d4:	73300300 	teqvc	r0, #0
    74d8:	02000000 	andeq	r0, r0, #0
    74dc:	90095423 	andls	r5, r9, r3, lsr #8
    74e0:	0300001a 	movweq	r0, #26
    74e4:	00007331 	andeq	r7, r0, r1, lsr r3
    74e8:	58230200 	stmdapl	r3!, {r9}
    74ec:	000a7d09 	andeq	r7, sl, r9, lsl #26
    74f0:	73320300 	teqvc	r2, #0
    74f4:	02000000 	andeq	r0, r0, #0
    74f8:	09095c23 	stmdbeq	r9, {r0, r1, r5, sl, fp, ip, lr}
    74fc:	0300001a 	movweq	r0, #26
    7500:	00007334 	andeq	r7, r0, r4, lsr r3
    7504:	60230200 	eorvs	r0, r3, r0, lsl #4
    7508:	001bb309 	andseq	fp, fp, r9, lsl #6
    750c:	73350300 	teqvc	r5, #0
    7510:	02000000 	andeq	r0, r0, #0
    7514:	be096423 	cdplt	4, 0, cr6, cr9, cr3, {1}
    7518:	0300001b 	movweq	r0, #27
    751c:	00007336 	andeq	r7, r0, r6, lsr r3
    7520:	68230200 	stmdavs	r3!, {r9}
    7524:	000ca009 	andeq	sl, ip, r9
    7528:	d0370300 	eorsle	r0, r7, r0, lsl #6
    752c:	02000002 	andeq	r0, r0, #2
    7530:	79096c23 	stmdbvc	r9, {r0, r1, r5, sl, fp, sp, lr}
    7534:	0300001b 	movweq	r0, #27
    7538:	00007339 	andeq	r7, r0, r9, lsr r3
    753c:	80230300 	eorhi	r0, r3, r0, lsl #6
    7540:	1bab0901 	blne	feac994c <__bss_end+0xfeab6800>
    7544:	3a030000 	bcc	c754c <__bss_end+0xb4400>
    7548:	00000073 	andeq	r0, r0, r3, ror r0
    754c:	01842303 	orreq	r2, r4, r3, lsl #6
    7550:	0019cd09 	andseq	ip, r9, r9, lsl #26
    7554:	733b0300 	teqvc	fp, #0
    7558:	03000000 	movweq	r0, #0
    755c:	09018823 	stmdbeq	r1, {r0, r1, r5, fp, pc}
    7560:	00001b6a 	andeq	r1, r0, sl, ror #22
    7564:	00733c03 	rsbseq	r3, r3, r3, lsl #24
    7568:	23030000 	movwcs	r0, #12288	; 0x3000
    756c:	aa09018c 	bge	247ba4 <__bss_end+0x234a58>
    7570:	0300000c 	movweq	r0, #12
    7574:	0002d53f 	andeq	sp, r2, pc, lsr r5
    7578:	90230300 	eorls	r0, r3, r0, lsl #6
    757c:	1b100901 	blne	409988 <__bss_end+0x3f683c>
    7580:	42030000 	andmi	r0, r3, #0
    7584:	00000073 	andeq	r0, r0, r3, ror r0
    7588:	01a02303 	lsleq	r2, r3, #6
    758c:	0019bf09 	andseq	fp, r9, r9, lsl #30
    7590:	73430300 	movtvc	r0, #13056	; 0x3300
    7594:	03000000 	movweq	r0, #0
    7598:	0901a423 	stmdbeq	r1, {r0, r1, r5, sl, sp, pc}
    759c:	00001ab4 			; <UNDEFINED> instruction: 0x00001ab4
    75a0:	02da4403 	sbcseq	r4, sl, #50331648	; 0x3000000
    75a4:	23030000 	movwcs	r0, #12288	; 0x3000
    75a8:	e70901a8 	str	r0, [r9, -r8, lsr #3]
    75ac:	03000019 	movweq	r0, #25
    75b0:	00007347 	andeq	r7, r0, r7, asr #6
    75b4:	b0230300 	eorlt	r0, r3, r0, lsl #6
    75b8:	1b9d0901 	blne	fe7499c4 <__bss_end+0xfe736878>
    75bc:	48030000 	stmdami	r3, {}	; <UNPREDICTABLE>
    75c0:	00000073 	andeq	r0, r0, r3, ror r0
    75c4:	01b42303 			; <UNDEFINED> instruction: 0x01b42303
    75c8:	001ac609 	andseq	ip, sl, r9, lsl #12
    75cc:	73490300 	movtvc	r0, #37632	; 0x9300
    75d0:	03000000 	movweq	r0, #0
    75d4:	0001b823 	andeq	fp, r1, r3, lsr #16
    75d8:	00007805 	andeq	r7, r0, r5, lsl #16
    75dc:	00780500 	rsbseq	r0, r8, r0, lsl #10
    75e0:	53060000 	movwpl	r0, #24576	; 0x6000
    75e4:	d0000000 	andle	r0, r0, r0
    75e8:	07000002 	streq	r0, [r0, -r2]
    75ec:	0000005e 	andeq	r0, r0, lr, asr r0
    75f0:	c0050004 	andgt	r0, r5, r4
    75f4:	05000002 	streq	r0, [r0, #-2]
    75f8:	00000088 	andeq	r0, r0, r8, lsl #1
    75fc:	00007805 	andeq	r7, r0, r5, lsl #16
    7600:	1a1c0300 	bne	708208 <__bss_end+0x6f50bc>
    7604:	4b030000 	blmi	c760c <__bss_end+0xb44c0>
    7608:	00000098 	muleq	r0, r8, r0
    760c:	73070402 	movwvc	r0, #29698	; 0x7402
    7610:	0a000000 	beq	7618 <__resume1_start+0x7618>
    7614:	001be001 	andseq	lr, fp, r1
    7618:	01110100 	tsteq	r1, r0, lsl #2
    761c:	00000041 	andeq	r0, r0, r1, asr #32
    7620:	000120a4 	andeq	r2, r1, r4, lsr #1
    7624:	00012108 	andeq	r2, r1, r8, lsl #2
    7628:	000015b3 			; <UNDEFINED> instruction: 0x000015b3
    762c:	0000031e 	andeq	r0, r0, lr, lsl r3
    7630:	001b5f0b 	andseq	r5, fp, fp, lsl #30
    7634:	1e110100 	mufnes	f0, f1, f0
    7638:	d3000003 	movwle	r0, #3
    763c:	00000015 	andeq	r0, r0, r5, lsl r0
    7640:	02df040c 	sbcseq	r0, pc, #201326592	; 0xc000000
    7644:	010d0000 	mrseq	r0, (UNDEF: 13)
    7648:	00001b1d 	andeq	r1, r0, sp, lsl fp
    764c:	41012f01 	tstmi	r1, r1, lsl #30
    7650:	08000000 	stmdaeq	r0, {}	; <UNPREDICTABLE>
    7654:	58000121 	stmdapl	r0, {r0, r5, r8}
    7658:	02000121 	andeq	r0, r0, #1073741832	; 0x40000008
    765c:	0350007d 	cmpeq	r0, #125	; 0x7d
    7660:	5f0b0000 	svcpl	0x000b0000
    7664:	0100001b 	tsteq	r0, fp, lsl r0
    7668:	00031e2f 	andeq	r1, r3, pc, lsr #28
    766c:	0015f100 	andseq	pc, r5, r0, lsl #2
    7670:	010e0000 	mrseq	r0, (UNDEF: 14)
    7674:	00001b03 	andeq	r1, r0, r3, lsl #22
    7678:	41014901 	tstmi	r1, r1, lsl #18
    767c:	58000000 	stmdapl	r0, {}	; <UNPREDICTABLE>
    7680:	90000121 	andls	r0, r0, r1, lsr #2
    7684:	02000121 	andeq	r0, r0, #1073741832	; 0x40000008
    7688:	010e007d 	tsteq	lr, sp, ror r0
    768c:	00001a4c 	andeq	r1, r0, ip, asr #20
    7690:	41016101 	tstmi	r1, r1, lsl #2
    7694:	90000000 	andls	r0, r0, r0
    7698:	b8000121 	stmdalt	r0, {r0, r5, r8}
    769c:	02000121 	andeq	r0, r0, #1073741832	; 0x40000008
    76a0:	010f007d 	tsteq	pc, sp, ror r0	; <UNPREDICTABLE>
    76a4:	00001aeb 	andeq	r1, r0, fp, ror #21
    76a8:	b8017901 	stmdalt	r1, {r0, r8, fp, ip, sp, lr}
    76ac:	00000121 	andeq	r0, r0, r1, lsr #2
    76b0:	02000122 	andeq	r0, r0, #-2147483640	; 0x80000008
    76b4:	010f007d 	tsteq	pc, sp, ror r0	; <UNPREDICTABLE>
    76b8:	00001b3b 	andeq	r1, r0, fp, lsr fp
    76bc:	00019a01 	andeq	r9, r1, r1, lsl #20
    76c0:	40000122 	andmi	r0, r0, r2, lsr #2
    76c4:	02000122 	andeq	r0, r0, #-2147483640	; 0x80000008
    76c8:	c910007d 	ldmdbgt	r0, {r0, r2, r3, r4, r5, r6}
    76cc:	0100001b 	tsteq	r0, fp, lsl r0
    76d0:	00031e03 	andeq	r1, r3, r3, lsl #28
    76d4:	58030500 	stmdapl	r3, {r8, sl}
    76d8:	1000012f 	andne	r0, r0, pc, lsr #2
    76dc:	00001a9b 	muleq	r0, fp, sl
    76e0:	00530401 	subseq	r0, r3, r1, lsl #8
    76e4:	03050000 	movweq	r0, #20480	; 0x5000
    76e8:	00012f5c 	andeq	r2, r1, ip, asr pc
    76ec:	001ad510 	andseq	sp, sl, r0, lsl r5
    76f0:	53040100 	movwpl	r0, #16640	; 0x4100
    76f4:	05000000 	streq	r0, [r0, #-0]
    76f8:	012f6003 	teqeq	pc, r3
    76fc:	1a371000 	bne	dcb704 <__bss_end+0xdb85b8>
    7700:	04010000 	streq	r0, [r1], #-0
    7704:	00000053 	andeq	r0, r0, r3, asr r0
    7708:	2f640305 	svccs	0x00640305
    770c:	42000001 	andmi	r0, r0, #1
    7710:	02000001 	andeq	r0, r0, #1
    7714:	00103a00 	andseq	r3, r0, r0, lsl #20
    7718:	1a010400 	bne	48720 <__bss_end+0x355d4>
    771c:	01000001 	tsteq	r0, r1
    7720:	00001c5d 	andeq	r1, r0, sp, asr ip
    7724:	00000035 	andeq	r0, r0, r5, lsr r0
    7728:	00012240 	andeq	r2, r1, r0, asr #4
    772c:	00012298 	muleq	r1, r8, r2
    7730:	0000111d 	andeq	r1, r0, sp, lsl r1
    7734:	e0060102 	and	r0, r6, r2, lsl #2
    7738:	02000000 	andeq	r0, r0, #0
    773c:	00de0801 	sbcseq	r0, lr, r1, lsl #16
    7740:	02020000 	andeq	r0, r2, #0
    7744:	00014e05 	andeq	r4, r1, r5, lsl #28
    7748:	07020200 	streq	r0, [r2, -r0, lsl #4]
    774c:	00000107 	andeq	r0, r0, r7, lsl #2
    7750:	00120103 	andseq	r0, r2, r3, lsl #2
    7754:	4c120200 	lfmmi	f0, 4, [r2], {-0}
    7758:	04000000 	streq	r0, [r0], #-0
    775c:	6e690504 	cdpvs	5, 6, cr0, cr9, cr4, {0}
    7760:	ad030074 	stcge	0, cr0, [r3, #-464]	; 0xfffffe30
    7764:	02000008 	andeq	r0, r0, #8
    7768:	00005e13 	andeq	r5, r0, r3, lsl lr
    776c:	07040200 	streq	r0, [r4, -r0, lsl #4]
    7770:	00000078 	andeq	r0, r0, r8, ror r0
    7774:	00050802 	andeq	r0, r5, r2, lsl #16
    7778:	02000000 	andeq	r0, r0, #0
    777c:	006e0708 	rsbeq	r0, lr, r8, lsl #14
    7780:	53050000 	movwpl	r0, #20480	; 0x5000
    7784:	06000000 	streq	r0, [r0], -r0
    7788:	00000053 	andeq	r0, r0, r3, asr r0
    778c:	00000088 	andeq	r0, r0, r8, lsl #1
    7790:	00005e07 	andeq	r5, r0, r7, lsl #28
    7794:	08000600 	stmdaeq	r0, {r9, sl}
    7798:	00001bed 	andeq	r1, r0, sp, ror #23
    779c:	bf150324 	svclt	0x00150324
    77a0:	09000000 	stmdbeq	r0, {}	; <UNPREDICTABLE>
    77a4:	006c7443 	rsbeq	r7, ip, r3, asr #8
    77a8:	00731803 	rsbseq	r1, r3, r3, lsl #16
    77ac:	23020000 	movwcs	r0, #8192	; 0x2000
    77b0:	0c5f0a00 	mrrceq	10, 0, r0, pc, cr0	; <UNPREDICTABLE>
    77b4:	19030000 	stmdbne	r3, {}	; <UNPREDICTABLE>
    77b8:	000000bf 	strheq	r0, [r0], -pc	; <UNPREDICTABLE>
    77bc:	0a042302 	beq	1103cc <__bss_end+0xfd280>
    77c0:	00001c1b 	andeq	r1, r0, fp, lsl ip
    77c4:	00731b03 	rsbseq	r1, r3, r3, lsl #22
    77c8:	23020000 	movwcs	r0, #8192	; 0x2000
    77cc:	78050020 	stmdavc	r5, {r5}
    77d0:	03000000 	movweq	r0, #0
    77d4:	00001bfe 	strdeq	r1, [r0], -lr
    77d8:	00881d03 	addeq	r1, r8, r3, lsl #26
    77dc:	04020000 	streq	r0, [r2], #-0
    77e0:	00007307 	andeq	r7, r0, r7, lsl #6
    77e4:	3f010b00 	svccc	0x00010b00
    77e8:	0100001c 	tsteq	r0, ip, lsl r0
    77ec:	00410111 	subeq	r0, r1, r1, lsl r1
    77f0:	22400000 	subcs	r0, r0, #0
    77f4:	22700001 	rsbscs	r0, r0, #1
    77f8:	7d020001 	stcvc	0, cr0, [r2, #-4]
    77fc:	00010200 	andeq	r0, r1, r0, lsl #4
    7800:	1c4f0c00 	mcrrne	12, 0, r0, pc, cr0
    7804:	11010000 	mrsne	r0, (UNDEF: 1)
    7808:	00000102 	andeq	r0, r0, r2, lsl #2
    780c:	0000160f 	andeq	r1, r0, pc, lsl #12
    7810:	c4040d00 	strgt	r0, [r4], #-3328	; 0xd00
    7814:	0b000000 	bleq	781c <__resume1_start+0x781c>
    7818:	001c2c01 	andseq	r2, ip, r1, lsl #24
    781c:	012a0100 	teqeq	sl, r0, lsl #2
    7820:	00000041 	andeq	r0, r0, r1, asr #32
    7824:	00012270 	andeq	r2, r1, r0, ror r2
    7828:	00012298 	muleq	r1, r8, r2
    782c:	34007d02 	strcc	r7, [r0], #-3330	; 0xd02
    7830:	0c000001 	stceq	0, cr0, [r0], {1}
    7834:	00001c4f 	andeq	r1, r0, pc, asr #24
    7838:	01022a01 	tsteq	r2, r1, lsl #20
    783c:	162d0000 	strtne	r0, [sp], -r0
    7840:	0e000000 	cdpeq	0, 0, cr0, cr0, cr0, {0}
    7844:	00001c11 	andeq	r1, r0, r1, lsl ip
    7848:	01020401 	tsteq	r2, r1, lsl #8
    784c:	03050000 	movweq	r0, #20480	; 0x5000
    7850:	00012f68 	andeq	r2, r1, r8, ror #30
    7854:	00028b00 	andeq	r8, r2, r0, lsl #22
    7858:	f7000200 			; <UNDEFINED> instruction: 0xf7000200
    785c:	04000010 	streq	r0, [r0], #-16
    7860:	00011a01 	andeq	r1, r1, r1, lsl #20
    7864:	1d0a0100 	stfnes	f0, [sl, #-0]
    7868:	00350000 	eorseq	r0, r5, r0
    786c:	22980000 	addscs	r0, r8, #0
    7870:	24000001 	strcs	r0, [r0], #-1
    7874:	11ac0001 			; <UNDEFINED> instruction: 0x11ac0001
    7878:	01020000 	mrseq	r0, (UNDEF: 2)
    787c:	0000e006 	andeq	lr, r0, r6
    7880:	08010200 	stmdaeq	r1, {r9}
    7884:	000000de 	ldrdeq	r0, [r0], -lr
    7888:	4e050202 	cdpmi	2, 0, cr0, cr5, cr2, {0}
    788c:	02000001 	andeq	r0, r0, #1
    7890:	01070702 	tsteq	r7, r2, lsl #14
    7894:	01030000 	mrseq	r0, (UNDEF: 3)
    7898:	02000012 	andeq	r0, r0, #18
    789c:	00004c12 	andeq	r4, r0, r2, lsl ip
    78a0:	05040400 	streq	r0, [r4, #-1024]	; 0x400
    78a4:	00746e69 	rsbseq	r6, r4, r9, ror #28
    78a8:	0008ad03 	andeq	sl, r8, r3, lsl #26
    78ac:	5e130200 	cdppl	2, 1, cr0, cr3, cr0, {0}
    78b0:	02000000 	andeq	r0, r0, #0
    78b4:	00780704 	rsbseq	r0, r8, r4, lsl #14
    78b8:	08020000 	stmdaeq	r2, {}	; <UNPREDICTABLE>
    78bc:	00000005 	andeq	r0, r0, r5
    78c0:	07080200 	streq	r0, [r8, -r0, lsl #4]
    78c4:	0000006e 	andeq	r0, r0, lr, rrx
    78c8:	73070402 	movwvc	r0, #29698	; 0x7402
    78cc:	05000000 	streq	r0, [r0, #-0]
    78d0:	00001d3d 	andeq	r1, r0, sp, lsr sp
    78d4:	73011301 	movwvc	r1, #4865	; 0x1301
    78d8:	03000000 	movweq	r0, #0
    78dc:	00000097 	muleq	r0, r7, r0
    78e0:	001ca006 	andseq	sl, ip, r6
    78e4:	73150100 	tstvc	r5, #0
    78e8:	00000000 	andeq	r0, r0, r0
    78ec:	001d5007 	andseq	r5, sp, r7
    78f0:	01330100 	teqeq	r3, r0, lsl #2
    78f4:	0000b003 	andeq	fp, r0, r3
    78f8:	1ca00800 	stcne	8, cr0, [r0]
    78fc:	33010000 	movwcc	r0, #4096	; 0x1000
    7900:	00000073 	andeq	r0, r0, r3, ror r0
    7904:	ec010900 	stc	9, cr0, [r1], {-0}
    7908:	0100001c 	tsteq	r0, ip, lsl r0
    790c:	00410147 	subeq	r0, r1, r7, asr #2
    7910:	22980000 	addscs	r0, r8, #0
    7914:	22c40001 	sbccs	r0, r4, #1
    7918:	7d020001 	stcvc	0, cr0, [r2, #-4]
    791c:	0000dc00 	andeq	sp, r0, r0, lsl #24
    7920:	16aa0a00 	strtne	r0, [sl], r0, lsl #20
    7924:	47010000 	strmi	r0, [r1, -r0]
    7928:	00000053 	andeq	r0, r0, r3, asr r0
    792c:	0000164b 	andeq	r1, r0, fp, asr #12
    7930:	b9010b00 	stmdblt	r1, {r8, r9, fp}
    7934:	0100001c 	tsteq	r0, ip, lsl r0
    7938:	00410161 	subeq	r0, r1, r1, ror #2
    793c:	22c40000 	sbccs	r0, r4, #0
    7940:	23400001 	movtcs	r0, #1
    7944:	165e0001 	ldrbne	r0, [lr], -r1
    7948:	01670000 	cmneq	r7, r0
    794c:	e70a0000 	str	r0, [sl, -r0]
    7950:	0100001c 	tsteq	r0, ip, lsl r0
    7954:	00005361 	andeq	r5, r0, r1, ror #6
    7958:	00167e00 	andseq	r7, r6, r0, lsl #28
    795c:	1cc50a00 	vstmiane	r5, {s1-s0}
    7960:	61010000 	mrsvs	r0, (UNDEF: 1)
    7964:	00000053 	andeq	r0, r0, r3, asr r0
    7968:	000016a7 	andeq	r1, r0, r7, lsr #13
    796c:	001cb20c 	andseq	fp, ip, ip, lsl #4
    7970:	53640100 	cmnpl	r4, #0
    7974:	c5000000 	strgt	r0, [r0, #-0]
    7978:	0d000016 	stceq	0, cr0, [r0, #-88]	; 0xffffffa8
    797c:	0000007a 	andeq	r0, r0, sl, ror r0
    7980:	000122c8 	andeq	r2, r1, r8, asr #5
    7984:	000122d0 	ldrdeq	r2, [r1], -r0
    7988:	014d6701 	cmpeq	sp, r1, lsl #14
    798c:	c80e0000 	stmdagt	lr, {}	; <UNPREDICTABLE>
    7990:	d0000122 	andle	r0, r0, r2, lsr #2
    7994:	0f000122 	svceq	0x00000122
    7998:	0000008b 	andeq	r0, r0, fp, lsl #1
    799c:	0000171b 	andeq	r1, r0, fp, lsl r7
    79a0:	97100000 	ldrls	r0, [r0, -r0]
    79a4:	1c000000 	stcne	0, cr0, [r0], {-0}
    79a8:	20000123 	andcs	r0, r0, r3, lsr #2
    79ac:	01000123 	tsteq	r0, r3, lsr #2
    79b0:	00a4116f 	adceq	r1, r4, pc, ror #2
    79b4:	17390000 	ldrne	r0, [r9, -r0]!
    79b8:	00000000 	andeq	r0, r0, r0
    79bc:	1cfc0109 	ldfnee	f0, [ip], #36	; 0x24
    79c0:	84010000 	strhi	r0, [r1], #-0
    79c4:	00004101 	andeq	r4, r0, r1, lsl #2
    79c8:	01234000 	teqeq	r3, r0
    79cc:	01237000 	teqeq	r3, r0
    79d0:	007d0200 	rsbseq	r0, sp, r0, lsl #4
    79d4:	000001ae 	andeq	r0, r0, lr, lsr #3
    79d8:	001ce70a 	andseq	lr, ip, sl, lsl #14
    79dc:	53840100 	orrpl	r0, r4, #0
    79e0:	4c000000 	stcmi	0, cr0, [r0], {-0}
    79e4:	12000017 	andne	r0, r0, #23
    79e8:	00000097 	muleq	r0, r7, r0
    79ec:	00012344 	andeq	r2, r1, r4, asr #6
    79f0:	00000140 	andeq	r0, r0, r0, asr #2
    79f4:	a4138a01 	ldrge	r8, [r3], #-2561	; 0xa01
    79f8:	05000000 	streq	r0, [r0, #-0]
    79fc:	012f6c03 	teqeq	pc, r3, lsl #24
    7a00:	09000000 	stmdbeq	r0, {}	; <UNPREDICTABLE>
    7a04:	001ccd01 	andseq	ip, ip, r1, lsl #26
    7a08:	019a0100 	orrseq	r0, sl, r0, lsl #2
    7a0c:	00000041 	andeq	r0, r0, r1, asr #32
    7a10:	00012370 	andeq	r2, r1, r0, ror r3
    7a14:	000123d8 	ldrdeq	r2, [r1], -r8
    7a18:	36007d02 	strcc	r7, [r0], -r2, lsl #26
    7a1c:	0a000002 	beq	7a2c <__resume1_start+0x7a2c>
    7a20:	00001ce7 	andeq	r1, r0, r7, ror #25
    7a24:	00539a01 	subseq	r9, r3, r1, lsl #20
    7a28:	175f0000 	ldrbne	r0, [pc, -r0]
    7a2c:	c50a0000 	strgt	r0, [sl, #-0]
    7a30:	0100001c 	tsteq	r0, ip, lsl r0
    7a34:	0000539a 	muleq	r0, sl, r3
    7a38:	00179200 	andseq	r9, r7, r0, lsl #4
    7a3c:	1cb20c00 	ldcne	12, cr0, [r2]
    7a40:	9d010000 	stcls	0, cr0, [r1, #-0]
    7a44:	00000053 	andeq	r0, r0, r3, asr r0
    7a48:	000017b0 			; <UNDEFINED> instruction: 0x000017b0
    7a4c:	00007a0d 	andeq	r7, r0, sp, lsl #20
    7a50:	01237000 	teqeq	r3, r0
    7a54:	01237800 	teqeq	r3, r0, lsl #16
    7a58:	1ca00100 	stfnes	f0, [r0]
    7a5c:	0e000002 	cdpeq	0, 0, cr0, cr0, cr2, {0}
    7a60:	00012370 	andeq	r2, r1, r0, ror r3
    7a64:	00012378 	andeq	r2, r1, r8, ror r3
    7a68:	00008b14 	andeq	r8, r0, r4, lsl fp
    7a6c:	00520100 	subseq	r0, r2, r0, lsl #2
    7a70:	00971000 	addseq	r1, r7, r0
    7a74:	23c00000 	biccs	r0, r0, #0
    7a78:	23c40001 	biccs	r0, r4, #1
    7a7c:	a8010001 	stmdage	r1, {r0}
    7a80:	0000a411 	andeq	sl, r0, r1, lsl r4
    7a84:	00180600 	andseq	r0, r8, r0, lsl #12
    7a88:	09000000 	stmdbeq	r0, {}	; <UNPREDICTABLE>
    7a8c:	001c8c01 	andseq	r8, ip, r1, lsl #24
    7a90:	01bd0100 			; <UNDEFINED> instruction: 0x01bd0100
    7a94:	00000041 	andeq	r0, r0, r1, asr #32
    7a98:	000123d8 	ldrdeq	r2, [r1], -r8
    7a9c:	00012400 	andeq	r2, r1, r0, lsl #8
    7aa0:	7d007d02 	stcvc	13, cr7, [r0, #-8]
    7aa4:	0a000002 	beq	7ab4 <__resume1_start+0x7ab4>
    7aa8:	00001ce7 	andeq	r1, r0, r7, ror #25
    7aac:	0053bd01 	subseq	fp, r3, r1, lsl #26
    7ab0:	18190000 	ldmdane	r9, {}	; <UNPREDICTABLE>
    7ab4:	97120000 	ldrls	r0, [r2, -r0]
    7ab8:	dc000000 	stcle	0, cr0, [r0], {-0}
    7abc:	68000123 	stmdavs	r0, {r0, r1, r5, r8}
    7ac0:	01000001 	tsteq	r0, r1
    7ac4:	00a413c3 	adceq	r1, r4, r3, asr #7
    7ac8:	03050000 	movweq	r0, #20480	; 0x5000
    7acc:	00012f6c 	andeq	r2, r1, ip, ror #30
    7ad0:	a6150000 	ldrge	r0, [r5], -r0
    7ad4:	0100001c 	tsteq	r0, ip, lsl r0
    7ad8:	0000530d 	andeq	r5, r0, sp, lsl #6
    7adc:	6c030500 	cfstr32vs	mvfx0, [r3], {-0}
    7ae0:	0000012f 	andeq	r0, r0, pc, lsr #2
    7ae4:	00002eed 	andeq	r2, r0, sp, ror #29
    7ae8:	12270002 	eorne	r0, r7, #2
    7aec:	01040000 	mrseq	r0, (UNDEF: 4)
    7af0:	0000011a 	andeq	r0, r0, sl, lsl r1
    7af4:	001d9c01 	andseq	r9, sp, r1, lsl #24
    7af8:	00003500 	andeq	r3, r0, r0, lsl #10
    7afc:	01240000 	teqeq	r4, r0
    7b00:	012c6800 	teqeq	ip, r0, lsl #16
    7b04:	0012a300 	andseq	sl, r2, r0, lsl #6
    7b08:	06010200 	streq	r0, [r1], -r0, lsl #4
    7b0c:	000000e0 	andeq	r0, r0, r0, ror #1
    7b10:	000cf303 	andeq	pc, ip, r3, lsl #6
    7b14:	370f0200 	strcc	r0, [pc, -r0, lsl #4]
    7b18:	02000000 	andeq	r0, r0, #0
    7b1c:	00de0801 	sbcseq	r0, lr, r1, lsl #16
    7b20:	02020000 	andeq	r0, r2, #0
    7b24:	00014e05 	andeq	r4, r1, r5, lsl #28
    7b28:	07020200 	streq	r0, [r2, -r0, lsl #4]
    7b2c:	00000107 	andeq	r0, r0, r7, lsl #2
    7b30:	00120103 	andseq	r0, r2, r3, lsl #2
    7b34:	57120200 	ldrpl	r0, [r2, -r0, lsl #4]
    7b38:	04000000 	streq	r0, [r0], #-0
    7b3c:	6e690504 	cdpvs	5, 6, cr0, cr9, cr4, {0}
    7b40:	ad030074 	stcge	0, cr0, [r3, #-464]	; 0xfffffe30
    7b44:	02000008 	andeq	r0, r0, #8
    7b48:	00006913 	andeq	r6, r0, r3, lsl r9
    7b4c:	07040200 	streq	r0, [r4, -r0, lsl #4]
    7b50:	00000078 	andeq	r0, r0, r8, ror r0
    7b54:	00050802 	andeq	r0, r5, r2, lsl #16
    7b58:	02000000 	andeq	r0, r0, #0
    7b5c:	006e0708 	rsbeq	r0, lr, r8, lsl #14
    7b60:	04050000 	streq	r0, [r5], #-0
    7b64:	010f9103 	tsteq	pc, r3, lsl #2
    7b68:	45060000 	strmi	r0, [r6, #-0]
    7b6c:	03000003 	movweq	r0, #3
    7b70:	00005e93 	muleq	r0, r3, lr
    7b74:	1e020400 	cfcpysne	mvf0, mvf2
    7b78:	06002302 	streq	r2, [r0], -r2, lsl #6
    7b7c:	00000e53 	andeq	r0, r0, r3, asr lr
    7b80:	005e9403 	subseq	r9, lr, r3, lsl #8
    7b84:	06040000 	streq	r0, [r4], -r0
    7b88:	00230218 	eoreq	r0, r3, r8, lsl r2
    7b8c:	000dab06 	andeq	sl, sp, r6, lsl #22
    7b90:	5e950300 	cdppl	3, 9, cr0, cr5, cr0, {0}
    7b94:	04000000 	streq	r0, [r0], #-0
    7b98:	23021008 	movwcs	r1, #8200	; 0x2008
    7b9c:	0c8f0600 	stceq	6, cr0, [pc], {0}
    7ba0:	96030000 	strls	r0, [r3], -r0
    7ba4:	0000005e 	andeq	r0, r0, lr, asr r0
    7ba8:	020f0104 	andeq	r0, pc, #1
    7bac:	58060023 	stmdapl	r6, {r0, r1, r5}
    7bb0:	0300000e 	movweq	r0, #14
    7bb4:	00005e97 	muleq	r0, r7, lr
    7bb8:	08070400 	stmdaeq	r7, {sl}
    7bbc:	06002302 	streq	r2, [r0], -r2, lsl #6
    7bc0:	000007f8 	strdeq	r0, [r0], -r8
    7bc4:	005e9803 	subseq	r9, lr, r3, lsl #16
    7bc8:	03040000 	movweq	r0, #16384	; 0x4000
    7bcc:	00230205 	eoreq	r0, r3, r5, lsl #4
    7bd0:	000e5d06 	andeq	r5, lr, r6, lsl #26
    7bd4:	5e990300 	cdppl	3, 9, cr0, cr9, cr0, {0}
    7bd8:	04000000 	streq	r0, [r0], #-0
    7bdc:	23020104 	movwcs	r0, #8452	; 0x2104
    7be0:	0d1c0600 	ldceq	6, cr0, [ip, #-0]
    7be4:	9a030000 	bls	c7bec <__bss_end+0xb4aa0>
    7be8:	0000005e 	andeq	r0, r0, lr, asr r0
    7bec:	02000104 	andeq	r0, r0, #1
    7bf0:	07000023 	streq	r0, [r0, -r3, lsr #32]
    7bf4:	2e8e0304 	cdpcs	3, 8, cr0, cr14, cr4, {0}
    7bf8:	08000001 	stmdaeq	r0, {r0}
    7bfc:	000002d3 	ldrdeq	r0, [r0], -r3
    7c00:	005e9003 	subseq	r9, lr, r3
    7c04:	2a080000 	bcs	207c0c <__bss_end+0x1f4ac0>
    7c08:	03000009 	movweq	r0, #9
    7c0c:	00007e9b 	muleq	r0, fp, lr
    7c10:	3f030000 	svccc	0x00030000
    7c14:	03000005 	movweq	r0, #5
    7c18:	00010f9c 	muleq	r1, ip, pc	; <UNPREDICTABLE>
    7c1c:	03040500 	movweq	r0, #17664	; 0x4500
    7c20:	0001caa1 	andeq	ip, r1, r1, lsr #21
    7c24:	03450600 	movteq	r0, #22016	; 0x5600
    7c28:	a3030000 	movwge	r0, #12288	; 0x3000
    7c2c:	0000005e 	andeq	r0, r0, lr, asr r0
    7c30:	021e0204 	andseq	r0, lr, #1073741824	; 0x40000000
    7c34:	53060023 	movwpl	r0, #24611	; 0x6023
    7c38:	0300000e 	movweq	r0, #14
    7c3c:	00005ea4 	andeq	r5, r0, r4, lsr #29
    7c40:	18060400 	stmdane	r6, {sl}
    7c44:	06002302 	streq	r2, [r0], -r2, lsl #6
    7c48:	00000dab 	andeq	r0, r0, fp, lsr #27
    7c4c:	005ea503 	subseq	sl, lr, r3, lsl #10
    7c50:	08040000 	stmdaeq	r4, {}	; <UNPREDICTABLE>
    7c54:	00230210 	eoreq	r0, r3, r0, lsl r2
    7c58:	000c8f06 	andeq	r8, ip, r6, lsl #30
    7c5c:	5ea60300 	cdppl	3, 10, cr0, cr6, cr0, {0}
    7c60:	04000000 	streq	r0, [r0], #-0
    7c64:	23020f01 	movwcs	r0, #12033	; 0x2f01
    7c68:	0e580600 	cdpeq	6, 5, cr0, cr8, cr0, {0}
    7c6c:	a7030000 	strge	r0, [r3, -r0]
    7c70:	0000005e 	andeq	r0, r0, lr, asr r0
    7c74:	02080704 	andeq	r0, r8, #1048576	; 0x100000
    7c78:	f8060023 			; <UNDEFINED> instruction: 0xf8060023
    7c7c:	03000007 	movweq	r0, #7
    7c80:	00005ea8 	andeq	r5, r0, r8, lsr #29
    7c84:	05030400 	streq	r0, [r3, #-1024]	; 0x400
    7c88:	06002302 	streq	r2, [r0], -r2, lsl #6
    7c8c:	00000e5d 	andeq	r0, r0, sp, asr lr
    7c90:	005ea903 	subseq	sl, lr, r3, lsl #18
    7c94:	04040000 	streq	r0, [r4], #-0
    7c98:	00230201 	eoreq	r0, r3, r1, lsl #4
    7c9c:	000d1c06 	andeq	r1, sp, r6, lsl #24
    7ca0:	5eaa0300 	cdppl	3, 10, cr0, cr10, cr0, {0}
    7ca4:	04000000 	streq	r0, [r0], #-0
    7ca8:	23020001 	movwcs	r0, #8193	; 0x2001
    7cac:	04070000 	streq	r0, [r7], #-0
    7cb0:	01e99e03 	mvneq	r9, r3, lsl #28
    7cb4:	d3080000 	movwle	r0, #32768	; 0x8000
    7cb8:	03000002 	movweq	r0, #2
    7cbc:	00005ea0 	andeq	r5, r0, r0, lsr #29
    7cc0:	092a0800 	stmdbeq	sl!, {fp}
    7cc4:	ab030000 	blge	c7ccc <__bss_end+0xb4b80>
    7cc8:	00000139 	andeq	r0, r0, r9, lsr r1
    7ccc:	037b0300 	cmneq	fp, #0
    7cd0:	ac030000 	stcge	0, cr0, [r3], {-0}
    7cd4:	000001ca 	andeq	r0, r0, sl, asr #3
    7cd8:	b1030405 	tstlt	r3, r5, lsl #8
    7cdc:	000002a7 	andeq	r0, r0, r7, lsr #5
    7ce0:	00035306 	andeq	r5, r3, r6, lsl #6
    7ce4:	5eb30300 	cdppl	3, 11, cr0, cr3, cr0, {0}
    7ce8:	04000000 	streq	r0, [r0], #-0
    7cec:	23021a06 	movwcs	r1, #10758	; 0x2a06
    7cf0:	0e530600 	cdpeq	6, 5, cr0, cr3, cr0, {0}
    7cf4:	b4030000 	strlt	r0, [r3], #-0
    7cf8:	0000005e 	andeq	r0, r0, lr, asr r0
    7cfc:	02180204 	andseq	r0, r8, #1073741824	; 0x40000000
    7d00:	ab060023 	blge	187d94 <__bss_end+0x174c48>
    7d04:	0300000d 	movweq	r0, #13
    7d08:	00005eb5 			; <UNDEFINED> instruction: 0x00005eb5
    7d0c:	10080400 	andne	r0, r8, r0, lsl #8
    7d10:	06002302 	streq	r2, [r0], -r2, lsl #6
    7d14:	00000cf8 	strdeq	r0, [r0], -r8
    7d18:	005eb603 	subseq	fp, lr, r3, lsl #12
    7d1c:	01040000 	mrseq	r0, (UNDEF: 4)
    7d20:	0023020f 	eoreq	r0, r3, pc, lsl #4
    7d24:	000e5806 	andeq	r5, lr, r6, lsl #16
    7d28:	5eb70300 	cdppl	3, 11, cr0, cr7, cr0, {0}
    7d2c:	04000000 	streq	r0, [r0], #-0
    7d30:	23020e01 	movwcs	r0, #11777	; 0x2e01
    7d34:	0d010600 	stceq	6, cr0, [r1, #-0]
    7d38:	b8030000 	stmdalt	r3, {}	; <UNPREDICTABLE>
    7d3c:	0000005e 	andeq	r0, r0, lr, asr r0
    7d40:	020d0104 	andeq	r0, sp, #1
    7d44:	5d060023 	stcpl	0, cr0, [r6, #-140]	; 0xffffff74
    7d48:	0300000e 	movweq	r0, #14
    7d4c:	00005eb9 			; <UNDEFINED> instruction: 0x00005eb9
    7d50:	08050400 	stmdaeq	r5, {sl}
    7d54:	06002302 	streq	r2, [r0], -r2, lsl #6
    7d58:	000003b5 			; <UNDEFINED> instruction: 0x000003b5
    7d5c:	005eba03 	subseq	fp, lr, r3, lsl #20
    7d60:	01040000 	mrseq	r0, (UNDEF: 4)
    7d64:	00230207 	eoreq	r0, r3, r7, lsl #4
    7d68:	000e6206 	andeq	r6, lr, r6, lsl #4
    7d6c:	5ebb0300 	cdppl	3, 11, cr0, cr11, cr0, {0}
    7d70:	04000000 	streq	r0, [r0], #-0
    7d74:	23020106 	movwcs	r0, #8454	; 0x2106
    7d78:	0d1c0600 	ldceq	6, cr0, [ip, #-0]
    7d7c:	bc030000 	stclt	0, cr0, [r3], {-0}
    7d80:	0000005e 	andeq	r0, r0, lr, asr r0
    7d84:	02000104 	andeq	r0, r0, #1
    7d88:	07000023 	streq	r0, [r0, -r3, lsr #32]
    7d8c:	c6ae0304 	strtgt	r0, [lr], r4, lsl #6
    7d90:	08000002 	stmdaeq	r0, {r1}
    7d94:	000002d3 	ldrdeq	r0, [r0], -r3
    7d98:	005eb003 	subseq	fp, lr, r3
    7d9c:	2a080000 	bcs	207da4 <__bss_end+0x1f4c58>
    7da0:	03000009 	movweq	r0, #9
    7da4:	0001f4bd 			; <UNDEFINED> instruction: 0x0001f4bd
    7da8:	c7030000 	strgt	r0, [r3, -r0]
    7dac:	03000009 	movweq	r0, #9
    7db0:	0002a7be 			; <UNDEFINED> instruction: 0x0002a7be
    7db4:	03040500 	movweq	r0, #17664	; 0x4500
    7db8:	000373c3 	andeq	r7, r3, r3, asr #7
    7dbc:	0e530600 	cdpeq	6, 5, cr0, cr3, cr0, {0}
    7dc0:	c5030000 	strgt	r0, [r3, #-0]
    7dc4:	0000005e 	andeq	r0, r0, lr, asr r0
    7dc8:	02180804 	andseq	r0, r8, #262144	; 0x40000
    7dcc:	ab060023 	blge	187e60 <__bss_end+0x174d14>
    7dd0:	0300000d 	movweq	r0, #13
    7dd4:	00005ec6 	andeq	r5, r0, r6, asr #29
    7dd8:	10080400 	andne	r0, r8, r0, lsl #8
    7ddc:	06002302 	streq	r2, [r0], -r2, lsl #6
    7de0:	00000cf8 	strdeq	r0, [r0], -r8
    7de4:	005ec703 	subseq	ip, lr, r3, lsl #14
    7de8:	01040000 	mrseq	r0, (UNDEF: 4)
    7dec:	0023020f 	eoreq	r0, r3, pc, lsl #4
    7df0:	000e5806 	andeq	r5, lr, r6, lsl #16
    7df4:	5ec80300 	cdppl	3, 12, cr0, cr8, cr0, {0}
    7df8:	04000000 	streq	r0, [r0], #-0
    7dfc:	23020e01 	movwcs	r0, #11777	; 0x2e01
    7e00:	0d010600 	stceq	6, cr0, [r1, #-0]
    7e04:	c9030000 	stmdbgt	r3, {}	; <UNPREDICTABLE>
    7e08:	0000005e 	andeq	r0, r0, lr, asr r0
    7e0c:	020d0104 	andeq	r0, sp, #1
    7e10:	5d060023 	stcpl	0, cr0, [r6, #-140]	; 0xffffff74
    7e14:	0300000e 	movweq	r0, #14
    7e18:	00005eca 	andeq	r5, r0, sl, asr #29
    7e1c:	08050400 	stmdaeq	r5, {sl}
    7e20:	06002302 	streq	r2, [r0], -r2, lsl #6
    7e24:	000003b5 			; <UNDEFINED> instruction: 0x000003b5
    7e28:	005ecb03 	subseq	ip, lr, r3, lsl #22
    7e2c:	01040000 	mrseq	r0, (UNDEF: 4)
    7e30:	00230207 	eoreq	r0, r3, r7, lsl #4
    7e34:	000e6206 	andeq	r6, lr, r6, lsl #4
    7e38:	5ecc0300 	cdppl	3, 12, cr0, cr12, cr0, {0}
    7e3c:	04000000 	streq	r0, [r0], #-0
    7e40:	23020106 	movwcs	r0, #8454	; 0x2106
    7e44:	0d1c0600 	ldceq	6, cr0, [ip, #-0]
    7e48:	cd030000 	stcgt	0, cr0, [r3, #-0]
    7e4c:	0000005e 	andeq	r0, r0, lr, asr r0
    7e50:	02000104 	andeq	r0, r0, #1
    7e54:	07000023 	streq	r0, [r0, -r3, lsr #32]
    7e58:	92c00304 	sbcls	r0, r0, #268435456	; 0x10000000
    7e5c:	08000003 	stmdaeq	r0, {r0, r1}
    7e60:	000002d3 	ldrdeq	r0, [r0], -r3
    7e64:	005ec203 	subseq	ip, lr, r3, lsl #4
    7e68:	2a080000 	bcs	207e70 <__bss_end+0x1f4d24>
    7e6c:	03000009 	movweq	r0, #9
    7e70:	0002d1ce 	andeq	sp, r2, lr, asr #3
    7e74:	45030000 	strmi	r0, [r3, #-0]
    7e78:	0300000b 	movweq	r0, #11
    7e7c:	000373cf 	andeq	r7, r3, pc, asr #7
    7e80:	03040500 	movweq	r0, #17664	; 0x4500
    7e84:	00043fd4 	ldrdeq	r3, [r4], -r4
    7e88:	0e530600 	cdpeq	6, 5, cr0, cr3, cr0, {0}
    7e8c:	d6030000 	strle	r0, [r3], -r0
    7e90:	0000005e 	andeq	r0, r0, lr, asr r0
    7e94:	02180804 	andseq	r0, r8, #262144	; 0x40000
    7e98:	ab060023 	blge	187f2c <__bss_end+0x174de0>
    7e9c:	0300000d 	movweq	r0, #13
    7ea0:	00005ed7 	ldrdeq	r5, [r0], -r7
    7ea4:	10080400 	andne	r0, r8, r0, lsl #8
    7ea8:	06002302 	streq	r2, [r0], -r2, lsl #6
    7eac:	00000cf8 	strdeq	r0, [r0], -r8
    7eb0:	005ed803 	subseq	sp, lr, r3, lsl #16
    7eb4:	01040000 	mrseq	r0, (UNDEF: 4)
    7eb8:	0023020f 	eoreq	r0, r3, pc, lsl #4
    7ebc:	000e5806 	andeq	r5, lr, r6, lsl #16
    7ec0:	5ed90300 	cdppl	3, 13, cr0, cr9, cr0, {0}
    7ec4:	04000000 	streq	r0, [r0], #-0
    7ec8:	23020e01 	movwcs	r0, #11777	; 0x2e01
    7ecc:	0d010600 	stceq	6, cr0, [r1, #-0]
    7ed0:	da030000 	ble	c7ed8 <__bss_end+0xb4d8c>
    7ed4:	0000005e 	andeq	r0, r0, lr, asr r0
    7ed8:	020d0104 	andeq	r0, sp, #1
    7edc:	5d060023 	stcpl	0, cr0, [r6, #-140]	; 0xffffff74
    7ee0:	0300000e 	movweq	r0, #14
    7ee4:	00005edb 	ldrdeq	r5, [r0], -fp
    7ee8:	08050400 	stmdaeq	r5, {sl}
    7eec:	06002302 	streq	r2, [r0], -r2, lsl #6
    7ef0:	000003b5 			; <UNDEFINED> instruction: 0x000003b5
    7ef4:	005edc03 	subseq	sp, lr, r3, lsl #24
    7ef8:	01040000 	mrseq	r0, (UNDEF: 4)
    7efc:	00230207 	eoreq	r0, r3, r7, lsl #4
    7f00:	000e6206 	andeq	r6, lr, r6, lsl #4
    7f04:	5edd0300 	cdppl	3, 13, cr0, cr13, cr0, {0}
    7f08:	04000000 	streq	r0, [r0], #-0
    7f0c:	23020106 	movwcs	r0, #8454	; 0x2106
    7f10:	0d1c0600 	ldceq	6, cr0, [ip, #-0]
    7f14:	de030000 	cdple	0, 0, cr0, cr3, cr0, {0}
    7f18:	0000005e 	andeq	r0, r0, lr, asr r0
    7f1c:	02000104 	andeq	r0, r0, #1
    7f20:	07000023 	streq	r0, [r0, -r3, lsr #32]
    7f24:	5ed10304 	cdppl	3, 13, cr0, cr1, cr4, {0}
    7f28:	08000004 	stmdaeq	r0, {r2}
    7f2c:	000002d3 	ldrdeq	r0, [r0], -r3
    7f30:	005ed303 	subseq	sp, lr, r3, lsl #6
    7f34:	2a080000 	bcs	207f3c <__bss_end+0x1f4df0>
    7f38:	03000009 	movweq	r0, #9
    7f3c:	00039ddf 	ldrdeq	r9, [r3], -pc	; <UNPREDICTABLE>
    7f40:	5d030000 	stcpl	0, cr0, [r3, #-0]
    7f44:	03000006 	movweq	r0, #6
    7f48:	00043fe0 	andeq	r3, r4, r0, ror #31
    7f4c:	03040500 	movweq	r0, #17664	; 0x4500
    7f50:	00051ce5 	andeq	r1, r5, r5, ror #25
    7f54:	0e530600 	cdpeq	6, 5, cr0, cr3, cr0, {0}
    7f58:	e7030000 	str	r0, [r3, -r0]
    7f5c:	0000005e 	andeq	r0, r0, lr, asr r0
    7f60:	02180804 	andseq	r0, r8, #262144	; 0x40000
    7f64:	ab060023 	blge	187ff8 <__bss_end+0x174eac>
    7f68:	0300000d 	movweq	r0, #13
    7f6c:	00005ee8 	andeq	r5, r0, r8, ror #29
    7f70:	10080400 	andne	r0, r8, r0, lsl #8
    7f74:	06002302 	streq	r2, [r0], -r2, lsl #6
    7f78:	00000cf8 	strdeq	r0, [r0], -r8
    7f7c:	005ee903 	subseq	lr, lr, r3, lsl #18
    7f80:	01040000 	mrseq	r0, (UNDEF: 4)
    7f84:	0023020f 	eoreq	r0, r3, pc, lsl #4
    7f88:	000e5806 	andeq	r5, lr, r6, lsl #16
    7f8c:	5eea0300 	cdppl	3, 14, cr0, cr10, cr0, {0}
    7f90:	04000000 	streq	r0, [r0], #-0
    7f94:	23020e01 	movwcs	r0, #11777	; 0x2e01
    7f98:	0d010600 	stceq	6, cr0, [r1, #-0]
    7f9c:	eb030000 	bl	c7fa4 <__bss_end+0xb4e58>
    7fa0:	0000005e 	andeq	r0, r0, lr, asr r0
    7fa4:	020d0104 	andeq	r0, sp, #1
    7fa8:	5d060023 	stcpl	0, cr0, [r6, #-140]	; 0xffffff74
    7fac:	0300000e 	movweq	r0, #14
    7fb0:	00005eec 	andeq	r5, r0, ip, ror #29
    7fb4:	08050400 	stmdaeq	r5, {sl}
    7fb8:	06002302 	streq	r2, [r0], -r2, lsl #6
    7fbc:	000003b5 			; <UNDEFINED> instruction: 0x000003b5
    7fc0:	005eed03 	subseq	lr, lr, r3, lsl #26
    7fc4:	01040000 	mrseq	r0, (UNDEF: 4)
    7fc8:	00230207 	eoreq	r0, r3, r7, lsl #4
    7fcc:	000e6206 	andeq	r6, lr, r6, lsl #4
    7fd0:	5eee0300 	cdppl	3, 14, cr0, cr14, cr0, {0}
    7fd4:	04000000 	streq	r0, [r0], #-0
    7fd8:	23020205 	movwcs	r0, #8709	; 0x2205
    7fdc:	08360600 	ldmdaeq	r6!, {r9, sl}
    7fe0:	ef030000 	svc	0x00030000
    7fe4:	0000005e 	andeq	r0, r0, lr, asr r0
    7fe8:	02010104 	andeq	r0, r1, #1
    7fec:	1c060023 	stcne	0, cr0, [r6], {35}	; 0x23
    7ff0:	0300000d 	movweq	r0, #13
    7ff4:	00005ef0 	strdeq	r5, [r0], -r0
    7ff8:	00010400 	andeq	r0, r1, r0, lsl #8
    7ffc:	00002302 	andeq	r2, r0, r2, lsl #6
    8000:	e2030407 	and	r0, r3, #117440512	; 0x7000000
    8004:	0000053b 	andeq	r0, r0, fp, lsr r5
    8008:	0002d308 	andeq	sp, r2, r8, lsl #6
    800c:	5ee40300 	cdppl	3, 14, cr0, cr4, cr0, {0}
    8010:	08000000 	stmdaeq	r0, {}	; <UNPREDICTABLE>
    8014:	0000092a 	andeq	r0, r0, sl, lsr #18
    8018:	0469f103 	strbteq	pc, [r9], #-259	; 0x103	; <UNPREDICTABLE>
    801c:	03000000 	movweq	r0, #0
    8020:	00000f6d 	andeq	r0, r0, sp, ror #30
    8024:	051cf203 	ldreq	pc, [ip, #-515]	; 0x203
    8028:	04050000 	streq	r0, [r5], #-0
    802c:	05eaf703 	strbeq	pc, [sl, #1795]!	; 0x703	; <UNPREDICTABLE>
    8030:	53060000 	movwpl	r0, #24576	; 0x6000
    8034:	0300000e 	movweq	r0, #14
    8038:	00005ef9 	strdeq	r5, [r0], -r9
    803c:	18080400 	stmdane	r8, {sl}
    8040:	06002302 	streq	r2, [r0], -r2, lsl #6
    8044:	00000dab 	andeq	r0, r0, fp, lsr #27
    8048:	005efa03 	subseq	pc, lr, r3, lsl #20
    804c:	08040000 	stmdaeq	r4, {}	; <UNPREDICTABLE>
    8050:	00230210 	eoreq	r0, r3, r0, lsl r2
    8054:	0003fd06 	andeq	pc, r3, r6, lsl #26
    8058:	5efb0300 	cdppl	3, 15, cr0, cr11, cr0, {0}
    805c:	04000000 	streq	r0, [r0], #-0
    8060:	23020f01 	movwcs	r0, #12033	; 0x2f01
    8064:	0e580600 	cdpeq	6, 5, cr0, cr8, cr0, {0}
    8068:	fc030000 	stc2	0, cr0, [r3], {-0}
    806c:	0000005e 	andeq	r0, r0, lr, asr r0
    8070:	020e0104 	andeq	r0, lr, #1
    8074:	01060023 	tsteq	r6, r3, lsr #32
    8078:	0300000d 	movweq	r0, #13
    807c:	00005efd 	strdeq	r5, [r0], -sp
    8080:	0d010400 	cfstrseq	mvf0, [r1, #-0]
    8084:	06002302 	streq	r2, [r0], -r2, lsl #6
    8088:	00000e5d 	andeq	r0, r0, sp, asr lr
    808c:	005efe03 	subseq	pc, lr, r3, lsl #28
    8090:	05040000 	streq	r0, [r4, #-0]
    8094:	00230208 	eoreq	r0, r3, r8, lsl #4
    8098:	0003b506 	andeq	fp, r3, r6, lsl #10
    809c:	5eff0300 	cdppl	3, 15, cr0, cr15, cr0, {0}
    80a0:	04000000 	streq	r0, [r0], #-0
    80a4:	23020701 	movwcs	r0, #9985	; 0x2701
    80a8:	0e620900 	cdpeq	9, 6, cr0, cr2, cr0, {0}
    80ac:	00030000 	andeq	r0, r3, r0
    80b0:	00005e01 	andeq	r5, r0, r1, lsl #28
    80b4:	01060400 	tsteq	r6, r0, lsl #8
    80b8:	09002302 	stmdbeq	r0, {r1, r8, r9, sp}
    80bc:	00000d1c 	andeq	r0, r0, ip, lsl sp
    80c0:	5e010103 	adfpls	f0, f1, f3
    80c4:	04000000 	streq	r0, [r0], #-0
    80c8:	23020001 	movwcs	r0, #8193	; 0x2001
    80cc:	04070000 	streq	r0, [r7], #-0
    80d0:	060af403 	streq	pc, [sl], -r3, lsl #8
    80d4:	d3080000 	movwle	r0, #32768	; 0x8000
    80d8:	03000002 	movweq	r0, #2
    80dc:	00005ef6 	strdeq	r5, [r0], -r6
    80e0:	092a0a00 	stmdbeq	sl!, {r9, fp}
    80e4:	02030000 	andeq	r0, r3, #0
    80e8:	00054601 	andeq	r4, r5, r1, lsl #12
    80ec:	c70b0000 	strgt	r0, [fp, -r0]
    80f0:	0300000b 	movweq	r0, #11
    80f4:	05ea0103 	strbeq	r0, [sl, #259]!	; 0x103
    80f8:	040c0000 	streq	r0, [ip], #-0
    80fc:	d4010803 	strle	r0, [r1], #-2051	; 0x803
    8100:	09000006 	stmdbeq	r0, {r1, r2}
    8104:	00000c8f 	andeq	r0, r0, pc, lsl #25
    8108:	5e010a03 	vmlapl.f32	s0, s2, s6
    810c:	04000000 	streq	r0, [r0], #-0
    8110:	23021e02 	movwcs	r1, #11778	; 0x2e02
    8114:	0e530900 	cdpeq	9, 5, cr0, cr3, cr0, {0}
    8118:	0b030000 	bleq	c8120 <__bss_end+0xb4fd4>
    811c:	00005e01 	andeq	r5, r0, r1, lsl #28
    8120:	18060400 	stmdane	r6, {sl}
    8124:	09002302 	stmdbeq	r0, {r1, r8, r9, sp}
    8128:	00000dab 	andeq	r0, r0, fp, lsr #27
    812c:	5e010c03 	cdppl	12, 0, cr0, cr1, cr3, {0}
    8130:	04000000 	streq	r0, [r0], #-0
    8134:	23021008 	movwcs	r1, #8200	; 0x2008
    8138:	03fd0900 	mvnseq	r0, #0
    813c:	0d030000 	stceq	0, cr0, [r3, #-0]
    8140:	00005e01 	andeq	r5, r0, r1, lsl #28
    8144:	0f010400 	svceq	0x00010400
    8148:	09002302 	stmdbeq	r0, {r1, r8, r9, sp}
    814c:	00000e58 	andeq	r0, r0, r8, asr lr
    8150:	5e010e03 	cdppl	14, 0, cr0, cr1, cr3, {0}
    8154:	04000000 	streq	r0, [r0], #-0
    8158:	23020e01 	movwcs	r0, #11777	; 0x2e01
    815c:	0d010900 	stceq	9, cr0, [r1, #-0]
    8160:	0f030000 	svceq	0x00030000
    8164:	00005e01 	andeq	r5, r0, r1, lsl #28
    8168:	0d010400 	cfstrseq	mvf0, [r1, #-0]
    816c:	09002302 	stmdbeq	r0, {r1, r8, r9, sp}
    8170:	00000e5d 	andeq	r0, r0, sp, asr lr
    8174:	5e011003 	cdppl	0, 0, cr1, cr1, cr3, {0}
    8178:	04000000 	streq	r0, [r0], #-0
    817c:	23020805 	movwcs	r0, #10245	; 0x2805
    8180:	03b50900 			; <UNDEFINED> instruction: 0x03b50900
    8184:	11030000 	mrsne	r0, (UNDEF: 3)
    8188:	00005e01 	andeq	r5, r0, r1, lsl #28
    818c:	07010400 	streq	r0, [r1, -r0, lsl #8]
    8190:	09002302 	stmdbeq	r0, {r1, r8, r9, sp}
    8194:	00000e62 	andeq	r0, r0, r2, ror #28
    8198:	5e011203 	cdppl	2, 0, cr1, cr1, cr3, {0}
    819c:	04000000 	streq	r0, [r0], #-0
    81a0:	23020106 	movwcs	r0, #8454	; 0x2106
    81a4:	0d1c0900 	ldceq	9, cr0, [ip, #-0]
    81a8:	13030000 	movwne	r0, #12288	; 0x3000
    81ac:	00005e01 	andeq	r5, r0, r1, lsl #28
    81b0:	00010400 	andeq	r0, r1, r0, lsl #8
    81b4:	00002302 	andeq	r2, r0, r2, lsl #6
    81b8:	0503040d 	streq	r0, [r3, #-1037]	; 0x40d
    81bc:	0006f601 	andeq	pc, r6, r1, lsl #12
    81c0:	02d30a00 	sbcseq	r0, r3, #0
    81c4:	07030000 	streq	r0, [r3, -r0]
    81c8:	00005e01 	andeq	r5, r0, r1, lsl #28
    81cc:	092a0a00 	stmdbeq	sl!, {r9, fp}
    81d0:	14030000 	strne	r0, [r3], #-0
    81d4:	00061601 	andeq	r1, r6, r1, lsl #12
    81d8:	980b0000 	stmdals	fp, {}	; <UNPREDICTABLE>
    81dc:	03000008 	movweq	r0, #8
    81e0:	06d40115 			; <UNDEFINED> instruction: 0x06d40115
    81e4:	040c0000 	streq	r0, [ip], #-0
    81e8:	ae011a03 	vmlage.f32	s2, s2, s6
    81ec:	09000007 	stmdbeq	r0, {r0, r1, r2}
    81f0:	00000e53 	andeq	r0, r0, r3, asr lr
    81f4:	5e011c03 	cdppl	12, 0, cr1, cr1, cr3, {0}
    81f8:	04000000 	streq	r0, [r0], #-0
    81fc:	23021808 	movwcs	r1, #10248	; 0x2808
    8200:	0dab0900 	stceq	9, cr0, [fp]
    8204:	1d030000 	stcne	0, cr0, [r3, #-0]
    8208:	00005e01 	andeq	r5, r0, r1, lsl #28
    820c:	10080400 	andne	r0, r8, r0, lsl #8
    8210:	09002302 	stmdbeq	r0, {r1, r8, r9, sp}
    8214:	00000cf8 	strdeq	r0, [r0], -r8
    8218:	5e011e03 	cdppl	14, 0, cr1, cr1, cr3, {0}
    821c:	04000000 	streq	r0, [r0], #-0
    8220:	23020f01 	movwcs	r0, #12033	; 0x2f01
    8224:	0e580900 	cdpeq	9, 5, cr0, cr8, cr0, {0}
    8228:	1f030000 	svcne	0x00030000
    822c:	00005e01 	andeq	r5, r0, r1, lsl #28
    8230:	0e010400 	cfcpyseq	mvf0, mvf1
    8234:	09002302 	stmdbeq	r0, {r1, r8, r9, sp}
    8238:	00000d01 	andeq	r0, r0, r1, lsl #26
    823c:	5e012003 	cdppl	0, 0, cr2, cr1, cr3, {0}
    8240:	04000000 	streq	r0, [r0], #-0
    8244:	23020d01 	movwcs	r0, #11521	; 0x2d01
    8248:	0e5d0900 	cdpeq	9, 5, cr0, cr13, cr0, {0}
    824c:	21030000 	mrscs	r0, (UNDEF: 3)
    8250:	00005e01 	andeq	r5, r0, r1, lsl #28
    8254:	08050400 	stmdaeq	r5, {sl}
    8258:	09002302 	stmdbeq	r0, {r1, r8, r9, sp}
    825c:	000003b5 			; <UNDEFINED> instruction: 0x000003b5
    8260:	5e012203 	cdppl	2, 0, cr2, cr1, cr3, {0}
    8264:	04000000 	streq	r0, [r0], #-0
    8268:	23020701 	movwcs	r0, #9985	; 0x2701
    826c:	0e620900 	cdpeq	9, 6, cr0, cr2, cr0, {0}
    8270:	23030000 	movwcs	r0, #12288	; 0x3000
    8274:	00005e01 	andeq	r5, r0, r1, lsl #28
    8278:	01060400 	tsteq	r6, r0, lsl #8
    827c:	09002302 	stmdbeq	r0, {r1, r8, r9, sp}
    8280:	00000d1c 	andeq	r0, r0, ip, lsl sp
    8284:	5e012403 	cdppl	4, 0, cr2, cr1, cr3, {0}
    8288:	04000000 	streq	r0, [r0], #-0
    828c:	23020001 	movwcs	r0, #8193	; 0x2001
    8290:	040d0000 	streq	r0, [sp], #-0
    8294:	d0011703 	andle	r1, r1, r3, lsl #14
    8298:	0a000007 	beq	82bc <__resume1_start+0x82bc>
    829c:	000002d3 	ldrdeq	r0, [r0], -r3
    82a0:	5e011903 	cdppl	9, 0, cr1, cr1, cr3, {0}
    82a4:	0a000000 	beq	82ac <__resume1_start+0x82ac>
    82a8:	0000092a 	andeq	r0, r0, sl, lsr #18
    82ac:	02012503 	andeq	r2, r1, #12582912	; 0xc00000
    82b0:	00000007 	andeq	r0, r0, r7
    82b4:	0002890b 	andeq	r8, r2, fp, lsl #18
    82b8:	01260300 	teqeq	r6, r0, lsl #6
    82bc:	000007ae 	andeq	r0, r0, lr, lsr #15
    82c0:	2b03040c 	blcs	c92f8 <__bss_end+0xb61ac>
    82c4:	00088801 	andeq	r8, r8, r1, lsl #16
    82c8:	0e530900 	cdpeq	9, 5, cr0, cr3, cr0, {0}
    82cc:	2d030000 	stccs	0, cr0, [r3, #-0]
    82d0:	00005e01 	andeq	r5, r0, r1, lsl #28
    82d4:	18080400 	stmdane	r8, {sl}
    82d8:	09002302 	stmdbeq	r0, {r1, r8, r9, sp}
    82dc:	00000dab 	andeq	r0, r0, fp, lsr #27
    82e0:	5e012e03 	cdppl	14, 0, cr2, cr1, cr3, {0}
    82e4:	04000000 	streq	r0, [r0], #-0
    82e8:	23021008 	movwcs	r1, #8200	; 0x2008
    82ec:	0cf80900 	ldcleq	9, cr0, [r8]
    82f0:	2f030000 	svccs	0x00030000
    82f4:	00005e01 	andeq	r5, r0, r1, lsl #28
    82f8:	0f010400 	svceq	0x00010400
    82fc:	09002302 	stmdbeq	r0, {r1, r8, r9, sp}
    8300:	00000e58 	andeq	r0, r0, r8, asr lr
    8304:	5e013003 	cdppl	0, 0, cr3, cr1, cr3, {0}
    8308:	04000000 	streq	r0, [r0], #-0
    830c:	23020e01 	movwcs	r0, #11777	; 0x2e01
    8310:	0d010900 	stceq	9, cr0, [r1, #-0]
    8314:	31030000 	mrscc	r0, (UNDEF: 3)
    8318:	00005e01 	andeq	r5, r0, r1, lsl #28
    831c:	0d010400 	cfstrseq	mvf0, [r1, #-0]
    8320:	09002302 	stmdbeq	r0, {r1, r8, r9, sp}
    8324:	00000e5d 	andeq	r0, r0, sp, asr lr
    8328:	5e013203 	cdppl	2, 0, cr3, cr1, cr3, {0}
    832c:	04000000 	streq	r0, [r0], #-0
    8330:	23020805 	movwcs	r0, #10245	; 0x2805
    8334:	03b50900 			; <UNDEFINED> instruction: 0x03b50900
    8338:	33030000 	movwcc	r0, #12288	; 0x3000
    833c:	00005e01 	andeq	r5, r0, r1, lsl #28
    8340:	07010400 	streq	r0, [r1, -r0, lsl #8]
    8344:	09002302 	stmdbeq	r0, {r1, r8, r9, sp}
    8348:	00000e62 	andeq	r0, r0, r2, ror #28
    834c:	5e013403 	cdppl	4, 0, cr3, cr1, cr3, {0}
    8350:	04000000 	streq	r0, [r0], #-0
    8354:	23020106 	movwcs	r0, #8454	; 0x2106
    8358:	0d1c0900 	ldceq	9, cr0, [ip, #-0]
    835c:	35030000 	strcc	r0, [r3, #-0]
    8360:	00005e01 	andeq	r5, r0, r1, lsl #28
    8364:	00010400 	andeq	r0, r1, r0, lsl #8
    8368:	00002302 	andeq	r2, r0, r2, lsl #6
    836c:	2803040d 	stmdacs	r3, {r0, r2, r3, sl}
    8370:	0008aa01 	andeq	sl, r8, r1, lsl #20
    8374:	02d30a00 	sbcseq	r0, r3, #0
    8378:	2a030000 	bcs	c8380 <__bss_end+0xb5234>
    837c:	00005e01 	andeq	r5, r0, r1, lsl #28
    8380:	092a0a00 	stmdbeq	sl!, {r9, fp}
    8384:	36030000 	strcc	r0, [r3], -r0
    8388:	0007dc01 	andeq	sp, r7, r1, lsl #24
    838c:	ec0b0000 	stc	0, cr0, [fp], {-0}
    8390:	0300000e 	movweq	r0, #14
    8394:	08880137 	stmeq	r8, {r0, r1, r2, r4, r5, r8}
    8398:	040c0000 	streq	r0, [ip], #-0
    839c:	62013c03 	andvs	r3, r1, #768	; 0x300
    83a0:	09000009 	stmdbeq	r0, {r0, r3}
    83a4:	00000e53 	andeq	r0, r0, r3, asr lr
    83a8:	5e013e03 	cdppl	14, 0, cr3, cr1, cr3, {0}
    83ac:	04000000 	streq	r0, [r0], #-0
    83b0:	23021808 	movwcs	r1, #10248	; 0x2808
    83b4:	0dab0900 	stceq	9, cr0, [fp]
    83b8:	3f030000 	svccc	0x00030000
    83bc:	00005e01 	andeq	r5, r0, r1, lsl #28
    83c0:	10080400 	andne	r0, r8, r0, lsl #8
    83c4:	09002302 	stmdbeq	r0, {r1, r8, r9, sp}
    83c8:	00000cf8 	strdeq	r0, [r0], -r8
    83cc:	5e014003 	cdppl	0, 0, cr4, cr1, cr3, {0}
    83d0:	04000000 	streq	r0, [r0], #-0
    83d4:	23020f01 	movwcs	r0, #12033	; 0x2f01
    83d8:	0e580900 	cdpeq	9, 5, cr0, cr8, cr0, {0}
    83dc:	41030000 	mrsmi	r0, (UNDEF: 3)
    83e0:	00005e01 	andeq	r5, r0, r1, lsl #28
    83e4:	0e010400 	cfcpyseq	mvf0, mvf1
    83e8:	09002302 	stmdbeq	r0, {r1, r8, r9, sp}
    83ec:	00000d01 	andeq	r0, r0, r1, lsl #26
    83f0:	5e014203 	cdppl	2, 0, cr4, cr1, cr3, {0}
    83f4:	04000000 	streq	r0, [r0], #-0
    83f8:	23020d01 	movwcs	r0, #11521	; 0x2d01
    83fc:	0e5d0900 	cdpeq	9, 5, cr0, cr13, cr0, {0}
    8400:	43030000 	movwmi	r0, #12288	; 0x3000
    8404:	00005e01 	andeq	r5, r0, r1, lsl #28
    8408:	08050400 	stmdaeq	r5, {sl}
    840c:	09002302 	stmdbeq	r0, {r1, r8, r9, sp}
    8410:	000003b5 			; <UNDEFINED> instruction: 0x000003b5
    8414:	5e014403 	cdppl	4, 0, cr4, cr1, cr3, {0}
    8418:	04000000 	streq	r0, [r0], #-0
    841c:	23020701 	movwcs	r0, #9985	; 0x2701
    8420:	0e620900 	cdpeq	9, 6, cr0, cr2, cr0, {0}
    8424:	45030000 	strmi	r0, [r3, #-0]
    8428:	00005e01 	andeq	r5, r0, r1, lsl #28
    842c:	01060400 	tsteq	r6, r0, lsl #8
    8430:	09002302 	stmdbeq	r0, {r1, r8, r9, sp}
    8434:	00000d1c 	andeq	r0, r0, ip, lsl sp
    8438:	5e014603 	cfmadd32pl	mvax0, mvfx4, mvfx1, mvfx3
    843c:	04000000 	streq	r0, [r0], #-0
    8440:	23020001 	movwcs	r0, #8193	; 0x2001
    8444:	040d0000 	streq	r0, [sp], #-0
    8448:	84013903 	strhi	r3, [r1], #-2307	; 0x903
    844c:	0a000009 	beq	8478 <__resume1_start+0x8478>
    8450:	000002d3 	ldrdeq	r0, [r0], -r3
    8454:	5e013b03 	vmlapl.f64	d3, d1, d3
    8458:	0a000000 	beq	8460 <__resume1_start+0x8460>
    845c:	0000092a 	andeq	r0, r0, sl, lsr #18
    8460:	b6014703 	strlt	r4, [r1], -r3, lsl #14
    8464:	00000008 	andeq	r0, r0, r8
    8468:	000f320b 	andeq	r3, pc, fp, lsl #4
    846c:	01480300 	mrseq	r0, (UNDEF: 120)
    8470:	00000962 	andeq	r0, r0, r2, ror #18
    8474:	4d03040c 	cfstrsmi	mvf0, [r3, #-48]	; 0xffffffd0
    8478:	000a3c01 	andeq	r3, sl, r1, lsl #24
    847c:	0e530900 	cdpeq	9, 5, cr0, cr3, cr0, {0}
    8480:	4f030000 	svcmi	0x00030000
    8484:	00005e01 	andeq	r5, r0, r1, lsl #28
    8488:	18080400 	stmdane	r8, {sl}
    848c:	09002302 	stmdbeq	r0, {r1, r8, r9, sp}
    8490:	00000dab 	andeq	r0, r0, fp, lsr #27
    8494:	5e015003 	cdppl	0, 0, cr5, cr1, cr3, {0}
    8498:	04000000 	streq	r0, [r0], #-0
    849c:	23021008 	movwcs	r1, #8200	; 0x2008
    84a0:	0cf80900 	ldcleq	9, cr0, [r8]
    84a4:	51030000 	mrspl	r0, (UNDEF: 3)
    84a8:	00005e01 	andeq	r5, r0, r1, lsl #28
    84ac:	0f010400 	svceq	0x00010400
    84b0:	09002302 	stmdbeq	r0, {r1, r8, r9, sp}
    84b4:	00000e58 	andeq	r0, r0, r8, asr lr
    84b8:	5e015203 	cdppl	2, 0, cr5, cr1, cr3, {0}
    84bc:	04000000 	streq	r0, [r0], #-0
    84c0:	23020e01 	movwcs	r0, #11777	; 0x2e01
    84c4:	0d010900 	stceq	9, cr0, [r1, #-0]
    84c8:	53030000 	movwpl	r0, #12288	; 0x3000
    84cc:	00005e01 	andeq	r5, r0, r1, lsl #28
    84d0:	0d010400 	cfstrseq	mvf0, [r1, #-0]
    84d4:	09002302 	stmdbeq	r0, {r1, r8, r9, sp}
    84d8:	00000e5d 	andeq	r0, r0, sp, asr lr
    84dc:	5e015403 	cdppl	4, 0, cr5, cr1, cr3, {0}
    84e0:	04000000 	streq	r0, [r0], #-0
    84e4:	23020805 	movwcs	r0, #10245	; 0x2805
    84e8:	03b50900 			; <UNDEFINED> instruction: 0x03b50900
    84ec:	55030000 	strpl	r0, [r3, #-0]
    84f0:	00005e01 	andeq	r5, r0, r1, lsl #28
    84f4:	07010400 	streq	r0, [r1, -r0, lsl #8]
    84f8:	09002302 	stmdbeq	r0, {r1, r8, r9, sp}
    84fc:	00000e62 	andeq	r0, r0, r2, ror #28
    8500:	5e015603 	cfmadd32pl	mvax0, mvfx5, mvfx1, mvfx3
    8504:	04000000 	streq	r0, [r0], #-0
    8508:	23020106 	movwcs	r0, #8454	; 0x2106
    850c:	0d1c0900 	ldceq	9, cr0, [ip, #-0]
    8510:	57030000 	strpl	r0, [r3, -r0]
    8514:	00005e01 	andeq	r5, r0, r1, lsl #28
    8518:	00010400 	andeq	r0, r1, r0, lsl #8
    851c:	00002302 	andeq	r2, r0, r2, lsl #6
    8520:	4a03040d 	bmi	c955c <__bss_end+0xb6410>
    8524:	000a5e01 	andeq	r5, sl, r1, lsl #28
    8528:	02d30a00 	sbcseq	r0, r3, #0
    852c:	4c030000 	stcmi	0, cr0, [r3], {-0}
    8530:	00005e01 	andeq	r5, r0, r1, lsl #28
    8534:	092a0a00 	stmdbeq	sl!, {r9, fp}
    8538:	58030000 	stmdapl	r3, {}	; <UNPREDICTABLE>
    853c:	00099001 	andeq	r9, r9, r1
    8540:	e20b0000 	and	r0, fp, #0
    8544:	03000007 	movweq	r0, #7
    8548:	0a3c0159 	beq	f08ab4 <__bss_end+0xef5968>
    854c:	040c0000 	streq	r0, [ip], #-0
    8550:	bc015e03 	stclt	14, cr5, [r1], {3}
    8554:	0900000a 	stmdbeq	r0, {r1, r3}
    8558:	00000b32 	andeq	r0, r0, r2, lsr fp
    855c:	5e016003 	cdppl	0, 0, cr6, cr1, cr3, {0}
    8560:	04000000 	streq	r0, [r0], #-0
    8564:	23021f01 	movwcs	r1, #12033	; 0x2f01
    8568:	0e530900 	cdpeq	9, 5, cr0, cr3, cr0, {0}
    856c:	61030000 	mrsvs	r0, (UNDEF: 3)
    8570:	00005e01 	andeq	r5, r0, r1, lsl #28
    8574:	18070400 	stmdane	r7, {sl}
    8578:	09002302 	stmdbeq	r0, {r1, r8, r9, sp}
    857c:	00000487 	andeq	r0, r0, r7, lsl #9
    8580:	5e016203 	cdppl	2, 0, cr6, cr1, cr3, {0}
    8584:	04000000 	streq	r0, [r0], #-0
    8588:	23021701 	movwcs	r1, #9985	; 0x2701
    858c:	0e580900 	cdpeq	9, 5, cr0, cr8, cr0, {0}
    8590:	63030000 	movwvs	r0, #12288	; 0x3000
    8594:	00005e01 	andeq	r5, r0, r1, lsl #28
    8598:	00170400 	andseq	r0, r7, r0, lsl #8
    859c:	00002302 	andeq	r2, r0, r2, lsl #6
    85a0:	5b03040d 	blpl	c95dc <__bss_end+0xb6490>
    85a4:	000ade01 	andeq	sp, sl, r1, lsl #28
    85a8:	02d30a00 	sbcseq	r0, r3, #0
    85ac:	5d030000 	stcpl	0, cr0, [r3, #-0]
    85b0:	00005e01 	andeq	r5, r0, r1, lsl #28
    85b4:	092a0a00 	stmdbeq	sl!, {r9, fp}
    85b8:	64030000 	strvs	r0, [r3], #-0
    85bc:	000a6a01 	andeq	r6, sl, r1, lsl #20
    85c0:	240b0000 	strcs	r0, [fp], #-0
    85c4:	03000006 	movweq	r0, #6
    85c8:	0abc0165 	beq	fef08b64 <__bss_end+0xfeef5a18>
    85cc:	040c0000 	streq	r0, [ip], #-0
    85d0:	3c016a03 	stccc	10, cr6, [r1], {3}
    85d4:	0900000b 	stmdbeq	r0, {r0, r1, r3}
    85d8:	000008b3 			; <UNDEFINED> instruction: 0x000008b3
    85dc:	5e016c03 	cdppl	12, 0, cr6, cr1, cr3, {0}
    85e0:	04000000 	streq	r0, [r0], #-0
    85e4:	23021d03 	movwcs	r1, #11523	; 0x2d03
    85e8:	0e530900 	cdpeq	9, 5, cr0, cr3, cr0, {0}
    85ec:	6d030000 	stcvs	0, cr0, [r3, #-0]
    85f0:	00005e01 	andeq	r5, r0, r1, lsl #28
    85f4:	18050400 	stmdane	r5, {sl}
    85f8:	09002302 	stmdbeq	r0, {r1, r8, r9, sp}
    85fc:	0000036a 	andeq	r0, r0, sl, ror #6
    8600:	5e016e03 	cdppl	14, 0, cr6, cr1, cr3, {0}
    8604:	04000000 	streq	r0, [r0], #-0
    8608:	23021602 	movwcs	r1, #9730	; 0x2602
    860c:	0e580900 	cdpeq	9, 5, cr0, cr8, cr0, {0}
    8610:	6f030000 	svcvs	0x00030000
    8614:	00005e01 	andeq	r5, r0, r1, lsl #28
    8618:	10060400 	andne	r0, r6, r0, lsl #8
    861c:	00002302 	andeq	r2, r0, r2, lsl #6
    8620:	6703040d 	strvs	r0, [r3, -sp, lsl #8]
    8624:	000b5e01 	andeq	r5, fp, r1, lsl #28
    8628:	02d30a00 	sbcseq	r0, r3, #0
    862c:	69030000 	stmdbvs	r3, {}	; <UNPREDICTABLE>
    8630:	00005e01 	andeq	r5, r0, r1, lsl #28
    8634:	092a0a00 	stmdbeq	sl!, {r9, fp}
    8638:	70030000 	andvc	r0, r3, r0
    863c:	000aea01 	andeq	lr, sl, r1, lsl #20
    8640:	b80b0000 	stmdalt	fp, {}	; <UNPREDICTABLE>
    8644:	03000009 	movweq	r0, #9
    8648:	0b3c0171 	bleq	f08c14 <__bss_end+0xef5ac8>
    864c:	040c0000 	streq	r0, [ip], #-0
    8650:	bc017603 	stclt	6, cr7, [r1], {3}
    8654:	0900000b 	stmdbeq	r0, {r0, r1, r3}
    8658:	000006c4 	andeq	r0, r0, r4, asr #13
    865c:	5e017803 	cdppl	8, 0, cr7, cr1, cr3, {0}
    8660:	04000000 	streq	r0, [r0], #-0
    8664:	23021d03 	movwcs	r1, #11523	; 0x2d03
    8668:	0e530900 	cdpeq	9, 5, cr0, cr3, cr0, {0}
    866c:	79030000 	stmdbvc	r3, {}	; <UNPREDICTABLE>
    8670:	00005e01 	andeq	r5, r0, r1, lsl #28
    8674:	18050400 	stmdane	r5, {sl}
    8678:	09002302 	stmdbeq	r0, {r1, r8, r9, sp}
    867c:	000006b3 			; <UNDEFINED> instruction: 0x000006b3
    8680:	5e017a03 	vmlapl.f32	s14, s2, s6
    8684:	04000000 	streq	r0, [r0], #-0
    8688:	23021602 	movwcs	r1, #9730	; 0x2602
    868c:	0e580900 	cdpeq	9, 5, cr0, cr8, cr0, {0}
    8690:	7b030000 	blvc	c8698 <__bss_end+0xb554c>
    8694:	00005e01 	andeq	r5, r0, r1, lsl #28
    8698:	10060400 	andne	r0, r6, r0, lsl #8
    869c:	00002302 	andeq	r2, r0, r2, lsl #6
    86a0:	7303040d 	movwvc	r0, #13325	; 0x340d
    86a4:	000bde01 	andeq	sp, fp, r1, lsl #28
    86a8:	02d30a00 	sbcseq	r0, r3, #0
    86ac:	75030000 	strvc	r0, [r3, #-0]
    86b0:	00005e01 	andeq	r5, r0, r1, lsl #28
    86b4:	092a0a00 	stmdbeq	sl!, {r9, fp}
    86b8:	7c030000 	stcvc	0, cr0, [r3], {-0}
    86bc:	000b6a01 	andeq	r6, fp, r1, lsl #20
    86c0:	2e0b0000 	cdpcs	0, 0, cr0, cr11, cr0, {0}
    86c4:	0300000d 	movweq	r0, #13
    86c8:	0bbc017d 	bleq	fef08cc4 <__bss_end+0xfeef5b78>
    86cc:	040c0000 	streq	r0, [ip], #-0
    86d0:	3c018203 	sfmcc	f0, 1, [r1], {3}
    86d4:	0900000c 	stmdbeq	r0, {r2, r3}
    86d8:	000006e7 	andeq	r0, r0, r7, ror #13
    86dc:	5e018403 	cdppl	4, 0, cr8, cr1, cr3, {0}
    86e0:	04000000 	streq	r0, [r0], #-0
    86e4:	23021e02 	movwcs	r1, #11778	; 0x2e02
    86e8:	0e530900 	cdpeq	9, 5, cr0, cr3, cr0, {0}
    86ec:	85030000 	strhi	r0, [r3, #-0]
    86f0:	00005e01 	andeq	r5, r0, r1, lsl #28
    86f4:	08160400 	ldmdaeq	r6, {sl}
    86f8:	09002302 	stmdbeq	r0, {r1, r8, r9, sp}
    86fc:	000007c0 	andeq	r0, r0, r0, asr #15
    8700:	5e018603 	cfmadd32pl	mvax0, mvfx8, mvfx1, mvfx3
    8704:	04000000 	streq	r0, [r0], #-0
    8708:	23020602 	movwcs	r0, #9730	; 0x2602
    870c:	0e580900 	cdpeq	9, 5, cr0, cr8, cr0, {0}
    8710:	87030000 	strhi	r0, [r3, -r0]
    8714:	00005e01 	andeq	r5, r0, r1, lsl #28
    8718:	00060400 	andeq	r0, r6, r0, lsl #8
    871c:	00002302 	andeq	r2, r0, r2, lsl #6
    8720:	7f03040d 	svcvc	0x0003040d
    8724:	000c5e01 	andeq	r5, ip, r1, lsl #28
    8728:	02d30a00 	sbcseq	r0, r3, #0
    872c:	81030000 	mrshi	r0, (UNDEF: 3)
    8730:	00005e01 	andeq	r5, r0, r1, lsl #28
    8734:	092a0a00 	stmdbeq	sl!, {r9, fp}
    8738:	88030000 	stmdahi	r3, {}	; <UNPREDICTABLE>
    873c:	000bea01 	andeq	lr, fp, r1, lsl #20
    8740:	350b0000 	strcc	r0, [fp, #-0]
    8744:	03000003 	movweq	r0, #3
    8748:	0c3c0189 	ldfeqs	f0, [ip], #-548	; 0xfffffddc
    874c:	040c0000 	streq	r0, [ip], #-0
    8750:	bc018e03 	stclt	14, cr8, [r1], {3}
    8754:	0900000c 	stmdbeq	r0, {r2, r3}
    8758:	00000c30 	andeq	r0, r0, r0, lsr ip
    875c:	5e019003 	cdppl	0, 0, cr9, cr1, cr3, {0}
    8760:	04000000 	streq	r0, [r0], #-0
    8764:	23021e02 	movwcs	r1, #11778	; 0x2e02
    8768:	0e530900 	cdpeq	9, 5, cr0, cr3, cr0, {0}
    876c:	91030000 	mrsls	r0, (UNDEF: 3)
    8770:	00005e01 	andeq	r5, r0, r1, lsl #28
    8774:	08160400 	ldmdaeq	r6, {sl}
    8778:	09002302 	stmdbeq	r0, {r1, r8, r9, sp}
    877c:	00000e33 	andeq	r0, r0, r3, lsr lr
    8780:	5e019203 	cdppl	2, 0, cr9, cr1, cr3, {0}
    8784:	04000000 	streq	r0, [r0], #-0
    8788:	23020602 	movwcs	r0, #9730	; 0x2602
    878c:	0e580900 	cdpeq	9, 5, cr0, cr8, cr0, {0}
    8790:	93030000 	movwls	r0, #12288	; 0x3000
    8794:	00005e01 	andeq	r5, r0, r1, lsl #28
    8798:	00060400 	andeq	r0, r6, r0, lsl #8
    879c:	00002302 	andeq	r2, r0, r2, lsl #6
    87a0:	8b03040d 	blhi	c97dc <__bss_end+0xb6690>
    87a4:	000cde01 	andeq	sp, ip, r1, lsl #28
    87a8:	02d30a00 	sbcseq	r0, r3, #0
    87ac:	8d030000 	stchi	0, cr0, [r3, #-0]
    87b0:	00005e01 	andeq	r5, r0, r1, lsl #28
    87b4:	092a0a00 	stmdbeq	sl!, {r9, fp}
    87b8:	94030000 	strls	r0, [r3], #-0
    87bc:	000c6a01 	andeq	r6, ip, r1, lsl #20
    87c0:	e90b0000 	stmdb	fp, {}	; <UNPREDICTABLE>
    87c4:	0300000b 	movweq	r0, #11
    87c8:	0cbc0195 	ldfeqs	f0, [ip], #596	; 0x254
    87cc:	040c0000 	streq	r0, [ip], #-0
    87d0:	3c019a03 	stccc	10, cr9, [r1], {3}
    87d4:	0900000d 	stmdbeq	r0, {r0, r2, r3}
    87d8:	00000aeb 	andeq	r0, r0, fp, ror #21
    87dc:	5e019c03 	cdppl	12, 0, cr9, cr1, cr3, {0}
    87e0:	04000000 	streq	r0, [r0], #-0
    87e4:	23021e02 	movwcs	r1, #11778	; 0x2e02
    87e8:	0e530900 	cdpeq	9, 5, cr0, cr3, cr0, {0}
    87ec:	9d030000 	stcls	0, cr0, [r3, #-0]
    87f0:	00005e01 	andeq	r5, r0, r1, lsl #28
    87f4:	08160400 	ldmdaeq	r6, {sl}
    87f8:	09002302 	stmdbeq	r0, {r1, r8, r9, sp}
    87fc:	0000066e 	andeq	r0, r0, lr, ror #12
    8800:	5e019e03 	cdppl	14, 0, cr9, cr1, cr3, {0}
    8804:	04000000 	streq	r0, [r0], #-0
    8808:	23020602 	movwcs	r0, #9730	; 0x2602
    880c:	0e580900 	cdpeq	9, 5, cr0, cr8, cr0, {0}
    8810:	9f030000 	svcls	0x00030000
    8814:	00005e01 	andeq	r5, r0, r1, lsl #28
    8818:	00060400 	andeq	r0, r6, r0, lsl #8
    881c:	00002302 	andeq	r2, r0, r2, lsl #6
    8820:	9703040d 	strls	r0, [r3, -sp, lsl #8]
    8824:	000d5e01 	andeq	r5, sp, r1, lsl #28
    8828:	02d30a00 	sbcseq	r0, r3, #0
    882c:	99030000 	stmdbls	r3, {}	; <UNPREDICTABLE>
    8830:	00005e01 	andeq	r5, r0, r1, lsl #28
    8834:	092a0a00 	stmdbeq	sl!, {r9, fp}
    8838:	a0030000 	andge	r0, r3, r0
    883c:	000cea01 	andeq	lr, ip, r1, lsl #20
    8840:	120b0000 	andne	r0, fp, #0
    8844:	0300000a 	movweq	r0, #10
    8848:	0d3c01a1 	ldfeqs	f0, [ip, #-644]!	; 0xfffffd7c
    884c:	040c0000 	streq	r0, [ip], #-0
    8850:	bc01a603 	stclt	6, cr10, [r1], {3}
    8854:	0900000d 	stmdbeq	r0, {r0, r2, r3}
    8858:	00000a9e 	muleq	r0, lr, sl
    885c:	5e01a803 	cdppl	8, 0, cr10, cr1, cr3, {0}
    8860:	04000000 	streq	r0, [r0], #-0
    8864:	23021e02 	movwcs	r1, #11778	; 0x2e02
    8868:	0e530900 	cdpeq	9, 5, cr0, cr3, cr0, {0}
    886c:	a9030000 	stmdbge	r3, {}	; <UNPREDICTABLE>
    8870:	00005e01 	andeq	r5, r0, r1, lsl #28
    8874:	08160400 	ldmdaeq	r6, {sl}
    8878:	09002302 	stmdbeq	r0, {r1, r8, r9, sp}
    887c:	00000d95 	muleq	r0, r5, sp
    8880:	5e01aa03 	vmlapl.f32	s20, s2, s6
    8884:	04000000 	streq	r0, [r0], #-0
    8888:	23020602 	movwcs	r0, #9730	; 0x2602
    888c:	0e580900 	cdpeq	9, 5, cr0, cr8, cr0, {0}
    8890:	ab030000 	blge	c8898 <__bss_end+0xb574c>
    8894:	00005e01 	andeq	r5, r0, r1, lsl #28
    8898:	00060400 	andeq	r0, r6, r0, lsl #8
    889c:	00002302 	andeq	r2, r0, r2, lsl #6
    88a0:	a303040d 	movwge	r0, #13325	; 0x340d
    88a4:	000dde01 	andeq	sp, sp, r1, lsl #28
    88a8:	02d30a00 	sbcseq	r0, r3, #0
    88ac:	a5030000 	strge	r0, [r3, #-0]
    88b0:	00005e01 	andeq	r5, r0, r1, lsl #28
    88b4:	092a0a00 	stmdbeq	sl!, {r9, fp}
    88b8:	ac030000 	stcge	0, cr0, [r3], {-0}
    88bc:	000d6a01 	andeq	r6, sp, r1, lsl #20
    88c0:	7f0b0000 	svcvc	0x000b0000
    88c4:	03000006 	movweq	r0, #6
    88c8:	0dbc01ad 	ldfeqs	f0, [ip, #692]!	; 0x2b4
    88cc:	040c0000 	streq	r0, [ip], #-0
    88d0:	3c01b203 	sfmcc	f3, 1, [r1], {3}
    88d4:	0900000e 	stmdbeq	r0, {r1, r2, r3}
    88d8:	00000c43 	andeq	r0, r0, r3, asr #24
    88dc:	5e01b403 	cdppl	4, 0, cr11, cr1, cr3, {0}
    88e0:	04000000 	streq	r0, [r0], #-0
    88e4:	23021e02 	movwcs	r1, #11778	; 0x2e02
    88e8:	0e530900 	cdpeq	9, 5, cr0, cr3, cr0, {0}
    88ec:	b5030000 	strlt	r0, [r3, #-0]
    88f0:	00005e01 	andeq	r5, r0, r1, lsl #28
    88f4:	08160400 	ldmdaeq	r6, {sl}
    88f8:	09002302 	stmdbeq	r0, {r1, r8, r9, sp}
    88fc:	00000716 	andeq	r0, r0, r6, lsl r7
    8900:	5e01b603 	cfmadd32pl	mvax0, mvfx11, mvfx1, mvfx3
    8904:	04000000 	streq	r0, [r0], #-0
    8908:	23020701 	movwcs	r0, #9985	; 0x2701
    890c:	0e580900 	cdpeq	9, 5, cr0, cr8, cr0, {0}
    8910:	b7030000 	strlt	r0, [r3, -r0]
    8914:	00005e01 	andeq	r5, r0, r1, lsl #28
    8918:	00070400 	andeq	r0, r7, r0, lsl #8
    891c:	00002302 	andeq	r2, r0, r2, lsl #6
    8920:	af03040d 	svcge	0x0003040d
    8924:	000e5e01 	andeq	r5, lr, r1, lsl #28
    8928:	02d30a00 	sbcseq	r0, r3, #0
    892c:	b1030000 	mrslt	r0, (UNDEF: 3)
    8930:	00005e01 	andeq	r5, r0, r1, lsl #28
    8934:	092a0a00 	stmdbeq	sl!, {r9, fp}
    8938:	b8030000 	stmdalt	r3, {}	; <UNPREDICTABLE>
    893c:	000dea01 	andeq	lr, sp, r1, lsl #20
    8940:	140b0000 	strne	r0, [fp], #-0
    8944:	0300000b 	movweq	r0, #11
    8948:	0e3c01b9 	mrceq	1, 1, r0, cr12, cr9, {5}
    894c:	040c0000 	streq	r0, [ip], #-0
    8950:	e001be03 	and	fp, r1, r3, lsl #28
    8954:	0900000e 	stmdbeq	r0, {r1, r2, r3}
    8958:	000007ce 	andeq	r0, r0, lr, asr #15
    895c:	5e01c003 	cdppl	0, 0, cr12, cr1, cr3, {0}
    8960:	04000000 	streq	r0, [r0], #-0
    8964:	23021b05 	movwcs	r1, #11013	; 0x2b05
    8968:	0e530900 	cdpeq	9, 5, cr0, cr3, cr0, {0}
    896c:	c1030000 	mrsgt	r0, (UNDEF: 3)
    8970:	00005e01 	andeq	r5, r0, r1, lsl #28
    8974:	100b0400 	andne	r0, fp, r0, lsl #8
    8978:	09002302 	stmdbeq	r0, {r1, r8, r9, sp}
    897c:	000007d8 	ldrdeq	r0, [r0], -r8
    8980:	5e01c203 	cdppl	2, 0, cr12, cr1, cr3, {0}
    8984:	04000000 	streq	r0, [r0], #-0
    8988:	23020e02 	movwcs	r0, #11778	; 0x2e02
    898c:	0e580900 	cdpeq	9, 5, cr0, cr8, cr0, {0}
    8990:	c3030000 	movwgt	r0, #12288	; 0x3000
    8994:	00005e01 	andeq	r5, r0, r1, lsl #28
    8998:	08060400 	stmdaeq	r6, {sl}
    899c:	09002302 	stmdbeq	r0, {r1, r8, r9, sp}
    89a0:	0000081c 	andeq	r0, r0, ip, lsl r8
    89a4:	5e01c403 	cdppl	4, 0, cr12, cr1, cr3, {0}
    89a8:	04000000 	streq	r0, [r0], #-0
    89ac:	23020701 	movwcs	r0, #9985	; 0x2701
    89b0:	0e5d0900 	cdpeq	9, 5, cr0, cr13, cr0, {0}
    89b4:	c5030000 	strgt	r0, [r3, #-0]
    89b8:	00005e01 	andeq	r5, r0, r1, lsl #28
    89bc:	00070400 	andeq	r0, r7, r0, lsl #8
    89c0:	00002302 	andeq	r2, r0, r2, lsl #6
    89c4:	bb03040d 	bllt	c9a00 <__bss_end+0xb68b4>
    89c8:	000f0201 	andeq	r0, pc, r1, lsl #4
    89cc:	02d30a00 	sbcseq	r0, r3, #0
    89d0:	bd030000 	stclt	0, cr0, [r3, #-0]
    89d4:	00005e01 	andeq	r5, r0, r1, lsl #28
    89d8:	092a0a00 	stmdbeq	sl!, {r9, fp}
    89dc:	c6030000 	strgt	r0, [r3], -r0
    89e0:	000e6a01 	andeq	r6, lr, r1, lsl #20
    89e4:	2f0b0000 	svccs	0x000b0000
    89e8:	03000009 	movweq	r0, #9
    89ec:	0ee001c7 	cdpeq	1, 14, cr0, cr0, cr7, {6}
    89f0:	040c0000 	streq	r0, [ip], #-0
    89f4:	6001cc03 	andvs	ip, r1, r3, lsl #24
    89f8:	0900000f 	stmdbeq	r0, {r0, r1, r2, r3}
    89fc:	000002be 			; <UNDEFINED> instruction: 0x000002be
    8a00:	5e01ce03 	cdppl	14, 0, cr12, cr1, cr3, {0}
    8a04:	04000000 	streq	r0, [r0], #-0
    8a08:	23021e02 	movwcs	r1, #11778	; 0x2e02
    8a0c:	0e530900 	cdpeq	9, 5, cr0, cr3, cr0, {0}
    8a10:	cf030000 	svcgt	0x00030000
    8a14:	00005e01 	andeq	r5, r0, r1, lsl #28
    8a18:	08160400 	ldmdaeq	r6, {sl}
    8a1c:	09002302 	stmdbeq	r0, {r1, r8, r9, sp}
    8a20:	00000bf8 	strdeq	r0, [r0], -r8
    8a24:	5e01d003 	cdppl	0, 0, cr13, cr1, cr3, {0}
    8a28:	04000000 	streq	r0, [r0], #-0
    8a2c:	23020602 	movwcs	r0, #9730	; 0x2602
    8a30:	0e580900 	cdpeq	9, 5, cr0, cr8, cr0, {0}
    8a34:	d1030000 	mrsle	r0, (UNDEF: 3)
    8a38:	00005e01 	andeq	r5, r0, r1, lsl #28
    8a3c:	00060400 	andeq	r0, r6, r0, lsl #8
    8a40:	00002302 	andeq	r2, r0, r2, lsl #6
    8a44:	c903040d 	stmdbgt	r3, {r0, r2, r3, sl}
    8a48:	000f8201 	andeq	r8, pc, r1, lsl #4
    8a4c:	02d30a00 	sbcseq	r0, r3, #0
    8a50:	cb030000 	blgt	c8a58 <__bss_end+0xb590c>
    8a54:	00005e01 	andeq	r5, r0, r1, lsl #28
    8a58:	092a0a00 	stmdbeq	sl!, {r9, fp}
    8a5c:	d2030000 	andle	r0, r3, #0
    8a60:	000f0e01 	andeq	r0, pc, r1, lsl #28
    8a64:	e80b0000 	stmda	fp, {}	; <UNPREDICTABLE>
    8a68:	0300000d 	movweq	r0, #13
    8a6c:	0f6001d3 	svceq	0x006001d3
    8a70:	040c0000 	streq	r0, [ip], #-0
    8a74:	f201d803 	vadd.i8	d13, d1, d3
    8a78:	0900000f 	stmdbeq	r0, {r0, r1, r2, r3}
    8a7c:	00000426 	andeq	r0, r0, r6, lsr #8
    8a80:	5e01da03 	vmlapl.f32	s26, s2, s6
    8a84:	04000000 	streq	r0, [r0], #-0
    8a88:	23021d03 	movwcs	r1, #11523	; 0x2d03
    8a8c:	0e530900 	cdpeq	9, 5, cr0, cr3, cr0, {0}
    8a90:	db030000 	blle	c8a98 <__bss_end+0xb594c>
    8a94:	00005e01 	andeq	r5, r0, r1, lsl #28
    8a98:	08150400 	ldmdaeq	r5, {sl}
    8a9c:	09002302 	stmdbeq	r0, {r1, r8, r9, sp}
    8aa0:	00000bff 	strdeq	r0, [r0], -pc	; <UNPREDICTABLE>
    8aa4:	5e01dc03 	cdppl	12, 0, cr13, cr1, cr3, {0}
    8aa8:	04000000 	streq	r0, [r0], #-0
    8aac:	23020602 	movwcs	r0, #9730	; 0x2602
    8ab0:	0e580900 	cdpeq	9, 5, cr0, cr8, cr0, {0}
    8ab4:	dd030000 	stcle	0, cr0, [r3, #-0]
    8ab8:	00005e01 	andeq	r5, r0, r1, lsl #28
    8abc:	01050400 	tsteq	r5, r0, lsl #8
    8ac0:	09002302 	stmdbeq	r0, {r1, r8, r9, sp}
    8ac4:	00000b6b 	andeq	r0, r0, fp, ror #22
    8ac8:	5e01de03 	cdppl	14, 0, cr13, cr1, cr3, {0}
    8acc:	04000000 	streq	r0, [r0], #-0
    8ad0:	23020001 	movwcs	r0, #8193	; 0x2001
    8ad4:	040d0000 	streq	r0, [sp], #-0
    8ad8:	1401d503 	strne	sp, [r1], #-1283	; 0x503
    8adc:	0a000010 	beq	8b24 <__resume1_start+0x8b24>
    8ae0:	000002d3 	ldrdeq	r0, [r0], -r3
    8ae4:	5e01d703 	cdppl	7, 0, cr13, cr1, cr3, {0}
    8ae8:	0a000000 	beq	8af0 <__resume1_start+0x8af0>
    8aec:	0000092a 	andeq	r0, r0, sl, lsr #18
    8af0:	8e01df03 	cdphi	15, 0, cr13, cr1, cr3, {0}
    8af4:	0000000f 	andeq	r0, r0, pc
    8af8:	0003ef0b 	andeq	lr, r3, fp, lsl #30
    8afc:	01e00300 	mvneq	r0, r0, lsl #6
    8b00:	00000ff2 	strdeq	r0, [r0], -r2
    8b04:	e503040c 	str	r0, [r3, #-1036]	; 0x40c
    8b08:	00108401 	andseq	r8, r0, r1, lsl #8
    8b0c:	04260900 	strteq	r0, [r6], #-2304	; 0x900
    8b10:	e7030000 	str	r0, [r3, -r0]
    8b14:	00005e01 	andeq	r5, r0, r1, lsl #28
    8b18:	1d030400 	cfstrsne	mvf0, [r3, #-0]
    8b1c:	09002302 	stmdbeq	r0, {r1, r8, r9, sp}
    8b20:	00000e53 	andeq	r0, r0, r3, asr lr
    8b24:	5e01e803 	cdppl	8, 0, cr14, cr1, cr3, {0}
    8b28:	04000000 	streq	r0, [r0], #-0
    8b2c:	23020815 	movwcs	r0, #10261	; 0x2815
    8b30:	0bff0900 	bleq	fffcaf38 <__bss_end+0xfffb7dec>
    8b34:	e9030000 	stmdb	r3, {}	; <UNPREDICTABLE>
    8b38:	00005e01 	andeq	r5, r0, r1, lsl #28
    8b3c:	06020400 	streq	r0, [r2], -r0, lsl #8
    8b40:	09002302 	stmdbeq	r0, {r1, r8, r9, sp}
    8b44:	00000e58 	andeq	r0, r0, r8, asr lr
    8b48:	5e01ea03 	vmlapl.f32	s28, s2, s6
    8b4c:	04000000 	streq	r0, [r0], #-0
    8b50:	23020105 	movwcs	r0, #8453	; 0x2105
    8b54:	0b6b0900 	bleq	1acaf5c <__bss_end+0x1ab7e10>
    8b58:	eb030000 	bl	c8b60 <__bss_end+0xb5a14>
    8b5c:	00005e01 	andeq	r5, r0, r1, lsl #28
    8b60:	00010400 	andeq	r0, r1, r0, lsl #8
    8b64:	00002302 	andeq	r2, r0, r2, lsl #6
    8b68:	e203040d 	and	r0, r3, #218103808	; 0xd000000
    8b6c:	0010a601 	andseq	sl, r0, r1, lsl #12
    8b70:	02d30a00 	sbcseq	r0, r3, #0
    8b74:	e4030000 	str	r0, [r3], #-0
    8b78:	00005e01 	andeq	r5, r0, r1, lsl #28
    8b7c:	092a0a00 	stmdbeq	sl!, {r9, fp}
    8b80:	ec030000 	stc	0, cr0, [r3], {-0}
    8b84:	00102001 	andseq	r2, r0, r1
    8b88:	5b0b0000 	blpl	2c8b90 <__bss_end+0x2b5a44>
    8b8c:	0300000b 	movweq	r0, #11
    8b90:	108401ed 	addne	r0, r4, sp, ror #3
    8b94:	040c0000 	streq	r0, [ip], #-0
    8b98:	e001f203 	and	pc, r1, r3, lsl #4
    8b9c:	09000010 	stmdbeq	r0, {r4}
    8ba0:	000007f8 	strdeq	r0, [r0], -r8
    8ba4:	5e01f403 	cdppl	4, 0, cr15, cr1, cr3, {0}
    8ba8:	04000000 	streq	r0, [r0], #-0
    8bac:	23021010 	movwcs	r1, #8208	; 0x2010
    8bb0:	0e530900 	cdpeq	9, 5, cr0, cr3, cr0, {0}
    8bb4:	f5030000 			; <UNDEFINED> instruction: 0xf5030000
    8bb8:	00005e01 	andeq	r5, r0, r1, lsl #28
    8bbc:	00100400 	andseq	r0, r0, r0, lsl #8
    8bc0:	00002302 	andeq	r2, r0, r2, lsl #6
    8bc4:	ef03040d 	svc	0x0003040d
    8bc8:	00110201 	andseq	r0, r1, r1, lsl #4
    8bcc:	02d30a00 	sbcseq	r0, r3, #0
    8bd0:	f1030000 			; <UNDEFINED> instruction: 0xf1030000
    8bd4:	00005e01 	andeq	r5, r0, r1, lsl #28
    8bd8:	092a0a00 	stmdbeq	sl!, {r9, fp}
    8bdc:	f6030000 			; <UNDEFINED> instruction: 0xf6030000
    8be0:	0010b201 	andseq	fp, r0, r1, lsl #4
    8be4:	db0b0000 	blle	2c8bec <__bss_end+0x2b5aa0>
    8be8:	03000003 	movweq	r0, #3
    8bec:	10e001f7 	strdne	r0, [r0], #23	; <UNPREDICTABLE>
    8bf0:	040c0000 	streq	r0, [ip], #-0
    8bf4:	3c01fc03 	stccc	12, cr15, [r1], {3}
    8bf8:	09000011 	stmdbeq	r0, {r0, r4}
    8bfc:	000007f8 	strdeq	r0, [r0], -r8
    8c00:	5e01fe03 	cdppl	14, 0, cr15, cr1, cr3, {0}
    8c04:	04000000 	streq	r0, [r0], #-0
    8c08:	23021010 	movwcs	r1, #8208	; 0x2010
    8c0c:	0e530900 	cdpeq	9, 5, cr0, cr3, cr0, {0}
    8c10:	ff030000 			; <UNDEFINED> instruction: 0xff030000
    8c14:	00005e01 	andeq	r5, r0, r1, lsl #28
    8c18:	00100400 	andseq	r0, r0, r0, lsl #8
    8c1c:	00002302 	andeq	r2, r0, r2, lsl #6
    8c20:	f903040d 			; <UNDEFINED> instruction: 0xf903040d
    8c24:	00115e01 	andseq	r5, r1, r1, lsl #28
    8c28:	02d30a00 	sbcseq	r0, r3, #0
    8c2c:	fb030000 	blx	c8c36 <__bss_end+0xb5aea>
    8c30:	00005e01 	andeq	r5, r0, r1, lsl #28
    8c34:	092a0a00 	stmdbeq	sl!, {r9, fp}
    8c38:	00030000 	andeq	r0, r3, r0
    8c3c:	00110e02 	andseq	r0, r1, r2, lsl #28
    8c40:	820b0000 	andhi	r0, fp, #0
    8c44:	03000009 	movweq	r0, #9
    8c48:	113c0201 	teqne	ip, r1, lsl #4
    8c4c:	040d0000 	streq	r0, [sp], #-0
    8c50:	80020303 	andhi	r0, r2, r3, lsl #6
    8c54:	0a000011 	beq	8ca0 <__resume1_start+0x8ca0>
    8c58:	000002d3 	ldrdeq	r0, [r0], -r3
    8c5c:	5e020503 	cfsh32pl	mvfx0, mvfx2, #3
    8c60:	00000000 	andeq	r0, r0, r0
    8c64:	000e910b 	andeq	r9, lr, fp, lsl #2
    8c68:	02060300 	andeq	r0, r6, #0
    8c6c:	0000116a 	andeq	r1, r0, sl, ror #2
    8c70:	0b03040c 	bleq	c9ca8 <__bss_end+0xb6b5c>
    8c74:	0011de02 	andseq	sp, r1, r2, lsl #28
    8c78:	0e530900 	cdpeq	9, 5, cr0, cr3, cr0, {0}
    8c7c:	0d030000 	stceq	0, cr0, [r3, #-0]
    8c80:	00005e02 	andeq	r5, r0, r2, lsl #28
    8c84:	10100400 	andsne	r0, r0, r0, lsl #8
    8c88:	09002302 	stmdbeq	r0, {r1, r8, r9, sp}
    8c8c:	000004d3 	ldrdeq	r0, [r0], -r3
    8c90:	5e020e03 	cdppl	14, 0, cr0, cr2, cr3, {0}
    8c94:	04000000 	streq	r0, [r0], #-0
    8c98:	23020b05 	movwcs	r0, #11013	; 0x2b05
    8c9c:	0e580900 	cdpeq	9, 5, cr0, cr8, cr0, {0}
    8ca0:	0f030000 	svceq	0x00030000
    8ca4:	00005e02 	andeq	r5, r0, r2, lsl #28
    8ca8:	010a0400 	tsteq	sl, r0, lsl #8
    8cac:	09002302 	stmdbeq	r0, {r1, r8, r9, sp}
    8cb0:	000005de 	ldrdeq	r0, [r0], -lr
    8cb4:	5e021003 	cdppl	0, 0, cr1, cr2, cr3, {0}
    8cb8:	04000000 	streq	r0, [r0], #-0
    8cbc:	23020001 	movwcs	r0, #8193	; 0x2001
    8cc0:	040d0000 	streq	r0, [sp], #-0
    8cc4:	00020803 	andeq	r0, r2, r3, lsl #16
    8cc8:	0a000012 	beq	8d18 <__resume1_start+0x8d18>
    8ccc:	000002d3 	ldrdeq	r0, [r0], -r3
    8cd0:	5e020a03 	vmlapl.f32	s0, s4, s6
    8cd4:	0a000000 	beq	8cdc <__resume1_start+0x8cdc>
    8cd8:	0000092a 	andeq	r0, r0, sl, lsr #18
    8cdc:	8c021103 	stfhis	f1, [r2], {3}
    8ce0:	00000011 	andeq	r0, r0, r1, lsl r0
    8ce4:	000d0a0b 	andeq	r0, sp, fp, lsl #20
    8ce8:	02120300 	andseq	r0, r2, #0
    8cec:	000011de 	ldrdeq	r1, [r0], -lr
    8cf0:	1703040c 	strne	r0, [r3, -ip, lsl #8]
    8cf4:	00125e02 	andseq	r5, r2, r2, lsl #28
    8cf8:	0e530900 	cdpeq	9, 5, cr0, cr3, cr0, {0}
    8cfc:	19030000 	stmdbne	r3, {}	; <UNPREDICTABLE>
    8d00:	00005e02 	andeq	r5, r0, r2, lsl #28
    8d04:	10100400 	andsne	r0, r0, r0, lsl #8
    8d08:	09002302 	stmdbeq	r0, {r1, r8, r9, sp}
    8d0c:	000004d3 	ldrdeq	r0, [r0], -r3
    8d10:	5e021a03 	vmlapl.f32	s2, s4, s6
    8d14:	04000000 	streq	r0, [r0], #-0
    8d18:	23020b05 	movwcs	r0, #11013	; 0x2b05
    8d1c:	0e580900 	cdpeq	9, 5, cr0, cr8, cr0, {0}
    8d20:	1b030000 	blne	c8d28 <__bss_end+0xb5bdc>
    8d24:	00005e02 	andeq	r5, r0, r2, lsl #28
    8d28:	010a0400 	tsteq	sl, r0, lsl #8
    8d2c:	09002302 	stmdbeq	r0, {r1, r8, r9, sp}
    8d30:	000005de 	ldrdeq	r0, [r0], -lr
    8d34:	5e021c03 	cdppl	12, 0, cr1, cr2, cr3, {0}
    8d38:	04000000 	streq	r0, [r0], #-0
    8d3c:	23020001 	movwcs	r0, #8193	; 0x2001
    8d40:	040d0000 	streq	r0, [sp], #-0
    8d44:	80021403 	andhi	r1, r2, r3, lsl #8
    8d48:	0a000012 	beq	8d98 <__resume1_start+0x8d98>
    8d4c:	000002d3 	ldrdeq	r0, [r0], -r3
    8d50:	5e021603 	cfmadd32pl	mvax0, mvfx1, mvfx2, mvfx3
    8d54:	0a000000 	beq	8d5c <__resume1_start+0x8d5c>
    8d58:	0000092a 	andeq	r0, r0, sl, lsr #18
    8d5c:	0c021d03 	stceq	13, cr1, [r2], {3}
    8d60:	00000012 	andeq	r0, r0, r2, lsl r0
    8d64:	0005bd0b 	andeq	fp, r5, fp, lsl #26
    8d68:	021e0300 	andseq	r0, lr, #0
    8d6c:	0000125e 	andeq	r1, r0, lr, asr r2
    8d70:	2303040c 	movwcs	r0, #13324	; 0x340c
    8d74:	0012cc02 	andseq	ip, r2, r2, lsl #24
    8d78:	0e530900 	cdpeq	9, 5, cr0, cr3, cr0, {0}
    8d7c:	25030000 	strcs	r0, [r3, #-0]
    8d80:	00005e02 	andeq	r5, r0, r2, lsl #28
    8d84:	10100400 	andsne	r0, r0, r0, lsl #8
    8d88:	09002302 	stmdbeq	r0, {r1, r8, r9, sp}
    8d8c:	00000ec8 	andeq	r0, r0, r8, asr #29
    8d90:	5e022603 	cfmadd32pl	mvax0, mvfx2, mvfx2, mvfx3
    8d94:	04000000 	streq	r0, [r0], #-0
    8d98:	23020b05 	movwcs	r0, #11013	; 0x2b05
    8d9c:	0e580900 	cdpeq	9, 5, cr0, cr8, cr0, {0}
    8da0:	27030000 	strcs	r0, [r3, -r0]
    8da4:	00005e02 	andeq	r5, r0, r2, lsl #28
    8da8:	000b0400 	andeq	r0, fp, r0, lsl #8
    8dac:	00002302 	andeq	r2, r0, r2, lsl #6
    8db0:	2003040d 	andcs	r0, r3, sp, lsl #8
    8db4:	0012ee02 	andseq	lr, r2, r2, lsl #28
    8db8:	02d30a00 	sbcseq	r0, r3, #0
    8dbc:	22030000 	andcs	r0, r3, #0
    8dc0:	00005e02 	andeq	r5, r0, r2, lsl #28
    8dc4:	092a0a00 	stmdbeq	sl!, {r9, fp}
    8dc8:	28030000 	stmdacs	r3, {}	; <UNPREDICTABLE>
    8dcc:	00128c02 	andseq	r8, r2, r2, lsl #24
    8dd0:	d60b0000 	strle	r0, [fp], -r0
    8dd4:	0300000a 	movweq	r0, #10
    8dd8:	12cc0229 	sbcne	r0, ip, #-1879048190	; 0x90000002
    8ddc:	040c0000 	streq	r0, [ip], #-0
    8de0:	3a022e03 	bcc	945f4 <__bss_end+0x814a8>
    8de4:	09000013 	stmdbeq	r0, {r0, r1, r4}
    8de8:	00000e53 	andeq	r0, r0, r3, asr lr
    8dec:	5e023003 	cdppl	0, 0, cr3, cr2, cr3, {0}
    8df0:	04000000 	streq	r0, [r0], #-0
    8df4:	23021010 	movwcs	r1, #8208	; 0x2010
    8df8:	0ec80900 	cdpeq	9, 12, cr0, cr8, cr0, {0}
    8dfc:	31030000 	mrscc	r0, (UNDEF: 3)
    8e00:	00005e02 	andeq	r5, r0, r2, lsl #28
    8e04:	0b050400 	bleq	149e0c <__bss_end+0x136cc0>
    8e08:	09002302 	stmdbeq	r0, {r1, r8, r9, sp}
    8e0c:	00000e58 	andeq	r0, r0, r8, asr lr
    8e10:	5e023203 	cdppl	2, 0, cr3, cr2, cr3, {0}
    8e14:	04000000 	streq	r0, [r0], #-0
    8e18:	2302000b 	movwcs	r0, #8203	; 0x200b
    8e1c:	040d0000 	streq	r0, [sp], #-0
    8e20:	5c022b03 	stcpl	11, cr2, [r2], {3}
    8e24:	0a000013 	beq	8e78 <__resume1_start+0x8e78>
    8e28:	000002d3 	ldrdeq	r0, [r0], -r3
    8e2c:	5e022d03 	cdppl	13, 0, cr2, cr2, cr3, {0}
    8e30:	0a000000 	beq	8e38 <__resume1_start+0x8e38>
    8e34:	0000092a 	andeq	r0, r0, sl, lsr #18
    8e38:	fa023303 	blx	95a4c <__bss_end+0x82900>
    8e3c:	00000012 	andeq	r0, r0, r2, lsl r0
    8e40:	000a870b 	andeq	r8, sl, fp, lsl #14
    8e44:	02340300 	eorseq	r0, r4, #0
    8e48:	0000133a 	andeq	r1, r0, sl, lsr r3
    8e4c:	3903040c 	stmdbcc	r3, {r2, r3, sl}
    8e50:	0013a802 	andseq	sl, r3, r2, lsl #16
    8e54:	0e530900 	cdpeq	9, 5, cr0, cr3, cr0, {0}
    8e58:	3b030000 	blcc	c8e60 <__bss_end+0xb5d14>
    8e5c:	00005e02 	andeq	r5, r0, r2, lsl #28
    8e60:	10100400 	andsne	r0, r0, r0, lsl #8
    8e64:	09002302 	stmdbeq	r0, {r1, r8, r9, sp}
    8e68:	00000ec8 	andeq	r0, r0, r8, asr #29
    8e6c:	5e023c03 	cdppl	12, 0, cr3, cr2, cr3, {0}
    8e70:	04000000 	streq	r0, [r0], #-0
    8e74:	23020b05 	movwcs	r0, #11013	; 0x2b05
    8e78:	0e580900 	cdpeq	9, 5, cr0, cr8, cr0, {0}
    8e7c:	3d030000 	stccc	0, cr0, [r3, #-0]
    8e80:	00005e02 	andeq	r5, r0, r2, lsl #28
    8e84:	000b0400 	andeq	r0, fp, r0, lsl #8
    8e88:	00002302 	andeq	r2, r0, r2, lsl #6
    8e8c:	3603040d 	strcc	r0, [r3], -sp, lsl #8
    8e90:	0013ca02 	andseq	ip, r3, r2, lsl #20
    8e94:	02d30a00 	sbcseq	r0, r3, #0
    8e98:	38030000 	stmdacc	r3, {}	; <UNPREDICTABLE>
    8e9c:	00005e02 	andeq	r5, r0, r2, lsl #28
    8ea0:	092a0a00 	stmdbeq	sl!, {r9, fp}
    8ea4:	3e030000 	cdpcc	0, 0, cr0, cr3, cr0, {0}
    8ea8:	00136802 	andseq	r6, r3, r2, lsl #16
    8eac:	3c0b0000 	stccc	0, cr0, [fp], {-0}
    8eb0:	0300000a 	movweq	r0, #10
    8eb4:	13a8023f 			; <UNDEFINED> instruction: 0x13a8023f
    8eb8:	040c0000 	streq	r0, [ip], #-0
    8ebc:	16024403 	strne	r4, [r2], -r3, lsl #8
    8ec0:	09000014 	stmdbeq	r0, {r2, r4}
    8ec4:	00000e53 	andeq	r0, r0, r3, asr lr
    8ec8:	5e024603 	cfmadd32pl	mvax0, mvfx4, mvfx2, mvfx3
    8ecc:	04000000 	streq	r0, [r0], #-0
    8ed0:	23021010 	movwcs	r1, #8208	; 0x2010
    8ed4:	044f0900 	strbeq	r0, [pc], #-2304	; 8edc <__resume1_start+0x8edc>
    8ed8:	47030000 	strmi	r0, [r3, -r0]
    8edc:	00005e02 	andeq	r5, r0, r2, lsl #28
    8ee0:	0b050400 	bleq	149ee8 <__bss_end+0x136d9c>
    8ee4:	09002302 	stmdbeq	r0, {r1, r8, r9, sp}
    8ee8:	00000e58 	andeq	r0, r0, r8, asr lr
    8eec:	5e024803 	cdppl	8, 0, cr4, cr2, cr3, {0}
    8ef0:	04000000 	streq	r0, [r0], #-0
    8ef4:	2302000b 	movwcs	r0, #8203	; 0x200b
    8ef8:	040d0000 	streq	r0, [sp], #-0
    8efc:	38024103 	stmdacc	r2, {r0, r1, r8, lr}
    8f00:	0a000014 	beq	8f58 <__resume1_start+0x8f58>
    8f04:	000002d3 	ldrdeq	r0, [r0], -r3
    8f08:	5e024303 	cdppl	3, 0, cr4, cr2, cr3, {0}
    8f0c:	0a000000 	beq	8f14 <__resume1_start+0x8f14>
    8f10:	0000092a 	andeq	r0, r0, sl, lsr #18
    8f14:	d6024903 	strle	r4, [r2], -r3, lsl #18
    8f18:	00000013 	andeq	r0, r0, r3, lsl r0
    8f1c:	0003220b 	andeq	r2, r3, fp, lsl #4
    8f20:	024a0300 	subeq	r0, sl, #0
    8f24:	00001416 	andeq	r1, r0, r6, lsl r4
    8f28:	4f03040c 	svcmi	0x0003040c
    8f2c:	00148402 	andseq	r8, r4, r2, lsl #8
    8f30:	0e530900 	cdpeq	9, 5, cr0, cr3, cr0, {0}
    8f34:	51030000 	mrspl	r0, (UNDEF: 3)
    8f38:	00005e02 	andeq	r5, r0, r2, lsl #28
    8f3c:	10100400 	andsne	r0, r0, r0, lsl #8
    8f40:	09002302 	stmdbeq	r0, {r1, r8, r9, sp}
    8f44:	00000ec8 	andeq	r0, r0, r8, asr #29
    8f48:	5e025203 	cdppl	2, 0, cr5, cr2, cr3, {0}
    8f4c:	04000000 	streq	r0, [r0], #-0
    8f50:	23020b05 	movwcs	r0, #11013	; 0x2b05
    8f54:	0e580900 	cdpeq	9, 5, cr0, cr8, cr0, {0}
    8f58:	53030000 	movwpl	r0, #12288	; 0x3000
    8f5c:	00005e02 	andeq	r5, r0, r2, lsl #28
    8f60:	000b0400 	andeq	r0, fp, r0, lsl #8
    8f64:	00002302 	andeq	r2, r0, r2, lsl #6
    8f68:	4c03040d 	cfstrsmi	mvf0, [r3], {13}
    8f6c:	0014a602 	andseq	sl, r4, r2, lsl #12
    8f70:	02d30a00 	sbcseq	r0, r3, #0
    8f74:	4e030000 	cdpmi	0, 0, cr0, cr3, cr0, {0}
    8f78:	00005e02 	andeq	r5, r0, r2, lsl #28
    8f7c:	092a0a00 	stmdbeq	sl!, {r9, fp}
    8f80:	54030000 	strpl	r0, [r3], #-0
    8f84:	00144402 	andseq	r4, r4, r2, lsl #8
    8f88:	100b0000 	andne	r0, fp, r0
    8f8c:	03000004 	movweq	r0, #4
    8f90:	14840255 	strne	r0, [r4], #597	; 0x255
    8f94:	040c0000 	streq	r0, [ip], #-0
    8f98:	f2025a03 	vpmax.s8	d5, d2, d3
    8f9c:	09000014 	stmdbeq	r0, {r2, r4}
    8fa0:	00000e53 	andeq	r0, r0, r3, asr lr
    8fa4:	5e025c03 	cdppl	12, 0, cr5, cr2, cr3, {0}
    8fa8:	04000000 	streq	r0, [r0], #-0
    8fac:	23021010 	movwcs	r1, #8208	; 0x2010
    8fb0:	0ec80900 	cdpeq	9, 12, cr0, cr8, cr0, {0}
    8fb4:	5d030000 	stcpl	0, cr0, [r3, #-0]
    8fb8:	00005e02 	andeq	r5, r0, r2, lsl #28
    8fbc:	0b050400 	bleq	149fc4 <__bss_end+0x136e78>
    8fc0:	09002302 	stmdbeq	r0, {r1, r8, r9, sp}
    8fc4:	00000e58 	andeq	r0, r0, r8, asr lr
    8fc8:	5e025e03 	cdppl	14, 0, cr5, cr2, cr3, {0}
    8fcc:	04000000 	streq	r0, [r0], #-0
    8fd0:	2302000b 	movwcs	r0, #8203	; 0x200b
    8fd4:	040d0000 	streq	r0, [sp], #-0
    8fd8:	14025703 	strne	r5, [r2], #-1795	; 0x703
    8fdc:	0a000015 	beq	9038 <__resume1_start+0x9038>
    8fe0:	000002d3 	ldrdeq	r0, [r0], -r3
    8fe4:	5e025903 	cdppl	9, 0, cr5, cr2, cr3, {0}
    8fe8:	0a000000 	beq	8ff0 <__resume1_start+0x8ff0>
    8fec:	0000092a 	andeq	r0, r0, sl, lsr #18
    8ff0:	b2025f03 	andlt	r5, r2, #12
    8ff4:	00000014 	andeq	r0, r0, r4, lsl r0
    8ff8:	0009140b 	andeq	r1, r9, fp, lsl #8
    8ffc:	02600300 	rsbeq	r0, r0, #0
    9000:	000014f2 	strdeq	r1, [r0], -r2
    9004:	6503040c 	strvs	r0, [r3, #-1036]	; 0x40c
    9008:	00156002 	andseq	r6, r5, r2
    900c:	0e530900 	cdpeq	9, 5, cr0, cr3, cr0, {0}
    9010:	67030000 	strvs	r0, [r3, -r0]
    9014:	00005e02 	andeq	r5, r0, r2, lsl #28
    9018:	10100400 	andsne	r0, r0, r0, lsl #8
    901c:	09002302 	stmdbeq	r0, {r1, r8, r9, sp}
    9020:	00000ec8 	andeq	r0, r0, r8, asr #29
    9024:	5e026803 	cdppl	8, 0, cr6, cr2, cr3, {0}
    9028:	04000000 	streq	r0, [r0], #-0
    902c:	23020b05 	movwcs	r0, #11013	; 0x2b05
    9030:	0e580900 	cdpeq	9, 5, cr0, cr8, cr0, {0}
    9034:	69030000 	stmdbvs	r3, {}	; <UNPREDICTABLE>
    9038:	00005e02 	andeq	r5, r0, r2, lsl #28
    903c:	000b0400 	andeq	r0, fp, r0, lsl #8
    9040:	00002302 	andeq	r2, r0, r2, lsl #6
    9044:	6203040d 	andvs	r0, r3, #218103808	; 0xd000000
    9048:	00158202 	andseq	r8, r5, r2, lsl #4
    904c:	02d30a00 	sbcseq	r0, r3, #0
    9050:	64030000 	strvs	r0, [r3], #-0
    9054:	00005e02 	andeq	r5, r0, r2, lsl #28
    9058:	092a0a00 	stmdbeq	sl!, {r9, fp}
    905c:	6a030000 	bvs	c9064 <__bss_end+0xb5f18>
    9060:	00152002 	andseq	r2, r5, r2
    9064:	440b0000 	strmi	r0, [fp], #-0
    9068:	0300000f 	movweq	r0, #15
    906c:	1560026b 	strbne	r0, [r0, #-619]!	; 0x26b
    9070:	040c0000 	streq	r0, [ip], #-0
    9074:	ce027003 	cdpgt	0, 0, cr7, cr2, cr3, {0}
    9078:	09000015 	stmdbeq	r0, {r0, r2, r4}
    907c:	00000e53 	andeq	r0, r0, r3, asr lr
    9080:	5e027203 	cdppl	2, 0, cr7, cr2, cr3, {0}
    9084:	04000000 	streq	r0, [r0], #-0
    9088:	23021010 	movwcs	r1, #8208	; 0x2010
    908c:	0ec80900 	cdpeq	9, 12, cr0, cr8, cr0, {0}
    9090:	73030000 	movwvc	r0, #12288	; 0x3000
    9094:	00005e02 	andeq	r5, r0, r2, lsl #28
    9098:	0b050400 	bleq	14a0a0 <__bss_end+0x136f54>
    909c:	09002302 	stmdbeq	r0, {r1, r8, r9, sp}
    90a0:	00000e58 	andeq	r0, r0, r8, asr lr
    90a4:	5e027403 	cdppl	4, 0, cr7, cr2, cr3, {0}
    90a8:	04000000 	streq	r0, [r0], #-0
    90ac:	2302000b 	movwcs	r0, #8203	; 0x200b
    90b0:	040d0000 	streq	r0, [sp], #-0
    90b4:	f0026d03 			; <UNDEFINED> instruction: 0xf0026d03
    90b8:	0a000015 	beq	9114 <__resume1_start+0x9114>
    90bc:	000002d3 	ldrdeq	r0, [r0], -r3
    90c0:	5e026f03 	cdppl	15, 0, cr6, cr2, cr3, {0}
    90c4:	0a000000 	beq	90cc <__resume1_start+0x90cc>
    90c8:	0000092a 	andeq	r0, r0, sl, lsr #18
    90cc:	8e027503 	cfsh32hi	mvfx7, mvfx2, #3
    90d0:	00000015 	andeq	r0, r0, r5, lsl r0
    90d4:	000b7f0b 	andeq	r7, fp, fp, lsl #30
    90d8:	02760300 	rsbseq	r0, r6, #0
    90dc:	000015ce 	andeq	r1, r0, lr, asr #11
    90e0:	7b03040c 	blvc	ca118 <__bss_end+0xb6fcc>
    90e4:	00163c02 	andseq	r3, r6, r2, lsl #24
    90e8:	0e530900 	cdpeq	9, 5, cr0, cr3, cr0, {0}
    90ec:	7d030000 	stcvc	0, cr0, [r3, #-0]
    90f0:	00005e02 	andeq	r5, r0, r2, lsl #28
    90f4:	10100400 	andsne	r0, r0, r0, lsl #8
    90f8:	09002302 	stmdbeq	r0, {r1, r8, r9, sp}
    90fc:	00000ec8 	andeq	r0, r0, r8, asr #29
    9100:	5e027e03 	cdppl	14, 0, cr7, cr2, cr3, {0}
    9104:	04000000 	streq	r0, [r0], #-0
    9108:	23020b05 	movwcs	r0, #11013	; 0x2b05
    910c:	0e580900 	cdpeq	9, 5, cr0, cr8, cr0, {0}
    9110:	7f030000 	svcvc	0x00030000
    9114:	00005e02 	andeq	r5, r0, r2, lsl #28
    9118:	000b0400 	andeq	r0, fp, r0, lsl #8
    911c:	00002302 	andeq	r2, r0, r2, lsl #6
    9120:	7803040d 	stmdavc	r3, {r0, r2, r3, sl}
    9124:	00165e02 	andseq	r5, r6, r2, lsl #28
    9128:	02d30a00 	sbcseq	r0, r3, #0
    912c:	7a030000 	bvc	c9134 <__bss_end+0xb5fe8>
    9130:	00005e02 	andeq	r5, r0, r2, lsl #28
    9134:	092a0a00 	stmdbeq	sl!, {r9, fp}
    9138:	80030000 	andhi	r0, r3, r0
    913c:	0015fc02 	andseq	pc, r5, r2, lsl #24
    9140:	1d0b0000 	stcne	0, cr0, [fp, #-0]
    9144:	0300000c 	movweq	r0, #12
    9148:	163c0281 	ldrtne	r0, [ip], -r1, lsl #5
    914c:	040c0000 	streq	r0, [ip], #-0
    9150:	aa028603 	bge	aa964 <__bss_end+0x97818>
    9154:	09000016 	stmdbeq	r0, {r1, r2, r4}
    9158:	00000e53 	andeq	r0, r0, r3, asr lr
    915c:	5e028803 	cdppl	8, 0, cr8, cr2, cr3, {0}
    9160:	04000000 	streq	r0, [r0], #-0
    9164:	23021010 	movwcs	r1, #8208	; 0x2010
    9168:	0ec80900 	cdpeq	9, 12, cr0, cr8, cr0, {0}
    916c:	89030000 	stmdbhi	r3, {}	; <UNPREDICTABLE>
    9170:	00005e02 	andeq	r5, r0, r2, lsl #28
    9174:	0b050400 	bleq	14a17c <__bss_end+0x137030>
    9178:	09002302 	stmdbeq	r0, {r1, r8, r9, sp}
    917c:	00000e58 	andeq	r0, r0, r8, asr lr
    9180:	5e028a03 	vmlapl.f32	s16, s4, s6
    9184:	04000000 	streq	r0, [r0], #-0
    9188:	2302000b 	movwcs	r0, #8203	; 0x200b
    918c:	040d0000 	streq	r0, [sp], #-0
    9190:	cc028303 	stcgt	3, cr8, [r2], {3}
    9194:	0a000016 	beq	91f4 <__resume1_start+0x91f4>
    9198:	000002d3 	ldrdeq	r0, [r0], -r3
    919c:	5e028503 	cfsh32pl	mvfx8, mvfx2, #3
    91a0:	0a000000 	beq	91a8 <__resume1_start+0x91a8>
    91a4:	0000092a 	andeq	r0, r0, sl, lsr #18
    91a8:	6a028b03 	bvs	abdbc <__bss_end+0x98c70>
    91ac:	00000016 	andeq	r0, r0, r6, lsl r0
    91b0:	000ea70b 	andeq	sl, lr, fp, lsl #14
    91b4:	028c0300 	addeq	r0, ip, #0
    91b8:	000016aa 	andeq	r1, r0, sl, lsr #13
    91bc:	9103040c 	tstls	r3, ip, lsl #8
    91c0:	00179602 	andseq	r9, r7, r2, lsl #12
    91c4:	0b770900 	bleq	1dcb5cc <__bss_end+0x1db8480>
    91c8:	93030000 	movwls	r0, #12288	; 0x3000
    91cc:	00005e02 	andeq	r5, r0, r2, lsl #28
    91d0:	19070400 	stmdbne	r7, {sl}
    91d4:	09002302 	stmdbeq	r0, {r1, r8, r9, sp}
    91d8:	00000e67 	andeq	r0, r0, r7, ror #28
    91dc:	5e029403 	cdppl	4, 0, cr9, cr2, cr3, {0}
    91e0:	04000000 	streq	r0, [r0], #-0
    91e4:	23021801 	movwcs	r1, #10241	; 0x2801
    91e8:	09db0900 	ldmibeq	fp, {r8, fp}^
    91ec:	95030000 	strls	r0, [r3, #-0]
    91f0:	00005e02 	andeq	r5, r0, r2, lsl #28
    91f4:	11070400 	tstne	r7, r0, lsl #8
    91f8:	09002302 	stmdbeq	r0, {r1, r8, r9, sp}
    91fc:	00000c69 	andeq	r0, r0, r9, ror #24
    9200:	5e029603 	cfmadd32pl	mvax0, mvfx9, mvfx2, mvfx3
    9204:	04000000 	streq	r0, [r0], #-0
    9208:	23021001 	movwcs	r1, #8193	; 0x2001
    920c:	0e6d0900 	cdpeq	9, 6, cr0, cr13, cr0, {0}
    9210:	97030000 	strls	r0, [r3, -r0]
    9214:	00005e02 	andeq	r5, r0, r2, lsl #28
    9218:	09070400 	stmdbeq	r7, {sl}
    921c:	09002302 	stmdbeq	r0, {r1, r8, r9, sp}
    9220:	00000e53 	andeq	r0, r0, r3, asr lr
    9224:	5e029803 	cdppl	8, 0, cr9, cr2, cr3, {0}
    9228:	04000000 	streq	r0, [r0], #-0
    922c:	23020801 	movwcs	r0, #10241	; 0x2801
    9230:	04790900 	ldrbteq	r0, [r9], #-2304	; 0x900
    9234:	99030000 	stmdbls	r3, {}	; <UNPREDICTABLE>
    9238:	00005e02 	andeq	r5, r0, r2, lsl #28
    923c:	05030400 	streq	r0, [r3, #-1024]	; 0x400
    9240:	09002302 	stmdbeq	r0, {r1, r8, r9, sp}
    9244:	00000e58 	andeq	r0, r0, r8, asr lr
    9248:	5e029a03 	vmlapl.f32	s18, s4, s6
    924c:	04000000 	streq	r0, [r0], #-0
    9250:	23020401 	movwcs	r0, #9217	; 0x2401
    9254:	0bdc0900 	bleq	ff70b65c <__bss_end+0xff6f8510>
    9258:	9b030000 	blls	c9260 <__bss_end+0xb6114>
    925c:	00005e02 	andeq	r5, r0, r2, lsl #28
    9260:	01030400 	tsteq	r3, r0, lsl #8
    9264:	09002302 	stmdbeq	r0, {r1, r8, r9, sp}
    9268:	00000e5d 	andeq	r0, r0, sp, asr lr
    926c:	5e029c03 	cdppl	12, 0, cr9, cr2, cr3, {0}
    9270:	04000000 	streq	r0, [r0], #-0
    9274:	23020001 	movwcs	r0, #8193	; 0x2001
    9278:	040d0000 	streq	r0, [sp], #-0
    927c:	b8028e03 	stmdalt	r2, {r0, r1, r9, sl, fp, pc}
    9280:	0a000017 	beq	92e4 <__resume1_start+0x92e4>
    9284:	000002d3 	ldrdeq	r0, [r0], -r3
    9288:	5e029003 	cdppl	0, 0, cr9, cr2, cr3, {0}
    928c:	0a000000 	beq	9294 <__resume1_start+0x9294>
    9290:	0000092a 	andeq	r0, r0, sl, lsr #18
    9294:	d8029d03 	stmdale	r2, {r0, r1, r8, sl, fp, ip, pc}
    9298:	00000016 	andeq	r0, r0, r6, lsl r0
    929c:	0008d20b 	andeq	sp, r8, fp, lsl #4
    92a0:	029e0300 	addseq	r0, lr, #0
    92a4:	00001796 	muleq	r0, r6, r7
    92a8:	a303040c 	movwge	r0, #13324	; 0x340c
    92ac:	00188202 	andseq	r8, r8, r2, lsl #4
    92b0:	0b770900 	bleq	1dcb6b8 <__bss_end+0x1db856c>
    92b4:	a5030000 	strge	r0, [r3, #-0]
    92b8:	00005e02 	andeq	r5, r0, r2, lsl #28
    92bc:	19070400 	stmdbne	r7, {sl}
    92c0:	09002302 	stmdbeq	r0, {r1, r8, r9, sp}
    92c4:	00000e67 	andeq	r0, r0, r7, ror #28
    92c8:	5e02a603 	cfmadd32pl	mvax0, mvfx10, mvfx2, mvfx3
    92cc:	04000000 	streq	r0, [r0], #-0
    92d0:	23021801 	movwcs	r1, #10241	; 0x2801
    92d4:	09db0900 	ldmibeq	fp, {r8, fp}^
    92d8:	a7030000 	strge	r0, [r3, -r0]
    92dc:	00005e02 	andeq	r5, r0, r2, lsl #28
    92e0:	11070400 	tstne	r7, r0, lsl #8
    92e4:	09002302 	stmdbeq	r0, {r1, r8, r9, sp}
    92e8:	00000c69 	andeq	r0, r0, r9, ror #24
    92ec:	5e02a803 	cdppl	8, 0, cr10, cr2, cr3, {0}
    92f0:	04000000 	streq	r0, [r0], #-0
    92f4:	23021001 	movwcs	r1, #8193	; 0x2001
    92f8:	0e6d0900 	cdpeq	9, 6, cr0, cr13, cr0, {0}
    92fc:	a9030000 	stmdbge	r3, {}	; <UNPREDICTABLE>
    9300:	00005e02 	andeq	r5, r0, r2, lsl #28
    9304:	09070400 	stmdbeq	r7, {sl}
    9308:	09002302 	stmdbeq	r0, {r1, r8, r9, sp}
    930c:	00000e53 	andeq	r0, r0, r3, asr lr
    9310:	5e02aa03 	vmlapl.f32	s20, s4, s6
    9314:	04000000 	streq	r0, [r0], #-0
    9318:	23020801 	movwcs	r0, #10241	; 0x2801
    931c:	04790900 	ldrbteq	r0, [r9], #-2304	; 0x900
    9320:	ab030000 	blge	c9328 <__bss_end+0xb61dc>
    9324:	00005e02 	andeq	r5, r0, r2, lsl #28
    9328:	05030400 	streq	r0, [r3, #-1024]	; 0x400
    932c:	09002302 	stmdbeq	r0, {r1, r8, r9, sp}
    9330:	00000e58 	andeq	r0, r0, r8, asr lr
    9334:	5e02ac03 	cdppl	12, 0, cr10, cr2, cr3, {0}
    9338:	04000000 	streq	r0, [r0], #-0
    933c:	23020401 	movwcs	r0, #9217	; 0x2401
    9340:	0bdc0900 	bleq	ff70b748 <__bss_end+0xff6f85fc>
    9344:	ad030000 	stcge	0, cr0, [r3, #-0]
    9348:	00005e02 	andeq	r5, r0, r2, lsl #28
    934c:	01030400 	tsteq	r3, r0, lsl #8
    9350:	09002302 	stmdbeq	r0, {r1, r8, r9, sp}
    9354:	00000e5d 	andeq	r0, r0, sp, asr lr
    9358:	5e02ae03 	cdppl	14, 0, cr10, cr2, cr3, {0}
    935c:	04000000 	streq	r0, [r0], #-0
    9360:	23020001 	movwcs	r0, #8193	; 0x2001
    9364:	040d0000 	streq	r0, [sp], #-0
    9368:	a402a003 	strge	sl, [r2], #-3
    936c:	0a000018 	beq	93d4 <__resume1_start+0x93d4>
    9370:	000002d3 	ldrdeq	r0, [r0], -r3
    9374:	5e02a203 	cdppl	2, 0, cr10, cr2, cr3, {0}
    9378:	0a000000 	beq	9380 <__resume1_start+0x9380>
    937c:	0000092a 	andeq	r0, r0, sl, lsr #18
    9380:	c402af03 	strgt	sl, [r2], #-3843	; 0xf03
    9384:	00000017 	andeq	r0, r0, r7, lsl r0
    9388:	0006a20b 	andeq	sl, r6, fp, lsl #4
    938c:	02b00300 	adcseq	r0, r0, #0
    9390:	00001882 	andeq	r1, r0, r2, lsl #17
    9394:	b503040c 	strlt	r0, [r3, #-1036]	; 0x40c
    9398:	00192602 	andseq	r2, r9, r2, lsl #12
    939c:	02f30900 	rscseq	r0, r3, #0
    93a0:	b7030000 	strlt	r0, [r3, -r0]
    93a4:	00005e02 	andeq	r5, r0, r2, lsl #28
    93a8:	0f110400 	svceq	0x00110400
    93ac:	09002302 	stmdbeq	r0, {r1, r8, r9, sp}
    93b0:	00001741 	andeq	r1, r0, r1, asr #14
    93b4:	5e02b803 	cdppl	8, 0, cr11, cr2, cr3, {0}
    93b8:	04000000 	streq	r0, [r0], #-0
    93bc:	23020d02 	movwcs	r0, #11522	; 0x2d02
    93c0:	0bff0900 	bleq	fffcb7c8 <__bss_end+0xfffb867c>
    93c4:	b9030000 	stmdblt	r3, {}	; <UNPREDICTABLE>
    93c8:	00005e02 	andeq	r5, r0, r2, lsl #28
    93cc:	0c010400 	cfstrseq	mvf0, [r1], {-0}
    93d0:	09002302 	stmdbeq	r0, {r1, r8, r9, sp}
    93d4:	0000070c 	andeq	r0, r0, ip, lsl #14
    93d8:	5e02ba03 	vmlapl.f32	s22, s4, s6
    93dc:	04000000 	streq	r0, [r0], #-0
    93e0:	23020309 	movwcs	r0, #8969	; 0x2309
    93e4:	03140900 	tsteq	r4, #0
    93e8:	bb030000 	bllt	c93f0 <__bss_end+0xb62a4>
    93ec:	00005e02 	andeq	r5, r0, r2, lsl #28
    93f0:	01020400 	tsteq	r2, r0, lsl #8
    93f4:	09002302 	stmdbeq	r0, {r1, r8, r9, sp}
    93f8:	000004c3 	andeq	r0, r0, r3, asr #9
    93fc:	5e02bc03 	cdppl	12, 0, cr11, cr2, cr3, {0}
    9400:	04000000 	streq	r0, [r0], #-0
    9404:	23020001 	movwcs	r0, #8193	; 0x2001
    9408:	040d0000 	streq	r0, [sp], #-0
    940c:	4802b203 	stmdami	r2, {r0, r1, r9, ip, sp, pc}
    9410:	0a000019 	beq	947c <__resume1_start+0x947c>
    9414:	000002d3 	ldrdeq	r0, [r0], -r3
    9418:	5e02b403 	cdppl	4, 0, cr11, cr2, cr3, {0}
    941c:	0a000000 	beq	9424 <__resume1_start+0x9424>
    9420:	0000092a 	andeq	r0, r0, sl, lsr #18
    9424:	b002bd03 	andlt	fp, r2, r3, lsl #26
    9428:	00000018 	andeq	r0, r0, r8, lsl r0
    942c:	0002fc0b 	andeq	pc, r2, fp, lsl #24
    9430:	02be0300 	adcseq	r0, lr, #0
    9434:	00001926 	andeq	r1, r0, r6, lsr #18
    9438:	c303040c 	movwgt	r0, #13324	; 0x340c
    943c:	0019ca02 	andseq	ip, r9, r2, lsl #20
    9440:	02f30900 	rscseq	r0, r3, #0
    9444:	c5030000 	strgt	r0, [r3, #-0]
    9448:	00005e02 	andeq	r5, r0, r2, lsl #28
    944c:	0f110400 	svceq	0x00110400
    9450:	09002302 	stmdbeq	r0, {r1, r8, r9, sp}
    9454:	00001741 	andeq	r1, r0, r1, asr #14
    9458:	5e02c603 	cfmadd32pl	mvax0, mvfx12, mvfx2, mvfx3
    945c:	04000000 	streq	r0, [r0], #-0
    9460:	23020d02 	movwcs	r0, #11522	; 0x2d02
    9464:	0bff0900 	bleq	fffcb86c <__bss_end+0xfffb8720>
    9468:	c7030000 	strgt	r0, [r3, -r0]
    946c:	00005e02 	andeq	r5, r0, r2, lsl #28
    9470:	0c010400 	cfstrseq	mvf0, [r1], {-0}
    9474:	09002302 	stmdbeq	r0, {r1, r8, r9, sp}
    9478:	0000070c 	andeq	r0, r0, ip, lsl #14
    947c:	5e02c803 	cdppl	8, 0, cr12, cr2, cr3, {0}
    9480:	04000000 	streq	r0, [r0], #-0
    9484:	23020309 	movwcs	r0, #8969	; 0x2309
    9488:	03140900 	tsteq	r4, #0
    948c:	c9030000 	stmdbgt	r3, {}	; <UNPREDICTABLE>
    9490:	00005e02 	andeq	r5, r0, r2, lsl #28
    9494:	01020400 	tsteq	r2, r0, lsl #8
    9498:	09002302 	stmdbeq	r0, {r1, r8, r9, sp}
    949c:	000004c3 	andeq	r0, r0, r3, asr #9
    94a0:	5e02ca03 	vmlapl.f32	s24, s4, s6
    94a4:	04000000 	streq	r0, [r0], #-0
    94a8:	23020001 	movwcs	r0, #8193	; 0x2001
    94ac:	040d0000 	streq	r0, [sp], #-0
    94b0:	ec02c003 	stc	0, cr12, [r2], {3}
    94b4:	0a000019 	beq	9520 <__resume1_start+0x9520>
    94b8:	000002d3 	ldrdeq	r0, [r0], -r3
    94bc:	5e02c203 	cdppl	2, 0, cr12, cr2, cr3, {0}
    94c0:	0a000000 	beq	94c8 <__resume1_start+0x94c8>
    94c4:	0000092a 	andeq	r0, r0, sl, lsr #18
    94c8:	5402cb03 	strpl	ip, [r2], #-2819	; 0xb03
    94cc:	00000019 	andeq	r0, r0, r9, lsl r0
    94d0:	000abc0b 	andeq	fp, sl, fp, lsl #24
    94d4:	02cc0300 	sbceq	r0, ip, #0
    94d8:	000019ca 	andeq	r1, r0, sl, asr #19
    94dc:	d103040c 	tstle	r3, ip, lsl #8
    94e0:	001a6e02 	andseq	r6, sl, r2, lsl #28
    94e4:	02f30900 	rscseq	r0, r3, #0
    94e8:	d3030000 	movwle	r0, #12288	; 0x3000
    94ec:	00005e02 	andeq	r5, r0, r2, lsl #28
    94f0:	0f110400 	svceq	0x00110400
    94f4:	09002302 	stmdbeq	r0, {r1, r8, r9, sp}
    94f8:	00001741 	andeq	r1, r0, r1, asr #14
    94fc:	5e02d403 	cdppl	4, 0, cr13, cr2, cr3, {0}
    9500:	04000000 	streq	r0, [r0], #-0
    9504:	23020d02 	movwcs	r0, #11522	; 0x2d02
    9508:	0bff0900 	bleq	fffcb910 <__bss_end+0xfffb87c4>
    950c:	d5030000 	strle	r0, [r3, #-0]
    9510:	00005e02 	andeq	r5, r0, r2, lsl #28
    9514:	0c010400 	cfstrseq	mvf0, [r1], {-0}
    9518:	09002302 	stmdbeq	r0, {r1, r8, r9, sp}
    951c:	0000070c 	andeq	r0, r0, ip, lsl #14
    9520:	5e02d603 	cfmadd32pl	mvax0, mvfx13, mvfx2, mvfx3
    9524:	04000000 	streq	r0, [r0], #-0
    9528:	23020309 	movwcs	r0, #8969	; 0x2309
    952c:	03140900 	tsteq	r4, #0
    9530:	d7030000 	strle	r0, [r3, -r0]
    9534:	00005e02 	andeq	r5, r0, r2, lsl #28
    9538:	01020400 	tsteq	r2, r0, lsl #8
    953c:	09002302 	stmdbeq	r0, {r1, r8, r9, sp}
    9540:	000004c3 	andeq	r0, r0, r3, asr #9
    9544:	5e02d803 	cdppl	8, 0, cr13, cr2, cr3, {0}
    9548:	04000000 	streq	r0, [r0], #-0
    954c:	23020001 	movwcs	r0, #8193	; 0x2001
    9550:	040d0000 	streq	r0, [sp], #-0
    9554:	9002ce03 	andls	ip, r2, r3, lsl #28
    9558:	0a00001a 	beq	95c8 <__resume1_start+0x95c8>
    955c:	000002d3 	ldrdeq	r0, [r0], -r3
    9560:	5e02d003 	cdppl	0, 0, cr13, cr2, cr3, {0}
    9564:	0a000000 	beq	956c <__resume1_start+0x956c>
    9568:	0000092a 	andeq	r0, r0, sl, lsr #18
    956c:	f802d903 			; <UNDEFINED> instruction: 0xf802d903
    9570:	00000019 	andeq	r0, r0, r9, lsl r0
    9574:	000e170b 	andeq	r1, lr, fp, lsl #14
    9578:	02da0300 	sbcseq	r0, sl, #0
    957c:	00001a6e 	andeq	r1, r0, lr, ror #20
    9580:	df03040c 	svcle	0x0003040c
    9584:	001b1202 	andseq	r1, fp, r2, lsl #4
    9588:	02f30900 	rscseq	r0, r3, #0
    958c:	e1030000 	mrs	r0, (UNDEF: 3)
    9590:	00005e02 	andeq	r5, r0, r2, lsl #28
    9594:	0f110400 	svceq	0x00110400
    9598:	09002302 	stmdbeq	r0, {r1, r8, r9, sp}
    959c:	00001741 	andeq	r1, r0, r1, asr #14
    95a0:	5e02e203 	cdppl	2, 0, cr14, cr2, cr3, {0}
    95a4:	04000000 	streq	r0, [r0], #-0
    95a8:	23020d02 	movwcs	r0, #11522	; 0x2d02
    95ac:	0bff0900 	bleq	fffcb9b4 <__bss_end+0xfffb8868>
    95b0:	e3030000 	movw	r0, #12288	; 0x3000
    95b4:	00005e02 	andeq	r5, r0, r2, lsl #28
    95b8:	0c010400 	cfstrseq	mvf0, [r1], {-0}
    95bc:	09002302 	stmdbeq	r0, {r1, r8, r9, sp}
    95c0:	0000070c 	andeq	r0, r0, ip, lsl #14
    95c4:	5e02e403 	cdppl	4, 0, cr14, cr2, cr3, {0}
    95c8:	04000000 	streq	r0, [r0], #-0
    95cc:	23020309 	movwcs	r0, #8969	; 0x2309
    95d0:	03140900 	tsteq	r4, #0
    95d4:	e5030000 	str	r0, [r3, #-0]
    95d8:	00005e02 	andeq	r5, r0, r2, lsl #28
    95dc:	01020400 	tsteq	r2, r0, lsl #8
    95e0:	09002302 	stmdbeq	r0, {r1, r8, r9, sp}
    95e4:	000004c3 	andeq	r0, r0, r3, asr #9
    95e8:	5e02e603 	cfmadd32pl	mvax0, mvfx14, mvfx2, mvfx3
    95ec:	04000000 	streq	r0, [r0], #-0
    95f0:	23020001 	movwcs	r0, #8193	; 0x2001
    95f4:	040d0000 	streq	r0, [sp], #-0
    95f8:	3402dc03 	strcc	sp, [r2], #-3075	; 0xc03
    95fc:	0a00001b 	beq	9670 <__resume1_start+0x9670>
    9600:	000002d3 	ldrdeq	r0, [r0], -r3
    9604:	5e02de03 	cdppl	14, 0, cr13, cr2, cr3, {0}
    9608:	0a000000 	beq	9610 <__resume1_start+0x9610>
    960c:	0000092a 	andeq	r0, r0, sl, lsr #18
    9610:	9c02e703 	stcls	7, cr14, [r2], {3}
    9614:	0000001a 	andeq	r0, r0, sl, lsl r0
    9618:	0009600b 	andeq	r6, r9, fp
    961c:	02e80300 	rsceq	r0, r8, #0
    9620:	00001b12 	andeq	r1, r0, r2, lsl fp
    9624:	ed03040c 	cfstrs	mvf0, [r3, #-48]	; 0xffffffd0
    9628:	001bb602 	andseq	fp, fp, r2, lsl #12
    962c:	02f30900 	rscseq	r0, r3, #0
    9630:	ef030000 	svc	0x00030000
    9634:	00005e02 	andeq	r5, r0, r2, lsl #28
    9638:	0f110400 	svceq	0x00110400
    963c:	09002302 	stmdbeq	r0, {r1, r8, r9, sp}
    9640:	00001741 	andeq	r1, r0, r1, asr #14
    9644:	5e02f003 	cdppl	0, 0, cr15, cr2, cr3, {0}
    9648:	04000000 	streq	r0, [r0], #-0
    964c:	23020d02 	movwcs	r0, #11522	; 0x2d02
    9650:	0bff0900 	bleq	fffcba58 <__bss_end+0xfffb890c>
    9654:	f1030000 			; <UNDEFINED> instruction: 0xf1030000
    9658:	00005e02 	andeq	r5, r0, r2, lsl #28
    965c:	0c010400 	cfstrseq	mvf0, [r1], {-0}
    9660:	09002302 	stmdbeq	r0, {r1, r8, r9, sp}
    9664:	0000070c 	andeq	r0, r0, ip, lsl #14
    9668:	5e02f203 	cdppl	2, 0, cr15, cr2, cr3, {0}
    966c:	04000000 	streq	r0, [r0], #-0
    9670:	23020309 	movwcs	r0, #8969	; 0x2309
    9674:	03140900 	tsteq	r4, #0
    9678:	f3030000 	vhadd.u8	d0, d3, d0
    967c:	00005e02 	andeq	r5, r0, r2, lsl #28
    9680:	01020400 	tsteq	r2, r0, lsl #8
    9684:	09002302 	stmdbeq	r0, {r1, r8, r9, sp}
    9688:	000004c3 	andeq	r0, r0, r3, asr #9
    968c:	5e02f403 	cdppl	4, 0, cr15, cr2, cr3, {0}
    9690:	04000000 	streq	r0, [r0], #-0
    9694:	23020001 	movwcs	r0, #8193	; 0x2001
    9698:	040d0000 	streq	r0, [sp], #-0
    969c:	d802ea03 	stmdale	r2, {r0, r1, r9, fp, sp, lr, pc}
    96a0:	0a00001b 	beq	9714 <__resume1_start+0x9714>
    96a4:	000002d3 	ldrdeq	r0, [r0], -r3
    96a8:	5e02ec03 	cdppl	12, 0, cr14, cr2, cr3, {0}
    96ac:	0a000000 	beq	96b4 <__resume1_start+0x96b4>
    96b0:	0000092a 	andeq	r0, r0, sl, lsr #18
    96b4:	4002f503 	andmi	pc, r2, r3, lsl #10
    96b8:	0000001b 	andeq	r0, r0, fp, lsl r0
    96bc:	00060b0b 	andeq	r0, r6, fp, lsl #22
    96c0:	02f60300 	rscseq	r0, r6, #0
    96c4:	00001bb6 			; <UNDEFINED> instruction: 0x00001bb6
    96c8:	fb03040c 	blx	ca702 <__bss_end+0xb75b6>
    96cc:	001c5a02 	andseq	r5, ip, r2, lsl #20
    96d0:	02f30900 	rscseq	r0, r3, #0
    96d4:	fd030000 	stc2	0, cr0, [r3, #-0]
    96d8:	00005e02 	andeq	r5, r0, r2, lsl #28
    96dc:	0f110400 	svceq	0x00110400
    96e0:	09002302 	stmdbeq	r0, {r1, r8, r9, sp}
    96e4:	00001741 	andeq	r1, r0, r1, asr #14
    96e8:	5e02fe03 	cdppl	14, 0, cr15, cr2, cr3, {0}
    96ec:	04000000 	streq	r0, [r0], #-0
    96f0:	23020d02 	movwcs	r0, #11522	; 0x2d02
    96f4:	0bff0900 	bleq	fffcbafc <__bss_end+0xfffb89b0>
    96f8:	ff030000 			; <UNDEFINED> instruction: 0xff030000
    96fc:	00005e02 	andeq	r5, r0, r2, lsl #28
    9700:	0c010400 	cfstrseq	mvf0, [r1], {-0}
    9704:	09002302 	stmdbeq	r0, {r1, r8, r9, sp}
    9708:	0000070c 	andeq	r0, r0, ip, lsl #14
    970c:	5e030003 	cdppl	0, 0, cr0, cr3, cr3, {0}
    9710:	04000000 	streq	r0, [r0], #-0
    9714:	23020309 	movwcs	r0, #8969	; 0x2309
    9718:	03140900 	tsteq	r4, #0
    971c:	01030000 	mrseq	r0, (UNDEF: 3)
    9720:	00005e03 	andeq	r5, r0, r3, lsl #28
    9724:	01020400 	tsteq	r2, r0, lsl #8
    9728:	09002302 	stmdbeq	r0, {r1, r8, r9, sp}
    972c:	000004c3 	andeq	r0, r0, r3, asr #9
    9730:	5e030203 	cdppl	2, 0, cr0, cr3, cr3, {0}
    9734:	04000000 	streq	r0, [r0], #-0
    9738:	23020001 	movwcs	r0, #8193	; 0x2001
    973c:	040d0000 	streq	r0, [sp], #-0
    9740:	7c02f803 	stcvc	8, cr15, [r2], {3}
    9744:	0a00001c 	beq	97bc <__resume1_start+0x97bc>
    9748:	000002d3 	ldrdeq	r0, [r0], -r3
    974c:	5e02fa03 	vmlapl.f32	s30, s4, s6
    9750:	0a000000 	beq	9758 <__resume1_start+0x9758>
    9754:	0000092a 	andeq	r0, r0, sl, lsr #18
    9758:	e4030303 	str	r0, [r3], #-771	; 0x303
    975c:	0000001b 	andeq	r0, r0, fp, lsl r0
    9760:	0005f20b 	andeq	pc, r5, fp, lsl #4
    9764:	03040300 	movweq	r0, #17152	; 0x4300
    9768:	00001c5a 	andeq	r1, r0, sl, asr ip
    976c:	0903040c 	stmdbeq	r3, {r2, r3, sl}
    9770:	001cfe03 	andseq	pc, ip, r3, lsl #28
    9774:	02f30900 	rscseq	r0, r3, #0
    9778:	0b030000 	bleq	c9780 <__bss_end+0xb6634>
    977c:	00005e03 	andeq	r5, r0, r3, lsl #28
    9780:	0f110400 	svceq	0x00110400
    9784:	09002302 	stmdbeq	r0, {r1, r8, r9, sp}
    9788:	00001741 	andeq	r1, r0, r1, asr #14
    978c:	5e030c03 	cdppl	12, 0, cr0, cr3, cr3, {0}
    9790:	04000000 	streq	r0, [r0], #-0
    9794:	23020d02 	movwcs	r0, #11522	; 0x2d02
    9798:	0bff0900 	bleq	fffcbba0 <__bss_end+0xfffb8a54>
    979c:	0d030000 	stceq	0, cr0, [r3, #-0]
    97a0:	00005e03 	andeq	r5, r0, r3, lsl #28
    97a4:	0c010400 	cfstrseq	mvf0, [r1], {-0}
    97a8:	09002302 	stmdbeq	r0, {r1, r8, r9, sp}
    97ac:	0000070c 	andeq	r0, r0, ip, lsl #14
    97b0:	5e030e03 	cdppl	14, 0, cr0, cr3, cr3, {0}
    97b4:	04000000 	streq	r0, [r0], #-0
    97b8:	23020309 	movwcs	r0, #8969	; 0x2309
    97bc:	03140900 	tsteq	r4, #0
    97c0:	0f030000 	svceq	0x00030000
    97c4:	00005e03 	andeq	r5, r0, r3, lsl #28
    97c8:	01020400 	tsteq	r2, r0, lsl #8
    97cc:	09002302 	stmdbeq	r0, {r1, r8, r9, sp}
    97d0:	000004c3 	andeq	r0, r0, r3, asr #9
    97d4:	5e031003 	cdppl	0, 0, cr1, cr3, cr3, {0}
    97d8:	04000000 	streq	r0, [r0], #-0
    97dc:	23020001 	movwcs	r0, #8193	; 0x2001
    97e0:	040d0000 	streq	r0, [sp], #-0
    97e4:	20030603 	andcs	r0, r3, r3, lsl #12
    97e8:	0a00001d 	beq	9864 <__resume1_start+0x9864>
    97ec:	000002d3 	ldrdeq	r0, [r0], -r3
    97f0:	5e030803 	cdppl	8, 0, cr0, cr3, cr3, {0}
    97f4:	0a000000 	beq	97fc <__resume1_start+0x97fc>
    97f8:	0000092a 	andeq	r0, r0, sl, lsr #18
    97fc:	88031103 	stmdahi	r3, {r0, r1, r8, ip}
    9800:	0000001c 	andeq	r0, r0, ip, lsl r0
    9804:	000ed60b 	andeq	sp, lr, fp, lsl #12
    9808:	03120300 	tsteq	r2, #0
    980c:	00001cfe 	strdeq	r1, [r0], -lr
    9810:	1703040c 	strne	r0, [r3, -ip, lsl #8]
    9814:	001da203 	andseq	sl, sp, r3, lsl #4
    9818:	02f30900 	rscseq	r0, r3, #0
    981c:	19030000 	stmdbne	r3, {}	; <UNPREDICTABLE>
    9820:	00005e03 	andeq	r5, r0, r3, lsl #28
    9824:	0f110400 	svceq	0x00110400
    9828:	09002302 	stmdbeq	r0, {r1, r8, r9, sp}
    982c:	00001741 	andeq	r1, r0, r1, asr #14
    9830:	5e031a03 	vmlapl.f32	s2, s6, s6
    9834:	04000000 	streq	r0, [r0], #-0
    9838:	23020d02 	movwcs	r0, #11522	; 0x2d02
    983c:	0bff0900 	bleq	fffcbc44 <__bss_end+0xfffb8af8>
    9840:	1b030000 	blne	c9848 <__bss_end+0xb66fc>
    9844:	00005e03 	andeq	r5, r0, r3, lsl #28
    9848:	0c010400 	cfstrseq	mvf0, [r1], {-0}
    984c:	09002302 	stmdbeq	r0, {r1, r8, r9, sp}
    9850:	0000070c 	andeq	r0, r0, ip, lsl #14
    9854:	5e031c03 	cdppl	12, 0, cr1, cr3, cr3, {0}
    9858:	04000000 	streq	r0, [r0], #-0
    985c:	23020309 	movwcs	r0, #8969	; 0x2309
    9860:	03140900 	tsteq	r4, #0
    9864:	1d030000 	stcne	0, cr0, [r3, #-0]
    9868:	00005e03 	andeq	r5, r0, r3, lsl #28
    986c:	01020400 	tsteq	r2, r0, lsl #8
    9870:	09002302 	stmdbeq	r0, {r1, r8, r9, sp}
    9874:	000004c3 	andeq	r0, r0, r3, asr #9
    9878:	5e031e03 	cdppl	14, 0, cr1, cr3, cr3, {0}
    987c:	04000000 	streq	r0, [r0], #-0
    9880:	23020001 	movwcs	r0, #8193	; 0x2001
    9884:	040d0000 	streq	r0, [sp], #-0
    9888:	c4031403 	strgt	r1, [r3], #-1027	; 0x403
    988c:	0a00001d 	beq	9908 <__resume1_start+0x9908>
    9890:	000002d3 	ldrdeq	r0, [r0], -r3
    9894:	5e031603 	cfmadd32pl	mvax0, mvfx1, mvfx3, mvfx3
    9898:	0a000000 	beq	98a0 <__resume1_start+0x98a0>
    989c:	0000092a 	andeq	r0, r0, sl, lsr #18
    98a0:	2c031f03 	stccs	15, cr1, [r3], {3}
    98a4:	0000001d 	andeq	r0, r0, sp, lsl r0
    98a8:	0008ff0b 	andeq	pc, r8, fp, lsl #30
    98ac:	03200300 	teqeq	r0, #0
    98b0:	00001da2 	andeq	r1, r0, r2, lsr #27
    98b4:	2503040c 	strcs	r0, [r3, #-1036]	; 0x40c
    98b8:	001e4603 	andseq	r4, lr, r3, lsl #12
    98bc:	02f30900 	rscseq	r0, r3, #0
    98c0:	27030000 	strcs	r0, [r3, -r0]
    98c4:	00005e03 	andeq	r5, r0, r3, lsl #28
    98c8:	0f110400 	svceq	0x00110400
    98cc:	09002302 	stmdbeq	r0, {r1, r8, r9, sp}
    98d0:	00001741 	andeq	r1, r0, r1, asr #14
    98d4:	5e032803 	cdppl	8, 0, cr2, cr3, cr3, {0}
    98d8:	04000000 	streq	r0, [r0], #-0
    98dc:	23020d02 	movwcs	r0, #11522	; 0x2d02
    98e0:	0bff0900 	bleq	fffcbce8 <__bss_end+0xfffb8b9c>
    98e4:	29030000 	stmdbcs	r3, {}	; <UNPREDICTABLE>
    98e8:	00005e03 	andeq	r5, r0, r3, lsl #28
    98ec:	0c010400 	cfstrseq	mvf0, [r1], {-0}
    98f0:	09002302 	stmdbeq	r0, {r1, r8, r9, sp}
    98f4:	0000070c 	andeq	r0, r0, ip, lsl #14
    98f8:	5e032a03 	vmlapl.f32	s4, s6, s6
    98fc:	04000000 	streq	r0, [r0], #-0
    9900:	23020309 	movwcs	r0, #8969	; 0x2309
    9904:	03140900 	tsteq	r4, #0
    9908:	2b030000 	blcs	c9910 <__bss_end+0xb67c4>
    990c:	00005e03 	andeq	r5, r0, r3, lsl #28
    9910:	01020400 	tsteq	r2, r0, lsl #8
    9914:	09002302 	stmdbeq	r0, {r1, r8, r9, sp}
    9918:	000004c3 	andeq	r0, r0, r3, asr #9
    991c:	5e032c03 	cdppl	12, 0, cr2, cr3, cr3, {0}
    9920:	04000000 	streq	r0, [r0], #-0
    9924:	23020001 	movwcs	r0, #8193	; 0x2001
    9928:	040d0000 	streq	r0, [sp], #-0
    992c:	68032203 	stmdavs	r3, {r0, r1, r9, sp}
    9930:	0a00001e 	beq	99b0 <__resume1_start+0x99b0>
    9934:	000002d3 	ldrdeq	r0, [r0], -r3
    9938:	5e032403 	cdppl	4, 0, cr2, cr3, cr3, {0}
    993c:	0a000000 	beq	9944 <__resume1_start+0x9944>
    9940:	0000092a 	andeq	r0, r0, sl, lsr #18
    9944:	d0032d03 	andle	r2, r3, r3, lsl #26
    9948:	0000001d 	andeq	r0, r0, sp, lsl r0
    994c:	0008060b 	andeq	r0, r8, fp, lsl #12
    9950:	032e0300 	teqeq	lr, #0
    9954:	00001e46 	andeq	r1, r0, r6, asr #28
    9958:	3303040c 	movwcc	r0, #13324	; 0x340c
    995c:	001eea03 	andseq	lr, lr, r3, lsl #20
    9960:	02f30900 	rscseq	r0, r3, #0
    9964:	35030000 	strcc	r0, [r3, #-0]
    9968:	00005e03 	andeq	r5, r0, r3, lsl #28
    996c:	0f110400 	svceq	0x00110400
    9970:	09002302 	stmdbeq	r0, {r1, r8, r9, sp}
    9974:	00001741 	andeq	r1, r0, r1, asr #14
    9978:	5e033603 	cfmadd32pl	mvax0, mvfx3, mvfx3, mvfx3
    997c:	04000000 	streq	r0, [r0], #-0
    9980:	23020d02 	movwcs	r0, #11522	; 0x2d02
    9984:	0bff0900 	bleq	fffcbd8c <__bss_end+0xfffb8c40>
    9988:	37030000 	strcc	r0, [r3, -r0]
    998c:	00005e03 	andeq	r5, r0, r3, lsl #28
    9990:	0c010400 	cfstrseq	mvf0, [r1], {-0}
    9994:	09002302 	stmdbeq	r0, {r1, r8, r9, sp}
    9998:	0000070c 	andeq	r0, r0, ip, lsl #14
    999c:	5e033803 	cdppl	8, 0, cr3, cr3, cr3, {0}
    99a0:	04000000 	streq	r0, [r0], #-0
    99a4:	23020309 	movwcs	r0, #8969	; 0x2309
    99a8:	03140900 	tsteq	r4, #0
    99ac:	39030000 	stmdbcc	r3, {}	; <UNPREDICTABLE>
    99b0:	00005e03 	andeq	r5, r0, r3, lsl #28
    99b4:	01020400 	tsteq	r2, r0, lsl #8
    99b8:	09002302 	stmdbeq	r0, {r1, r8, r9, sp}
    99bc:	000004c3 	andeq	r0, r0, r3, asr #9
    99c0:	5e033a03 	vmlapl.f32	s6, s6, s6
    99c4:	04000000 	streq	r0, [r0], #-0
    99c8:	23020001 	movwcs	r0, #8193	; 0x2001
    99cc:	040d0000 	streq	r0, [sp], #-0
    99d0:	0c033003 	stceq	0, cr3, [r3], {3}
    99d4:	0a00001f 	beq	9a58 <__resume1_start+0x9a58>
    99d8:	000002d3 	ldrdeq	r0, [r0], -r3
    99dc:	5e033203 	cdppl	2, 0, cr3, cr3, cr3, {0}
    99e0:	0a000000 	beq	99e8 <__resume1_start+0x99e8>
    99e4:	0000092a 	andeq	r0, r0, sl, lsr #18
    99e8:	74033b03 	strvc	r3, [r3], #-2819	; 0xb03
    99ec:	0000001e 	andeq	r0, r0, lr, lsl r0
    99f0:	00093e0b 	andeq	r3, r9, fp, lsl #28
    99f4:	033c0300 	teqeq	ip, #0
    99f8:	00001eea 	andeq	r1, r0, sl, ror #29
    99fc:	4103040c 	tstmi	r3, ip, lsl #8
    9a00:	001fb203 	andseq	fp, pc, r3, lsl #4
    9a04:	0e530900 	cdpeq	9, 5, cr0, cr3, cr0, {0}
    9a08:	43030000 	movwmi	r0, #12288	; 0x3000
    9a0c:	00005e03 	andeq	r5, r0, r3, lsl #28
    9a10:	18080400 	stmdane	r8, {sl}
    9a14:	09002302 	stmdbeq	r0, {r1, r8, r9, sp}
    9a18:	00000568 	andeq	r0, r0, r8, ror #10
    9a1c:	5e034403 	cdppl	4, 0, cr4, cr3, cr3, {0}
    9a20:	04000000 	streq	r0, [r0], #-0
    9a24:	23021305 	movwcs	r1, #8965	; 0x2305
    9a28:	0e580900 	cdpeq	9, 5, cr0, cr8, cr0, {0}
    9a2c:	45030000 	strmi	r0, [r3, #-0]
    9a30:	00005e03 	andeq	r5, r0, r3, lsl #28
    9a34:	0c070400 	cfstrseq	mvf0, [r7], {-0}
    9a38:	09002302 	stmdbeq	r0, {r1, r8, r9, sp}
    9a3c:	00000572 	andeq	r0, r0, r2, ror r5
    9a40:	5e034603 	cfmadd32pl	mvax0, mvfx4, mvfx3, mvfx3
    9a44:	04000000 	streq	r0, [r0], #-0
    9a48:	23020a02 	movwcs	r0, #10754	; 0x2a02
    9a4c:	0e5d0900 	cdpeq	9, 5, cr0, cr13, cr0, {0}
    9a50:	47030000 	strmi	r0, [r3, -r0]
    9a54:	00005e03 	andeq	r5, r0, r3, lsl #28
    9a58:	08020400 	stmdaeq	r2, {sl}
    9a5c:	09002302 	stmdbeq	r0, {r1, r8, r9, sp}
    9a60:	00000d74 	andeq	r0, r0, r4, ror sp
    9a64:	5e034803 	cdppl	8, 0, cr4, cr3, cr3, {0}
    9a68:	04000000 	streq	r0, [r0], #-0
    9a6c:	23020602 	movwcs	r0, #9730	; 0x2602
    9a70:	0e620900 	cdpeq	9, 6, cr0, cr2, cr0, {0}
    9a74:	49030000 	stmdbmi	r3, {}	; <UNPREDICTABLE>
    9a78:	00005e03 	andeq	r5, r0, r3, lsl #28
    9a7c:	01050400 	tsteq	r5, r0, lsl #8
    9a80:	09002302 	stmdbeq	r0, {r1, r8, r9, sp}
    9a84:	00000697 	muleq	r0, r7, r6
    9a88:	5e034a03 	vmlapl.f32	s8, s6, s6
    9a8c:	04000000 	streq	r0, [r0], #-0
    9a90:	23020001 	movwcs	r0, #8193	; 0x2001
    9a94:	040d0000 	streq	r0, [sp], #-0
    9a98:	d4033e03 	strle	r3, [r3], #-3587	; 0xe03
    9a9c:	0a00001f 	beq	9b20 <__resume1_start+0x9b20>
    9aa0:	000002d3 	ldrdeq	r0, [r0], -r3
    9aa4:	5e034003 	cdppl	0, 0, cr4, cr3, cr3, {0}
    9aa8:	0a000000 	beq	9ab0 <__resume1_start+0x9ab0>
    9aac:	0000092a 	andeq	r0, r0, sl, lsr #18
    9ab0:	18034b03 	stmdane	r3, {r0, r1, r8, r9, fp, lr}
    9ab4:	0000001f 	andeq	r0, r0, pc, lsl r0
    9ab8:	000ba30b 	andeq	sl, fp, fp, lsl #6
    9abc:	034c0300 	movteq	r0, #49920	; 0xc300
    9ac0:	00001fb2 			; <UNDEFINED> instruction: 0x00001fb2
    9ac4:	5103040c 	tstpl	r3, ip, lsl #8
    9ac8:	00207a03 	eoreq	r7, r0, r3, lsl #20
    9acc:	0e530900 	cdpeq	9, 5, cr0, cr3, cr0, {0}
    9ad0:	53030000 	movwpl	r0, #12288	; 0x3000
    9ad4:	00005e03 	andeq	r5, r0, r3, lsl #28
    9ad8:	18080400 	stmdane	r8, {sl}
    9adc:	09002302 	stmdbeq	r0, {r1, r8, r9, sp}
    9ae0:	00000568 	andeq	r0, r0, r8, ror #10
    9ae4:	5e035403 	cdppl	4, 0, cr5, cr3, cr3, {0}
    9ae8:	04000000 	streq	r0, [r0], #-0
    9aec:	23021305 	movwcs	r1, #8965	; 0x2305
    9af0:	0e580900 	cdpeq	9, 5, cr0, cr8, cr0, {0}
    9af4:	55030000 	strpl	r0, [r3, #-0]
    9af8:	00005e03 	andeq	r5, r0, r3, lsl #28
    9afc:	0c070400 	cfstrseq	mvf0, [r7], {-0}
    9b00:	09002302 	stmdbeq	r0, {r1, r8, r9, sp}
    9b04:	00000572 	andeq	r0, r0, r2, ror r5
    9b08:	5e035603 	cfmadd32pl	mvax0, mvfx5, mvfx3, mvfx3
    9b0c:	04000000 	streq	r0, [r0], #-0
    9b10:	23020a02 	movwcs	r0, #10754	; 0x2a02
    9b14:	0e5d0900 	cdpeq	9, 5, cr0, cr13, cr0, {0}
    9b18:	57030000 	strpl	r0, [r3, -r0]
    9b1c:	00005e03 	andeq	r5, r0, r3, lsl #28
    9b20:	08020400 	stmdaeq	r2, {sl}
    9b24:	09002302 	stmdbeq	r0, {r1, r8, r9, sp}
    9b28:	00000d74 	andeq	r0, r0, r4, ror sp
    9b2c:	5e035803 	cdppl	8, 0, cr5, cr3, cr3, {0}
    9b30:	04000000 	streq	r0, [r0], #-0
    9b34:	23020602 	movwcs	r0, #9730	; 0x2602
    9b38:	0e620900 	cdpeq	9, 6, cr0, cr2, cr0, {0}
    9b3c:	59030000 	stmdbpl	r3, {}	; <UNPREDICTABLE>
    9b40:	00005e03 	andeq	r5, r0, r3, lsl #28
    9b44:	01050400 	tsteq	r5, r0, lsl #8
    9b48:	09002302 	stmdbeq	r0, {r1, r8, r9, sp}
    9b4c:	00000697 	muleq	r0, r7, r6
    9b50:	5e035a03 	vmlapl.f32	s10, s6, s6
    9b54:	04000000 	streq	r0, [r0], #-0
    9b58:	23020001 	movwcs	r0, #8193	; 0x2001
    9b5c:	040d0000 	streq	r0, [sp], #-0
    9b60:	9c034e03 	stcls	14, cr4, [r3], {3}
    9b64:	0a000020 	beq	9bec <__resume1_start+0x9bec>
    9b68:	000002d3 	ldrdeq	r0, [r0], -r3
    9b6c:	5e035003 	cdppl	0, 0, cr5, cr3, cr3, {0}
    9b70:	0a000000 	beq	9b78 <__resume1_start+0x9b78>
    9b74:	0000092a 	andeq	r0, r0, sl, lsr #18
    9b78:	e0035b03 	and	r5, r3, r3, lsl #22
    9b7c:	0000001f 	andeq	r0, r0, pc, lsl r0
    9b80:	0005cf0b 	andeq	ip, r5, fp, lsl #30
    9b84:	035c0300 	cmpeq	ip, #0
    9b88:	0000207a 	andeq	r2, r0, sl, ror r0
    9b8c:	000f220e 	andeq	r2, pc, lr, lsl #4
    9b90:	03018400 	movweq	r8, #5120	; 0x1400
    9b94:	246e035e 	strbtcs	r0, [lr], #-862	; 0x35e
    9b98:	8d0f0000 	stchi	0, cr0, [pc, #-0]	; 9ba0 <__resume1_start+0x9ba0>
    9b9c:	03000008 	movweq	r0, #8
    9ba0:	246e0361 	strbtcs	r0, [lr], #-865	; 0x361
    9ba4:	23020000 	movwcs	r0, #8192	; 0x2000
    9ba8:	03c00f00 	biceq	r0, r0, #0
    9bac:	62030000 	andvs	r0, r3, #0
    9bb0:	00247303 	eoreq	r7, r4, r3, lsl #6
    9bb4:	04230200 	strteq	r0, [r3], #-512	; 0x200
    9bb8:	000a590f 	andeq	r5, sl, pc, lsl #18
    9bbc:	03630300 	cmneq	r3, #0
    9bc0:	00002478 	andeq	r2, r0, r8, ror r4
    9bc4:	0f082302 	svceq	0x00082302
    9bc8:	0000084d 	andeq	r0, r0, sp, asr #16
    9bcc:	7d036403 	cfstrsvc	mvf6, [r3, #-12]
    9bd0:	02000024 	andeq	r0, r0, #36	; 0x24
    9bd4:	e30f0c23 	movw	r0, #64547	; 0xfc23
    9bd8:	03000008 	movweq	r0, #8
    9bdc:	24820365 	strcs	r0, [r2], #869	; 0x365
    9be0:	23020000 	movwcs	r0, #8192	; 0x2000
    9be4:	06fb0f10 	usateq	r0, #27, r0, lsl #30
    9be8:	66030000 	strvs	r0, [r3], -r0
    9bec:	00248703 	eoreq	r8, r4, r3, lsl #14
    9bf0:	14230200 	strtne	r0, [r3], #-512	; 0x200
    9bf4:	00049a0f 	andeq	r9, r4, pc, lsl #20
    9bf8:	03670300 	cmneq	r7, #0
    9bfc:	0000248c 	andeq	r2, r0, ip, lsl #9
    9c00:	0f182302 	svceq	0x00182302
    9c04:	00000d5a 	andeq	r0, r0, sl, asr sp
    9c08:	91036803 	tstls	r3, r3, lsl #16
    9c0c:	02000024 	andeq	r0, r0, #36	; 0x24
    9c10:	c60f1c23 	strgt	r1, [pc], -r3, lsr #24
    9c14:	03000008 	movweq	r0, #8
    9c18:	24960369 	ldrcs	r0, [r6], #873	; 0x369
    9c1c:	23020000 	movwcs	r0, #8192	; 0x2000
    9c20:	0ab10f20 	beq	fec4d8a8 <__bss_end+0xfec3a75c>
    9c24:	6a030000 	bvs	c9c2c <__bss_end+0xb6ae0>
    9c28:	00249b03 	eoreq	r9, r4, r3, lsl #22
    9c2c:	24230200 	strtcs	r0, [r3], #-512	; 0x200
    9c30:	0009760f 	andeq	r7, r9, pc, lsl #12
    9c34:	036b0300 	cmneq	fp, #0
    9c38:	000024a0 	andeq	r2, r0, r0, lsr #9
    9c3c:	0f282302 	svceq	0x00282302
    9c40:	0000038c 	andeq	r0, r0, ip, lsl #7
    9c44:	a5036c03 	strge	r6, [r3, #-3075]	; 0xc03
    9c48:	02000024 	andeq	r0, r0, #36	; 0x24
    9c4c:	5f0f2c23 	svcpl	0x000f2c23
    9c50:	0300000c 	movweq	r0, #12
    9c54:	24ba036e 	ldrtcs	r0, [sl], #878	; 0x36e
    9c58:	23020000 	movwcs	r0, #8192	; 0x2000
    9c5c:	0a710f30 	beq	1c4d924 <__bss_end+0x1c3a7d8>
    9c60:	6f030000 	svcvs	0x00030000
    9c64:	0024bf03 	eoreq	fp, r4, r3, lsl #30
    9c68:	50230200 	eorpl	r0, r3, r0, lsl #4
    9c6c:	00039c0f 	andeq	r9, r3, pc, lsl #24
    9c70:	03700300 	cmneq	r0, #0
    9c74:	000024c4 	andeq	r2, r0, r4, asr #9
    9c78:	0f542302 	svceq	0x00542302
    9c7c:	00000c56 	andeq	r0, r0, r6, asr ip
    9c80:	c9037103 	stmdbgt	r3, {r0, r1, r8, ip, sp, lr}
    9c84:	02000024 	andeq	r0, r0, #36	; 0x24
    9c88:	0b0f5823 	bleq	3dfd1c <__bss_end+0x3ccbd0>
    9c8c:	0300000c 	movweq	r0, #12
    9c90:	24ce0372 	strbcs	r0, [lr], #882	; 0x372
    9c94:	23020000 	movwcs	r0, #8192	; 0x2000
    9c98:	0dbf0f5c 	ldceq	15, cr0, [pc, #368]!	; 9e10 <__resume1_start+0x9e10>
    9c9c:	73030000 	movwvc	r0, #12288	; 0x3000
    9ca0:	0024d303 	eoreq	sp, r4, r3, lsl #6
    9ca4:	60230200 	eorvs	r0, r3, r0, lsl #4
    9ca8:	00082d0f 	andeq	r2, r8, pc, lsl #26
    9cac:	03740300 	cmneq	r4, #0
    9cb0:	000024d8 	ldrdeq	r2, [r0], -r8
    9cb4:	0f642302 	svceq	0x00642302
    9cb8:	0000052e 	andeq	r0, r0, lr, lsr #10
    9cbc:	dd037503 	cfstr32le	mvfx7, [r3, #-12]
    9cc0:	02000024 	andeq	r0, r0, #36	; 0x24
    9cc4:	650f6823 	strvs	r6, [pc, #-2083]	; 94a9 <__resume1_start+0x94a9>
    9cc8:	03000004 	movweq	r0, #4
    9ccc:	24e20376 	strbtcs	r0, [r2], #886	; 0x376
    9cd0:	23020000 	movwcs	r0, #8192	; 0x2000
    9cd4:	068e0f6c 	streq	r0, [lr], ip, ror #30
    9cd8:	77030000 	strvc	r0, [r3, -r0]
    9cdc:	0024e703 	eoreq	lr, r4, r3, lsl #14
    9ce0:	70230200 	eorvc	r0, r3, r0, lsl #4
    9ce4:	000f570f 	andeq	r5, pc, pc, lsl #14
    9ce8:	03780300 	cmneq	r8, #0
    9cec:	000024ec 	andeq	r2, r0, ip, ror #9
    9cf0:	0f742302 	svceq	0x00742302
    9cf4:	000005b2 			; <UNDEFINED> instruction: 0x000005b2
    9cf8:	f1037903 			; <UNDEFINED> instruction: 0xf1037903
    9cfc:	02000024 	andeq	r0, r0, #36	; 0x24
    9d00:	6e0f7823 	cdpvs	8, 0, cr7, cr15, cr3, {1}
    9d04:	0300000c 	movweq	r0, #12
    9d08:	24e2037a 	strbtcs	r0, [r2], #890	; 0x37a
    9d0c:	23020000 	movwcs	r0, #8192	; 0x2000
    9d10:	09580f7c 	ldmdbeq	r8, {r2, r3, r4, r5, r6, r8, r9, sl, fp}^
    9d14:	7b030000 	blvc	c9d1c <__bss_end+0xb6bd0>
    9d18:	0024f603 	eoreq	pc, r4, r3, lsl #12
    9d1c:	80230300 	eorhi	r0, r3, r0, lsl #6
    9d20:	0ebe0f01 	cdpeq	15, 11, cr0, cr14, cr1, {0}
    9d24:	7c030000 	stcvc	0, cr0, [r3], {-0}
    9d28:	0024fb03 	eoreq	pc, r4, r3, lsl #22
    9d2c:	84230300 	strthi	r0, [r3], #-768	; 0x300
    9d30:	0c780f01 	ldcleq	15, cr0, [r8], #-4
    9d34:	7d030000 	stcvc	0, cr0, [r3, #-0]
    9d38:	00251003 	eoreq	r1, r5, r3
    9d3c:	88230300 	stmdahi	r3!, {r8, r9}
    9d40:	0c820f01 	stceq	15, cr0, [r2], {1}
    9d44:	7e030000 	cdpvc	0, 0, cr0, cr3, cr0, {0}
    9d48:	00251503 	eoreq	r1, r5, r3, lsl #10
    9d4c:	90230300 	eorls	r0, r3, r0, lsl #6
    9d50:	07880f01 	streq	r0, [r8, r1, lsl #30]
    9d54:	7f030000 	svcvc	0x00030000
    9d58:	00251a03 	eoreq	r1, r5, r3, lsl #20
    9d5c:	94230300 	strtls	r0, [r3], #-768	; 0x300
    9d60:	046f0f01 	strbteq	r0, [pc], #-3841	; 9d68 <__resume1_start+0x9d68>
    9d64:	80030000 	andhi	r0, r3, r0
    9d68:	0024e203 	eoreq	lr, r4, r3, lsl #4
    9d6c:	98230300 	stmdals	r3!, {r8, r9}
    9d70:	0f8b0f01 	svceq	0x008b0f01
    9d74:	81030000 	mrshi	r0, (UNDEF: 3)
    9d78:	00251f03 	eoreq	r1, r5, r3, lsl #30
    9d7c:	9c230300 	stcls	3, cr0, [r3], #-0
    9d80:	0b080f01 	bleq	20d98c <__bss_end+0x1fa840>
    9d84:	83030000 	movwhi	r0, #12288	; 0x3000
    9d88:	00252403 	eoreq	r2, r5, r3, lsl #8
    9d8c:	a0230300 	eorge	r0, r3, r0, lsl #6
    9d90:	04430f01 	strbeq	r0, [r3], #-3841	; 0xf01
    9d94:	84030000 	strhi	r0, [r3], #-0
    9d98:	00252903 	eoreq	r2, r5, r3, lsl #18
    9d9c:	a4230300 	strtge	r0, [r3], #-768	; 0x300
    9da0:	0e440f01 	cdpeq	15, 4, cr0, cr4, cr1, {0}
    9da4:	85030000 	strhi	r0, [r3, #-0]
    9da8:	00252e03 	eoreq	r2, r5, r3, lsl #28
    9dac:	a8230300 	stmdage	r3!, {r8, r9}
    9db0:	0d840f01 	stceq	15, cr0, [r4, #4]
    9db4:	86030000 	strhi	r0, [r3], -r0
    9db8:	00253303 	eoreq	r3, r5, r3, lsl #6
    9dbc:	ac230300 	stcge	3, cr0, [r3], #-0
    9dc0:	06360f01 	ldrteq	r0, [r6], -r1, lsl #30
    9dc4:	87030000 	strhi	r0, [r3, -r0]
    9dc8:	00253803 	eoreq	r3, r5, r3, lsl #16
    9dcc:	b0230300 	eorlt	r0, r3, r0, lsl #6
    9dd0:	029b0f01 	addseq	r0, fp, #4
    9dd4:	88030000 	stmdahi	r3, {}	; <UNPREDICTABLE>
    9dd8:	00253d03 	eoreq	r3, r5, r3, lsl #26
    9ddc:	b4230300 	strtlt	r0, [r3], #-768	; 0x300
    9de0:	0a020f01 	beq	8d9ec <__bss_end+0x7a8a0>
    9de4:	89030000 	stmdbhi	r3, {}	; <UNPREDICTABLE>
    9de8:	00254203 	eoreq	r4, r5, r3, lsl #4
    9dec:	b8230300 	stmdalt	r3!, {r8, r9}
    9df0:	03a50f01 			; <UNDEFINED> instruction: 0x03a50f01
    9df4:	8a030000 	bhi	c9dfc <__bss_end+0xb6cb0>
    9df8:	00254703 	eoreq	r4, r5, r3, lsl #14
    9dfc:	bc230300 	stclt	3, cr0, [r3], #-0
    9e00:	0cca0f01 	stcleq	15, cr0, [sl], {1}
    9e04:	8b030000 	blhi	c9e0c <__bss_end+0xb6cc0>
    9e08:	00254c03 	eoreq	r4, r5, r3, lsl #24
    9e0c:	c0230300 	eorgt	r0, r3, r0, lsl #6
    9e10:	05950f01 	ldreq	r0, [r5, #3841]	; 0xf01
    9e14:	8c030000 	stchi	0, cr0, [r3], {-0}
    9e18:	00255103 	eoreq	r5, r5, r3, lsl #2
    9e1c:	c4230300 	strtgt	r0, [r3], #-768	; 0x300
    9e20:	0f600f01 	svceq	0x00600f01
    9e24:	8d030000 	stchi	0, cr0, [r3, #-0]
    9e28:	00255603 	eoreq	r5, r5, r3, lsl #12
    9e2c:	c8230300 	stmdagt	r3!, {r8, r9}
    9e30:	08ee0f01 	stmiaeq	lr!, {r0, r8, r9, sl, fp}^
    9e34:	8e030000 	cdphi	0, 0, cr0, cr3, cr0, {0}
    9e38:	00255b03 	eoreq	r5, r5, r3, lsl #22
    9e3c:	cc230300 	stcgt	3, cr0, [r3], #-0
    9e40:	0a7d0f01 	beq	1f4da4c <__bss_end+0x1f3a900>
    9e44:	8f030000 	svchi	0x00030000
    9e48:	00257003 	eoreq	r7, r5, r3
    9e4c:	d0230300 	eorle	r0, r3, r0, lsl #6
    9e50:	04a90f01 	strteq	r0, [r9], #3841	; 0xf01
    9e54:	90030000 	andls	r0, r3, r0
    9e58:	00257503 	eoreq	r7, r5, r3, lsl #10
    9e5c:	e0230300 	eor	r0, r3, r0, lsl #6
    9e60:	0d690f01 	stcleq	15, cr0, [r9, #-4]!
    9e64:	91030000 	mrsls	r0, (UNDEF: 3)
    9e68:	00257a03 	eoreq	r7, r5, r3, lsl #20
    9e6c:	e4230300 	strt	r0, [r3], #-768	; 0x300
    9e70:	0ca00f01 	stceq	15, cr0, [r0], #4
    9e74:	92030000 	andls	r0, r3, #0
    9e78:	00258f03 	eoreq	r8, r5, r3, lsl #30
    9e7c:	e8230300 	stmda	r3!, {r8, r9}
    9e80:	0b910f01 	bleq	fe44da8c <__bss_end+0xfe43a940>
    9e84:	93030000 	movwls	r0, #12288	; 0x3000
    9e88:	00259403 	eoreq	r9, r5, r3, lsl #8
    9e8c:	84230300 	strthi	r0, [r3], #-768	; 0x300
    9e90:	0a280f02 	beq	a0daa0 <__bss_end+0x9fa954>
    9e94:	94030000 	strls	r0, [r3], #-0
    9e98:	00259903 	eoreq	r9, r5, r3, lsl #18
    9e9c:	88230300 	stmdahi	r3!, {r8, r9}
    9ea0:	0b230f02 	bleq	8cdab0 <__bss_end+0x8ba964>
    9ea4:	95030000 	strls	r0, [r3, #-0]
    9ea8:	00259e03 	eoreq	r9, r5, r3, lsl #28
    9eac:	8c230300 	stchi	3, cr0, [r3], #-0
    9eb0:	04fc0f02 	ldrbteq	r0, [ip], #3842	; 0xf02
    9eb4:	96030000 	strls	r0, [r3], -r0
    9eb8:	0025a303 	eoreq	sl, r5, r3, lsl #6
    9ebc:	90230300 	eorls	r0, r3, r0, lsl #6
    9ec0:	05820f02 	streq	r0, [r2, #3842]	; 0xf02
    9ec4:	97030000 	strls	r0, [r3, -r0]
    9ec8:	0025a803 	eoreq	sl, r5, r3, lsl #16
    9ecc:	94230300 	strtls	r0, [r3], #-768	; 0x300
    9ed0:	09a50f02 	stmibeq	r5!, {r1, r8, r9, sl, fp}
    9ed4:	98030000 	stmdals	r3, {}	; <UNPREDICTABLE>
    9ed8:	0025ad03 	eoreq	sl, r5, r3, lsl #26
    9edc:	98230300 	stmdals	r3!, {r8, r9}
    9ee0:	07970f02 	ldreq	r0, [r7, r2, lsl #30]
    9ee4:	99030000 	stmdbls	r3, {}	; <UNPREDICTABLE>
    9ee8:	0025b203 	eoreq	fp, r5, r3, lsl #4
    9eec:	9c230300 	stcls	3, cr0, [r3], #-0
    9ef0:	087e0f02 	ldmdaeq	lr!, {r1, r8, r9, sl, fp}^
    9ef4:	9a030000 	bls	c9efc <__bss_end+0xb6db0>
    9ef8:	0025b703 	eoreq	fp, r5, r3, lsl #14
    9efc:	a0230300 	eorge	r0, r3, r0, lsl #6
    9f00:	06d70f02 	ldrbeq	r0, [r7], r2, lsl #30
    9f04:	9b030000 	blls	c9f0c <__bss_end+0xb6dc0>
    9f08:	0025bc03 	eoreq	fp, r5, r3, lsl #24
    9f0c:	a4230300 	strtge	r0, [r3], #-768	; 0x300
    9f10:	0e030f02 	cdpeq	15, 0, cr0, cr3, cr2, {0}
    9f14:	9c030000 	stcls	0, cr0, [r3], {-0}
    9f18:	0025c103 	eoreq	ip, r5, r3, lsl #2
    9f1c:	a8230300 	stmdage	r3!, {r8, r9}
    9f20:	0caa0f02 	stceq	15, cr0, [sl], #8
    9f24:	9d030000 	stcls	0, cr0, [r3, #-0]
    9f28:	0025d603 	eoreq	sp, r5, r3, lsl #12
    9f2c:	ac230300 	stcge	3, cr0, [r3], #-0
    9f30:	077f0f02 	ldrbeq	r0, [pc, -r2, lsl #30]!
    9f34:	9e030000 	cdpls	0, 0, cr0, cr3, cr0, {0}
    9f38:	0025db03 	eoreq	sp, r5, r3, lsl #22
    9f3c:	fc230300 	stc2	3, cr0, [r3], #-0
    9f40:	03610f02 	cmneq	r1, #8
    9f44:	9f030000 	svcls	0x00030000
    9f48:	0025e003 	eoreq	lr, r5, r3
    9f4c:	80230300 	eorhi	r0, r3, r0, lsl #6
    9f50:	2e100003 	cdpcs	0, 1, cr0, cr0, cr3, {0}
    9f54:	10000001 	andne	r0, r0, r1
    9f58:	000001e9 	andeq	r0, r0, r9, ror #3
    9f5c:	0002c610 	andeq	ip, r2, r0, lsl r6
    9f60:	03921000 	orrseq	r1, r2, #0
    9f64:	5e100000 	cdppl	0, 1, cr0, cr0, cr0, {0}
    9f68:	10000004 	andne	r0, r0, r4
    9f6c:	0000053b 	andeq	r0, r0, fp, lsr r5
    9f70:	00060a10 	andeq	r0, r6, r0, lsl sl
    9f74:	06f61000 	ldrbteq	r1, [r6], r0
    9f78:	d0100000 	andsle	r0, r0, r0
    9f7c:	10000007 	andne	r0, r0, r7
    9f80:	000008aa 	andeq	r0, r0, sl, lsr #17
    9f84:	00098410 	andeq	r8, r9, r0, lsl r4
    9f88:	0a5e1000 	beq	178df90 <__bss_end+0x177ae44>
    9f8c:	5e110000 	cdppl	0, 1, cr0, cr1, cr0, {0}
    9f90:	ba000000 	blt	9f98 <__resume1_start+0x9f98>
    9f94:	12000024 	andne	r0, r0, #36	; 0x24
    9f98:	00000069 	andeq	r0, r0, r9, rrx
    9f9c:	aa100007 	bge	409fc0 <__bss_end+0x3f6e74>
    9fa0:	10000024 	andne	r0, r0, r4, lsr #32
    9fa4:	00000ade 	ldrdeq	r0, [r0], -lr
    9fa8:	000b5e10 	andeq	r5, fp, r0, lsl lr
    9fac:	0bde1000 	bleq	ff78dfb4 <__bss_end+0xff77ae68>
    9fb0:	5e100000 	cdppl	0, 1, cr0, cr0, cr0, {0}
    9fb4:	1000000c 	andne	r0, r0, ip
    9fb8:	00000cde 	ldrdeq	r0, [r0], -lr
    9fbc:	000d5e10 	andeq	r5, sp, r0, lsl lr
    9fc0:	0dde1000 	ldcleq	0, cr1, [lr]
    9fc4:	5e100000 	cdppl	0, 1, cr0, cr0, cr0, {0}
    9fc8:	10000000 	andne	r0, r0, r0
    9fcc:	00000e5e 	andeq	r0, r0, lr, asr lr
    9fd0:	000f0210 	andeq	r0, pc, r0, lsl r2	; <UNPREDICTABLE>
    9fd4:	0f821000 	svceq	0x00821000
    9fd8:	14100000 	ldrne	r0, [r0], #-0
    9fdc:	10000010 	andne	r0, r0, r0, lsl r0
    9fe0:	000010a6 	andeq	r1, r0, r6, lsr #1
    9fe4:	00005e11 	andeq	r5, r0, r1, lsl lr
    9fe8:	00251000 	eoreq	r1, r5, r0
    9fec:	00691200 	rsbeq	r1, r9, r0, lsl #4
    9ff0:	00010000 	andeq	r0, r1, r0
    9ff4:	00250010 	eoreq	r0, r5, r0, lsl r0
    9ff8:	11021000 	mrsne	r1, (UNDEF: 2)
    9ffc:	5e100000 	cdppl	0, 1, cr0, cr0, cr0, {0}
    a000:	10000011 	andne	r0, r0, r1, lsl r0
    a004:	00001180 	andeq	r1, r0, r0, lsl #3
    a008:	00120010 	andseq	r0, r2, r0, lsl r0
    a00c:	12801000 	addne	r1, r0, #0
    a010:	ee100000 	cdp	0, 1, cr0, cr0, cr0, {0}
    a014:	10000012 	andne	r0, r0, r2, lsl r0
    a018:	0000135c 	andeq	r1, r0, ip, asr r3
    a01c:	0013ca10 	andseq	ip, r3, r0, lsl sl
    a020:	14381000 	ldrtne	r1, [r8], #-0
    a024:	a6100000 	ldrge	r0, [r0], -r0
    a028:	10000014 	andne	r0, r0, r4, lsl r0
    a02c:	00001514 	andeq	r1, r0, r4, lsl r5
    a030:	00158210 	andseq	r8, r5, r0, lsl r2
    a034:	15f01000 	ldrbne	r1, [r0, #0]!
    a038:	5e100000 	cdppl	0, 1, cr0, cr0, cr0, {0}
    a03c:	10000016 	andne	r0, r0, r6, lsl r0
    a040:	000016cc 	andeq	r1, r0, ip, asr #13
    a044:	00005e11 	andeq	r5, r0, r1, lsl lr
    a048:	00257000 	eoreq	r7, r5, r0
    a04c:	00691200 	rsbeq	r1, r9, r0, lsl #4
    a050:	00030000 	andeq	r0, r3, r0
    a054:	00256010 	eoreq	r6, r5, r0, lsl r0
    a058:	17b81000 	ldrne	r1, [r8, r0]!
    a05c:	a4100000 	ldrge	r0, [r0], #-0
    a060:	11000018 	tstne	r0, r8, lsl r0
    a064:	0000005e 	andeq	r0, r0, lr, asr r0
    a068:	0000258f 	andeq	r2, r0, pc, lsl #11
    a06c:	00006912 	andeq	r6, r0, r2, lsl r9
    a070:	10000600 	andne	r0, r0, r0, lsl #12
    a074:	0000257f 	andeq	r2, r0, pc, ror r5
    a078:	00194810 	andseq	r4, r9, r0, lsl r8
    a07c:	19ec1000 	stmibne	ip!, {ip}^
    a080:	90100000 	andsls	r0, r0, r0
    a084:	1000001a 	andne	r0, r0, sl, lsl r0
    a088:	00001b34 	andeq	r1, r0, r4, lsr fp
    a08c:	001bd810 	andseq	sp, fp, r0, lsl r8
    a090:	1c7c1000 	ldclne	0, cr1, [ip], #-0
    a094:	20100000 	andscs	r0, r0, r0
    a098:	1000001d 	andne	r0, r0, sp, lsl r0
    a09c:	00001dc4 	andeq	r1, r0, r4, asr #27
    a0a0:	001e6810 	andseq	r6, lr, r0, lsl r8
    a0a4:	1f0c1000 	svcne	0x000c1000
    a0a8:	5e110000 	cdppl	0, 1, cr0, cr1, cr0, {0}
    a0ac:	d6000000 	strle	r0, [r0], -r0
    a0b0:	12000025 	andne	r0, r0, #37	; 0x25
    a0b4:	00000069 	andeq	r0, r0, r9, rrx
    a0b8:	c6100013 			; <UNDEFINED> instruction: 0xc6100013
    a0bc:	10000025 	andne	r0, r0, r5, lsr #32
    a0c0:	00001fd4 	ldrdeq	r1, [r0], -r4
    a0c4:	00209c10 	eoreq	r9, r0, r0, lsl ip
    a0c8:	0dd60b00 	vldreq	d16, [r6]
    a0cc:	a0030000 	andge	r0, r3, r0
    a0d0:	0020a803 	eoreq	sl, r0, r3, lsl #16
    a0d4:	1f510e00 	svcne	0x00510e00
    a0d8:	01b80000 			; <UNDEFINED> instruction: 0x01b80000
    a0dc:	0b03a503 	bleq	f34f0 <__bss_end+0xe03a4>
    a0e0:	0f00002a 	svceq	0x0000002a
    a0e4:	00001ff0 	strdeq	r1, [r0], -r0
    a0e8:	e203a603 	and	sl, r3, #3145728	; 0x300000
    a0ec:	02000024 	andeq	r0, r0, #36	; 0x24
    a0f0:	2f0f0023 	svccs	0x000f0023
    a0f4:	0300001e 	movweq	r0, #30
    a0f8:	24e203a7 	strbtcs	r0, [r2], #935	; 0x3a7
    a0fc:	23020000 	movwcs	r0, #8192	; 0x2000
    a100:	1ea50f04 	cdpne	15, 10, cr0, cr5, cr4, {0}
    a104:	a8030000 	stmdage	r3, {}	; <UNPREDICTABLE>
    a108:	0024e203 	eoreq	lr, r4, r3, lsl #4
    a10c:	08230200 	stmdaeq	r3!, {r9}
    a110:	0020000f 	eoreq	r0, r0, pc
    a114:	03a90300 			; <UNDEFINED> instruction: 0x03a90300
    a118:	000024e2 	andeq	r2, r0, r2, ror #9
    a11c:	0f0c2302 	svceq	0x000c2302
    a120:	00001d8c 	andeq	r1, r0, ip, lsl #27
    a124:	e203aa03 	and	sl, r3, #12288	; 0x3000
    a128:	02000024 	andeq	r0, r0, #36	; 0x24
    a12c:	cd0f1023 	stcgt	0, cr1, [pc, #-140]	; a0a8 <__resume1_start+0xa0a8>
    a130:	0300001e 	movweq	r0, #30
    a134:	24e203ab 	strbtcs	r0, [r2], #939	; 0x3ab
    a138:	23020000 	movwcs	r0, #8192	; 0x2000
    a13c:	1d940f14 	ldcne	15, cr0, [r4, #80]	; 0x50
    a140:	ac030000 	stcge	0, cr0, [r3], {-0}
    a144:	0024e203 	eoreq	lr, r4, r3, lsl #4
    a148:	18230200 	stmdane	r3!, {r9}
    a14c:	0020360f 	eoreq	r3, r0, pc, lsl #12
    a150:	03ad0300 			; <UNDEFINED> instruction: 0x03ad0300
    a154:	000024e2 	andeq	r2, r0, r2, ror #9
    a158:	0f1c2302 	svceq	0x001c2302
    a15c:	00000c5f 	andeq	r0, r0, pc, asr ip
    a160:	0b03ae03 	bleq	f5974 <__bss_end+0xe2828>
    a164:	0200002a 	andeq	r0, r0, #42	; 0x2a
    a168:	410f2023 	tstmi	pc, r3, lsr #32
    a16c:	03000021 	movweq	r0, #33	; 0x21
    a170:	24e203af 	strbtcs	r0, [r2], #943	; 0x3af
    a174:	23020000 	movwcs	r0, #8192	; 0x2000
    a178:	1e480f28 	cdpne	15, 4, cr0, cr8, cr8, {1}
    a17c:	b0030000 	andlt	r0, r3, r0
    a180:	0024e203 	eoreq	lr, r4, r3, lsl #4
    a184:	2c230200 	sfmcs	f0, 4, [r3], #-0
    a188:	0020bd0f 	eoreq	fp, r0, pc, lsl #26
    a18c:	03b10300 			; <UNDEFINED> instruction: 0x03b10300
    a190:	000024e2 	andeq	r2, r0, r2, ror #9
    a194:	0f302302 	svceq	0x00302302
    a198:	00001ef4 	strdeq	r1, [r0], -r4
    a19c:	e203b203 	and	fp, r3, #805306368	; 0x30000000
    a1a0:	02000024 	andeq	r0, r0, #36	; 0x24
    a1a4:	000f3423 	andeq	r3, pc, r3, lsr #8
    a1a8:	03000021 	movweq	r0, #33	; 0x21
    a1ac:	24e203b3 	strbtcs	r0, [r2], #947	; 0x3b3
    a1b0:	23020000 	movwcs	r0, #8192	; 0x2000
    a1b4:	20840f38 	addcs	r0, r4, r8, lsr pc
    a1b8:	b4030000 	strlt	r0, [r3], #-0
    a1bc:	0024e203 	eoreq	lr, r4, r3, lsl #4
    a1c0:	3c230200 	sfmcc	f0, 4, [r3], #-0
    a1c4:	00203e0f 	eoreq	r3, r0, pc, lsl #28
    a1c8:	03b50300 			; <UNDEFINED> instruction: 0x03b50300
    a1cc:	000024e2 	andeq	r2, r0, r2, ror #9
    a1d0:	0f402302 	svceq	0x00402302
    a1d4:	00001e99 	muleq	r0, r9, lr
    a1d8:	e203b603 	and	fp, r3, #3145728	; 0x300000
    a1dc:	02000024 	andeq	r0, r0, #36	; 0x24
    a1e0:	650f4423 	strvs	r4, [pc, #-1059]	; 9dc5 <__resume1_start+0x9dc5>
    a1e4:	03000004 	movweq	r0, #4
    a1e8:	24e203b7 	strbtcs	r0, [r2], #951	; 0x3b7
    a1ec:	23020000 	movwcs	r0, #8192	; 0x2000
    a1f0:	208d0f48 	addcs	r0, sp, r8, asr #30
    a1f4:	b8030000 	stmdalt	r3, {}	; <UNPREDICTABLE>
    a1f8:	0024e203 	eoreq	lr, r4, r3, lsl #4
    a1fc:	4c230200 	sfmmi	f0, 4, [r3], #-0
    a200:	001d770f 	andseq	r7, sp, pc, lsl #14
    a204:	03b90300 			; <UNDEFINED> instruction: 0x03b90300
    a208:	000024e2 	andeq	r2, r0, r2, ror #9
    a20c:	0f502302 	svceq	0x00502302
    a210:	00000c6e 	andeq	r0, r0, lr, ror #24
    a214:	2003ba03 	andcs	fp, r3, r3, lsl #20
    a218:	0200002a 	andeq	r0, r0, #42	; 0x2a
    a21c:	5d0f5423 	cfstrspl	mvf5, [pc, #-140]	; a198 <__resume1_start+0xa198>
    a220:	03000021 	movweq	r0, #33	; 0x21
    a224:	24e203bb 	strbtcs	r0, [r2], #955	; 0x3bb
    a228:	23030000 	movwcs	r0, #12288	; 0x3000
    a22c:	380f0180 	stmdacc	pc, {r7, r8}	; <UNPREDICTABLE>
    a230:	03000021 	movweq	r0, #33	; 0x21
    a234:	24e203bc 	strbtcs	r0, [r2], #956	; 0x3bc
    a238:	23030000 	movwcs	r0, #12288	; 0x3000
    a23c:	780f0184 	stmdavc	pc, {r2, r7, r8}	; <UNPREDICTABLE>
    a240:	0300000c 	movweq	r0, #12
    a244:	2a2503bd 	bcs	94b140 <__bss_end+0x937ff4>
    a248:	23030000 	movwcs	r0, #12288	; 0x3000
    a24c:	230f0188 	movwcs	r0, #61832	; 0xf188
    a250:	03000020 	movweq	r0, #32
    a254:	24e203be 	strbtcs	r0, [r2], #958	; 0x3be
    a258:	23030000 	movwcs	r0, #12288	; 0x3000
    a25c:	660f0190 			; <UNDEFINED> instruction: 0x660f0190
    a260:	03000021 	movweq	r0, #33	; 0x21
    a264:	24e203bf 	strbtcs	r0, [r2], #959	; 0x3bf
    a268:	23030000 	movwcs	r0, #12288	; 0x3000
    a26c:	b50f0194 	strlt	r0, [pc, #-404]	; a0e0 <__resume1_start+0xa0e0>
    a270:	0300001e 	movweq	r0, #30
    a274:	24e203c0 	strbtcs	r0, [r2], #960	; 0x3c0
    a278:	23030000 	movwcs	r0, #12288	; 0x3000
    a27c:	480f0198 	stmdami	pc, {r3, r4, r7, r8}	; <UNPREDICTABLE>
    a280:	03000021 	movweq	r0, #33	; 0x21
    a284:	24e203c1 	strbtcs	r0, [r2], #961	; 0x3c1
    a288:	23030000 	movwcs	r0, #12288	; 0x3000
    a28c:	d00f019c 	mulle	pc, ip, r1	; <UNPREDICTABLE>
    a290:	0300001f 	movweq	r0, #31
    a294:	24e203c2 	strbtcs	r0, [r2], #962	; 0x3c2
    a298:	23030000 	movwcs	r0, #12288	; 0x3000
    a29c:	6f0f01a0 	svcvs	0x000f01a0
    a2a0:	03000004 	movweq	r0, #4
    a2a4:	24e203c3 	strbtcs	r0, [r2], #963	; 0x3c3
    a2a8:	23030000 	movwcs	r0, #12288	; 0x3000
    a2ac:	680f01a4 	stmdavs	pc, {r2, r5, r7, r8}	; <UNPREDICTABLE>
    a2b0:	03000020 	movweq	r0, #32
    a2b4:	24e203c4 	strbtcs	r0, [r2], #964	; 0x3c4
    a2b8:	23030000 	movwcs	r0, #12288	; 0x3000
    a2bc:	760f01a8 	strvc	r0, [pc], -r8, lsr #3
    a2c0:	03000020 	movweq	r0, #32
    a2c4:	24e203c5 	strbtcs	r0, [r2], #965	; 0x3c5
    a2c8:	23030000 	movwcs	r0, #12288	; 0x3000
    a2cc:	250f01ac 	strcs	r0, [pc, #-428]	; a128 <__resume1_start+0xa128>
    a2d0:	0300001e 	movweq	r0, #30
    a2d4:	24e203c6 	strbtcs	r0, [r2], #966	; 0x3c6
    a2d8:	23030000 	movwcs	r0, #12288	; 0x3000
    a2dc:	b20f01b0 	andlt	r0, pc, #44	; 0x2c
    a2e0:	0300001f 	movweq	r0, #31
    a2e4:	24e203c7 	strbtcs	r0, [r2], #967	; 0x3c7
    a2e8:	23030000 	movwcs	r0, #12288	; 0x3000
    a2ec:	7d0f01b4 	stfvcs	f0, [pc, #-720]	; a024 <__resume1_start+0xa024>
    a2f0:	0300000a 	movweq	r0, #10
    a2f4:	24e203c8 	strbtcs	r0, [r2], #968	; 0x3c8
    a2f8:	23030000 	movwcs	r0, #12288	; 0x3000
    a2fc:	1f0f01b8 	svcne	0x000f01b8
    a300:	0300001f 	movweq	r0, #31
    a304:	24e203c9 	strbtcs	r0, [r2], #969	; 0x3c9
    a308:	23030000 	movwcs	r0, #12288	; 0x3000
    a30c:	850f01bc 	strhi	r0, [pc, #-444]	; a158 <__resume1_start+0xa158>
    a310:	0300001e 	movweq	r0, #30
    a314:	24e203ca 	strbtcs	r0, [r2], #970	; 0x3ca
    a318:	23030000 	movwcs	r0, #12288	; 0x3000
    a31c:	6d0f01c0 	stfvss	f0, [pc, #-768]	; a024 <__resume1_start+0xa024>
    a320:	0300001d 	movweq	r0, #29
    a324:	24e203cb 	strbtcs	r0, [r2], #971	; 0x3cb
    a328:	23030000 	movwcs	r0, #12288	; 0x3000
    a32c:	190f01c4 	stmdbne	pc, {r2, r6, r7, r8}	; <UNPREDICTABLE>
    a330:	03000020 	movweq	r0, #32
    a334:	24e203cc 	strbtcs	r0, [r2], #972	; 0x3cc
    a338:	23030000 	movwcs	r0, #12288	; 0x3000
    a33c:	2f0f01c8 	svccs	0x000f01c8
    a340:	03000020 	movweq	r0, #32
    a344:	24e203cd 	strbtcs	r0, [r2], #973	; 0x3cd
    a348:	23030000 	movwcs	r0, #12288	; 0x3000
    a34c:	660f01cc 	strvs	r0, [pc], -ip, asr #3
    a350:	0300001d 	movweq	r0, #29
    a354:	24e203ce 	strbtcs	r0, [r2], #974	; 0x3ce
    a358:	23030000 	movwcs	r0, #12288	; 0x3000
    a35c:	080f01d0 	stmdaeq	pc, {r4, r6, r7, r8}	; <UNPREDICTABLE>
    a360:	0300001e 	movweq	r0, #30
    a364:	24e203cf 	strbtcs	r0, [r2], #975	; 0x3cf
    a368:	23030000 	movwcs	r0, #12288	; 0x3000
    a36c:	a00f01d4 	ldrdge	r0, [pc], -r4
    a370:	0300000c 	movweq	r0, #12
    a374:	2a3a03d0 	bcs	e8b2bc <__bss_end+0xe78170>
    a378:	23030000 	movwcs	r0, #12288	; 0x3000
    a37c:	f30f01d8 	veor	q0, <illegal reg q15.5>, q4
    a380:	03000020 	movweq	r0, #32
    a384:	24e203d1 	strbtcs	r0, [r2], #977	; 0x3d1
    a388:	23030000 	movwcs	r0, #12288	; 0x3000
    a38c:	650f01f0 	strvs	r0, [pc, #-496]	; a1a4 <__resume1_start+0xa1a4>
    a390:	0300001f 	movweq	r0, #31
    a394:	24e203d2 	strbtcs	r0, [r2], #978	; 0x3d2
    a398:	23030000 	movwcs	r0, #12288	; 0x3000
    a39c:	510f01f4 	strdpl	r0, [pc, -r4]
    a3a0:	03000021 	movweq	r0, #33	; 0x21
    a3a4:	24e203d3 	strbtcs	r0, [r2], #979	; 0x3d3
    a3a8:	23030000 	movwcs	r0, #12288	; 0x3000
    a3ac:	aa0f01f8 	bge	3cab94 <__bss_end+0x3b7a48>
    a3b0:	0300000c 	movweq	r0, #12
    a3b4:	24e203d4 	strbtcs	r0, [r2], #980	; 0x3d4
    a3b8:	23030000 	movwcs	r0, #12288	; 0x3000
    a3bc:	830f01fc 	movwhi	r0, #61948	; 0xf1fc
    a3c0:	0300001d 	movweq	r0, #29
    a3c4:	24e203d5 	strbtcs	r0, [r2], #981	; 0x3d5
    a3c8:	23030000 	movwcs	r0, #12288	; 0x3000
    a3cc:	7c0f0280 	sfmvc	f0, 4, [pc], {128}	; 0x80
    a3d0:	0300001f 	movweq	r0, #31
    a3d4:	24e203d6 	strbtcs	r0, [r2], #982	; 0x3d6
    a3d8:	23030000 	movwcs	r0, #12288	; 0x3000
    a3dc:	fb0f0284 	blx	3cadf6 <__bss_end+0x3b7caa>
    a3e0:	0300001d 	movweq	r0, #29
    a3e4:	24e203d7 	strbtcs	r0, [r2], #983	; 0x3d7
    a3e8:	23030000 	movwcs	r0, #12288	; 0x3000
    a3ec:	090f0288 	stmdbeq	pc, {r3, r7, r9}	; <UNPREDICTABLE>
    a3f0:	03000021 	movweq	r0, #33	; 0x21
    a3f4:	24e203d8 	strbtcs	r0, [r2], #984	; 0x3d8
    a3f8:	23030000 	movwcs	r0, #12288	; 0x3000
    a3fc:	dc0f028c 	sfmle	f0, 4, [pc], {140}	; 0x8c
    a400:	03000020 	movweq	r0, #32
    a404:	24e203d9 	strbtcs	r0, [r2], #985	; 0x3d9
    a408:	23030000 	movwcs	r0, #12288	; 0x3000
    a40c:	b40f0290 	strlt	r0, [pc], #-656	; a414 <__resume1_start+0xa414>
    a410:	0300001a 	movweq	r0, #26
    a414:	2a4f03da 	bcs	13cb384 <__bss_end+0x13b8238>
    a418:	23030000 	movwcs	r0, #12288	; 0x3000
    a41c:	4a0f0294 	bmi	3cae74 <__bss_end+0x3b7d28>
    a420:	03000020 	movweq	r0, #32
    a424:	24e203db 	strbtcs	r0, [r2], #987	; 0x3db
    a428:	23030000 	movwcs	r0, #12288	; 0x3000
    a42c:	d10f0380 	smlabble	pc, r0, r3, r0	; <UNPREDICTABLE>
    a430:	0300001d 	movweq	r0, #29
    a434:	24e203dc 	strbtcs	r0, [r2], #988	; 0x3dc
    a438:	23030000 	movwcs	r0, #12288	; 0x3000
    a43c:	b10f0384 	smlabblt	pc, r4, r3, r0	; <UNPREDICTABLE>
    a440:	03000020 	movweq	r0, #32
    a444:	24e203dd 	strbtcs	r0, [r2], #989	; 0x3dd
    a448:	23030000 	movwcs	r0, #12288	; 0x3000
    a44c:	970f0388 	strls	r0, [pc, -r8, lsl #7]
    a450:	03000020 	movweq	r0, #32
    a454:	24e203de 	strbtcs	r0, [r2], #990	; 0x3de
    a458:	23030000 	movwcs	r0, #12288	; 0x3000
    a45c:	990f038c 	stmdbls	pc, {r2, r3, r7, r8, r9}	; <UNPREDICTABLE>
    a460:	0300001f 	movweq	r0, #31
    a464:	24e203df 	strbtcs	r0, [r2], #991	; 0x3df
    a468:	23030000 	movwcs	r0, #12288	; 0x3000
    a46c:	c60f0390 			; <UNDEFINED> instruction: 0xc60f0390
    a470:	03000020 	movweq	r0, #32
    a474:	24e203e0 	strbtcs	r0, [r2], #992	; 0x3e0
    a478:	23030000 	movwcs	r0, #12288	; 0x3000
    a47c:	de0f0394 	mcrle	3, 0, r0, cr15, cr4, {4}
    a480:	0300001e 	movweq	r0, #30
    a484:	2a5403e1 	bcs	150b410 <__bss_end+0x14f82c4>
    a488:	23030000 	movwcs	r0, #12288	; 0x3000
    a48c:	730f0398 	movwvc	r0, #62360	; 0xf398
    a490:	03000021 	movweq	r0, #33	; 0x21
    a494:	24e203e2 	strbtcs	r0, [r2], #994	; 0x3e2
    a498:	23030000 	movwcs	r0, #12288	; 0x3000
    a49c:	100f03a0 	andne	r0, pc, r0, lsr #7
    a4a0:	03000020 	movweq	r0, #32
    a4a4:	24e203e3 	strbtcs	r0, [r2], #995	; 0x3e3
    a4a8:	23030000 	movwcs	r0, #12288	; 0x3000
    a4ac:	3f0f03a4 	svccc	0x000f03a4
    a4b0:	0300001e 	movweq	r0, #30
    a4b4:	24e203e4 	strbtcs	r0, [r2], #996	; 0x3e4
    a4b8:	23030000 	movwcs	r0, #12288	; 0x3000
    a4bc:	e90f03a8 	stmdb	pc, {r3, r5, r7, r8, r9}	; <UNPREDICTABLE>
    a4c0:	0300001e 	movweq	r0, #30
    a4c4:	24e203e5 	strbtcs	r0, [r2], #997	; 0x3e5
    a4c8:	23030000 	movwcs	r0, #12288	; 0x3000
    a4cc:	d50f03ac 	strle	r0, [pc, #-940]	; a128 <__resume1_start+0xa128>
    a4d0:	0300001e 	movweq	r0, #30
    a4d4:	24e203e6 	strbtcs	r0, [r2], #998	; 0x3e6
    a4d8:	23030000 	movwcs	r0, #12288	; 0x3000
    a4dc:	c80f03b0 	stmdagt	pc, {r4, r5, r7, r8, r9}	; <UNPREDICTABLE>
    a4e0:	0300001d 	movweq	r0, #29
    a4e4:	24e203e7 	strbtcs	r0, [r2], #999	; 0x3e7
    a4e8:	23030000 	movwcs	r0, #12288	; 0x3000
    a4ec:	100003b4 			; <UNDEFINED> instruction: 0x100003b4
    a4f0:	00002500 	andeq	r2, r0, r0, lsl #10
    a4f4:	00005e11 	andeq	r5, r0, r1, lsl lr
    a4f8:	002a2000 	eoreq	r2, sl, r0
    a4fc:	00691200 	rsbeq	r1, r9, r0, lsl #4
    a500:	000a0000 	andeq	r0, sl, r0
    a504:	002a1010 	eoreq	r1, sl, r0, lsl r0
    a508:	25001000 	strcs	r1, [r0, #-0]
    a50c:	5e110000 	cdppl	0, 1, cr0, cr1, cr0, {0}
    a510:	3a000000 	bcc	a518 <__resume1_start+0xa518>
    a514:	1200002a 	andne	r0, r0, #42	; 0x2a
    a518:	00000069 	andeq	r0, r0, r9, rrx
    a51c:	2a100005 	bcs	40a538 <__bss_end+0x3f73ec>
    a520:	1100002a 	tstne	r0, sl, lsr #32
    a524:	0000005e 	andeq	r0, r0, lr, asr r0
    a528:	00002a4f 	andeq	r2, r0, pc, asr #20
    a52c:	00006912 	andeq	r6, r0, r2, lsl r9
    a530:	10001a00 	andne	r1, r0, r0, lsl #20
    a534:	00002a3f 	andeq	r2, r0, pc, lsr sl
    a538:	00250010 	eoreq	r0, r5, r0, lsl r0
    a53c:	1f2c0b00 	svcne	0x002c0b00
    a540:	e8030000 	stmda	r3, {}	; <UNPREDICTABLE>
    a544:	0025f103 	eoreq	pc, r5, r3, lsl #2
    a548:	e5041300 	str	r1, [r4, #-768]	; 0x300
    a54c:	13000025 	movwne	r0, #37	; 0x25
    a550:	002a5904 	eoreq	r5, sl, r4, lsl #18
    a554:	0bb21400 	bleq	fec8f55c <__bss_end+0xfec7c410>
    a558:	04040000 	streq	r0, [r4], #-0
    a55c:	002a8c40 	eoreq	r8, sl, r0, asr #24
    a560:	039c1500 	orrseq	r1, ip, #0
    a564:	41040000 	mrsmi	r0, (UNDEF: 4)
    a568:	0000005e 	andeq	r0, r0, lr, asr r0
    a56c:	00002302 	andeq	r2, r0, r2, lsl #6
    a570:	000bbc14 	andeq	fp, fp, r4, lsl ip
    a574:	44043400 	strmi	r3, [r4], #-1024	; 0x400
    a578:	00002b4f 	andeq	r2, r0, pc, asr #22
    a57c:	000b0815 	andeq	r0, fp, r5, lsl r8
    a580:	5e450400 	cdppl	4, 4, cr0, cr5, cr0, {0}
    a584:	02000000 	andeq	r0, r0, #0
    a588:	84150023 	ldrhi	r0, [r5], #-35	; 0x23
    a58c:	0400000d 	streq	r0, [r0], #-13
    a590:	00005e46 	andeq	r5, r0, r6, asr #28
    a594:	04230200 	strteq	r0, [r3], #-512	; 0x200
    a598:	0008ee15 	andeq	lr, r8, r5, lsl lr
    a59c:	5e470400 	cdppl	4, 4, cr0, cr7, cr0, {0}
    a5a0:	02000000 	andeq	r0, r0, #0
    a5a4:	a9150823 	ldmdbge	r5, {r0, r1, r5, fp}
    a5a8:	04000004 	streq	r0, [r0], #-4
    a5ac:	00005e48 	andeq	r5, r0, r8, asr #28
    a5b0:	0c230200 	sfmeq	f0, 4, [r3], #-0
    a5b4:	00044315 	andeq	r4, r4, r5, lsl r3
    a5b8:	5e490400 	cdppl	4, 4, cr0, cr9, cr0, {0}
    a5bc:	02000000 	andeq	r0, r0, #0
    a5c0:	02151023 	andseq	r1, r5, #35	; 0x23
    a5c4:	0400000a 	streq	r0, [r0], #-10
    a5c8:	00005e4a 	andeq	r5, r0, sl, asr #28
    a5cc:	14230200 	strtne	r0, [r3], #-512	; 0x200
    a5d0:	0003a515 	andeq	sl, r3, r5, lsl r5
    a5d4:	5e4b0400 	cdppl	4, 4, cr0, cr11, cr0, {0}
    a5d8:	02000000 	andeq	r0, r0, #0
    a5dc:	69151823 	ldmdbvs	r5, {r0, r1, r5, fp, ip}
    a5e0:	0400000d 	streq	r0, [r0], #-13
    a5e4:	00005e4c 	andeq	r5, r0, ip, asr #28
    a5e8:	1c230200 	sfmne	f0, 4, [r3], #-0
    a5ec:	00058215 	andeq	r8, r5, r5, lsl r2
    a5f0:	5e4d0400 	cdppl	4, 4, cr0, cr13, cr0, {0}
    a5f4:	02000000 	andeq	r0, r0, #0
    a5f8:	a5152023 	ldrge	r2, [r5, #-35]	; 0x23
    a5fc:	04000009 	streq	r0, [r0], #-9
    a600:	00005e4e 	andeq	r5, r0, lr, asr #28
    a604:	24230200 	strtcs	r0, [r3], #-512	; 0x200
    a608:	0003c015 	andeq	ip, r3, r5, lsl r0
    a60c:	5e4f0400 	cdppl	4, 4, cr0, cr15, cr0, {0}
    a610:	02000000 	andeq	r0, r0, #0
    a614:	9a152823 	bls	5546a8 <__bss_end+0x54155c>
    a618:	04000004 	streq	r0, [r0], #-4
    a61c:	00005e50 	andeq	r5, r0, r0, asr lr
    a620:	2c230200 	sfmcs	f0, 4, [r3], #-0
    a624:	000d5a15 	andeq	r5, sp, r5, lsl sl
    a628:	5e510400 	cdppl	4, 5, cr0, cr1, cr0, {0}
    a62c:	02000000 	andeq	r0, r0, #0
    a630:	14003023 	strne	r3, [r0], #-35	; 0x23
    a634:	00000436 	andeq	r0, r0, r6, lsr r4
    a638:	a2540408 	subsge	r0, r4, #134217728	; 0x8000000
    a63c:	1500002b 	strne	r0, [r0, #-43]	; 0x2b
    a640:	00000558 	andeq	r0, r0, r8, asr r5
    a644:	002c5504 	eoreq	r5, ip, r4, lsl #10
    a648:	23020000 	movwcs	r0, #8192	; 0x2000
    a64c:	05371500 	ldreq	r1, [r7, #-1280]!	; 0x500
    a650:	56040000 	strpl	r0, [r4], -r0
    a654:	0000002c 	andeq	r0, r0, ip, lsr #32
    a658:	15012302 	strne	r2, [r1, #-770]	; 0x302
    a65c:	00000550 	andeq	r0, r0, r0, asr r5
    a660:	002c5704 	eoreq	r5, ip, r4, lsl #14
    a664:	23020000 	movwcs	r0, #8192	; 0x2000
    a668:	05601502 	strbeq	r1, [r0, #-1282]!	; 0x502
    a66c:	58040000 	stmdapl	r4, {}	; <UNPREDICTABLE>
    a670:	0000002c 	andeq	r0, r0, ip, lsr #32
    a674:	16032302 	strne	r2, [r3], -r2, lsl #6
    a678:	006c6c50 	rsbeq	r6, ip, r0, asr ip
    a67c:	005e5904 	subseq	r5, lr, r4, lsl #18
    a680:	23020000 	movwcs	r0, #8192	; 0x2000
    a684:	d2170004 	andsle	r0, r7, #4
    a688:	44000020 	strmi	r0, [r0], #-32
    a68c:	ea5c0403 	b	170b6a0 <__bss_end+0x16f8554>
    a690:	1500002b 	strne	r0, [r0, #-43]	; 0x2b
    a694:	00001e7d 	andeq	r1, r0, sp, ror lr
    a698:	2a655d04 	bcs	1961ab0 <__bss_end+0x194e964>
    a69c:	23020000 	movwcs	r0, #8192	; 0x2000
    a6a0:	1fc11500 	svcne	0x00c11500
    a6a4:	5e040000 	cdppl	0, 0, cr0, cr4, cr0, {0}
    a6a8:	000025e5 	andeq	r2, r0, r5, ror #11
    a6ac:	15042302 	strne	r2, [r4, #-770]	; 0x302
    a6b0:	000020e7 	andeq	r2, r0, r7, ror #1
    a6b4:	2a6b5f04 	bcs	1ae22cc <__bss_end+0x1acf180>
    a6b8:	23030000 	movwcs	r0, #12288	; 0x3000
    a6bc:	fd150388 	ldc2	3, cr0, [r5, #-544]	; 0xfffffde0
    a6c0:	0400001e 	streq	r0, [r0], #-30
    a6c4:	002a5960 	eoreq	r5, sl, r0, ror #18
    a6c8:	8c230300 	stchi	3, cr0, [r3], #-0
    a6cc:	04020003 	streq	r0, [r2], #-3
    a6d0:	00007307 	andeq	r7, r0, r7, lsl #6
    a6d4:	dd011800 	stcle	8, cr1, [r1, #-0]
    a6d8:	0100001d 	tsteq	r0, sp, lsl r0
    a6dc:	2a650115 	bcs	194ab38 <__bss_end+0x19379ec>
    a6e0:	24000000 	strcs	r0, [r0], #-0
    a6e4:	242c0001 	strtcs	r0, [ip], #-1
    a6e8:	7d020001 	stcvc	0, cr0, [r2, #-4]
    a6ec:	002c1d00 	eoreq	r1, ip, r0, lsl #26
    a6f0:	16aa1900 	strtne	r1, [sl], r0, lsl #18
    a6f4:	15010000 	strne	r0, [r1, #-0]
    a6f8:	0000005e 	andeq	r0, r0, lr, asr r0
    a6fc:	0000183c 	andeq	r1, r0, ip, lsr r8
    a700:	71011a00 	tstvc	r1, r0, lsl #20
    a704:	0100001f 	tsteq	r0, pc, lsl r0
    a708:	2a65012e 	bcs	194abc8 <__bss_end+0x1937a7c>
    a70c:	242c0000 	strtcs	r0, [ip], #-0
    a710:	243c0001 	ldrtcs	r0, [ip], #-1
    a714:	7d020001 	stcvc	0, cr0, [r2, #-4]
    a718:	a5011b00 	strge	r1, [r1, #-2816]	; 0xb00
    a71c:	0100001f 	tsteq	r0, pc, lsl r0
    a720:	4c010201 	sfmmi	f0, 4, [r1], {1}
    a724:	3c000000 	stccc	0, cr0, [r0], {-0}
    a728:	d4000124 	strle	r0, [r0], #-292	; 0x124
    a72c:	02000125 	andeq	r0, r0, #1073741833	; 0x40000009
    a730:	2c63007d 	stclcs	0, cr0, [r3], #-500	; 0xfffffe0c
    a734:	7d1c0000 	ldcvc	0, cr0, [ip, #-0]
    a738:	0100001e 	tsteq	r0, lr, lsl r0
    a73c:	2c630201 	sfmcs	f0, 2, [r3], #-4
    a740:	184f0000 	stmdane	pc, {}^	; <UNPREDICTABLE>
    a744:	13000000 	movwne	r0, #0
    a748:	002ba204 	eoreq	sl, fp, r4, lsl #4
    a74c:	20561d00 	subscs	r1, r6, r0, lsl #26
    a750:	ad010000 	stcge	0, cr0, [r1, #-0]
    a754:	004c0101 	subeq	r0, ip, r1, lsl #2
    a758:	a0010000 	andge	r0, r1, r0
    a75c:	1e00002c 	cdpne	0, 0, cr0, cr0, cr12, {1}
    a760:	00001e91 	muleq	r0, r1, lr
    a764:	5e01af01 	cdppl	15, 0, cr10, cr1, cr1, {0}
    a768:	1e000000 	cdpne	0, 0, cr0, cr0, cr0, {0}
    a76c:	00002119 	andeq	r2, r0, r9, lsl r1
    a770:	5e01b001 	cdppl	0, 0, cr11, cr1, cr1, {0}
    a774:	1e000000 	cdpne	0, 0, cr0, cr0, cr0, {0}
    a778:	00002110 	andeq	r2, r0, r0, lsl r1
    a77c:	5e01b101 	mvfpls	f3, f1
    a780:	00000000 	andeq	r0, r0, r0
    a784:	20a1011f 	adccs	r0, r1, pc, lsl r1
    a788:	58010000 	stmdapl	r1, {}	; <UNPREDICTABLE>
    a78c:	004c0102 	subeq	r0, ip, r2, lsl #2
    a790:	25d40000 	ldrbcs	r0, [r4]
    a794:	2a0c0001 	bcs	30a7a0 <__bss_end+0x2f7654>
    a798:	186d0001 	stmdane	sp!, {r0}^
    a79c:	2d050000 	stccs	0, cr0, [r5, #-0]
    a7a0:	7d1c0000 	ldcvc	0, cr0, [ip, #-0]
    a7a4:	0100001e 	tsteq	r0, lr, lsl r0
    a7a8:	2c630258 	sfmcs	f0, 2, [r3], #-352	; 0xfffffea0
    a7ac:	188d0000 	stmne	sp, {}	; <UNPREDICTABLE>
    a7b0:	69200000 	stmdbvs	r0!, {}	; <UNPREDICTABLE>
    a7b4:	0c00002c 	stceq	0, cr0, [r0], {44}	; 0x2c
    a7b8:	fc000129 	stc2	1, cr0, [r0], {41}	; 0x29
    a7bc:	01000129 	tsteq	r0, r9, lsr #2
    a7c0:	0c2102c1 	sfmeq	f0, 4, [r1], #-772	; 0xfffffcfc
    a7c4:	fc000129 	stc2	1, cr0, [r0], {41}	; 0x29
    a7c8:	22000129 	andcs	r0, r0, #1073741834	; 0x4000000a
    a7cc:	00002c7b 	andeq	r2, r0, fp, ror ip
    a7d0:	000018ab 	andeq	r1, r0, fp, lsr #17
    a7d4:	002c8722 	eoreq	r8, ip, r2, lsr #14
    a7d8:	0018f600 	andseq	pc, r8, r0, lsl #12
    a7dc:	2c932200 	lfmcs	f2, 4, [r3], {0}
    a7e0:	19150000 	ldmdbne	r5, {}	; <UNPREDICTABLE>
    a7e4:	00000000 	andeq	r0, r0, r0
    a7e8:	10011b00 	andne	r1, r1, r0, lsl #22
    a7ec:	0100001f 	tsteq	r0, pc, lsl r0
    a7f0:	4c0102d2 	sfmmi	f0, 4, [r1], {210}	; 0xd2
    a7f4:	0c000000 	stceq	0, cr0, [r0], {-0}
    a7f8:	3400012a 	strcc	r0, [r0], #-298	; 0x12a
    a7fc:	0200012a 	andeq	r0, r0, #-2147483638	; 0x8000000a
    a800:	2d33007d 	ldccs	0, cr0, [r3, #-500]!	; 0xfffffe0c
    a804:	731c0000 	tstvc	ip, #0
    a808:	01000003 	tsteq	r0, r3
    a80c:	2d3302d2 	lfmcs	f0, 4, [r3, #-840]!	; 0xfffffcb8
    a810:	19340000 	ldmdbne	r4!, {}	; <UNPREDICTABLE>
    a814:	13000000 	movwne	r0, #0
    a818:	002a7104 	eoreq	r7, sl, r4, lsl #2
    a81c:	42011b00 	andmi	r1, r1, #0
    a820:	0100001f 	tsteq	r0, pc, lsl r0
    a824:	4c0102eb 	sfmmi	f0, 4, [r1], {235}	; 0xeb
    a828:	34000000 	strcc	r0, [r0], #-0
    a82c:	5c00012a 	stfpls	f0, [r0], {42}	; 0x2a
    a830:	0200012a 	andeq	r0, r0, #-2147483638	; 0x8000000a
    a834:	2d67007d 	stclcs	0, cr0, [r7, #-500]!	; 0xfffffe0c
    a838:	731c0000 	tstvc	ip, #0
    a83c:	01000003 	tsteq	r0, r3
    a840:	2d3302eb 	lfmcs	f0, 4, [r3, #-940]!	; 0xfffffc54
    a844:	19470000 	stmdbne	r7, {}^	; <UNPREDICTABLE>
    a848:	1f000000 	svcne	0x00000000
    a84c:	001e4f01 	andseq	r4, lr, r1, lsl #30
    a850:	03040100 	movweq	r0, #16640	; 0x4100
    a854:	00004c01 	andeq	r4, r0, r1, lsl #24
    a858:	012a5c00 	teqeq	sl, r0, lsl #24
    a85c:	012aac00 	teqeq	sl, r0, lsl #24
    a860:	00196500 	andseq	r6, r9, r0, lsl #10
    a864:	002d9600 	eoreq	r9, sp, r0, lsl #12
    a868:	1e721c00 	cdpne	12, 7, cr1, cr2, cr0, {0}
    a86c:	04010000 	streq	r0, [r1], #-0
    a870:	002d9603 	eoreq	r9, sp, r3, lsl #12
    a874:	00198500 	andseq	r8, r9, r0, lsl #10
    a878:	04130000 	ldreq	r0, [r3], #-0
    a87c:	00002b4f 	andeq	r2, r0, pc, asr #22
    a880:	1e66011f 	mcrne	1, 3, r0, cr6, cr15, {0}
    a884:	1d010000 	stcne	0, cr0, [r1, #-0]
    a888:	004c0103 	subeq	r0, ip, r3, lsl #2
    a88c:	2aac0000 	bcs	feb0a894 <__bss_end+0xfeaf7748>
    a890:	2af00001 	bcs	ffc0a89c <__bss_end+0xffbf7750>
    a894:	19a30001 	stmibne	r3!, {r0}
    a898:	2dcb0000 	stclcs	0, cr0, [fp]
    a89c:	721c0000 	andsvc	r0, ip, #0
    a8a0:	0100001e 	tsteq	r0, lr, lsl r0
    a8a4:	2d96031d 	ldccs	3, cr0, [r6, #116]	; 0x74
    a8a8:	19c30000 	stmibne	r3, {}^	; <UNPREDICTABLE>
    a8ac:	1b000000 	blne	a8b4 <__resume1_start+0xa8b4>
    a8b0:	001dea01 	andseq	lr, sp, r1, lsl #20
    a8b4:	03330100 	teqeq	r3, #0
    a8b8:	00004c01 	andeq	r4, r0, r1, lsl #24
    a8bc:	012af000 	msreq	CPSR_fx, r0
    a8c0:	012b8800 	teqeq	fp, r0, lsl #16
    a8c4:	007d0200 	rsbseq	r0, sp, r0, lsl #4
    a8c8:	00002df9 	strdeq	r2, [r0], -r9
    a8cc:	00085d1c 	andeq	r5, r8, ip, lsl sp
    a8d0:	03330100 	teqeq	r3, #0
    a8d4:	00002df9 	strdeq	r2, [r0], -r9
    a8d8:	000019e1 	andeq	r1, r0, r1, ror #19
    a8dc:	8c041300 	stchi	3, cr1, [r4], {-0}
    a8e0:	1b00002a 	blne	a990 <__resume1_start+0xa990>
    a8e4:	001ebc01 	andseq	fp, lr, r1, lsl #24
    a8e8:	035f0100 	cmpeq	pc, #0
    a8ec:	00004c01 	andeq	r4, r0, r1, lsl #24
    a8f0:	012b8800 	teqeq	fp, r0, lsl #16
    a8f4:	012c0c00 	teqeq	ip, r0, lsl #24
    a8f8:	007d0200 	rsbseq	r0, sp, r0, lsl #4
    a8fc:	00002e2d 	andeq	r2, r0, sp, lsr #28
    a900:	00085d1c 	andeq	r5, r8, ip, lsl sp
    a904:	035f0100 	cmpeq	pc, #0
    a908:	00002df9 	strdeq	r2, [r0], -r9
    a90c:	000019ff 	strdeq	r1, [r0], -pc	; <UNPREDICTABLE>
    a910:	10011f00 	andne	r1, r1, r0, lsl #30
    a914:	0100001e 	tsteq	r0, lr, lsl r0
    a918:	5e01037e 	mcrpl	3, 0, r0, cr1, cr14, {3}
    a91c:	0c000000 	stceq	0, cr0, [r0], {-0}
    a920:	6800012c 	stmdavs	r0, {r2, r3, r5, r8}
    a924:	1d00012c 	stfnes	f0, [r0, #-176]	; 0xffffff50
    a928:	a900001a 	stmdbge	r0, {r1, r3, r4}
    a92c:	2300002e 	movwcs	r0, #46	; 0x2e
    a930:	00000558 	andeq	r0, r0, r8, asr r5
    a934:	5e038001 	cdppl	0, 0, cr8, cr3, cr1, {0}
    a938:	3d000000 	stccc	0, cr0, [r0, #-0]
    a93c:	2400001a 	strcs	r0, [r0], #-26
    a940:	00000537 	andeq	r0, r0, r7, lsr r5
    a944:	5e038101 	mvfpls	f0, f1
    a948:	01000000 	mrseq	r0, (UNDEF: 0)
    a94c:	00055023 	andeq	r5, r5, r3, lsr #32
    a950:	03820100 	orreq	r0, r2, #0
    a954:	0000005e 	andeq	r0, r0, lr, asr r0
    a958:	00001a5c 	andeq	r1, r0, ip, asr sl
    a95c:	00056023 	andeq	r6, r5, r3, lsr #32
    a960:	03830100 	orreq	r0, r3, #0
    a964:	0000005e 	andeq	r0, r0, lr, asr r0
    a968:	00001a7d 	andeq	r1, r0, sp, ror sl
    a96c:	001e9123 	andseq	r9, lr, r3, lsr #2
    a970:	03840100 	orreq	r0, r4, #0
    a974:	0000005e 	andeq	r0, r0, lr, asr r0
    a978:	00001a9c 	muleq	r0, ip, sl
    a97c:	001e1c23 	andseq	r1, lr, r3, lsr #24
    a980:	03850100 	orreq	r0, r5, #0
    a984:	0000005e 	andeq	r0, r0, lr, asr r0
    a988:	00001ac6 	andeq	r1, r0, r6, asr #21
    a98c:	0d432500 	cfstr64eq	mvdx2, [r3, #-0]
    a990:	04010000 	streq	r0, [r1], #-0
    a994:	00002a65 	andeq	r2, r0, r5, ror #20
    a998:	2f700305 	svccs	0x00700305
    a99c:	85260001 	strhi	r0, [r6, #-1]!
    a9a0:	0100001f 	tsteq	r0, pc, lsl r0
    a9a4:	0b5e0192 	bleq	178aff4 <__bss_end+0x1777ea8>
    a9a8:	03050000 	movweq	r0, #20480	; 0x5000
    a9ac:	00012f78 	andeq	r2, r1, r8, ror pc
    a9b0:	00212226 	eoreq	r2, r1, r6, lsr #4
    a9b4:	01930100 	orrseq	r0, r3, r0, lsl #2
    a9b8:	0000012e 	andeq	r0, r0, lr, lsr #2
    a9bc:	2f740305 	svccs	0x00740305
    a9c0:	d9260001 	stmdble	r6!, {r0}
    a9c4:	0100001f 	tsteq	r0, pc, lsl r0
    a9c8:	0ade0194 	beq	ff78b020 <__bss_end+0xff777ed4>
    a9cc:	03050000 	movweq	r0, #20480	; 0x5000
    a9d0:	00012f7c 	andeq	r2, r1, ip, ror pc
	...

Disassembly of section .debug_abbrev:

00000000 <.debug_abbrev>:
       0:	25011101 	strcs	r1, [r1, #-257]	; 0x101
       4:	030b130e 	movweq	r1, #45838	; 0xb30e
       8:	110e1b0e 	tstne	lr, lr, lsl #22
       c:	10011201 	andne	r1, r1, r1, lsl #4
      10:	02000006 	andeq	r0, r0, #6
      14:	0b0b0024 	bleq	2c00ac <__bss_end+0x2acf60>
      18:	0e030b3e 	vmoveq.16	d3[0], r0
      1c:	24030000 	strcs	r0, [r3], #-0
      20:	3e0b0b00 	vmlacc.f64	d0, d11, d0
      24:	0008030b 	andeq	r0, r8, fp, lsl #6
      28:	01130400 	tsteq	r3, r0, lsl #8
      2c:	0b0b0e03 	bleq	2c3840 <__bss_end+0x2b06f4>
      30:	0b3b0b3a 	bleq	ec2d20 <__bss_end+0xeafbd4>
      34:	00001301 	andeq	r1, r0, r1, lsl #6
      38:	03000d05 	movweq	r0, #3333	; 0xd05
      3c:	3b0b3a0e 	blcc	2ce87c <__bss_end+0x2bb730>
      40:	3813490b 	ldmdacc	r3, {r0, r1, r3, r8, fp, lr}
      44:	0600000a 	streq	r0, [r0], -sl
      48:	13490101 	movtne	r0, #37121	; 0x9101
      4c:	00001301 	andeq	r1, r0, r1, lsl #6
      50:	49002107 	stmdbmi	r0, {r0, r1, r2, r8, sp}
      54:	000b2f13 	andeq	r2, fp, r3, lsl pc
      58:	00160800 	andseq	r0, r6, r0, lsl #16
      5c:	0b3a0e03 	bleq	e83870 <__bss_end+0xe70724>
      60:	13490b3b 	movtne	r0, #39739	; 0x9b3b
      64:	34090000 	strcc	r0, [r9], #-0
      68:	3a0e0300 	bcc	380c70 <__bss_end+0x36db24>
      6c:	490b3b0b 	stmdbmi	fp, {r0, r1, r3, r8, r9, fp, ip, sp}
      70:	020c3f13 	andeq	r3, ip, #76	; 0x4c
      74:	0a00000a 	beq	a4 <__resume1_start+0xa4>
      78:	13490026 	movtne	r0, #36902	; 0x9026
      7c:	01000000 	mrseq	r0, (UNDEF: 0)
      80:	06100011 			; <UNDEFINED> instruction: 0x06100011
      84:	01120111 	tsteq	r2, r1, lsl r1
      88:	081b0803 	ldmdaeq	fp, {r0, r1, fp}
      8c:	05130825 	ldreq	r0, [r3, #-2085]	; 0x825
      90:	01000000 	mrseq	r0, (UNDEF: 0)
      94:	0e250111 	mcreq	1, 1, r0, cr5, cr1, {0}
      98:	0e030b13 	vmoveq.32	d3[0], r0
      9c:	01110e1b 	tsteq	r1, fp, lsl lr
      a0:	06100112 			; <UNDEFINED> instruction: 0x06100112
      a4:	24020000 	strcs	r0, [r2], #-0
      a8:	3e0b0b00 	vmlacc.f64	d0, d11, d0
      ac:	000e030b 	andeq	r0, lr, fp, lsl #6
      b0:	00240300 	eoreq	r0, r4, r0, lsl #6
      b4:	0b3e0b0b 	bleq	f82ce8 <__bss_end+0xf6fb9c>
      b8:	00000803 	andeq	r0, r0, r3, lsl #16
      bc:	0b000f04 	bleq	3cd4 <__resume1_start+0x3cd4>
      c0:	0013490b 	andseq	r4, r3, fp, lsl #18
      c4:	000f0500 	andeq	r0, pc, r0, lsl #10
      c8:	00000b0b 	andeq	r0, r0, fp, lsl #22
      cc:	3f012e06 	svccc	0x00012e06
      d0:	3a0e030c 	bcc	380d08 <__bss_end+0x36dbbc>
      d4:	270b3b0b 	strcs	r3, [fp, -fp, lsl #22]
      d8:	1201110c 	andne	r1, r1, #3
      dc:	000a4001 	andeq	r4, sl, r1
      e0:	00050700 	andeq	r0, r5, r0, lsl #14
      e4:	0b3a0e03 	bleq	e838f8 <__bss_end+0xe707ac>
      e8:	13490b3b 	movtne	r0, #39739	; 0x9b3b
      ec:	00000602 	andeq	r0, r0, r2, lsl #12
      f0:	03000508 	movweq	r0, #1288	; 0x508
      f4:	3b0b3a08 	blcc	2ce91c <__bss_end+0x2bb7d0>
      f8:	0213490b 	andseq	r4, r3, #180224	; 0x2c000
      fc:	09000006 	stmdbeq	r0, {r1, r2}
     100:	0e030034 	mcreq	0, 0, r0, cr3, cr4, {1}
     104:	0b3b0b3a 	bleq	ec2df4 <__bss_end+0xeafca8>
     108:	06021349 	streq	r1, [r2], -r9, asr #6
     10c:	340a0000 	strcc	r0, [sl], #-0
     110:	3a0e0300 	bcc	380d18 <__bss_end+0x36dbcc>
     114:	490b3b0b 	stmdbmi	fp, {r0, r1, r3, r8, r9, fp, ip, sp}
     118:	000a0213 	andeq	r0, sl, r3, lsl r2
     11c:	11010000 	mrsne	r0, (UNDEF: 1)
     120:	130e2501 	movwne	r2, #58625	; 0xe501
     124:	1b0e030b 	blne	380d58 <__bss_end+0x36dc0c>
     128:	1201110e 	andne	r1, r1, #-2147483645	; 0x80000003
     12c:	00061001 	andeq	r1, r6, r1
     130:	00240200 	eoreq	r0, r4, r0, lsl #4
     134:	0b3e0b0b 	bleq	f82d68 <__bss_end+0xf6fc1c>
     138:	00000e03 	andeq	r0, r0, r3, lsl #28
     13c:	0b002403 	bleq	9150 <__resume1_start+0x9150>
     140:	030b3e0b 	movweq	r3, #48651	; 0xbe0b
     144:	00000008 	andeq	r0, r0, r8
     148:	10001101 	andne	r1, r0, r1, lsl #2
     14c:	12011106 	andne	r1, r1, #-2147483647	; 0x80000001
     150:	1b080301 	blne	200d5c <__bss_end+0x1edc10>
     154:	13082508 	movwne	r2, #34056	; 0x8508
     158:	00000005 	andeq	r0, r0, r5
     15c:	25011101 	strcs	r1, [r1, #-257]	; 0x101
     160:	030b130e 	movweq	r1, #45838	; 0xb30e
     164:	110e1b0e 	tstne	lr, lr, lsl #22
     168:	10011201 	andne	r1, r1, r1, lsl #4
     16c:	02000006 	andeq	r0, r0, #6
     170:	0b0b0024 	bleq	2c0208 <__bss_end+0x2ad0bc>
     174:	0e030b3e 	vmoveq.16	d3[0], r0
     178:	24030000 	strcs	r0, [r3], #-0
     17c:	3e0b0b00 	vmlacc.f64	d0, d11, d0
     180:	0008030b 	andeq	r0, r8, fp, lsl #6
     184:	11010000 	mrsne	r0, (UNDEF: 1)
     188:	130e2501 	movwne	r2, #58625	; 0xe501
     18c:	1b0e030b 	blne	380dc0 <__bss_end+0x36dc74>
     190:	1201110e 	andne	r1, r1, #-2147483645	; 0x80000003
     194:	00061001 	andeq	r1, r6, r1
     198:	00240200 	eoreq	r0, r4, r0, lsl #4
     19c:	0b3e0b0b 	bleq	f82dd0 <__bss_end+0xf6fc84>
     1a0:	00000e03 	andeq	r0, r0, r3, lsl #28
     1a4:	0b002403 	bleq	91b8 <__resume1_start+0x91b8>
     1a8:	030b3e0b 	movweq	r3, #48651	; 0xbe0b
     1ac:	00000008 	andeq	r0, r0, r8
     1b0:	25011101 	strcs	r1, [r1, #-257]	; 0x101
     1b4:	030b130e 	movweq	r1, #45838	; 0xb30e
     1b8:	110e1b0e 	tstne	lr, lr, lsl #22
     1bc:	10011201 	andne	r1, r1, r1, lsl #4
     1c0:	02000006 	andeq	r0, r0, #6
     1c4:	0b0b0024 	bleq	2c025c <__bss_end+0x2ad110>
     1c8:	0e030b3e 	vmoveq.16	d3[0], r0
     1cc:	24030000 	strcs	r0, [r3], #-0
     1d0:	3e0b0b00 	vmlacc.f64	d0, d11, d0
     1d4:	0008030b 	andeq	r0, r8, fp, lsl #6
     1d8:	11010000 	mrsne	r0, (UNDEF: 1)
     1dc:	130e2501 	movwne	r2, #58625	; 0xe501
     1e0:	1b0e030b 	blne	380e14 <__bss_end+0x36dcc8>
     1e4:	1201110e 	andne	r1, r1, #-2147483645	; 0x80000003
     1e8:	00061001 	andeq	r1, r6, r1
     1ec:	00240200 	eoreq	r0, r4, r0, lsl #4
     1f0:	0b3e0b0b 	bleq	f82e24 <__bss_end+0xf6fcd8>
     1f4:	00000e03 	andeq	r0, r0, r3, lsl #28
     1f8:	03001603 	movweq	r1, #1539	; 0x603
     1fc:	3b0b3a0e 	blcc	2cea3c <__bss_end+0x2bb8f0>
     200:	0013490b 	andseq	r4, r3, fp, lsl #18
     204:	00240400 	eoreq	r0, r4, r0, lsl #8
     208:	0b3e0b0b 	bleq	f82e3c <__bss_end+0xf6fcf0>
     20c:	00000803 	andeq	r0, r0, r3, lsl #16
     210:	0b011305 	bleq	44e2c <__bss_end+0x31ce0>
     214:	3b0b3a0b 	blcc	2cea48 <__bss_end+0x2bb8fc>
     218:	0013010b 	andseq	r0, r3, fp, lsl #2
     21c:	000d0600 	andeq	r0, sp, r0, lsl #12
     220:	0b3a0e03 	bleq	e83a34 <__bss_end+0xe708e8>
     224:	13490b3b 	movtne	r0, #39739	; 0x9b3b
     228:	0b0d0b0b 	bleq	342e5c <__bss_end+0x32fd10>
     22c:	0a380b0c 	beq	e02e64 <__bss_end+0xdefd18>
     230:	17070000 	strne	r0, [r7, -r0]
     234:	3a0b0b01 	bcc	2c2e40 <__bss_end+0x2afcf4>
     238:	010b3b0b 	tsteq	fp, fp, lsl #22
     23c:	08000013 	stmdaeq	r0, {r0, r1, r4}
     240:	0e03000d 	cdpeq	0, 0, cr0, cr3, cr13, {0}
     244:	0b3b0b3a 	bleq	ec2f34 <__bss_end+0xeafde8>
     248:	00001349 	andeq	r1, r0, r9, asr #6
     24c:	03000d09 	movweq	r0, #3337	; 0xd09
     250:	3b0b3a0e 	blcc	2cea90 <__bss_end+0x2bb944>
     254:	0b134905 	bleq	4d2670 <__bss_end+0x4bf524>
     258:	0c0b0d0b 	stceq	13, cr0, [fp], {11}
     25c:	000a380b 	andeq	r3, sl, fp, lsl #16
     260:	000d0a00 	andeq	r0, sp, r0, lsl #20
     264:	0b3a0e03 	bleq	e83a78 <__bss_end+0xe7092c>
     268:	1349053b 	movtne	r0, #38203	; 0x953b
     26c:	160b0000 	strne	r0, [fp], -r0
     270:	3a0e0300 	bcc	380e78 <__bss_end+0x36dd2c>
     274:	49053b0b 	stmdbmi	r5, {r0, r1, r3, r8, r9, fp, ip, sp}
     278:	0c000013 	stceq	0, cr0, [r0], {19}
     27c:	0b0b0113 	bleq	2c06d0 <__bss_end+0x2ad584>
     280:	053b0b3a 	ldreq	r0, [fp, #-2874]!	; 0xb3a
     284:	00001301 	andeq	r1, r0, r1, lsl #6
     288:	0b01170d 	bleq	45ec4 <__bss_end+0x32d78>
     28c:	3b0b3a0b 	blcc	2ceac0 <__bss_end+0x2bb974>
     290:	00130105 	andseq	r0, r3, r5, lsl #2
     294:	01130e00 	tsteq	r3, r0, lsl #28
     298:	050b0e03 	streq	r0, [fp, #-3587]	; 0xe03
     29c:	053b0b3a 	ldreq	r0, [fp, #-2874]!	; 0xb3a
     2a0:	00001301 	andeq	r1, r0, r1, lsl #6
     2a4:	03000d0f 	movweq	r0, #3343	; 0xd0f
     2a8:	3b0b3a0e 	blcc	2ceae8 <__bss_end+0x2bb99c>
     2ac:	38134905 	ldmdacc	r3, {r0, r2, r8, fp, lr}
     2b0:	1000000a 	andne	r0, r0, sl
     2b4:	13490035 	movtne	r0, #36917	; 0x9035
     2b8:	01110000 	tsteq	r1, r0
     2bc:	01134901 	tsteq	r3, r1, lsl #18
     2c0:	12000013 	andne	r0, r0, #19
     2c4:	13490021 	movtne	r0, #36897	; 0x9021
     2c8:	00000b2f 	andeq	r0, r0, pc, lsr #22
     2cc:	0b000f13 	bleq	3f20 <__resume1_start+0x3f20>
     2d0:	0013490b 	andseq	r4, r3, fp, lsl #18
     2d4:	01131400 	tsteq	r3, r0, lsl #8
     2d8:	0b0b0e03 	bleq	2c3aec <__bss_end+0x2b09a0>
     2dc:	0b3b0b3a 	bleq	ec2fcc <__bss_end+0xeafe80>
     2e0:	00001301 	andeq	r1, r0, r1, lsl #6
     2e4:	03000d15 	movweq	r0, #3349	; 0xd15
     2e8:	3b0b3a0e 	blcc	2ceb28 <__bss_end+0x2bb9dc>
     2ec:	3813490b 	ldmdacc	r3, {r0, r1, r3, r8, fp, lr}
     2f0:	1600000a 	strne	r0, [r0], -sl
     2f4:	0803000d 	stmdaeq	r3, {r0, r2, r3}
     2f8:	0b3b0b3a 	bleq	ec2fe8 <__bss_end+0xeafe9c>
     2fc:	0a381349 	beq	e05028 <__bss_end+0xdf1edc>
     300:	04170000 	ldreq	r0, [r7], #-0
     304:	3a0b0b01 	bcc	2c2f10 <__bss_end+0x2afdc4>
     308:	010b3b0b 	tsteq	fp, fp, lsl #22
     30c:	18000013 	stmdane	r0, {r0, r1, r4}
     310:	0e030028 	cdpeq	0, 0, cr0, cr3, cr8, {1}
     314:	00000d1c 	andeq	r0, r0, ip, lsl sp
     318:	0b000f19 	bleq	3f84 <__resume1_start+0x3f84>
     31c:	1a00000b 	bne	350 <__resume1_start+0x350>
     320:	0c3f002e 	ldceq	0, cr0, [pc], #-184	; 270 <__resume1_start+0x270>
     324:	0b3a0e03 	bleq	e83b38 <__bss_end+0xe709ec>
     328:	0c270b3b 	stceq	11, cr0, [r7], #-236	; 0xffffff14
     32c:	01111349 	tsteq	r1, r9, asr #6
     330:	06400112 			; <UNDEFINED> instruction: 0x06400112
     334:	2e1b0000 	cdpcs	0, 1, cr0, cr11, cr0, {0}
     338:	030c3f01 	movweq	r3, #52993	; 0xcf01
     33c:	3b0b3a0e 	blcc	2ceb7c <__bss_end+0x2bba30>
     340:	110c270b 	tstne	ip, fp, lsl #14
     344:	40011201 	andmi	r1, r1, r1, lsl #4
     348:	00130106 	andseq	r0, r3, r6, lsl #2
     34c:	00341c00 	eorseq	r1, r4, r0, lsl #24
     350:	0b3a0e03 	bleq	e83b64 <__bss_end+0xe70a18>
     354:	13490b3b 	movtne	r0, #39739	; 0x9b3b
     358:	00000602 	andeq	r0, r0, r2, lsl #12
     35c:	0300341d 	movweq	r3, #1053	; 0x41d
     360:	3b0b3a0e 	blcc	2ceba0 <__bss_end+0x2bba54>
     364:	1c13490b 	ldcne	9, cr4, [r3], {11}
     368:	1e00000b 	cdpne	0, 0, cr0, cr0, cr11, {0}
     36c:	0e030034 	mcreq	0, 0, r0, cr3, cr4, {1}
     370:	0b3b0b3a 	bleq	ec3060 <__bss_end+0xeaff14>
     374:	00001349 	andeq	r1, r0, r9, asr #6
     378:	0300341f 	movweq	r3, #1055	; 0x41f
     37c:	3b0b3a0e 	blcc	2cebbc <__bss_end+0x2bba70>
     380:	0213490b 	andseq	r4, r3, #180224	; 0x2c000
     384:	2000000a 	andcs	r0, r0, sl
     388:	0e030034 	mcreq	0, 0, r0, cr3, cr4, {1}
     38c:	0b3b0b3a 	bleq	ec307c <__bss_end+0xeaff30>
     390:	0c3f1349 	ldceq	3, cr1, [pc], #-292	; 274 <__resume1_start+0x274>
     394:	00000a02 	andeq	r0, r0, r2, lsl #20
     398:	03003421 	movweq	r3, #1057	; 0x421
     39c:	3b0b3a0e 	blcc	2cebdc <__bss_end+0x2bba90>
     3a0:	3f13490b 	svccc	0x0013490b
     3a4:	000c3c0c 	andeq	r3, ip, ip, lsl #24
     3a8:	11010000 	mrsne	r0, (UNDEF: 1)
     3ac:	130e2501 	movwne	r2, #58625	; 0xe501
     3b0:	1b0e030b 	blne	380fe4 <__bss_end+0x36de98>
     3b4:	1201110e 	andne	r1, r1, #-2147483645	; 0x80000003
     3b8:	00061001 	andeq	r1, r6, r1
     3bc:	00240200 	eoreq	r0, r4, r0, lsl #4
     3c0:	0b3e0b0b 	bleq	f82ff4 <__bss_end+0xf6fea8>
     3c4:	00000e03 	andeq	r0, r0, r3, lsl #28
     3c8:	0b002403 	bleq	93dc <__resume1_start+0x93dc>
     3cc:	030b3e0b 	movweq	r3, #48651	; 0xbe0b
     3d0:	04000008 	streq	r0, [r0], #-8
     3d4:	0e030016 	mcreq	0, 0, r0, cr3, cr6, {0}
     3d8:	0b3b0b3a 	bleq	ec30c8 <__bss_end+0xeaff7c>
     3dc:	00001349 	andeq	r1, r0, r9, asr #6
     3e0:	03011305 	movweq	r1, #4869	; 0x1305
     3e4:	3a0b0b0e 	bcc	2c3024 <__bss_end+0x2afed8>
     3e8:	010b3b0b 	tsteq	fp, fp, lsl #22
     3ec:	06000013 			; <UNDEFINED> instruction: 0x06000013
     3f0:	0e03000d 	cdpeq	0, 0, cr0, cr3, cr13, {0}
     3f4:	0b3b0b3a 	bleq	ec30e4 <__bss_end+0xeaff98>
     3f8:	0b0b1349 	bleq	2c5124 <__bss_end+0x2b1fd8>
     3fc:	0b0c0b0d 	bleq	303038 <__bss_end+0x2efeec>
     400:	00000a38 	andeq	r0, r0, r8, lsr sl
     404:	0b011707 	bleq	46028 <__bss_end+0x32edc>
     408:	3b0b3a0b 	blcc	2cec3c <__bss_end+0x2bbaf0>
     40c:	0013010b 	andseq	r0, r3, fp, lsl #2
     410:	000d0800 	andeq	r0, sp, r0, lsl #16
     414:	0b3a0e03 	bleq	e83c28 <__bss_end+0xe70adc>
     418:	13490b3b 	movtne	r0, #39739	; 0x9b3b
     41c:	35090000 	strcc	r0, [r9, #-0]
     420:	00134900 	andseq	r4, r3, r0, lsl #18
     424:	012e0a00 	teqeq	lr, r0, lsl #20
     428:	0e030c3f 	mcreq	12, 0, r0, cr3, cr15, {1}
     42c:	0b3b0b3a 	bleq	ec311c <__bss_end+0xeaffd0>
     430:	01110c27 	tsteq	r1, r7, lsr #24
     434:	06400112 			; <UNDEFINED> instruction: 0x06400112
     438:	00001301 	andeq	r1, r0, r1, lsl #6
     43c:	0300340b 	movweq	r3, #1035	; 0x40b
     440:	3b0b3a0e 	blcc	2cec80 <__bss_end+0x2bbb34>
     444:	0213490b 	andseq	r4, r3, #180224	; 0x2c000
     448:	0c00000a 	stceq	0, cr0, [r0], {10}
     44c:	0c3f002e 	ldceq	0, cr0, [pc], #-184	; 39c <__resume1_start+0x39c>
     450:	0b3a0e03 	bleq	e83c64 <__bss_end+0xe70b18>
     454:	0c270b3b 	stceq	11, cr0, [r7], #-236	; 0xffffff14
     458:	01120111 	tsteq	r2, r1, lsl r1
     45c:	00000a40 	andeq	r0, r0, r0, asr #20
     460:	0300340d 	movweq	r3, #1037	; 0x40d
     464:	3b0b3a08 	blcc	2cec8c <__bss_end+0x2bbb40>
     468:	0213490b 	andseq	r4, r3, #180224	; 0x2c000
     46c:	0e000006 	cdpeq	0, 0, cr0, cr0, cr6, {0}
     470:	08030005 	stmdaeq	r3, {r0, r2}
     474:	0b3b0b3a 	bleq	ec3164 <__bss_end+0xeb0018>
     478:	06021349 	streq	r1, [r2], -r9, asr #6
     47c:	2e0f0000 	cdpcs	0, 0, cr0, cr15, cr0, {0}
     480:	030c3f01 	movweq	r3, #52993	; 0xcf01
     484:	3b0b3a0e 	blcc	2cecc4 <__bss_end+0x2bbb78>
     488:	490c270b 	stmdbmi	ip, {r0, r1, r3, r8, r9, sl, sp}
     48c:	12011113 	andne	r1, r1, #-1073741820	; 0xc0000004
     490:	01064001 	tsteq	r6, r1
     494:	10000013 	andne	r0, r0, r3, lsl r0
     498:	0c3f012e 	ldfeqs	f0, [pc], #-184	; 3e8 <__resume1_start+0x3e8>
     49c:	0b3a0e03 	bleq	e83cb0 <__bss_end+0xe70b64>
     4a0:	0c270b3b 	stceq	11, cr0, [r7], #-236	; 0xffffff14
     4a4:	01120111 	tsteq	r2, r1, lsl r1
     4a8:	13010a40 	movwne	r0, #6720	; 0x1a40
     4ac:	2e110000 	cdpcs	0, 1, cr0, cr1, cr0, {0}
     4b0:	030c3f01 	movweq	r3, #52993	; 0xcf01
     4b4:	3b0b3a0e 	blcc	2cecf4 <__bss_end+0x2bbba8>
     4b8:	110c2705 	tstne	ip, r5, lsl #14
     4bc:	40011201 	andmi	r1, r1, r1, lsl #4
     4c0:	0013010a 	andseq	r0, r3, sl, lsl #2
     4c4:	00341200 	eorseq	r1, r4, r0, lsl #4
     4c8:	0b3a0e03 	bleq	e83cdc <__bss_end+0xe70b90>
     4cc:	1349053b 	movtne	r0, #38203	; 0x953b
     4d0:	00000a02 	andeq	r0, r0, r2, lsl #20
     4d4:	3f012e13 	svccc	0x00012e13
     4d8:	3a0e030c 	bcc	381110 <__bss_end+0x36dfc4>
     4dc:	27053b0b 	strcs	r3, [r5, -fp, lsl #22]
     4e0:	1201110c 	andne	r1, r1, #3
     4e4:	01064001 	tsteq	r6, r1
     4e8:	14000013 	strne	r0, [r0], #-19
     4ec:	08030005 	stmdaeq	r3, {r0, r2}
     4f0:	053b0b3a 	ldreq	r0, [fp, #-2874]!	; 0xb3a
     4f4:	06021349 	streq	r1, [r2], -r9, asr #6
     4f8:	34150000 	ldrcc	r0, [r5], #-0
     4fc:	3a0e0300 	bcc	381104 <__bss_end+0x36dfb8>
     500:	49053b0b 	stmdbmi	r5, {r0, r1, r3, r8, r9, fp, ip, sp}
     504:	00060213 	andeq	r0, r6, r3, lsl r2
     508:	000f1600 	andeq	r1, pc, r0, lsl #12
     50c:	13490b0b 	movtne	r0, #39691	; 0x9b0b
     510:	34170000 	ldrcc	r0, [r7], #-0
     514:	3a0e0300 	bcc	38111c <__bss_end+0x36dfd0>
     518:	490b3b0b 	stmdbmi	fp, {r0, r1, r3, r8, r9, fp, ip, sp}
     51c:	020c3f13 	andeq	r3, ip, #76	; 0x4c
     520:	0000000a 	andeq	r0, r0, sl
     524:	25011101 	strcs	r1, [r1, #-257]	; 0x101
     528:	030b130e 	movweq	r1, #45838	; 0xb30e
     52c:	110e1b0e 	tstne	lr, lr, lsl #22
     530:	10011201 	andne	r1, r1, r1, lsl #4
     534:	02000006 	andeq	r0, r0, #6
     538:	0b0b0024 	bleq	2c05d0 <__bss_end+0x2ad484>
     53c:	0e030b3e 	vmoveq.16	d3[0], r0
     540:	16030000 	strne	r0, [r3], -r0
     544:	3a0e0300 	bcc	38114c <__bss_end+0x36e000>
     548:	490b3b0b 	stmdbmi	fp, {r0, r1, r3, r8, r9, fp, ip, sp}
     54c:	04000013 	streq	r0, [r0], #-19
     550:	0b0b0024 	bleq	2c05e8 <__bss_end+0x2ad49c>
     554:	08030b3e 	stmdaeq	r3, {r1, r2, r3, r4, r5, r8, r9, fp}
     558:	04050000 	streq	r0, [r5], #-0
     55c:	0b0e0301 	bleq	381168 <__bss_end+0x36e01c>
     560:	3b0b3a0b 	blcc	2ced94 <__bss_end+0x2bbc48>
     564:	0013010b 	andseq	r0, r3, fp, lsl #2
     568:	00280600 	eoreq	r0, r8, r0, lsl #12
     56c:	0d1c0e03 	ldceq	14, cr0, [ip, #-12]
     570:	2e070000 	cdpcs	0, 0, cr0, cr7, cr0, {0}
     574:	030c3f01 	movweq	r3, #52993	; 0xcf01
     578:	3b0b3a0e 	blcc	2cedb8 <__bss_end+0x2bbc6c>
     57c:	490c270b 	stmdbmi	ip, {r0, r1, r3, r8, r9, sl, sp}
     580:	010b2013 	tsteq	fp, r3, lsl r0
     584:	08000013 	stmdaeq	r0, {r0, r1, r4}
     588:	0e030034 	mcreq	0, 0, r0, cr3, cr4, {1}
     58c:	0b3b0b3a 	bleq	ec327c <__bss_end+0xeb0130>
     590:	00001349 	andeq	r1, r0, r9, asr #6
     594:	3f012e09 	svccc	0x00012e09
     598:	3a0e030c 	bcc	3811d0 <__bss_end+0x36e084>
     59c:	270b3b0b 	strcs	r3, [fp, -fp, lsl #22]
     5a0:	010b200c 	tsteq	fp, ip
     5a4:	0a000013 	beq	5f8 <__resume1_start+0x5f8>
     5a8:	0e030005 	cdpeq	0, 0, cr0, cr3, cr5, {0}
     5ac:	0b3b0b3a 	bleq	ec329c <__bss_end+0xeb0150>
     5b0:	00001349 	andeq	r1, r0, r9, asr #6
     5b4:	03012e0b 	movweq	r2, #7691	; 0x1e0b
     5b8:	3b0b3a0e 	blcc	2cedf8 <__bss_end+0x2bbcac>
     5bc:	490c270b 	stmdbmi	ip, {r0, r1, r3, r8, r9, sl, sp}
     5c0:	010b2013 	tsteq	fp, r3, lsl r0
     5c4:	0c000013 	stceq	0, cr0, [r0], {19}
     5c8:	1331012e 	teqne	r1, #-2147483637	; 0x8000000b
     5cc:	01120111 	tsteq	r2, r1, lsl r1
     5d0:	13010a40 	movwne	r0, #6720	; 0x1a40
     5d4:	050d0000 	streq	r0, [sp, #-0]
     5d8:	02133100 	andseq	r3, r3, #0
     5dc:	0e000006 	cdpeq	0, 0, cr0, cr0, cr6, {0}
     5e0:	13310005 	teqne	r1, #5
     5e4:	00000a02 	andeq	r0, r0, r2, lsl #20
     5e8:	3100340f 	tstcc	r0, pc, lsl #8
     5ec:	00060213 	andeq	r0, r6, r3, lsl r2
     5f0:	002e1000 	eoreq	r1, lr, r0
     5f4:	0e030c3f 	mcreq	12, 0, r0, cr3, cr15, {1}
     5f8:	0b3b0b3a 	bleq	ec32e8 <__bss_end+0xeb019c>
     5fc:	01110c27 	tsteq	r1, r7, lsr #24
     600:	0a400112 	beq	1000a50 <__bss_end+0xfed904>
     604:	34110000 	ldrcc	r0, [r1], #-0
     608:	02133100 	andseq	r3, r3, #0
     60c:	1200000a 	andne	r0, r0, #10
     610:	0c3f012e 	ldfeqs	f0, [pc], #-184	; 560 <__resume1_start+0x560>
     614:	0b3a0e03 	bleq	e83e28 <__bss_end+0xe70cdc>
     618:	0c270b3b 	stceq	11, cr0, [r7], #-236	; 0xffffff14
     61c:	01120111 	tsteq	r2, r1, lsl r1
     620:	13010a40 	movwne	r0, #6720	; 0x1a40
     624:	34130000 	ldrcc	r0, [r3], #-0
     628:	3a0e0300 	bcc	381230 <__bss_end+0x36e0e4>
     62c:	490b3b0b 	stmdbmi	fp, {r0, r1, r3, r8, r9, fp, ip, sp}
     630:	00060213 	andeq	r0, r6, r3, lsl r2
     634:	012e1400 	teqeq	lr, r0, lsl #8
     638:	0e030c3f 	mcreq	12, 0, r0, cr3, cr15, {1}
     63c:	0b3b0b3a 	bleq	ec332c <__bss_end+0xeb01e0>
     640:	01110c27 	tsteq	r1, r7, lsr #24
     644:	06400112 			; <UNDEFINED> instruction: 0x06400112
     648:	00001301 	andeq	r1, r0, r1, lsl #6
     64c:	31011d15 	tstcc	r1, r5, lsl sp
     650:	12011113 	andne	r1, r1, #-1073741820	; 0xc0000004
     654:	590b5801 	stmdbpl	fp, {r0, fp, ip, lr}
     658:	0013010b 	andseq	r0, r3, fp, lsl #2
     65c:	010b1600 	tsteq	fp, r0, lsl #12
     660:	01120111 	tsteq	r2, r1, lsl r1
     664:	1d170000 	ldcne	0, cr0, [r7, #-0]
     668:	11133101 	tstne	r3, r1, lsl #2
     66c:	58011201 	stmdapl	r1, {r0, r9, ip}
     670:	000b590b 	andeq	r5, fp, fp, lsl #18
     674:	00051800 	andeq	r1, r5, r0, lsl #16
     678:	0b3a0803 	bleq	e8268c <__bss_end+0xe6f540>
     67c:	13490b3b 	movtne	r0, #39739	; 0x9b3b
     680:	00000602 	andeq	r0, r0, r2, lsl #12
     684:	03003419 	movweq	r3, #1049	; 0x419
     688:	3b0b3a08 	blcc	2ceeb0 <__bss_end+0x2bbd64>
     68c:	0213490b 	andseq	r4, r3, #180224	; 0x2c000
     690:	1a000006 	bne	6b0 <__resume1_start+0x6b0>
     694:	0803000a 	stmdaeq	r3, {r1, r3}
     698:	0b3b0b3a 	bleq	ec3388 <__bss_end+0xeb023c>
     69c:	00000111 	andeq	r0, r0, r1, lsl r1
     6a0:	0300051b 	movweq	r0, #1307	; 0x51b
     6a4:	3b0b3a0e 	blcc	2ceee4 <__bss_end+0x2bbd98>
     6a8:	0213490b 	andseq	r4, r3, #180224	; 0x2c000
     6ac:	1c000006 	stcne	0, cr0, [r0], {6}
     6b0:	0e030005 	cdpeq	0, 0, cr0, cr3, cr5, {0}
     6b4:	0b3b0b3a 	bleq	ec33a4 <__bss_end+0xeb0258>
     6b8:	0a021349 	beq	853e4 <__bss_end+0x72298>
     6bc:	2e1d0000 	cdpcs	0, 1, cr0, cr13, cr0, {0}
     6c0:	030c3f01 	movweq	r3, #52993	; 0xcf01
     6c4:	3b0b3a0e 	blcc	2cef04 <__bss_end+0x2bbdb8>
     6c8:	490c270b 	stmdbmi	ip, {r0, r1, r3, r8, r9, sl, sp}
     6cc:	12011113 	andne	r1, r1, #-1073741820	; 0xc0000004
     6d0:	010a4001 	tsteq	sl, r1
     6d4:	1e000013 	mcrne	0, 0, r0, cr0, cr3, {0}
     6d8:	0e030034 	mcreq	0, 0, r0, cr3, cr4, {1}
     6dc:	0b3b0b3a 	bleq	ec33cc <__bss_end+0xeb0280>
     6e0:	0a021349 	beq	8540c <__bss_end+0x722c0>
     6e4:	01000000 	mrseq	r0, (UNDEF: 0)
     6e8:	0e250111 	mcreq	1, 1, r0, cr5, cr1, {0}
     6ec:	0e030b13 	vmoveq.32	d3[0], r0
     6f0:	01110e1b 	tsteq	r1, fp, lsl lr
     6f4:	06100112 			; <UNDEFINED> instruction: 0x06100112
     6f8:	24020000 	strcs	r0, [r2], #-0
     6fc:	3e0b0b00 	vmlacc.f64	d0, d11, d0
     700:	0008030b 	andeq	r0, r8, fp, lsl #6
     704:	00240300 	eoreq	r0, r4, r0, lsl #6
     708:	0b3e0b0b 	bleq	f8333c <__bss_end+0xf701f0>
     70c:	00000e03 	andeq	r0, r0, r3, lsl #28
     710:	03001604 	movweq	r1, #1540	; 0x604
     714:	3b0b3a0e 	blcc	2cef54 <__bss_end+0x2bbe08>
     718:	0013490b 	andseq	r4, r3, fp, lsl #18
     71c:	01130500 	tsteq	r3, r0, lsl #10
     720:	0b0b0e03 	bleq	2c3f34 <__bss_end+0x2b0de8>
     724:	0b3b0b3a 	bleq	ec3414 <__bss_end+0xeb02c8>
     728:	00001301 	andeq	r1, r0, r1, lsl #6
     72c:	03000d06 	movweq	r0, #3334	; 0xd06
     730:	3b0b3a0e 	blcc	2cef70 <__bss_end+0x2bbe24>
     734:	3813490b 	ldmdacc	r3, {r0, r1, r3, r8, fp, lr}
     738:	0700000a 	streq	r0, [r0, -sl]
     73c:	0803000d 	stmdaeq	r3, {r0, r2, r3}
     740:	0b3b0b3a 	bleq	ec3430 <__bss_end+0xeb02e4>
     744:	0a381349 	beq	e05470 <__bss_end+0xdf2324>
     748:	2e080000 	cdpcs	0, 0, cr0, cr8, cr0, {0}
     74c:	030c3f01 	movweq	r3, #52993	; 0xcf01
     750:	3b0b3a0e 	blcc	2cef90 <__bss_end+0x2bbe44>
     754:	110c270b 	tstne	ip, fp, lsl #14
     758:	40011201 	andmi	r1, r1, r1, lsl #4
     75c:	0013010a 	andseq	r0, r3, sl, lsl #2
     760:	00050900 	andeq	r0, r5, r0, lsl #18
     764:	0b3a0e03 	bleq	e83f78 <__bss_end+0xe70e2c>
     768:	13490b3b 	movtne	r0, #39739	; 0x9b3b
     76c:	00000a02 	andeq	r0, r0, r2, lsl #20
     770:	0b000f0a 	bleq	43a0 <__resume1_start+0x43a0>
     774:	0013490b 	andseq	r4, r3, fp, lsl #18
     778:	012e0b00 	teqeq	lr, r0, lsl #22
     77c:	0e030c3f 	mcreq	12, 0, r0, cr3, cr15, {1}
     780:	0b3b0b3a 	bleq	ec3470 <__bss_end+0xeb0324>
     784:	01110c27 	tsteq	r1, r7, lsr #24
     788:	0a400112 	beq	1000bd8 <__bss_end+0xfeda8c>
     78c:	01000000 	mrseq	r0, (UNDEF: 0)
     790:	06100011 			; <UNDEFINED> instruction: 0x06100011
     794:	01120111 	tsteq	r2, r1, lsl r1
     798:	081b0803 	ldmdaeq	fp, {r0, r1, fp}
     79c:	05130825 	ldreq	r0, [r3, #-2085]	; 0x825
     7a0:	01000000 	mrseq	r0, (UNDEF: 0)
     7a4:	0e250111 	mcreq	1, 1, r0, cr5, cr1, {0}
     7a8:	0e030b13 	vmoveq.32	d3[0], r0
     7ac:	01110e1b 	tsteq	r1, fp, lsl lr
     7b0:	06100112 			; <UNDEFINED> instruction: 0x06100112
     7b4:	24020000 	strcs	r0, [r2], #-0
     7b8:	3e0b0b00 	vmlacc.f64	d0, d11, d0
     7bc:	000e030b 	andeq	r0, lr, fp, lsl #6
     7c0:	00240300 	eoreq	r0, r4, r0, lsl #6
     7c4:	0b3e0b0b 	bleq	f833f8 <__bss_end+0xf702ac>
     7c8:	00000803 	andeq	r0, r0, r3, lsl #16
     7cc:	03001604 	movweq	r1, #1540	; 0x604
     7d0:	3b0b3a0e 	blcc	2cf010 <__bss_end+0x2bbec4>
     7d4:	0013490b 	andseq	r4, r3, fp, lsl #18
     7d8:	01130500 	tsteq	r3, r0, lsl #10
     7dc:	0b0b0e03 	bleq	2c3ff0 <__bss_end+0x2b0ea4>
     7e0:	0b3b0b3a 	bleq	ec34d0 <__bss_end+0xeb0384>
     7e4:	00001301 	andeq	r1, r0, r1, lsl #6
     7e8:	03000d06 	movweq	r0, #3334	; 0xd06
     7ec:	3b0b3a0e 	blcc	2cf02c <__bss_end+0x2bbee0>
     7f0:	3813490b 	ldmdacc	r3, {r0, r1, r3, r8, fp, lr}
     7f4:	0700000a 	streq	r0, [r0, -sl]
     7f8:	0803000d 	stmdaeq	r3, {r0, r2, r3}
     7fc:	0b3b0b3a 	bleq	ec34ec <__bss_end+0xeb03a0>
     800:	0a381349 	beq	e0552c <__bss_end+0xdf23e0>
     804:	2e080000 	cdpcs	0, 0, cr0, cr8, cr0, {0}
     808:	030c3f01 	movweq	r3, #52993	; 0xcf01
     80c:	3b0b3a0e 	blcc	2cf04c <__bss_end+0x2bbf00>
     810:	110c270b 	tstne	ip, fp, lsl #14
     814:	40011201 	andmi	r1, r1, r1, lsl #4
     818:	0013010a 	andseq	r0, r3, sl, lsl #2
     81c:	00050900 	andeq	r0, r5, r0, lsl #18
     820:	0b3a0e03 	bleq	e84034 <__bss_end+0xe70ee8>
     824:	13490b3b 	movtne	r0, #39739	; 0x9b3b
     828:	00000a02 	andeq	r0, r0, r2, lsl #20
     82c:	0b000f0a 	bleq	445c <__resume1_start+0x445c>
     830:	0013490b 	andseq	r4, r3, fp, lsl #18
     834:	012e0b00 	teqeq	lr, r0, lsl #22
     838:	0e030c3f 	mcreq	12, 0, r0, cr3, cr15, {1}
     83c:	053b0b3a 	ldreq	r0, [fp, #-2874]!	; 0xb3a
     840:	01110c27 	tsteq	r1, r7, lsr #24
     844:	0a400112 	beq	1000c94 <__bss_end+0xfedb48>
     848:	00001301 	andeq	r1, r0, r1, lsl #6
     84c:	0300050c 	movweq	r0, #1292	; 0x50c
     850:	3b0b3a0e 	blcc	2cf090 <__bss_end+0x2bbf44>
     854:	02134905 	andseq	r4, r3, #81920	; 0x14000
     858:	0d00000a 	stceq	0, cr0, [r0, #-40]	; 0xffffffd8
     85c:	08030034 	stmdaeq	r3, {r2, r4, r5}
     860:	053b0b3a 	ldreq	r0, [fp, #-2874]!	; 0xb3a
     864:	06021349 	streq	r1, [r2], -r9, asr #6
     868:	340e0000 	strcc	r0, [lr], #-0
     86c:	3a0e0300 	bcc	381474 <__bss_end+0x36e328>
     870:	49053b0b 	stmdbmi	r5, {r0, r1, r3, r8, r9, fp, ip, sp}
     874:	0f000013 	svceq	0x00000013
     878:	0c3f002e 	ldceq	0, cr0, [pc], #-184	; 7c8 <__resume1_start+0x7c8>
     87c:	0b3a0e03 	bleq	e84090 <__bss_end+0xe70f44>
     880:	0c27053b 	cfstr32eq	mvfx0, [r7], #-236	; 0xffffff14
     884:	01120111 	tsteq	r2, r1, lsl r1
     888:	00000a40 	andeq	r0, r0, r0, asr #20
     88c:	03003410 	movweq	r3, #1040	; 0x410
     890:	3b0b3a0e 	blcc	2cf0d0 <__bss_end+0x2bbf84>
     894:	0213490b 	andseq	r4, r3, #180224	; 0x2c000
     898:	1100000a 	tstne	r0, sl
     89c:	0e030034 	mcreq	0, 0, r0, cr3, cr4, {1}
     8a0:	0b3b0b3a 	bleq	ec3590 <__bss_end+0xeb0444>
     8a4:	00001349 	andeq	r1, r0, r9, asr #6
     8a8:	49002612 	stmdbmi	r0, {r1, r4, r9, sl, sp}
     8ac:	13000013 	movwne	r0, #19
     8b0:	13490101 	movtne	r0, #37121	; 0x9101
     8b4:	00001301 	andeq	r1, r0, r1, lsl #6
     8b8:	49002114 	stmdbmi	r0, {r2, r4, r8, sp}
     8bc:	000b2f13 	andeq	r2, fp, r3, lsl pc
     8c0:	00341500 	eorseq	r1, r4, r0, lsl #10
     8c4:	0b3a0e03 	bleq	e840d8 <__bss_end+0xe70f8c>
     8c8:	13490b3b 	movtne	r0, #39739	; 0x9b3b
     8cc:	0a020c3f 	beq	839d0 <__bss_end+0x70884>
     8d0:	01000000 	mrseq	r0, (UNDEF: 0)
     8d4:	0e250111 	mcreq	1, 1, r0, cr5, cr1, {0}
     8d8:	0e030b13 	vmoveq.32	d3[0], r0
     8dc:	01110e1b 	tsteq	r1, fp, lsl lr
     8e0:	06100112 			; <UNDEFINED> instruction: 0x06100112
     8e4:	24020000 	strcs	r0, [r2], #-0
     8e8:	3e0b0b00 	vmlacc.f64	d0, d11, d0
     8ec:	000e030b 	andeq	r0, lr, fp, lsl #6
     8f0:	00160300 	andseq	r0, r6, r0, lsl #6
     8f4:	0b3a0e03 	bleq	e84108 <__bss_end+0xe70fbc>
     8f8:	13490b3b 	movtne	r0, #39739	; 0x9b3b
     8fc:	24040000 	strcs	r0, [r4], #-0
     900:	3e0b0b00 	vmlacc.f64	d0, d11, d0
     904:	0008030b 	andeq	r0, r8, fp, lsl #6
     908:	01130500 	tsteq	r3, r0, lsl #10
     90c:	0b3a0b0b 	bleq	e83540 <__bss_end+0xe703f4>
     910:	13010b3b 	movwne	r0, #6971	; 0x1b3b
     914:	0d060000 	stceq	0, cr0, [r6, #-0]
     918:	3a0e0300 	bcc	381520 <__bss_end+0x36e3d4>
     91c:	490b3b0b 	stmdbmi	fp, {r0, r1, r3, r8, r9, fp, ip, sp}
     920:	0d0b0b13 	vstreq	d0, [fp, #-76]	; 0xffffffb4
     924:	380b0c0b 	stmdacc	fp, {r0, r1, r3, sl, fp}
     928:	0700000a 	streq	r0, [r0, -sl]
     92c:	0b0b0117 	bleq	2c0d90 <__bss_end+0x2adc44>
     930:	0b3b0b3a 	bleq	ec3620 <__bss_end+0xeb04d4>
     934:	00001301 	andeq	r1, r0, r1, lsl #6
     938:	03000d08 	movweq	r0, #3336	; 0xd08
     93c:	3b0b3a0e 	blcc	2cf17c <__bss_end+0x2bc030>
     940:	0013490b 	andseq	r4, r3, fp, lsl #18
     944:	000d0900 	andeq	r0, sp, r0, lsl #18
     948:	0b3a0e03 	bleq	e8415c <__bss_end+0xe71010>
     94c:	1349053b 	movtne	r0, #38203	; 0x953b
     950:	0b0d0b0b 	bleq	343584 <__bss_end+0x330438>
     954:	0a380b0c 	beq	e0358c <__bss_end+0xdf0440>
     958:	0d0a0000 	stceq	0, cr0, [sl, #-0]
     95c:	3a0e0300 	bcc	381564 <__bss_end+0x36e418>
     960:	49053b0b 	stmdbmi	r5, {r0, r1, r3, r8, r9, fp, ip, sp}
     964:	0b000013 	bleq	9b8 <__resume1_start+0x9b8>
     968:	0e030016 	mcreq	0, 0, r0, cr3, cr6, {0}
     96c:	053b0b3a 	ldreq	r0, [fp, #-2874]!	; 0xb3a
     970:	00001349 	andeq	r1, r0, r9, asr #6
     974:	0b01130c 	bleq	455ac <__bss_end+0x32460>
     978:	3b0b3a0b 	blcc	2cf1ac <__bss_end+0x2bc060>
     97c:	00130105 	andseq	r0, r3, r5, lsl #2
     980:	01170d00 	tsteq	r7, r0, lsl #26
     984:	0b3a0b0b 	bleq	e835b8 <__bss_end+0xe7046c>
     988:	1301053b 	movwne	r0, #5435	; 0x153b
     98c:	130e0000 	movwne	r0, #57344	; 0xe000
     990:	0b0e0301 	bleq	38159c <__bss_end+0x36e450>
     994:	3b0b3a05 	blcc	2cf1b0 <__bss_end+0x2bc064>
     998:	00130105 	andseq	r0, r3, r5, lsl #2
     99c:	000d0f00 	andeq	r0, sp, r0, lsl #30
     9a0:	0b3a0e03 	bleq	e841b4 <__bss_end+0xe71068>
     9a4:	1349053b 	movtne	r0, #38203	; 0x953b
     9a8:	00000a38 	andeq	r0, r0, r8, lsr sl
     9ac:	49003510 	stmdbmi	r0, {r4, r8, sl, ip, sp}
     9b0:	11000013 	tstne	r0, r3, lsl r0
     9b4:	13490101 	movtne	r0, #37121	; 0x9101
     9b8:	00001301 	andeq	r1, r0, r1, lsl #6
     9bc:	49002112 	stmdbmi	r0, {r1, r4, r8, sp}
     9c0:	000b2f13 	andeq	r2, fp, r3, lsl pc
     9c4:	000f1300 	andeq	r1, pc, r0, lsl #6
     9c8:	13490b0b 	movtne	r0, #39691	; 0x9b0b
     9cc:	2e140000 	cdpcs	0, 1, cr0, cr4, cr0, {0}
     9d0:	3a0e0301 	bcc	3815dc <__bss_end+0x36e490>
     9d4:	270b3b0b 	strcs	r3, [fp, -fp, lsl #22]
     9d8:	2013490c 	andscs	r4, r3, ip, lsl #18
     9dc:	0013010b 	andseq	r0, r3, fp, lsl #2
     9e0:	00051500 	andeq	r1, r5, r0, lsl #10
     9e4:	0b3a0e03 	bleq	e841f8 <__bss_end+0xe710ac>
     9e8:	13490b3b 	movtne	r0, #39739	; 0x9b3b
     9ec:	34160000 	ldrcc	r0, [r6], #-0
     9f0:	3a0e0300 	bcc	3815f8 <__bss_end+0x36e4ac>
     9f4:	490b3b0b 	stmdbmi	fp, {r0, r1, r3, r8, r9, fp, ip, sp}
     9f8:	17000013 	smladne	r0, r3, r0, r0
     9fc:	08030034 	stmdaeq	r3, {r2, r4, r5}
     a00:	0b3b0b3a 	bleq	ec36f0 <__bss_end+0xeb05a4>
     a04:	00001349 	andeq	r1, r0, r9, asr #6
     a08:	03012e18 	movweq	r2, #7704	; 0x1e18
     a0c:	3b0b3a0e 	blcc	2cf24c <__bss_end+0x2bc100>
     a10:	200c270b 	andcs	r2, ip, fp, lsl #14
     a14:	0013010b 	andseq	r0, r3, fp, lsl #2
     a18:	012e1900 	teqeq	lr, r0, lsl #18
     a1c:	0b3a0e03 	bleq	e84230 <__bss_end+0xe710e4>
     a20:	0c27053b 	cfstr32eq	mvfx0, [r7], #-236	; 0xffffff14
     a24:	13010b20 	movwne	r0, #6944	; 0x1b20
     a28:	051a0000 	ldreq	r0, [sl, #-0]
     a2c:	3a080300 	bcc	201634 <__bss_end+0x1ee4e8>
     a30:	49053b0b 	stmdbmi	r5, {r0, r1, r3, r8, r9, fp, ip, sp}
     a34:	1b000013 	blne	a88 <__resume1_start+0xa88>
     a38:	0e03012e 	adfeqsp	f0, f3, #0.5
     a3c:	053b0b3a 	ldreq	r0, [fp, #-2874]!	; 0xb3a
     a40:	13490c27 	movtne	r0, #39975	; 0x9c27
     a44:	13010b20 	movwne	r0, #6944	; 0x1b20
     a48:	341c0000 	ldrcc	r0, [ip], #-0
     a4c:	3a0e0300 	bcc	381654 <__bss_end+0x36e508>
     a50:	49053b0b 	stmdbmi	r5, {r0, r1, r3, r8, r9, fp, ip, sp}
     a54:	1d000013 	stcne	0, cr0, [r0, #-76]	; 0xffffffb4
     a58:	1331012e 	teqne	r1, #-2147483637	; 0x8000000b
     a5c:	01120111 	tsteq	r2, r1, lsl r1
     a60:	13010640 	movwne	r0, #5696	; 0x1640
     a64:	051e0000 	ldreq	r0, [lr, #-0]
     a68:	02133100 	andseq	r3, r3, #0
     a6c:	1f000006 	svcne	0x00000006
     a70:	13310034 	teqne	r1, #52	; 0x34
     a74:	00000602 	andeq	r0, r0, r2, lsl #12
     a78:	31003420 	tstcc	r0, r0, lsr #8
     a7c:	000b1c13 	andeq	r1, fp, r3, lsl ip
     a80:	011d2100 	tsteq	sp, r0, lsl #2
     a84:	01111331 	tsteq	r1, r1, lsr r3
     a88:	0b580112 	bleq	1600ed8 <__bss_end+0x15edd8c>
     a8c:	00000b59 	andeq	r0, r0, r9, asr fp
     a90:	11010b22 	tstne	r1, r2, lsr #22
     a94:	00011201 	andeq	r1, r1, r1, lsl #4
     a98:	00342300 	eorseq	r2, r4, r0, lsl #6
     a9c:	00001331 	andeq	r1, r0, r1, lsr r3
     aa0:	31003424 	tstcc	r0, r4, lsr #8
     aa4:	000d1c13 	andeq	r1, sp, r3, lsl ip
     aa8:	00052500 	andeq	r2, r5, r0, lsl #10
     aac:	00001331 	andeq	r1, r0, r1, lsr r3
     ab0:	3f012e26 	svccc	0x00012e26
     ab4:	3a0e030c 	bcc	3816ec <__bss_end+0x36e5a0>
     ab8:	270b3b0b 	strcs	r3, [fp, -fp, lsl #22]
     abc:	1201110c 	andne	r1, r1, #3
     ac0:	01064001 	tsteq	r6, r1
     ac4:	27000013 	smladcs	r0, r3, r0, r0
     ac8:	08030034 	stmdaeq	r3, {r2, r4, r5}
     acc:	053b0b3a 	ldreq	r0, [fp, #-2874]!	; 0xb3a
     ad0:	06021349 	streq	r1, [r2], -r9, asr #6
     ad4:	34280000 	strtcc	r0, [r8], #-0
     ad8:	3a0e0300 	bcc	3816e0 <__bss_end+0x36e594>
     adc:	49053b0b 	stmdbmi	r5, {r0, r1, r3, r8, r9, fp, ip, sp}
     ae0:	00060213 	andeq	r0, r6, r3, lsl r2
     ae4:	011d2900 	tsteq	sp, r0, lsl #18
     ae8:	01521331 	cmpeq	r2, r1, lsr r3
     aec:	0b580655 	bleq	1602448 <__bss_end+0x15ef2fc>
     af0:	00000559 	andeq	r0, r0, r9, asr r5
     af4:	3100052a 	tstcc	r0, sl, lsr #10
     af8:	000b1c13 	andeq	r1, fp, r3, lsl ip
     afc:	010b2b00 	tsteq	fp, r0, lsl #22
     b00:	00000655 	andeq	r0, r0, r5, asr r6
     b04:	3100342c 	tstcc	r0, ip, lsr #8
     b08:	00061c13 	andeq	r1, r6, r3, lsl ip
     b0c:	012e2d00 	teqeq	lr, r0, lsl #26
     b10:	0e030c3f 	mcreq	12, 0, r0, cr3, cr15, {1}
     b14:	053b0b3a 	ldreq	r0, [fp, #-2874]!	; 0xb3a
     b18:	13490c27 	movtne	r0, #39975	; 0x9c27
     b1c:	01120111 	tsteq	r2, r1, lsl r1
     b20:	13010a40 	movwne	r0, #6720	; 0x1a40
     b24:	052e0000 	streq	r0, [lr, #-0]!
     b28:	3a0e0300 	bcc	381730 <__bss_end+0x36e5e4>
     b2c:	49053b0b 	stmdbmi	r5, {r0, r1, r3, r8, r9, fp, ip, sp}
     b30:	00060213 	andeq	r0, r6, r3, lsl r2
     b34:	011d2f00 	tsteq	sp, r0, lsl #30
     b38:	01521331 	cmpeq	r2, r1, lsr r3
     b3c:	0b580655 	bleq	1602498 <__bss_end+0x15ef34c>
     b40:	13010559 	movwne	r0, #5465	; 0x1559
     b44:	1d300000 	ldcne	0, cr0, [r0, #-0]
     b48:	11133101 	tstne	r3, r1, lsl #2
     b4c:	58011201 	stmdapl	r1, {r0, r9, ip}
     b50:	0005590b 	andeq	r5, r5, fp, lsl #18
     b54:	00263100 	eoreq	r3, r6, r0, lsl #2
     b58:	00001349 	andeq	r1, r0, r9, asr #6
     b5c:	3f012e32 	svccc	0x00012e32
     b60:	3a0e030c 	bcc	381798 <__bss_end+0x36e64c>
     b64:	27053b0b 	strcs	r3, [r5, -fp, lsl #22]
     b68:	1113490c 	tstne	r3, ip, lsl #18
     b6c:	40011201 	andmi	r1, r1, r1, lsl #4
     b70:	00130106 	andseq	r0, r3, r6, lsl #2
     b74:	00053300 	andeq	r3, r5, r0, lsl #6
     b78:	0b3a0803 	bleq	e82b8c <__bss_end+0xe6fa40>
     b7c:	1349053b 	movtne	r0, #38203	; 0x953b
     b80:	00000602 	andeq	r0, r0, r2, lsl #12
     b84:	03000534 	movweq	r0, #1332	; 0x534
     b88:	3b0b3a08 	blcc	2cf3b0 <__bss_end+0x2bc264>
     b8c:	02134905 	andseq	r4, r3, #81920	; 0x14000
     b90:	3500000a 	strcc	r0, [r0, #-10]
     b94:	08030034 	stmdaeq	r3, {r2, r4, r5}
     b98:	053b0b3a 	ldreq	r0, [fp, #-2874]!	; 0xb3a
     b9c:	0a021349 	beq	858c8 <__bss_end+0x7277c>
     ba0:	2e360000 	cdpcs	0, 3, cr0, cr6, cr0, {0}
     ba4:	030c3f01 	movweq	r3, #52993	; 0xcf01
     ba8:	3b0b3a0e 	blcc	2cf3e8 <__bss_end+0x2bc29c>
     bac:	110c2705 	tstne	ip, r5, lsl #14
     bb0:	40011201 	andmi	r1, r1, r1, lsl #4
     bb4:	00130106 	andseq	r0, r3, r6, lsl #2
     bb8:	002e3700 	eoreq	r3, lr, r0, lsl #14
     bbc:	0e030c3f 	mcreq	12, 0, r0, cr3, cr15, {1}
     bc0:	053b0b3a 	ldreq	r0, [fp, #-2874]!	; 0xb3a
     bc4:	01110c27 	tsteq	r1, r7, lsr #24
     bc8:	0a400112 	beq	1001018 <__bss_end+0xfedecc>
     bcc:	34380000 	ldrtcc	r0, [r8], #-0
     bd0:	3a0e0300 	bcc	3817d8 <__bss_end+0x36e68c>
     bd4:	490b3b0b 	stmdbmi	fp, {r0, r1, r3, r8, r9, fp, ip, sp}
     bd8:	000a0213 	andeq	r0, sl, r3, lsl r2
     bdc:	11010000 	mrsne	r0, (UNDEF: 1)
     be0:	130e2501 	movwne	r2, #58625	; 0xe501
     be4:	1b0e030b 	blne	381818 <__bss_end+0x36e6cc>
     be8:	1201110e 	andne	r1, r1, #-2147483645	; 0x80000003
     bec:	00061001 	andeq	r1, r6, r1
     bf0:	00240200 	eoreq	r0, r4, r0, lsl #4
     bf4:	0b3e0b0b 	bleq	f83828 <__bss_end+0xf706dc>
     bf8:	00000e03 	andeq	r0, r0, r3, lsl #28
     bfc:	03001603 	movweq	r1, #1539	; 0x603
     c00:	3b0b3a0e 	blcc	2cf440 <__bss_end+0x2bc2f4>
     c04:	0013490b 	andseq	r4, r3, fp, lsl #18
     c08:	00240400 	eoreq	r0, r4, r0, lsl #8
     c0c:	0b3e0b0b 	bleq	f83840 <__bss_end+0xf706f4>
     c10:	00000803 	andeq	r0, r0, r3, lsl #16
     c14:	0b000f05 	bleq	4830 <__resume1_start+0x4830>
     c18:	0600000b 	streq	r0, [r0], -fp
     c1c:	0e030113 	mcreq	1, 0, r0, cr3, cr3, {0}
     c20:	0b3a0b0b 	bleq	e83854 <__bss_end+0xe70708>
     c24:	13010b3b 	movwne	r0, #6971	; 0x1b3b
     c28:	0d070000 	stceq	0, cr0, [r7, #-0]
     c2c:	490e0300 	stmdbmi	lr, {r8, r9}
     c30:	340a3813 	strcc	r3, [sl], #-2067	; 0x813
     c34:	0800000c 	stmdaeq	r0, {r2, r3}
     c38:	0e03012e 	adfeqsp	f0, f3, #0.5
     c3c:	0b3b0b3a 	bleq	ec392c <__bss_end+0xeb07e0>
     c40:	13490c27 	movtne	r0, #39975	; 0x9c27
     c44:	13010b20 	movwne	r0, #6944	; 0x1b20
     c48:	05090000 	streq	r0, [r9, #-0]
     c4c:	3a0e0300 	bcc	381854 <__bss_end+0x36e708>
     c50:	490b3b0b 	stmdbmi	fp, {r0, r1, r3, r8, r9, fp, ip, sp}
     c54:	0a000013 	beq	ca8 <__resume1_start+0xca8>
     c58:	08030005 	stmdaeq	r3, {r0, r2}
     c5c:	0b3b0b3a 	bleq	ec394c <__bss_end+0xeb0800>
     c60:	00001349 	andeq	r1, r0, r9, asr #6
     c64:	0300340b 	movweq	r3, #1035	; 0x40b
     c68:	3b0b3a08 	blcc	2cf490 <__bss_end+0x2bc344>
     c6c:	0013490b 	andseq	r4, r3, fp, lsl #18
     c70:	000f0c00 	andeq	r0, pc, r0, lsl #24
     c74:	13490b0b 	movtne	r0, #39691	; 0x9b0b
     c78:	260d0000 	strcs	r0, [sp], -r0
     c7c:	00134900 	andseq	r4, r3, r0, lsl #18
     c80:	00340e00 	eorseq	r0, r4, r0, lsl #28
     c84:	0b3a0e03 	bleq	e84498 <__bss_end+0xe7134c>
     c88:	13490b3b 	movtne	r0, #39739	; 0x9b3b
     c8c:	010f0000 	mrseq	r0, CPSR
     c90:	01134901 	tsteq	r3, r1, lsl #18
     c94:	10000013 	andne	r0, r0, r3, lsl r0
     c98:	13490021 	movtne	r0, #36897	; 0x9021
     c9c:	00000b2f 	andeq	r0, r0, pc, lsr #22
     ca0:	03012e11 	movweq	r2, #7697	; 0x1e11
     ca4:	3b0b3a0e 	blcc	2cf4e4 <__bss_end+0x2bc398>
     ca8:	490c270b 	stmdbmi	ip, {r0, r1, r3, r8, r9, sl, sp}
     cac:	12011113 	andne	r1, r1, #-1073741820	; 0xc0000004
     cb0:	01064001 	tsteq	r6, r1
     cb4:	12000013 	andne	r0, r0, #19
     cb8:	0e030005 	cdpeq	0, 0, cr0, cr3, cr5, {0}
     cbc:	0b3b0b3a 	bleq	ec39ac <__bss_end+0xeb0860>
     cc0:	06021349 	streq	r1, [r2], -r9, asr #6
     cc4:	34130000 	ldrcc	r0, [r3], #-0
     cc8:	3a0e0300 	bcc	3818d0 <__bss_end+0x36e784>
     ccc:	490b3b0b 	stmdbmi	fp, {r0, r1, r3, r8, r9, fp, ip, sp}
     cd0:	000a0213 	andeq	r0, sl, r3, lsl r2
     cd4:	00341400 	eorseq	r1, r4, r0, lsl #8
     cd8:	0b3a0803 	bleq	e82cec <__bss_end+0xe6fba0>
     cdc:	13490b3b 	movtne	r0, #39739	; 0x9b3b
     ce0:	00000602 	andeq	r0, r0, r2, lsl #12
     ce4:	03012e15 	movweq	r2, #7701	; 0x1e15
     ce8:	3b0b3a0e 	blcc	2cf528 <__bss_end+0x2bc3dc>
     cec:	490c2705 	stmdbmi	ip, {r0, r2, r8, r9, sl, sp}
     cf0:	12011113 	andne	r1, r1, #-1073741820	; 0xc0000004
     cf4:	01064001 	tsteq	r6, r1
     cf8:	16000013 			; <UNDEFINED> instruction: 0x16000013
     cfc:	0e030005 	cdpeq	0, 0, cr0, cr3, cr5, {0}
     d00:	053b0b3a 	ldreq	r0, [fp, #-2874]!	; 0xb3a
     d04:	06021349 	streq	r1, [r2], -r9, asr #6
     d08:	05170000 	ldreq	r0, [r7, #-0]
     d0c:	3a080300 	bcc	201914 <__bss_end+0x1ee7c8>
     d10:	49053b0b 	stmdbmi	r5, {r0, r1, r3, r8, r9, fp, ip, sp}
     d14:	00060213 	andeq	r0, r6, r3, lsl r2
     d18:	00341800 	eorseq	r1, r4, r0, lsl #16
     d1c:	0b3a0e03 	bleq	e84530 <__bss_end+0xe713e4>
     d20:	1349053b 	movtne	r0, #38203	; 0x953b
     d24:	00000a02 	andeq	r0, r0, r2, lsl #20
     d28:	31011d19 	tstcc	r1, r9, lsl sp
     d2c:	55015213 	strpl	r5, [r1, #-531]	; 0x213
     d30:	590b5806 	stmdbpl	fp, {r1, r2, fp, ip, lr}
     d34:	1a000005 	bne	d50 <__resume1_start+0xd50>
     d38:	13310005 	teqne	r1, #5
     d3c:	00000602 	andeq	r0, r0, r2, lsl #12
     d40:	55010b1b 	strpl	r0, [r1, #-2843]	; 0xb1b
     d44:	1c000006 	stcne	0, cr0, [r0], {6}
     d48:	13310034 	teqne	r1, #52	; 0x34
     d4c:	00000602 	andeq	r0, r0, r2, lsl #12
     d50:	31012e1d 	tstcc	r1, sp, lsl lr
     d54:	12011113 	andne	r1, r1, #-1073741820	; 0xc0000004
     d58:	01064001 	tsteq	r6, r1
     d5c:	1e000013 	mcrne	0, 0, r0, cr0, cr3, {0}
     d60:	13310034 	teqne	r1, #52	; 0x34
     d64:	00000a02 	andeq	r0, r0, r2, lsl #20
     d68:	3100051f 	tstcc	r0, pc, lsl r5
     d6c:	000b1c13 	andeq	r1, fp, r3, lsl ip
     d70:	012e2000 	teqeq	lr, r0
     d74:	0e030c3f 	mcreq	12, 0, r0, cr3, cr15, {1}
     d78:	053b0b3a 	ldreq	r0, [fp, #-2874]!	; 0xb3a
     d7c:	13490c27 	movtne	r0, #39975	; 0x9c27
     d80:	01120111 	tsteq	r2, r1, lsl r1
     d84:	13010640 	movwne	r0, #5696	; 0x1640
     d88:	18210000 	stmdane	r1!, {}	; <UNPREDICTABLE>
     d8c:	22000000 	andcs	r0, r0, #0
     d90:	0e030034 	mcreq	0, 0, r0, cr3, cr4, {1}
     d94:	053b0b3a 	ldreq	r0, [fp, #-2874]!	; 0xb3a
     d98:	06021349 	streq	r1, [r2], -r9, asr #6
     d9c:	34230000 	strtcc	r0, [r3], #-0
     da0:	3a080300 	bcc	2019a8 <__bss_end+0x1ee85c>
     da4:	49053b0b 	stmdbmi	r5, {r0, r1, r3, r8, r9, fp, ip, sp}
     da8:	00060213 	andeq	r0, r6, r3, lsl r2
     dac:	011d2400 	tsteq	sp, r0, lsl #8
     db0:	01111331 	tsteq	r1, r1, lsr r3
     db4:	0b580112 	bleq	1601204 <__bss_end+0x15ee0b8>
     db8:	13010559 	movwne	r0, #5465	; 0x1559
     dbc:	0b250000 	bleq	940dc4 <__bss_end+0x92dc78>
     dc0:	12011101 	andne	r1, r1, #1073741824	; 0x40000000
     dc4:	26000001 	strcs	r0, [r0], -r1
     dc8:	13310005 	teqne	r1, #5
     dcc:	05270000 	streq	r0, [r7, #-0]!
     dd0:	02133100 	andseq	r3, r3, #0
     dd4:	2800000a 	stmdacs	r0, {r1, r3}
     dd8:	1331011d 	teqne	r1, #1073741831	; 0x40000007
     ddc:	01120111 	tsteq	r2, r1, lsl r1
     de0:	05590b58 	ldrbeq	r0, [r9, #-2904]	; 0xb58
     de4:	01000000 	mrseq	r0, (UNDEF: 0)
     de8:	06100011 			; <UNDEFINED> instruction: 0x06100011
     dec:	01120111 	tsteq	r2, r1, lsl r1
     df0:	081b0803 	ldmdaeq	fp, {r0, r1, fp}
     df4:	05130825 	ldreq	r0, [r3, #-2085]	; 0x825
     df8:	01000000 	mrseq	r0, (UNDEF: 0)
     dfc:	0e250111 	mcreq	1, 1, r0, cr5, cr1, {0}
     e00:	0e030b13 	vmoveq.32	d3[0], r0
     e04:	01110e1b 	tsteq	r1, fp, lsl lr
     e08:	06100112 			; <UNDEFINED> instruction: 0x06100112
     e0c:	24020000 	strcs	r0, [r2], #-0
     e10:	3e0b0b00 	vmlacc.f64	d0, d11, d0
     e14:	000e030b 	andeq	r0, lr, fp, lsl #6
     e18:	00160300 	andseq	r0, r6, r0, lsl #6
     e1c:	0b3a0e03 	bleq	e84630 <__bss_end+0xe714e4>
     e20:	13490b3b 	movtne	r0, #39739	; 0x9b3b
     e24:	24040000 	strcs	r0, [r4], #-0
     e28:	3e0b0b00 	vmlacc.f64	d0, d11, d0
     e2c:	0008030b 	andeq	r0, r8, fp, lsl #6
     e30:	002e0500 	eoreq	r0, lr, r0, lsl #10
     e34:	0e030c3f 	mcreq	12, 0, r0, cr3, cr15, {1}
     e38:	0b3b0b3a 	bleq	ec3b28 <__bss_end+0xeb09dc>
     e3c:	01110c27 	tsteq	r1, r7, lsr #24
     e40:	0a400112 	beq	1001290 <__bss_end+0xfee144>
     e44:	2e060000 	cdpcs	0, 0, cr0, cr6, cr0, {0}
     e48:	030c3f01 	movweq	r3, #52993	; 0xcf01
     e4c:	3b0b3a0e 	blcc	2cf68c <__bss_end+0x2bc540>
     e50:	490c270b 	stmdbmi	ip, {r0, r1, r3, r8, r9, sl, sp}
     e54:	12011113 	andne	r1, r1, #-1073741820	; 0xc0000004
     e58:	000a4001 	andeq	r4, sl, r1
     e5c:	00050700 	andeq	r0, r5, r0, lsl #14
     e60:	0b3a0e03 	bleq	e84674 <__bss_end+0xe71528>
     e64:	13490b3b 	movtne	r0, #39739	; 0x9b3b
     e68:	00000602 	andeq	r0, r0, r2, lsl #12
     e6c:	03003408 	movweq	r3, #1032	; 0x408
     e70:	3b0b3a0e 	blcc	2cf6b0 <__bss_end+0x2bc564>
     e74:	0213490b 	andseq	r4, r3, #180224	; 0x2c000
     e78:	00000006 	andeq	r0, r0, r6
     e7c:	25011101 	strcs	r1, [r1, #-257]	; 0x101
     e80:	030b130e 	movweq	r1, #45838	; 0xb30e
     e84:	110e1b0e 	tstne	lr, lr, lsl #22
     e88:	10011201 	andne	r1, r1, r1, lsl #4
     e8c:	02000006 	andeq	r0, r0, #6
     e90:	0b0b0024 	bleq	2c0f28 <__bss_end+0x2adddc>
     e94:	0e030b3e 	vmoveq.16	d3[0], r0
     e98:	16030000 	strne	r0, [r3], -r0
     e9c:	3a0e0300 	bcc	381aa4 <__bss_end+0x36e958>
     ea0:	490b3b0b 	stmdbmi	fp, {r0, r1, r3, r8, r9, fp, ip, sp}
     ea4:	04000013 	streq	r0, [r0], #-19
     ea8:	0b0b0024 	bleq	2c0f40 <__bss_end+0x2addf4>
     eac:	08030b3e 	stmdaeq	r3, {r1, r2, r3, r4, r5, r8, r9, fp}
     eb0:	35050000 	strcc	r0, [r5, #-0]
     eb4:	00134900 	andseq	r4, r3, r0, lsl #18
     eb8:	01040600 	tsteq	r4, r0, lsl #12
     ebc:	0b0b0e03 	bleq	2c46d0 <__bss_end+0x2b1584>
     ec0:	0b3b0b3a 	bleq	ec3bb0 <__bss_end+0xeb0a64>
     ec4:	00001301 	andeq	r1, r0, r1, lsl #6
     ec8:	03002807 	movweq	r2, #2055	; 0x807
     ecc:	000d1c0e 	andeq	r1, sp, lr, lsl #24
     ed0:	000f0800 	andeq	r0, pc, r0, lsl #16
     ed4:	00000b0b 	andeq	r0, r0, fp, lsl #22
     ed8:	3f012e09 	svccc	0x00012e09
     edc:	3a0e030c 	bcc	381b14 <__bss_end+0x36e9c8>
     ee0:	270b3b0b 	strcs	r3, [fp, -fp, lsl #22]
     ee4:	1113490c 	tstne	r3, ip, lsl #18
     ee8:	40011201 	andmi	r1, r1, r1, lsl #4
     eec:	00130106 	andseq	r0, r3, r6, lsl #2
     ef0:	00340a00 	eorseq	r0, r4, r0, lsl #20
     ef4:	0b3a0803 	bleq	e82f08 <__bss_end+0xe6fdbc>
     ef8:	13490b3b 	movtne	r0, #39739	; 0x9b3b
     efc:	00000602 	andeq	r0, r0, r2, lsl #12
     f00:	0300340b 	movweq	r3, #1035	; 0x40b
     f04:	3b0b3a0e 	blcc	2cf744 <__bss_end+0x2bc5f8>
     f08:	0213490b 	andseq	r4, r3, #180224	; 0x2c000
     f0c:	0c000006 	stceq	0, cr0, [r0], {6}
     f10:	08030005 	stmdaeq	r3, {r0, r2}
     f14:	0b3b0b3a 	bleq	ec3c04 <__bss_end+0xeb0ab8>
     f18:	06021349 	streq	r1, [r2], -r9, asr #6
     f1c:	2e0d0000 	cdpcs	0, 0, cr0, cr13, cr0, {0}
     f20:	030c3f01 	movweq	r3, #52993	; 0xcf01
     f24:	3b0b3a0e 	blcc	2cf764 <__bss_end+0x2bc618>
     f28:	490c270b 	stmdbmi	ip, {r0, r1, r3, r8, r9, sl, sp}
     f2c:	12011113 	andne	r1, r1, #-1073741820	; 0xc0000004
     f30:	010a4001 	tsteq	sl, r1
     f34:	0e000013 	mcreq	0, 0, r0, cr0, cr3, {0}
     f38:	0e030034 	mcreq	0, 0, r0, cr3, cr4, {1}
     f3c:	0b3b0b3a 	bleq	ec3c2c <__bss_end+0xeb0ae0>
     f40:	0a021349 	beq	85c6c <__bss_end+0x72b20>
     f44:	01000000 	mrseq	r0, (UNDEF: 0)
     f48:	0e250111 	mcreq	1, 1, r0, cr5, cr1, {0}
     f4c:	0e030b13 	vmoveq.32	d3[0], r0
     f50:	01110e1b 	tsteq	r1, fp, lsl lr
     f54:	06100112 			; <UNDEFINED> instruction: 0x06100112
     f58:	24020000 	strcs	r0, [r2], #-0
     f5c:	3e0b0b00 	vmlacc.f64	d0, d11, d0
     f60:	000e030b 	andeq	r0, lr, fp, lsl #6
     f64:	00160300 	andseq	r0, r6, r0, lsl #6
     f68:	0b3a0e03 	bleq	e8477c <__bss_end+0xe71630>
     f6c:	13490b3b 	movtne	r0, #39739	; 0x9b3b
     f70:	24040000 	strcs	r0, [r4], #-0
     f74:	3e0b0b00 	vmlacc.f64	d0, d11, d0
     f78:	0008030b 	andeq	r0, r8, fp, lsl #6
     f7c:	00350500 	eorseq	r0, r5, r0, lsl #10
     f80:	00001349 	andeq	r1, r0, r9, asr #6
     f84:	49010106 	stmdbmi	r1, {r1, r2, r8}
     f88:	00130113 	andseq	r0, r3, r3, lsl r1
     f8c:	00210700 	eoreq	r0, r1, r0, lsl #14
     f90:	0b2f1349 	bleq	bc5cbc <__bss_end+0xbb2b70>
     f94:	13080000 	movwne	r0, #32768	; 0x8000
     f98:	0b0e0301 	bleq	381ba4 <__bss_end+0x36ea58>
     f9c:	3b0b3a0b 	blcc	2cf7d0 <__bss_end+0x2bc684>
     fa0:	0013010b 	andseq	r0, r3, fp, lsl #2
     fa4:	000d0900 	andeq	r0, sp, r0, lsl #18
     fa8:	0b3a0e03 	bleq	e847bc <__bss_end+0xe71670>
     fac:	13490b3b 	movtne	r0, #39739	; 0x9b3b
     fb0:	00000a38 	andeq	r0, r0, r8, lsr sl
     fb4:	3f012e0a 	svccc	0x00012e0a
     fb8:	3a0e030c 	bcc	381bf0 <__bss_end+0x36eaa4>
     fbc:	270b3b0b 	strcs	r3, [fp, -fp, lsl #22]
     fc0:	1113490c 	tstne	r3, ip, lsl #18
     fc4:	40011201 	andmi	r1, r1, r1, lsl #4
     fc8:	00130106 	andseq	r0, r3, r6, lsl #2
     fcc:	00050b00 	andeq	r0, r5, r0, lsl #22
     fd0:	0b3a0e03 	bleq	e847e4 <__bss_end+0xe71698>
     fd4:	13490b3b 	movtne	r0, #39739	; 0x9b3b
     fd8:	00000602 	andeq	r0, r0, r2, lsl #12
     fdc:	0b000f0c 	bleq	4c14 <__resume1_start+0x4c14>
     fe0:	0013490b 	andseq	r4, r3, fp, lsl #18
     fe4:	012e0d00 	teqeq	lr, r0, lsl #26
     fe8:	0e030c3f 	mcreq	12, 0, r0, cr3, cr15, {1}
     fec:	0b3b0b3a 	bleq	ec3cdc <__bss_end+0xeb0b90>
     ff0:	13490c27 	movtne	r0, #39975	; 0x9c27
     ff4:	01120111 	tsteq	r2, r1, lsl r1
     ff8:	13010a40 	movwne	r0, #6720	; 0x1a40
     ffc:	2e0e0000 	cdpcs	0, 0, cr0, cr14, cr0, {0}
    1000:	030c3f00 	movweq	r3, #52992	; 0xcf00
    1004:	3b0b3a0e 	blcc	2cf844 <__bss_end+0x2bc6f8>
    1008:	490c270b 	stmdbmi	ip, {r0, r1, r3, r8, r9, sl, sp}
    100c:	12011113 	andne	r1, r1, #-1073741820	; 0xc0000004
    1010:	000a4001 	andeq	r4, sl, r1
    1014:	002e0f00 	eoreq	r0, lr, r0, lsl #30
    1018:	0e030c3f 	mcreq	12, 0, r0, cr3, cr15, {1}
    101c:	0b3b0b3a 	bleq	ec3d0c <__bss_end+0xeb0bc0>
    1020:	01110c27 	tsteq	r1, r7, lsr #24
    1024:	0a400112 	beq	1001474 <__bss_end+0xfee328>
    1028:	34100000 	ldrcc	r0, [r0], #-0
    102c:	3a0e0300 	bcc	381c34 <__bss_end+0x36eae8>
    1030:	490b3b0b 	stmdbmi	fp, {r0, r1, r3, r8, r9, fp, ip, sp}
    1034:	000a0213 	andeq	r0, sl, r3, lsl r2
    1038:	11010000 	mrsne	r0, (UNDEF: 1)
    103c:	130e2501 	movwne	r2, #58625	; 0xe501
    1040:	1b0e030b 	blne	381c74 <__bss_end+0x36eb28>
    1044:	1201110e 	andne	r1, r1, #-2147483645	; 0x80000003
    1048:	00061001 	andeq	r1, r6, r1
    104c:	00240200 	eoreq	r0, r4, r0, lsl #4
    1050:	0b3e0b0b 	bleq	f83c84 <__bss_end+0xf70b38>
    1054:	00000e03 	andeq	r0, r0, r3, lsl #28
    1058:	03001603 	movweq	r1, #1539	; 0x603
    105c:	3b0b3a0e 	blcc	2cf89c <__bss_end+0x2bc750>
    1060:	0013490b 	andseq	r4, r3, fp, lsl #18
    1064:	00240400 	eoreq	r0, r4, r0, lsl #8
    1068:	0b3e0b0b 	bleq	f83c9c <__bss_end+0xf70b50>
    106c:	00000803 	andeq	r0, r0, r3, lsl #16
    1070:	49003505 	stmdbmi	r0, {r0, r2, r8, sl, ip, sp}
    1074:	06000013 			; <UNDEFINED> instruction: 0x06000013
    1078:	13490101 	movtne	r0, #37121	; 0x9101
    107c:	00001301 	andeq	r1, r0, r1, lsl #6
    1080:	49002107 	stmdbmi	r0, {r0, r1, r2, r8, sp}
    1084:	000b2f13 	andeq	r2, fp, r3, lsl pc
    1088:	01130800 	tsteq	r3, r0, lsl #16
    108c:	0b0b0e03 	bleq	2c48a0 <__bss_end+0x2b1754>
    1090:	0b3b0b3a 	bleq	ec3d80 <__bss_end+0xeb0c34>
    1094:	00001301 	andeq	r1, r0, r1, lsl #6
    1098:	03000d09 	movweq	r0, #3337	; 0xd09
    109c:	3b0b3a08 	blcc	2cf8c4 <__bss_end+0x2bc778>
    10a0:	3813490b 	ldmdacc	r3, {r0, r1, r3, r8, fp, lr}
    10a4:	0a00000a 	beq	10d4 <__resume1_start+0x10d4>
    10a8:	0e03000d 	cdpeq	0, 0, cr0, cr3, cr13, {0}
    10ac:	0b3b0b3a 	bleq	ec3d9c <__bss_end+0xeb0c50>
    10b0:	0a381349 	beq	e05ddc <__bss_end+0xdf2c90>
    10b4:	2e0b0000 	cdpcs	0, 0, cr0, cr11, cr0, {0}
    10b8:	030c3f01 	movweq	r3, #52993	; 0xcf01
    10bc:	3b0b3a0e 	blcc	2cf8fc <__bss_end+0x2bc7b0>
    10c0:	490c270b 	stmdbmi	ip, {r0, r1, r3, r8, r9, sl, sp}
    10c4:	12011113 	andne	r1, r1, #-1073741820	; 0xc0000004
    10c8:	010a4001 	tsteq	sl, r1
    10cc:	0c000013 	stceq	0, cr0, [r0], {19}
    10d0:	0e030005 	cdpeq	0, 0, cr0, cr3, cr5, {0}
    10d4:	0b3b0b3a 	bleq	ec3dc4 <__bss_end+0xeb0c78>
    10d8:	06021349 	streq	r1, [r2], -r9, asr #6
    10dc:	0f0d0000 	svceq	0x000d0000
    10e0:	490b0b00 	stmdbmi	fp, {r8, r9, fp}
    10e4:	0e000013 	mcreq	0, 0, r0, cr0, cr3, {0}
    10e8:	0e030034 	mcreq	0, 0, r0, cr3, cr4, {1}
    10ec:	0b3b0b3a 	bleq	ec3ddc <__bss_end+0xeb0c90>
    10f0:	0a021349 	beq	85e1c <__bss_end+0x72cd0>
    10f4:	01000000 	mrseq	r0, (UNDEF: 0)
    10f8:	0e250111 	mcreq	1, 1, r0, cr5, cr1, {0}
    10fc:	0e030b13 	vmoveq.32	d3[0], r0
    1100:	01110e1b 	tsteq	r1, fp, lsl lr
    1104:	06100112 			; <UNDEFINED> instruction: 0x06100112
    1108:	24020000 	strcs	r0, [r2], #-0
    110c:	3e0b0b00 	vmlacc.f64	d0, d11, d0
    1110:	000e030b 	andeq	r0, lr, fp, lsl #6
    1114:	00160300 	andseq	r0, r6, r0, lsl #6
    1118:	0b3a0e03 	bleq	e8492c <__bss_end+0xe717e0>
    111c:	13490b3b 	movtne	r0, #39739	; 0x9b3b
    1120:	24040000 	strcs	r0, [r4], #-0
    1124:	3e0b0b00 	vmlacc.f64	d0, d11, d0
    1128:	0008030b 	andeq	r0, r8, fp, lsl #6
    112c:	012e0500 	teqeq	lr, r0, lsl #10
    1130:	0b3a0e03 	bleq	e84944 <__bss_end+0xe717f8>
    1134:	0c270b3b 	stceq	11, cr0, [r7], #-236	; 0xffffff14
    1138:	0b201349 	bleq	805e64 <__bss_end+0x7f2d18>
    113c:	00001301 	andeq	r1, r0, r1, lsl #6
    1140:	03003406 	movweq	r3, #1030	; 0x406
    1144:	3b0b3a0e 	blcc	2cf984 <__bss_end+0x2bc838>
    1148:	0013490b 	andseq	r4, r3, fp, lsl #18
    114c:	012e0700 	teqeq	lr, r0, lsl #14
    1150:	0b3a0e03 	bleq	e84964 <__bss_end+0xe71818>
    1154:	0c270b3b 	stceq	11, cr0, [r7], #-236	; 0xffffff14
    1158:	13010b20 	movwne	r0, #6944	; 0x1b20
    115c:	05080000 	streq	r0, [r8, #-0]
    1160:	3a0e0300 	bcc	381d68 <__bss_end+0x36ec1c>
    1164:	490b3b0b 	stmdbmi	fp, {r0, r1, r3, r8, r9, fp, ip, sp}
    1168:	09000013 	stmdbeq	r0, {r0, r1, r4}
    116c:	0c3f012e 	ldfeqs	f0, [pc], #-184	; 10bc <__resume1_start+0x10bc>
    1170:	0b3a0e03 	bleq	e84984 <__bss_end+0xe71838>
    1174:	0c270b3b 	stceq	11, cr0, [r7], #-236	; 0xffffff14
    1178:	01111349 	tsteq	r1, r9, asr #6
    117c:	0a400112 	beq	10015cc <__bss_end+0xfee480>
    1180:	00001301 	andeq	r1, r0, r1, lsl #6
    1184:	0300050a 	movweq	r0, #1290	; 0x50a
    1188:	3b0b3a0e 	blcc	2cf9c8 <__bss_end+0x2bc87c>
    118c:	0213490b 	andseq	r4, r3, #180224	; 0x2c000
    1190:	0b000006 	bleq	11b0 <__resume1_start+0x11b0>
    1194:	0c3f012e 	ldfeqs	f0, [pc], #-184	; 10e4 <__resume1_start+0x10e4>
    1198:	0b3a0e03 	bleq	e849ac <__bss_end+0xe71860>
    119c:	0c270b3b 	stceq	11, cr0, [r7], #-236	; 0xffffff14
    11a0:	01111349 	tsteq	r1, r9, asr #6
    11a4:	06400112 			; <UNDEFINED> instruction: 0x06400112
    11a8:	00001301 	andeq	r1, r0, r1, lsl #6
    11ac:	0300340c 	movweq	r3, #1036	; 0x40c
    11b0:	3b0b3a0e 	blcc	2cf9f0 <__bss_end+0x2bc8a4>
    11b4:	0213490b 	andseq	r4, r3, #180224	; 0x2c000
    11b8:	0d000006 	stceq	0, cr0, [r0, #-24]	; 0xffffffe8
    11bc:	1331011d 	teqne	r1, #1073741831	; 0x40000007
    11c0:	01120111 	tsteq	r2, r1, lsl r1
    11c4:	0b590b58 	bleq	1643f2c <__bss_end+0x1630de0>
    11c8:	00001301 	andeq	r1, r0, r1, lsl #6
    11cc:	11010b0e 	tstne	r1, lr, lsl #22
    11d0:	00011201 	andeq	r1, r1, r1, lsl #4
    11d4:	00340f00 	eorseq	r0, r4, r0, lsl #30
    11d8:	06021331 			; <UNDEFINED> instruction: 0x06021331
    11dc:	1d100000 	ldcne	0, cr0, [r0, #-0]
    11e0:	11133101 	tstne	r3, r1, lsl #2
    11e4:	58011201 	stmdapl	r1, {r0, r9, ip}
    11e8:	000b590b 	andeq	r5, fp, fp, lsl #18
    11ec:	00051100 	andeq	r1, r5, r0, lsl #2
    11f0:	06021331 			; <UNDEFINED> instruction: 0x06021331
    11f4:	1d120000 	ldcne	0, cr0, [r2, #-0]
    11f8:	52133101 	andspl	r3, r3, #1073741824	; 0x40000000
    11fc:	58065501 	stmdapl	r6, {r0, r8, sl, ip, lr}
    1200:	000b590b 	andeq	r5, fp, fp, lsl #18
    1204:	00051300 	andeq	r1, r5, r0, lsl #6
    1208:	0a021331 	beq	85ed4 <__bss_end+0x72d88>
    120c:	34140000 	ldrcc	r0, [r4], #-0
    1210:	02133100 	andseq	r3, r3, #0
    1214:	1500000a 	strne	r0, [r0, #-10]
    1218:	0e030034 	mcreq	0, 0, r0, cr3, cr4, {1}
    121c:	0b3b0b3a 	bleq	ec3f0c <__bss_end+0xeb0dc0>
    1220:	0a021349 	beq	85f4c <__bss_end+0x72e00>
    1224:	01000000 	mrseq	r0, (UNDEF: 0)
    1228:	0e250111 	mcreq	1, 1, r0, cr5, cr1, {0}
    122c:	0e030b13 	vmoveq.32	d3[0], r0
    1230:	01110e1b 	tsteq	r1, fp, lsl lr
    1234:	06100112 			; <UNDEFINED> instruction: 0x06100112
    1238:	24020000 	strcs	r0, [r2], #-0
    123c:	3e0b0b00 	vmlacc.f64	d0, d11, d0
    1240:	000e030b 	andeq	r0, lr, fp, lsl #6
    1244:	00160300 	andseq	r0, r6, r0, lsl #6
    1248:	0b3a0e03 	bleq	e84a5c <__bss_end+0xe71910>
    124c:	13490b3b 	movtne	r0, #39739	; 0x9b3b
    1250:	24040000 	strcs	r0, [r4], #-0
    1254:	3e0b0b00 	vmlacc.f64	d0, d11, d0
    1258:	0008030b 	andeq	r0, r8, fp, lsl #6
    125c:	01130500 	tsteq	r3, r0, lsl #10
    1260:	0b3a0b0b 	bleq	e83e94 <__bss_end+0xe70d48>
    1264:	13010b3b 	movwne	r0, #6971	; 0x1b3b
    1268:	0d060000 	stceq	0, cr0, [r6, #-0]
    126c:	3a0e0300 	bcc	381e74 <__bss_end+0x36ed28>
    1270:	490b3b0b 	stmdbmi	fp, {r0, r1, r3, r8, r9, fp, ip, sp}
    1274:	0d0b0b13 	vstreq	d0, [fp, #-76]	; 0xffffffb4
    1278:	380b0c0b 	stmdacc	fp, {r0, r1, r3, sl, fp}
    127c:	0700000a 	streq	r0, [r0, -sl]
    1280:	0b0b0117 	bleq	2c16e4 <__bss_end+0x2ae598>
    1284:	0b3b0b3a 	bleq	ec3f74 <__bss_end+0xeb0e28>
    1288:	00001301 	andeq	r1, r0, r1, lsl #6
    128c:	03000d08 	movweq	r0, #3336	; 0xd08
    1290:	3b0b3a0e 	blcc	2cfad0 <__bss_end+0x2bc984>
    1294:	0013490b 	andseq	r4, r3, fp, lsl #18
    1298:	000d0900 	andeq	r0, sp, r0, lsl #18
    129c:	0b3a0e03 	bleq	e84ab0 <__bss_end+0xe71964>
    12a0:	1349053b 	movtne	r0, #38203	; 0x953b
    12a4:	0b0d0b0b 	bleq	343ed8 <__bss_end+0x330d8c>
    12a8:	0a380b0c 	beq	e03ee0 <__bss_end+0xdf0d94>
    12ac:	0d0a0000 	stceq	0, cr0, [sl, #-0]
    12b0:	3a0e0300 	bcc	381eb8 <__bss_end+0x36ed6c>
    12b4:	49053b0b 	stmdbmi	r5, {r0, r1, r3, r8, r9, fp, ip, sp}
    12b8:	0b000013 	bleq	130c <__resume1_start+0x130c>
    12bc:	0e030016 	mcreq	0, 0, r0, cr3, cr6, {0}
    12c0:	053b0b3a 	ldreq	r0, [fp, #-2874]!	; 0xb3a
    12c4:	00001349 	andeq	r1, r0, r9, asr #6
    12c8:	0b01130c 	bleq	45f00 <__bss_end+0x32db4>
    12cc:	3b0b3a0b 	blcc	2cfb00 <__bss_end+0x2bc9b4>
    12d0:	00130105 	andseq	r0, r3, r5, lsl #2
    12d4:	01170d00 	tsteq	r7, r0, lsl #26
    12d8:	0b3a0b0b 	bleq	e83f0c <__bss_end+0xe70dc0>
    12dc:	1301053b 	movwne	r0, #5435	; 0x153b
    12e0:	130e0000 	movwne	r0, #57344	; 0xe000
    12e4:	0b0e0301 	bleq	381ef0 <__bss_end+0x36eda4>
    12e8:	3b0b3a05 	blcc	2cfb04 <__bss_end+0x2bc9b8>
    12ec:	00130105 	andseq	r0, r3, r5, lsl #2
    12f0:	000d0f00 	andeq	r0, sp, r0, lsl #30
    12f4:	0b3a0e03 	bleq	e84b08 <__bss_end+0xe719bc>
    12f8:	1349053b 	movtne	r0, #38203	; 0x953b
    12fc:	00000a38 	andeq	r0, r0, r8, lsr sl
    1300:	49003510 	stmdbmi	r0, {r4, r8, sl, ip, sp}
    1304:	11000013 	tstne	r0, r3, lsl r0
    1308:	13490101 	movtne	r0, #37121	; 0x9101
    130c:	00001301 	andeq	r1, r0, r1, lsl #6
    1310:	49002112 	stmdbmi	r0, {r1, r4, r8, sp}
    1314:	000b2f13 	andeq	r2, fp, r3, lsl pc
    1318:	000f1300 	andeq	r1, pc, r0, lsl #6
    131c:	13490b0b 	movtne	r0, #39691	; 0x9b0b
    1320:	13140000 	tstne	r4, #0
    1324:	0b0e0301 	bleq	381f30 <__bss_end+0x36ede4>
    1328:	3b0b3a0b 	blcc	2cfb5c <__bss_end+0x2bca10>
    132c:	0013010b 	andseq	r0, r3, fp, lsl #2
    1330:	000d1500 	andeq	r1, sp, r0, lsl #10
    1334:	0b3a0e03 	bleq	e84b48 <__bss_end+0xe719fc>
    1338:	13490b3b 	movtne	r0, #39739	; 0x9b3b
    133c:	00000a38 	andeq	r0, r0, r8, lsr sl
    1340:	03000d16 	movweq	r0, #3350	; 0xd16
    1344:	3b0b3a08 	blcc	2cfb6c <__bss_end+0x2bca20>
    1348:	3813490b 	ldmdacc	r3, {r0, r1, r3, r8, fp, lr}
    134c:	1700000a 	strne	r0, [r0, -sl]
    1350:	0e030113 	mcreq	1, 0, r0, cr3, cr3, {0}
    1354:	0b3a050b 	bleq	e82788 <__bss_end+0xe6f63c>
    1358:	13010b3b 	movwne	r0, #6971	; 0x1b3b
    135c:	2e180000 	cdpcs	0, 1, cr0, cr8, cr0, {0}
    1360:	030c3f01 	movweq	r3, #52993	; 0xcf01
    1364:	3b0b3a0e 	blcc	2cfba4 <__bss_end+0x2bca58>
    1368:	490c270b 	stmdbmi	ip, {r0, r1, r3, r8, r9, sl, sp}
    136c:	12011113 	andne	r1, r1, #-1073741820	; 0xc0000004
    1370:	010a4001 	tsteq	sl, r1
    1374:	19000013 	stmdbne	r0, {r0, r1, r4}
    1378:	0e030005 	cdpeq	0, 0, cr0, cr3, cr5, {0}
    137c:	0b3b0b3a 	bleq	ec406c <__bss_end+0xeb0f20>
    1380:	06021349 	streq	r1, [r2], -r9, asr #6
    1384:	2e1a0000 	cdpcs	0, 1, cr0, cr10, cr0, {0}
    1388:	030c3f00 	movweq	r3, #52992	; 0xcf00
    138c:	3b0b3a0e 	blcc	2cfbcc <__bss_end+0x2bca80>
    1390:	490c270b 	stmdbmi	ip, {r0, r1, r3, r8, r9, sl, sp}
    1394:	12011113 	andne	r1, r1, #-1073741820	; 0xc0000004
    1398:	000a4001 	andeq	r4, sl, r1
    139c:	012e1b00 	teqeq	lr, r0, lsl #22
    13a0:	0e030c3f 	mcreq	12, 0, r0, cr3, cr15, {1}
    13a4:	053b0b3a 	ldreq	r0, [fp, #-2874]!	; 0xb3a
    13a8:	13490c27 	movtne	r0, #39975	; 0x9c27
    13ac:	01120111 	tsteq	r2, r1, lsl r1
    13b0:	13010a40 	movwne	r0, #6720	; 0x1a40
    13b4:	051c0000 	ldreq	r0, [ip, #-0]
    13b8:	3a0e0300 	bcc	381fc0 <__bss_end+0x36ee74>
    13bc:	49053b0b 	stmdbmi	r5, {r0, r1, r3, r8, r9, fp, ip, sp}
    13c0:	00060213 	andeq	r0, r6, r3, lsl r2
    13c4:	012e1d00 	teqeq	lr, r0, lsl #26
    13c8:	0b3a0e03 	bleq	e84bdc <__bss_end+0xe71a90>
    13cc:	0c27053b 	cfstr32eq	mvfx0, [r7], #-236	; 0xffffff14
    13d0:	0b201349 	bleq	8060fc <__bss_end+0x7f2fb0>
    13d4:	00001301 	andeq	r1, r0, r1, lsl #6
    13d8:	0300341e 	movweq	r3, #1054	; 0x41e
    13dc:	3b0b3a0e 	blcc	2cfc1c <__bss_end+0x2bcad0>
    13e0:	00134905 	andseq	r4, r3, r5, lsl #18
    13e4:	012e1f00 	teqeq	lr, r0, lsl #30
    13e8:	0e030c3f 	mcreq	12, 0, r0, cr3, cr15, {1}
    13ec:	053b0b3a 	ldreq	r0, [fp, #-2874]!	; 0xb3a
    13f0:	13490c27 	movtne	r0, #39975	; 0x9c27
    13f4:	01120111 	tsteq	r2, r1, lsl r1
    13f8:	13010640 	movwne	r0, #5696	; 0x1640
    13fc:	1d200000 	stcne	0, cr0, [r0, #-0]
    1400:	11133101 	tstne	r3, r1, lsl #2
    1404:	58011201 	stmdapl	r1, {r0, r9, ip}
    1408:	0005590b 	andeq	r5, r5, fp, lsl #18
    140c:	010b2100 	mrseq	r2, (UNDEF: 27)
    1410:	01120111 	tsteq	r2, r1, lsl r1
    1414:	34220000 	strtcc	r0, [r2], #-0
    1418:	02133100 	andseq	r3, r3, #0
    141c:	23000006 	movwcs	r0, #6
    1420:	0e030034 	mcreq	0, 0, r0, cr3, cr4, {1}
    1424:	053b0b3a 	ldreq	r0, [fp, #-2874]!	; 0xb3a
    1428:	06021349 	streq	r1, [r2], -r9, asr #6
    142c:	34240000 	strtcc	r0, [r4], #-0
    1430:	3a0e0300 	bcc	382038 <__bss_end+0x36eeec>
    1434:	49053b0b 	stmdbmi	r5, {r0, r1, r3, r8, r9, fp, ip, sp}
    1438:	000b1c13 	andeq	r1, fp, r3, lsl ip
    143c:	00342500 	eorseq	r2, r4, r0, lsl #10
    1440:	0b3a0e03 	bleq	e84c54 <__bss_end+0xe71b08>
    1444:	13490b3b 	movtne	r0, #39739	; 0x9b3b
    1448:	00000a02 	andeq	r0, r0, r2, lsl #20
    144c:	03003426 	movweq	r3, #1062	; 0x426
    1450:	3b0b3a0e 	blcc	2cfc90 <__bss_end+0x2bcb44>
    1454:	02134905 	andseq	r4, r3, #81920	; 0x14000
    1458:	0000000a 	andeq	r0, r0, sl

Disassembly of section .debug_line:

00000000 <.debug_line>:
       0:	00000094 	muleq	r0, r4, r0
       4:	008e0002 	addeq	r0, lr, r2
       8:	01020000 	mrseq	r0, (UNDEF: 2)
       c:	000d0efb 	strdeq	r0, [sp], -fp
      10:	01010101 	tsteq	r1, r1, lsl #2
      14:	01000000 	mrseq	r0, (UNDEF: 0)
      18:	61010000 	mrsvs	r0, (UNDEF: 1)
      1c:	2f686372 	svccs	0x00686372
      20:	2f6d7261 	svccs	0x006d7261
      24:	6863616d 	stmdavs	r3!, {r0, r2, r3, r5, r6, r8, sp, lr}^
      28:	6e75732d 	cdpvs	3, 7, cr7, cr5, cr13, {1}
      2c:	702f6978 	eorvc	r6, pc, r8, ror r9	; <UNPREDICTABLE>
      30:	74732f6d 	ldrbtvc	r2, [r3], #-3949	; 0xf6d
      34:	62646e61 	rsbvs	r6, r4, #1552	; 0x610
      38:	75732f79 	ldrbvc	r2, [r3, #-3961]!	; 0xf79
      3c:	2f726570 	svccs	0x00726570
      40:	75736572 	ldrbvc	r6, [r3, #-1394]!	; 0x572
      44:	2e2f656d 	cfsh64cs	mvdx6, mvdx15, #61
      48:	002e2e2f 	eoreq	r2, lr, pc, lsr #28
      4c:	68637261 	stmdavs	r3!, {r0, r5, r6, r9, ip, sp, lr}^
      50:	6d72612f 	ldfvse	f6, [r2, #-188]!	; 0xffffff44
      54:	63616d2f 	cmnvs	r1, #3008	; 0xbc0
      58:	75732d68 	ldrbvc	r2, [r3, #-3432]!	; 0xd68
      5c:	2f69786e 	svccs	0x0069786e
      60:	732f6d70 	teqvc	pc, #7168	; 0x1c00
      64:	646e6174 	strbtvs	r6, [lr], #-372	; 0x174
      68:	732f7962 	teqvc	pc, #1605632	; 0x188000
      6c:	72657075 	rsbvc	r7, r5, #117	; 0x75
      70:	7365722f 	cmnvc	r5, #-268435454	; 0xf0000002
      74:	00656d75 	rsbeq	r6, r5, r5, ror sp
      78:	70757300 	rsbsvc	r7, r5, r0, lsl #6
      7c:	695f7265 	ldmdbvs	pc, {r0, r2, r5, r6, r9, ip, sp, lr}^	; <UNPREDICTABLE>
      80:	0100682e 	tsteq	r0, lr, lsr #16
      84:	65720000 	ldrbvs	r0, [r2, #-0]!
      88:	656d7573 	strbvs	r7, [sp, #-1395]!	; 0x573
      8c:	6165685f 	cmnvs	r5, pc, asr r8
      90:	00632e64 	rsbeq	r2, r3, r4, ror #28
      94:	00000002 	andeq	r0, r0, r2
      98:	00000076 	andeq	r0, r0, r6, ror r0
      9c:	004c0002 	subeq	r0, ip, r2
      a0:	01020000 	mrseq	r0, (UNDEF: 2)
      a4:	000d0efb 	strdeq	r0, [sp], -fp
      a8:	01010101 	tsteq	r1, r1, lsl #2
      ac:	01000000 	mrseq	r0, (UNDEF: 0)
      b0:	61010000 	mrsvs	r0, (UNDEF: 1)
      b4:	2f686372 	svccs	0x00686372
      b8:	2f6d7261 	svccs	0x006d7261
      bc:	6863616d 	stmdavs	r3!, {r0, r2, r3, r5, r6, r8, sp, lr}^
      c0:	6e75732d 	cdpvs	3, 7, cr7, cr5, cr13, {1}
      c4:	702f6978 	eorvc	r6, pc, r8, ror r9	; <UNPREDICTABLE>
      c8:	74732f6d 	ldrbtvc	r2, [r3], #-3949	; 0xf6d
      cc:	62646e61 	rsbvs	r6, r4, #1552	; 0x610
      d0:	75732f79 	ldrbvc	r2, [r3, #-3961]!	; 0xf79
      d4:	2f726570 	svccs	0x00726570
      d8:	75736572 	ldrbvc	r6, [r3, #-1394]!	; 0x572
      dc:	0000656d 	andeq	r6, r0, sp, ror #10
      e0:	75736572 	ldrbvc	r6, [r3, #-1394]!	; 0x572
      e4:	2e31656d 	cdpcs	5, 3, cr6, cr1, cr13, {3}
      e8:	00010053 	andeq	r0, r1, r3, asr r0
      ec:	05000000 	streq	r0, [r0, #-0]
      f0:	01003002 	tsteq	r0, r2
      f4:	00c30300 	sbceq	r0, r3, r0, lsl #6
      f8:	2f2f2f01 	svccs	0x002f2f01
      fc:	2f332f2f 	svccs	0x00332f2f
     100:	302f2f2f 	eorcc	r2, pc, pc, lsr #30
     104:	2e22032f 	cdpcs	3, 2, cr0, cr2, cr15, {1}
     108:	2f312f30 	svccs	0x00312f30
     10c:	00020230 	andeq	r0, r2, r0, lsr r2
     110:	00720101 	rsbseq	r0, r2, r1, lsl #2
     114:	00020000 	andeq	r0, r2, r0
     118:	00000044 	andeq	r0, r0, r4, asr #32
     11c:	0efb0102 	cdpeq	1, 15, cr0, cr11, cr2, {0}
     120:	0101000d 	tsteq	r1, sp
     124:	00000101 	andeq	r0, r0, r1, lsl #2
     128:	00000100 	andeq	r0, r0, r0, lsl #2
     12c:	63726101 	cmnvs	r2, #1073741824	; 0x40000000
     130:	72612f68 	rsbvc	r2, r1, #416	; 0x1a0
     134:	616d2f6d 	cmnvs	sp, sp, ror #30
     138:	732d6863 	teqvc	sp, #6488064	; 0x630000
     13c:	69786e75 	ldmdbvs	r8!, {r0, r2, r4, r5, r6, r9, sl, fp, sp, lr}^
     140:	2f6d702f 	svccs	0x006d702f
     144:	6e617473 	mcrvs	4, 3, r7, cr1, cr3, {3}
     148:	2f796264 	svccs	0x00796264
     14c:	65707573 	ldrbvs	r7, [r0, #-1395]!	; 0x573
     150:	63000072 	movwvs	r0, #114	; 0x72
     154:	6f6d6d6f 	svcvs	0x006d6d6f
     158:	00632e6e 	rsbeq	r2, r3, lr, ror #28
     15c:	00000001 	andeq	r0, r0, r1
     160:	7c020500 	cfstr32vc	mvfx0, [r2], {-0}
     164:	03000100 	movweq	r0, #256	; 0x100
     168:	4c150123 	ldfmis	f0, [r5], {35}	; 0x23
     16c:	004a7a03 	subeq	r7, sl, r3, lsl #20
     170:	35020402 	strcc	r0, [r2, #-1026]	; 0x402
     174:	02040200 	andeq	r0, r4, #0
     178:	0402002d 	streq	r0, [r2], #-45	; 0x2d
     17c:	02002f02 	andeq	r2, r0, #8
     180:	022d0204 	eoreq	r0, sp, #1073741824	; 0x40000000
     184:	01010004 	tsteq	r1, r4
     188:	00000019 	andeq	r0, r0, r9, lsl r0
     18c:	00130002 	andseq	r0, r3, r2
     190:	01020000 	mrseq	r0, (UNDEF: 2)
     194:	000d0efb 	strdeq	r0, [sp], -fp
     198:	01010101 	tsteq	r1, r1, lsl #2
     19c:	01000000 	mrseq	r0, (UNDEF: 0)
     1a0:	00010000 	andeq	r0, r1, r0
     1a4:	00006700 	andeq	r6, r0, r0, lsl #14
     1a8:	49000200 	stmdbmi	r0, {r9}
     1ac:	02000000 	andeq	r0, r0, #0
     1b0:	0d0efb01 	vstreq	d15, [lr, #-4]
     1b4:	01010100 	mrseq	r0, (UNDEF: 17)
     1b8:	00000001 	andeq	r0, r0, r1
     1bc:	01000001 	tsteq	r0, r1
     1c0:	68637261 	stmdavs	r3!, {r0, r5, r6, r9, ip, sp, lr}^
     1c4:	6d72612f 	ldfvse	f6, [r2, #-188]!	; 0xffffff44
     1c8:	63616d2f 	cmnvs	r1, #3008	; 0xbc0
     1cc:	75732d68 	ldrbvc	r2, [r3, #-3432]!	; 0xd68
     1d0:	2f69786e 	svccs	0x0069786e
     1d4:	732f6d70 	teqvc	pc, #7168	; 0x1c00
     1d8:	646e6174 	strbtvs	r6, [lr], #-372	; 0x174
     1dc:	732f7962 	teqvc	pc, #1605632	; 0x188000
     1e0:	72657075 	rsbvc	r7, r5, #117	; 0x75
     1e4:	75730000 	ldrbvc	r0, [r3, #-0]!
     1e8:	5f726570 	svcpl	0x00726570
     1ec:	616c6564 	cmnvs	ip, r4, ror #10
     1f0:	00532e79 	subseq	r2, r3, r9, ror lr
     1f4:	00000001 	andeq	r0, r0, r1
     1f8:	a4020500 	strge	r0, [r2], #-1280	; 0x500
     1fc:	03000100 	movweq	r0, #256	; 0x100
     200:	2f2f010d 	svccs	0x002f010d
     204:	2f2f2f30 	svccs	0x002f2f30
     208:	022f302f 	eoreq	r3, pc, #47	; 0x2f
     20c:	01010002 	tsteq	r1, r2
     210:	00000019 	andeq	r0, r0, r9, lsl r0
     214:	00130002 	andseq	r0, r3, r2
     218:	01020000 	mrseq	r0, (UNDEF: 2)
     21c:	000d0efb 	strdeq	r0, [sp], -fp
     220:	01010101 	tsteq	r1, r1, lsl #2
     224:	01000000 	mrseq	r0, (UNDEF: 0)
     228:	00010000 	andeq	r0, r1, r0
     22c:	00001900 	andeq	r1, r0, r0, lsl #18
     230:	13000200 	movwne	r0, #512	; 0x200
     234:	02000000 	andeq	r0, r0, #0
     238:	0d0efb01 	vstreq	d15, [lr, #-4]
     23c:	01010100 	mrseq	r0, (UNDEF: 17)
     240:	00000001 	andeq	r0, r0, r1
     244:	01000001 	tsteq	r0, r1
     248:	00190000 	andseq	r0, r9, r0
     24c:	00020000 	andeq	r0, r2, r0
     250:	00000013 	andeq	r0, r0, r3, lsl r0
     254:	0efb0102 	cdpeq	1, 15, cr0, cr11, cr2, {0}
     258:	0101000d 	tsteq	r1, sp
     25c:	00000101 	andeq	r0, r0, r1, lsl #2
     260:	00000100 	andeq	r0, r0, r0, lsl #2
     264:	41000001 	tstmi	r0, r1
     268:	02000001 	andeq	r0, r0, #1
     26c:	0000c500 	andeq	ip, r0, r0, lsl #10
     270:	fb010200 	blx	40a7a <__bss_end+0x2d92e>
     274:	01000d0e 	tsteq	r0, lr, lsl #26
     278:	00010101 	andeq	r0, r1, r1, lsl #2
     27c:	00010000 	andeq	r0, r1, r0
     280:	72610100 	rsbvc	r0, r1, #0
     284:	612f6863 	teqvs	pc, r3, ror #16
     288:	6d2f6d72 	stcvs	13, cr6, [pc, #-456]!	; c8 <__resume1_start+0xc8>
     28c:	2d686361 	stclcs	3, cr6, [r8, #-388]!	; 0xfffffe7c
     290:	786e7573 	stmdavc	lr!, {r0, r1, r4, r5, r6, r8, sl, ip, sp, lr}^
     294:	6d702f69 	ldclvs	15, cr2, [r0, #-420]!	; 0xfffffe5c
     298:	6174732f 	cmnvs	r4, pc, lsr #6
     29c:	7962646e 	stmdbvc	r2!, {r1, r2, r3, r5, r6, sl, sp, lr}^
     2a0:	7075732f 	rsbsvc	r7, r5, pc, lsr #6
     2a4:	722f7265 	eorvc	r7, pc, #1342177286	; 0x50000006
     2a8:	6d757365 	ldclvs	3, cr7, [r5, #-404]!	; 0xfffffe6c
     2ac:	72610065 	rsbvc	r0, r1, #101	; 0x65
     2b0:	612f6863 	teqvs	pc, r3, ror #16
     2b4:	6d2f6d72 	stcvs	13, cr6, [pc, #-456]!	; f4 <__resume1_start+0xf4>
     2b8:	2d686361 	stclcs	3, cr6, [r8, #-388]!	; 0xfffffe7c
     2bc:	786e7573 	stmdavc	lr!, {r0, r1, r4, r5, r6, r8, sl, ip, sp, lr}^
     2c0:	6d702f69 	ldclvs	15, cr2, [r0, #-420]!	; 0xfffffe5c
     2c4:	6174732f 	cmnvs	r4, pc, lsr #6
     2c8:	7962646e 	stmdbvc	r2!, {r1, r2, r3, r5, r6, sl, sp, lr}^
     2cc:	7075732f 	rsbsvc	r7, r5, pc, lsr #6
     2d0:	722f7265 	eorvc	r7, pc, #1342177286	; 0x50000006
     2d4:	6d757365 	ldclvs	3, cr7, [r5, #-404]!	; 0xfffffe6c
     2d8:	2f2e2f65 	svccs	0x002e2f65
     2dc:	2e2f2e2e 	cdpcs	14, 2, cr2, cr15, cr14, {1}
     2e0:	2e2e2f2e 	cdpcs	15, 2, cr2, cr14, cr14, {1}
     2e4:	65720000 	ldrbvs	r0, [r2, #-0]!
     2e8:	656d7573 	strbvs	r7, [sp, #-1395]!	; 0x573
     2ec:	5f635f31 	svcpl	0x00635f31
     2f0:	74726170 	ldrbtvc	r6, [r2], #-368	; 0x170
     2f4:	0100632e 	tsteq	r0, lr, lsr #6
     2f8:	6d700000 	ldclvs	0, cr0, [r0, #-0]
     2fc:	7079745f 	rsbsvc	r7, r9, pc, asr r4
     300:	682e7365 	stmdavs	lr!, {r0, r2, r5, r6, r8, r9, ip, sp, lr}
     304:	00000200 	andeq	r0, r0, r0, lsl #4
     308:	5f6d656d 	svcpl	0x006d656d
     30c:	756d6363 	strbvc	r6, [sp, #-867]!	; 0x363
     310:	6e75732d 	cdpvs	3, 7, cr7, cr5, cr13, {1}
     314:	31776939 	cmncc	r7, r9, lsr r9
     318:	682e3170 	stmdavs	lr!, {r4, r5, r6, r8, ip, sp}
     31c:	00000200 	andeq	r0, r0, r0, lsl #4
     320:	5f6d656d 	svcpl	0x006d656d
     324:	2e6b6c63 	cdpcs	12, 6, cr6, cr11, cr3, {3}
     328:	00020068 	andeq	r0, r2, r8, rrx
     32c:	2e6d7000 	cdpcs	0, 6, cr7, cr13, cr0, {0}
     330:	00020068 	andeq	r0, r2, r8, rrx
     334:	05000000 	streq	r0, [r0, #-0]
     338:	0100cc02 	tsteq	r0, r2, lsl #24
     33c:	012e0300 	teqeq	lr, r0, lsl #6
     340:	2e0c0331 	mcrcs	3, 0, r0, cr12, cr1, {1}
     344:	2f2e7403 	svccs	0x002e7403
     348:	4c2e0903 	stcmi	9, cr0, [lr], #-12
     34c:	2f4b4b6d 	svccs	0x004b4b6d
     350:	4b4e6b4c 	blmi	139b088 <__bss_end+0x1387f3c>
     354:	4b354b50 	blmi	d5309c <__bss_end+0xd3ff50>
     358:	03694b6a 	cmneq	r9, #108544	; 0x1a800
     35c:	24034a55 	strcs	r4, [r3], #-2645	; 0xa55
     360:	66670366 	strbtvs	r0, [r7], -r6, ror #6
     364:	58082c03 	stmdapl	r8, {r0, r1, sl, fp, sp}
     368:	302e0b03 	eorcc	r0, lr, r3, lsl #22
     36c:	01040200 	mrseq	r0, R12_usr
     370:	068206a0 	streq	r0, [r2], r0, lsr #13
     374:	4a2e0335 	bmi	b81050 <__bss_end+0xb6df04>
     378:	302e5203 	eorcc	r5, lr, r3, lsl #4
     37c:	4f2e2603 	svcmi	0x002e2603
     380:	a12f322a 	teqge	pc, sl, lsr #4
     384:	7a03344b 	bvc	cd4b8 <__bss_end+0xba36c>
     388:	2f6a302e 	svccs	0x006a302e
     38c:	4b2d2f4e 	blmi	b4c0cc <__bss_end+0xb38f80>
     390:	4e2f6731 	mcrmi	7, 1, r6, cr15, cr1, {1}
     394:	66018303 	strvs	r8, [r1], -r3, lsl #6
     398:	2c302f4d 	ldccs	15, cr2, [r0], #-308	; 0xfffffecc
     39c:	2e7eff03 	cdpcs	15, 7, cr15, cr14, cr3, {0}
     3a0:	2fbc314b 	svccs	0x00bc314b
     3a4:	024a7503 	subeq	r7, sl, #12582912	; 0xc00000
     3a8:	0101000c 	tsteq	r1, ip
     3ac:	00000124 	andeq	r0, r0, r4, lsr #2
     3b0:	005f0002 	subseq	r0, pc, r2
     3b4:	01020000 	mrseq	r0, (UNDEF: 2)
     3b8:	000d0efb 	strdeq	r0, [sp], -fp
     3bc:	01010101 	tsteq	r1, r1, lsl #2
     3c0:	01000000 	mrseq	r0, (UNDEF: 0)
     3c4:	61010000 	mrsvs	r0, (UNDEF: 1)
     3c8:	2f686372 	svccs	0x00686372
     3cc:	2f6d7261 	svccs	0x006d7261
     3d0:	6863616d 	stmdavs	r3!, {r0, r2, r3, r5, r6, r8, sp, lr}^
     3d4:	6e75732d 	cdpvs	3, 7, cr7, cr5, cr13, {1}
     3d8:	702f6978 	eorvc	r6, pc, r8, ror r9	; <UNPREDICTABLE>
     3dc:	74732f6d 	ldrbtvc	r2, [r3], #-3949	; 0xf6d
     3e0:	62646e61 	rsbvs	r6, r4, #1552	; 0x610
     3e4:	2e2e2f79 	mcrcs	15, 1, r2, cr14, cr9, {3}
     3e8:	6d700000 	ldclvs	0, cr0, [r0, #-0]
     3ec:	6265645f 	rsbvs	r6, r5, #1593835520	; 0x5f000000
     3f0:	632e6775 	teqvs	lr, #30670848	; 0x1d40000
     3f4:	00000100 	andeq	r0, r0, r0, lsl #2
     3f8:	645f6d70 	ldrbvs	r6, [pc], #-3440	; 400 <__resume1_start+0x400>
     3fc:	67756265 	ldrbvs	r6, [r5, -r5, ror #4]!
     400:	0100682e 	tsteq	r0, lr, lsr #16
     404:	6d700000 	ldclvs	0, cr0, [r0, #-0]
     408:	7079745f 	rsbsvc	r7, r9, pc, asr r4
     40c:	682e7365 	stmdavs	lr!, {r0, r2, r5, r6, r8, r9, ip, sp, lr}
     410:	00000100 	andeq	r0, r0, r0, lsl #2
     414:	02050000 	andeq	r0, r5, #0
     418:	000102e4 	andeq	r0, r1, r4, ror #5
     41c:	30010b03 	andcc	r0, r1, r3, lsl #22
     420:	01040200 	mrseq	r0, R12_usr
     424:	1a516a4b 	bne	145ad58 <__bss_end+0x1447c0c>
     428:	13361936 	teqne	r6, #884736	; 0xd8000
     42c:	314b2d4b 	cmpcc	fp, fp, asr #26
     430:	3211322b 	andscc	r3, r1, #-1342177278	; 0xb0000002
     434:	4b2d4b13 	blmi	b53088 <__bss_end+0xb3ff3c>
     438:	11322b31 	teqne	r2, r1, lsr fp
     43c:	2f2d3232 	svccs	0x002d3232
     440:	2d69672d 	stclcs	7, cr6, [r9, #-180]!	; 0xffffff4c
     444:	2e780336 	mrccs	3, 3, r0, cr8, cr6, {1}
     448:	2f2f2f2d 	svccs	0x002f2f2d
     44c:	4b2f2d2f 	blmi	bcb910 <__bss_end+0xbb87c4>
     450:	672f672f 	strvs	r6, [pc, -pc, lsr #14]!
     454:	032e7703 	teqeq	lr, #786432	; 0xc0000
     458:	2d2f2e0c 	stccs	14, cr2, [pc, #-48]!	; 430 <__resume1_start+0x430>
     45c:	4a31144e 	bmi	c4559c <__bss_end+0xc32450>
     460:	2d2f672f 	stccs	7, cr6, [pc, #-188]!	; 3ac <__resume1_start+0x3ac>
     464:	03660903 	cmneq	r6, #49152	; 0xc000
     468:	4b2c2e79 	blmi	b0be54 <__bss_end+0xaf8d08>
     46c:	2f2d2f2f 	svccs	0x002d2f2f
     470:	2f672f4b 	svccs	0x00672f4b
     474:	2f302f67 	svccs	0x00302f67
     478:	68304d30 	ldmdavs	r0!, {r4, r5, r8, sl, fp, lr}
     47c:	312f6848 	teqcc	pc, r8, asr #16
     480:	324b4c2b 	subcc	r4, fp, #11008	; 0x2b00
     484:	314d2f4d 	cmpcc	sp, sp, asr #30
     488:	312f4d47 	teqcc	pc, r7, asr #26
     48c:	314b4c2b 	cmpcc	fp, fp, lsr #24
     490:	75032c68 	strvc	r2, [r3, #-3176]	; 0xc68
     494:	4a0f032e 	bmi	3c1154 <__bss_end+0x3ae008>
     498:	4b2f4a69 	blmi	bd2e44 <__bss_end+0xbbfcf8>
     49c:	2d2f2f2d 	stccs	15, cr2, [pc, #-180]!	; 3f0 <__resume1_start+0x3f0>
     4a0:	032e0903 	teqeq	lr, #49152	; 0xc000
     4a4:	2c302e77 	ldccs	14, cr2, [r0], #-476	; 0xfffffe24
     4a8:	2d2f2f4b 	stccs	15, cr2, [pc, #-300]!	; 384 <__resume1_start+0x384>
     4ac:	672f4b2f 	strvs	r4, [pc, -pc, lsr #22]!
     4b0:	4732672f 	ldrmi	r6, [r2, -pc, lsr #14]!
     4b4:	2e00cc03 	cdpcs	12, 0, cr12, cr0, cr3, {0}
     4b8:	1631a114 			; <UNDEFINED> instruction: 0x1631a114
     4bc:	31312f67 	teqcc	r1, r7, ror #30
     4c0:	312f6815 	teqcc	pc, r5, lsl r8	; <UNPREDICTABLE>
     4c4:	4c4c3034 	mcrrmi	0, 3, r3, ip, cr4
     4c8:	312f302a 	teqcc	pc, sl, lsr #32
     4cc:	0231312c 	eorseq	r3, r1, #11
     4d0:	01010002 	tsteq	r1, r2
     4d4:	000000ff 	strdeq	r0, [r0], -pc	; <UNPREDICTABLE>
     4d8:	00850002 	addeq	r0, r5, r2
     4dc:	01020000 	mrseq	r0, (UNDEF: 2)
     4e0:	000d0efb 	strdeq	r0, [sp], -fp
     4e4:	01010101 	tsteq	r1, r1, lsl #2
     4e8:	01000000 	mrseq	r0, (UNDEF: 0)
     4ec:	61010000 	mrsvs	r0, (UNDEF: 1)
     4f0:	2f686372 	svccs	0x00686372
     4f4:	2f6d7261 	svccs	0x006d7261
     4f8:	6863616d 	stmdavs	r3!, {r0, r2, r3, r5, r6, r8, sp, lr}^
     4fc:	6e75732d 	cdpvs	3, 7, cr7, cr5, cr13, {1}
     500:	702f6978 	eorvc	r6, pc, r8, ror r9	; <UNPREDICTABLE>
     504:	74732f6d 	ldrbtvc	r2, [r3], #-3949	; 0xf6d
     508:	62646e61 	rsbvs	r6, r4, #1552	; 0x610
     50c:	2e2e2f79 	mcrcs	15, 1, r2, cr14, cr9, {3}
     510:	63726100 	cmnvs	r2, #0
     514:	72612f68 	rsbvc	r2, r1, #416	; 0x1a0
     518:	616d2f6d 	cmnvs	sp, sp, ror #30
     51c:	732d6863 	teqvc	sp, #6488064	; 0x630000
     520:	69786e75 	ldmdbvs	r8!, {r0, r2, r4, r5, r6, r9, sl, fp, sp, lr}^
     524:	2f6d702f 	svccs	0x006d702f
     528:	6e617473 	mcrvs	4, 3, r7, cr1, cr3, {3}
     52c:	2f796264 	svccs	0x00796264
     530:	2e2f2e2e 	cdpcs	14, 2, cr2, cr15, cr14, {1}
     534:	656d0000 	strbvs	r0, [sp, #-0]!
     538:	69745f6d 	ldmdbvs	r4!, {r0, r2, r3, r5, r6, r8, r9, sl, fp, ip, lr}^
     53c:	676e696d 	strbvs	r6, [lr, -sp, ror #18]!
     540:	0100632e 	tsteq	r0, lr, lsr #6
     544:	6d700000 	ldclvs	0, cr0, [r0, #-0]
     548:	7079745f 	rsbsvc	r7, r9, pc, asr r4
     54c:	682e7365 	stmdavs	lr!, {r0, r2, r5, r6, r8, r9, ip, sp, lr}
     550:	00000100 	andeq	r0, r0, r0, lsl #2
     554:	645f6d70 	ldrbvs	r6, [pc], #-3440	; 55c <__resume1_start+0x55c>
     558:	67756265 	ldrbvs	r6, [r5, -r5, ror #4]!
     55c:	0200682e 	andeq	r6, r0, #3014656	; 0x2e0000
     560:	00000000 	andeq	r0, r0, r0
     564:	06280205 	strteq	r0, [r8], -r5, lsl #4
     568:	0b030001 	bleq	c0574 <__bss_end+0xad428>
     56c:	09031401 	stmdbeq	r3, {r0, sl, ip}
     570:	31302f66 	teqcc	r0, r6, ror #30
     574:	31314d32 	teqcc	r1, r2, lsr sp
     578:	314c8514 	cmpcc	ip, r4, lsl r5
     57c:	31848515 	orrcc	r8, r4, r5, lsl r5
     580:	15313015 	ldrne	r3, [r1, #-21]!
     584:	312f312f 	teqcc	pc, pc, lsr #2
     588:	032e7003 	teqeq	lr, #3
     58c:	4b844a17 	blmi	fe112df0 <__bss_end+0xfe0ffca4>
     590:	03362e34 	teqeq	r6, #832	; 0x340
     594:	302f8232 	eorcc	r8, pc, r2, lsr r2	; <UNPREDICTABLE>
     598:	032e4c03 	teqeq	lr, #768	; 0x300
     59c:	30034a57 	andcc	r4, r3, r7, asr sl
     5a0:	2e79032e 	cdpcs	3, 7, cr0, cr9, cr14, {1}
     5a4:	032f4d35 	teqeq	pc, #3392	; 0xd40
     5a8:	4e667fa7 	cdpmi	15, 6, cr7, cr6, cr7, {5}
     5ac:	4a1e034d 	bmi	7812e8 <__bss_end+0x76e19c>
     5b0:	032e3803 	teqeq	lr, #196608	; 0x30000
     5b4:	4d139e28 	ldcmi	14, cr9, [r3, #-160]	; 0xffffff60
     5b8:	2e21030f 	cdpcs	3, 2, cr0, cr1, cr15, {0}
     5bc:	66090314 			; <UNDEFINED> instruction: 0x66090314
     5c0:	3231302f 	eorscc	r3, r1, #47	; 0x2f
     5c4:	a431314d 	ldrtge	r3, [r1], #-333	; 0x14d
     5c8:	312f3031 	teqcc	pc, r1, lsr r0	; <UNPREDICTABLE>
     5cc:	3031a44e 	eorscc	sl, r1, lr, asr #8
     5d0:	0402312f 	streq	r3, [r2], #-303	; 0x12f
     5d4:	ac010100 	stfges	f0, [r1], {-0}
     5d8:	02000000 	andeq	r0, r0, #0
     5dc:	00007f00 	andeq	r7, r0, r0, lsl #30
     5e0:	fb010200 	blx	40dea <__bss_end+0x2dc9e>
     5e4:	01000d0e 	tsteq	r0, lr, lsl #26
     5e8:	00010101 	andeq	r0, r1, r1, lsl #2
     5ec:	00010000 	andeq	r0, r1, r0
     5f0:	72610100 	rsbvc	r0, r1, #0
     5f4:	612f6863 	teqvs	pc, r3, ror #16
     5f8:	6d2f6d72 	stcvs	13, cr6, [pc, #-456]!	; 438 <__resume1_start+0x438>
     5fc:	2d686361 	stclcs	3, cr6, [r8, #-388]!	; 0xfffffe7c
     600:	786e7573 	stmdavc	lr!, {r0, r1, r4, r5, r6, r8, sl, ip, sp, lr}^
     604:	6d702f69 	ldclvs	15, cr2, [r0, #-420]!	; 0xfffffe5c
     608:	6174732f 	cmnvs	r4, pc, lsr #6
     60c:	7962646e 	stmdbvc	r2!, {r1, r2, r3, r5, r6, sl, sp, lr}^
     610:	002e2e2f 	eoreq	r2, lr, pc, lsr #28
     614:	68637261 	stmdavs	r3!, {r0, r5, r6, r9, ip, sp, lr}^
     618:	6d72612f 	ldfvse	f6, [r2, #-188]!	; 0xffffff44
     61c:	63616d2f 	cmnvs	r1, #3008	; 0xbc0
     620:	75732d68 	ldrbvc	r2, [r3, #-3432]!	; 0xd68
     624:	2f69786e 	svccs	0x0069786e
     628:	732f6d70 	teqvc	pc, #7168	; 0x1c00
     62c:	646e6174 	strbtvs	r6, [lr], #-372	; 0x174
     630:	2e2f7962 	cdpcs	9, 2, cr7, cr15, cr2, {3}
     634:	002e2f2e 	eoreq	r2, lr, lr, lsr #30
     638:	6d656d00 	stclvs	13, cr6, [r5, #-0]
     63c:	756d6d5f 	strbvc	r6, [sp, #-3423]!	; 0xd5f
     640:	2e63705f 	mcrcs	0, 3, r7, cr3, cr15, {2}
     644:	00010063 	andeq	r0, r1, r3, rrx
     648:	2e6d7000 	cdpcs	0, 6, cr7, cr13, cr0, {0}
     64c:	00020068 	andeq	r0, r2, r8, rrx
     650:	5f6d7000 	svcpl	0x006d7000
     654:	65707974 	ldrbvs	r7, [r0, #-2420]!	; 0x974
     658:	00682e73 	rsbeq	r2, r8, r3, ror lr
     65c:	00000001 	andeq	r0, r0, r1
     660:	00020500 	andeq	r0, r2, r0, lsl #10
     664:	19000108 	stmdbne	r0, {r3, r8}
     668:	4f4d4c14 	svcmi	0x004d4c14
     66c:	4d4d4b4b 	vstrmi	d20, [sp, #-300]	; 0xfffffed4
     670:	4c4c1631 	mcrrmi	6, 3, r1, ip, cr1
     674:	4b2f4b4e 	blmi	bd33b4 <__bss_end+0xbc0268>
     678:	131313bb 	tstne	r3, #-335544318	; 0xec000002
     67c:	2f2f4c32 	svccs	0x002f4c32
     680:	0202312f 	andeq	r3, r2, #-1073741813	; 0xc000000b
     684:	ab010100 	blge	40a8c <__bss_end+0x2d940>
     688:	02000001 	andeq	r0, r0, #1
     68c:	00004900 	andeq	r4, r0, r0, lsl #18
     690:	fb010200 	blx	40e9a <__bss_end+0x2dd4e>
     694:	01000d0e 	tsteq	r0, lr, lsl #26
     698:	00010101 	andeq	r0, r1, r1, lsl #2
     69c:	00010000 	andeq	r0, r1, r0
     6a0:	72610100 	rsbvc	r0, r1, #0
     6a4:	612f6863 	teqvs	pc, r3, ror #16
     6a8:	6d2f6d72 	stcvs	13, cr6, [pc, #-456]!	; 4e8 <__resume1_start+0x4e8>
     6ac:	2d686361 	stclcs	3, cr6, [r8, #-388]!	; 0xfffffe7c
     6b0:	786e7573 	stmdavc	lr!, {r0, r1, r4, r5, r6, r8, sl, ip, sp, lr}^
     6b4:	6d702f69 	ldclvs	15, cr2, [r0, #-420]!	; 0xfffffe5c
     6b8:	6174732f 	cmnvs	r4, pc, lsr #6
     6bc:	7962646e 	stmdbvc	r2!, {r1, r2, r3, r5, r6, sl, sp, lr}^
     6c0:	002e2e2f 	eoreq	r2, lr, pc, lsr #28
     6c4:	6d656d00 	stclvs	13, cr6, [r5, #-0]
     6c8:	756d6d5f 	strbvc	r6, [sp, #-3423]!	; 0xd5f
     6cc:	5f63705f 	svcpl	0x0063705f
     6d0:	2e6d7361 	cdpcs	3, 6, cr7, cr13, cr1, {3}
     6d4:	00010053 	andeq	r0, r1, r3, asr r0
     6d8:	05000000 	streq	r0, [r0, #-0]
     6dc:	0108a002 	tsteq	r8, r2
     6e0:	010a0300 	mrseq	r0, (UNDEF: 58)
     6e4:	2f332f2f 	svccs	0x00332f2f
     6e8:	332f332f 	teqcc	pc, #-1140850688	; 0xbc000000
     6ec:	6613032f 	ldrvs	r0, [r3], -pc, lsr #6
     6f0:	2f2f2f2f 	svccs	0x002f2f2f
     6f4:	2f2f302f 	svccs	0x002f302f
     6f8:	2f2f2f2f 	svccs	0x002f2f2f
     6fc:	2f2f2f2f 	svccs	0x002f2f2f
     700:	2f2f2f2f 	svccs	0x002f2f2f
     704:	2f2f3030 	svccs	0x002f3030
     708:	2f2f2f2f 	svccs	0x002f2f2f
     70c:	302f2f30 	eorcc	r2, pc, r0, lsr pc	; <UNPREDICTABLE>
     710:	302f2f30 	eorcc	r2, pc, r0, lsr pc	; <UNPREDICTABLE>
     714:	2f2f2f33 	svccs	0x002f2f33
     718:	2f332f2f 	svccs	0x00332f2f
     71c:	2f2f2f2f 	svccs	0x002f2f2f
     720:	2f2f302f 	svccs	0x002f302f
     724:	2f2f2f2f 	svccs	0x002f2f2f
     728:	2f2f2f2f 	svccs	0x002f2f2f
     72c:	2f2f2f2f 	svccs	0x002f2f2f
     730:	2f2f3030 	svccs	0x002f3030
     734:	2f2f2f2f 	svccs	0x002f2f2f
     738:	302f2f30 	eorcc	r2, pc, r0, lsr pc	; <UNPREDICTABLE>
     73c:	2f2f2f30 	svccs	0x002f2f30
     740:	2f2f342f 	svccs	0x002f342f
     744:	2f2f2f2f 	svccs	0x002f2f2f
     748:	2f332f2f 	svccs	0x00332f2f
     74c:	2f2f2f2f 	svccs	0x002f2f2f
     750:	2f332f2f 	svccs	0x00332f2f
     754:	2f2f2f2f 	svccs	0x002f2f2f
     758:	2f2f332f 	svccs	0x002f332f
     75c:	2f2f2f2f 	svccs	0x002f2f2f
     760:	2f2f2f34 	svccs	0x002f2f34
     764:	332f2f2f 	teqcc	pc, #188	; 0xbc
     768:	2f2f2f2f 	svccs	0x002f2f2f
     76c:	332f2f2f 	teqcc	pc, #188	; 0xbc
     770:	2f2f2f2f 	svccs	0x002f2f2f
     774:	0a032f2f 	beq	cc438 <__bss_end+0xb92ec>
     778:	2f2f2f2e 	svccs	0x002f2f2e
     77c:	2f342f2f 	svccs	0x00342f2f
     780:	2f2f2f2f 	svccs	0x002f2f2f
     784:	2f2f332f 	svccs	0x002f332f
     788:	2f2f2f2f 	svccs	0x002f2f2f
     78c:	2f2e0903 	svccs	0x002e0903
     790:	2f303030 	svccs	0x00303030
     794:	332f2f2f 	teqcc	pc, #188	; 0xbc
     798:	2f2f2f30 	svccs	0x002f2f30
     79c:	2f2f2f2f 	svccs	0x002f2f2f
     7a0:	2f2f2f31 	svccs	0x002f2f31
     7a4:	2f2f2f2f 	svccs	0x002f2f2f
     7a8:	2f2f2f2f 	svccs	0x002f2f2f
     7ac:	2f2f2f2f 	svccs	0x002f2f2f
     7b0:	2f2f2f2f 	svccs	0x002f2f2f
     7b4:	2f2f2f2f 	svccs	0x002f2f2f
     7b8:	2f2f2f2f 	svccs	0x002f2f2f
     7bc:	2f2f2f2f 	svccs	0x002f2f2f
     7c0:	2f2f2f2f 	svccs	0x002f2f2f
     7c4:	2f2f2f2f 	svccs	0x002f2f2f
     7c8:	2f2f2f30 	svccs	0x002f2f30
     7cc:	2f2f2f2f 	svccs	0x002f2f2f
     7d0:	2f2f2f2f 	svccs	0x002f2f2f
     7d4:	2f312f2f 	svccs	0x00312f2f
     7d8:	0a032f30 	beq	cc4a0 <__bss_end+0xb9354>
     7dc:	2f2f2f2e 	svccs	0x002f2f2e
     7e0:	2f2f3050 	svccs	0x002f3050
     7e4:	2f2f3430 	svccs	0x002f3430
     7e8:	2f30f82f 	svccs	0x0030f82f
     7ec:	0d03302f 	stceq	0, cr3, [r3, #-188]	; 0xffffff44
     7f0:	302f2f2e 	eorcc	r2, pc, lr, lsr #30
     7f4:	2f820c03 	svccs	0x00820c03
     7f8:	2f2f2f2f 	svccs	0x002f2f2f
     7fc:	6d2f502f 	stcvs	0, cr5, [pc, #-188]!	; 748 <__resume1_start+0x748>
     800:	30302f2f 	eorscc	r2, r0, pc, lsr #30
     804:	2f302f2f 	svccs	0x00302f2f
     808:	7cac0330 	stcvc	3, cr0, [ip], #192	; 0xc0
     80c:	3103352e 	tstcc	r3, lr, lsr #10
     810:	e603312e 	str	r3, [r3], -lr, lsr #2
     814:	30302e01 	eorscc	r2, r0, r1, lsl #28
     818:	30303230 	eorscc	r3, r0, r0, lsr r2
     81c:	30303030 	eorscc	r3, r0, r0, lsr r0
     820:	30303030 	eorscc	r3, r0, r0, lsr r0
     824:	30303030 	eorscc	r3, r0, r0, lsr r0
     828:	30303030 	eorscc	r3, r0, r0, lsr r0
     82c:	30303130 	eorscc	r3, r0, r0, lsr r1
     830:	00020230 	andeq	r0, r2, r0, lsr r2
     834:	01210101 	teqeq	r1, r1, lsl #2
     838:	00020000 	andeq	r0, r2, r0
     83c:	00000081 	andeq	r0, r0, r1, lsl #1
     840:	0efb0102 	cdpeq	1, 15, cr0, cr11, cr2, {0}
     844:	0101000d 	tsteq	r1, sp
     848:	00000101 	andeq	r0, r0, r1, lsl #2
     84c:	00000100 	andeq	r0, r0, r0, lsl #2
     850:	63726101 	cmnvs	r2, #1073741824	; 0x40000000
     854:	72612f68 	rsbvc	r2, r1, #416	; 0x1a0
     858:	616d2f6d 	cmnvs	sp, sp, ror #30
     85c:	732d6863 	teqvc	sp, #6488064	; 0x630000
     860:	69786e75 	ldmdbvs	r8!, {r0, r2, r4, r5, r6, r9, sl, fp, sp, lr}^
     864:	2f6d702f 	svccs	0x006d702f
     868:	6e617473 	mcrvs	4, 3, r7, cr1, cr3, {3}
     86c:	2f796264 	svccs	0x00796264
     870:	61002e2e 	tstvs	r0, lr, lsr #28
     874:	2f686372 	svccs	0x00686372
     878:	2f6d7261 	svccs	0x006d7261
     87c:	6863616d 	stmdavs	r3!, {r0, r2, r3, r5, r6, r8, sp, lr}^
     880:	6e75732d 	cdpvs	3, 7, cr7, cr5, cr13, {1}
     884:	702f6978 	eorvc	r6, pc, r8, ror r9	; <UNPREDICTABLE>
     888:	74732f6d 	ldrbtvc	r2, [r3], #-3949	; 0xf6d
     88c:	62646e61 	rsbvs	r6, r4, #1552	; 0x610
     890:	2e2e2f79 	mcrcs	15, 1, r2, cr14, cr9, {3}
     894:	00002e2f 	andeq	r2, r0, pc, lsr #28
     898:	5f6d656d 	svcpl	0x006d656d
     89c:	2e757063 	cdpcs	0, 7, cr7, cr5, cr3, {3}
     8a0:	00010063 	andeq	r0, r1, r3, rrx
     8a4:	6d656d00 	stclvs	13, cr6, [r5, #-0]
     8a8:	7570635f 	ldrbvc	r6, [r0, #-863]!	; 0x35f
     8ac:	0200682e 	andeq	r6, r0, #3014656	; 0x2e0000
     8b0:	6d700000 	ldclvs	0, cr0, [r0, #-0]
     8b4:	7079745f 	rsbsvc	r7, r9, pc, asr r4
     8b8:	682e7365 	stmdavs	lr!, {r0, r2, r5, r6, r8, r9, ip, sp, lr}
     8bc:	00000100 	andeq	r0, r0, r0, lsl #2
     8c0:	02050000 	andeq	r0, r5, #0
     8c4:	00010de0 	andeq	r0, r1, r0, ror #27
     8c8:	01018903 	tsteq	r1, r3, lsl #18
     8cc:	4a100316 	bmi	40152c <__bss_end+0x3ee3e0>
     8d0:	4b4b504b 	blmi	12d4a04 <__bss_end+0x12c18b8>
     8d4:	4b4b4e4e 	blmi	12d4214 <__bss_end+0x12c10c8>
     8d8:	4e4b4e4b 	cdpmi	14, 4, cr4, cr11, cr11, {2}
     8dc:	4b4b4b4e 	blmi	12d361c <__bss_end+0x12c04d0>
     8e0:	4b4a0b03 	blmi	12834f4 <__bss_end+0x12703a8>
     8e4:	4b4b4b4b 	blmi	12d3618 <__bss_end+0x12c04cc>
     8e8:	4a14034b 	bmi	50161c <__bss_end+0x4ee4d0>
     8ec:	4a16034b 	bmi	581620 <__bss_end+0x56e4d4>
     8f0:	4b4b524b 	blmi	12d5224 <__bss_end+0x12c20d8>
     8f4:	1434514b 	ldrtne	r5, [r4], #-331	; 0x14b
     8f8:	4e4a0e03 	cdpmi	14, 4, cr0, cr10, cr3, {0}
     8fc:	4b2f2f4b 	blmi	bcc630 <__bss_end+0xbb94e4>
     900:	2f4b2f2f 	svccs	0x004b2f2f
     904:	4b4d4c32 	blmi	13539d4 <__bss_end+0x1340888>
     908:	4b4b4b4b 	blmi	12d363c <__bss_end+0x12c04f0>
     90c:	034b524b 	movteq	r5, #45643	; 0xb24b
     910:	504b4a16 	subpl	r4, fp, r6, lsl sl
     914:	514b4b4b 	cmppl	fp, fp, asr #22
     918:	14332f2f 	ldrtne	r2, [r3], #-3887	; 0xf2f
     91c:	34312f68 	ldrtcc	r2, [r1], #-3944	; 0xf68
     920:	4a0b0315 	bmi	2c157c <__bss_end+0x2ae430>
     924:	2f4b4b67 	svccs	0x004b4b67
     928:	2f30322f 	svccs	0x0030322f
     92c:	2f2f3030 	svccs	0x002f3030
     930:	302f302f 	eorcc	r3, pc, pc, lsr #32
     934:	032f2f31 	teqeq	pc, #196	; 0xc4
     938:	03672e0d 	cmneq	r7, #208	; 0xd0
     93c:	344b6612 	strbcc	r6, [fp], #-1554	; 0x612
     940:	302f2f2f 	eorcc	r2, pc, pc, lsr #30
     944:	1332312f 	teqne	r2, #-1073741813	; 0xc000000b
     948:	1333114b 	teqne	r3, #-1073741806	; 0xc0000012
     94c:	1332114b 	teqne	r2, #-1073741806	; 0xc0000012
     950:	30153184 	andscc	r3, r5, r4, lsl #3
     954:	0202302f 	andeq	r3, r2, #47	; 0x2f
     958:	ba010100 	blt	40d60 <__bss_end+0x2dc14>
     95c:	02000001 	andeq	r0, r0, #1
     960:	00006b00 	andeq	r6, r0, r0, lsl #22
     964:	fb010200 	blx	4116e <__bss_end+0x2e022>
     968:	01000d0e 	tsteq	r0, lr, lsl #26
     96c:	00010101 	andeq	r0, r1, r1, lsl #2
     970:	00010000 	andeq	r0, r1, r0
     974:	72610100 	rsbvc	r0, r1, #0
     978:	612f6863 	teqvs	pc, r3, ror #16
     97c:	6d2f6d72 	stcvs	13, cr6, [pc, #-456]!	; 7bc <__resume1_start+0x7bc>
     980:	2d686361 	stclcs	3, cr6, [r8, #-388]!	; 0xfffffe7c
     984:	786e7573 	stmdavc	lr!, {r0, r1, r4, r5, r6, r8, sl, ip, sp, lr}^
     988:	6d702f69 	ldclvs	15, cr2, [r0, #-420]!	; 0xfffffe5c
     98c:	6174732f 	cmnvs	r4, pc, lsr #6
     990:	7962646e 	stmdbvc	r2!, {r1, r2, r3, r5, r6, sl, sp, lr}^
     994:	002e2e2f 	eoreq	r2, lr, pc, lsr #28
     998:	6d656d00 	stclvs	13, cr6, [r5, #-0]
     99c:	7265735f 	rsbvc	r7, r5, #2080374785	; 0x7c000001
     9a0:	2e6c6169 	powcsez	f6, f4, #1.0
     9a4:	00010063 	andeq	r0, r1, r3, rrx
     9a8:	5f6d7000 	svcpl	0x006d7000
     9ac:	65707974 	ldrbvs	r7, [r0, #-2420]!	; 0x974
     9b0:	00682e73 	rsbeq	r2, r8, r3, ror lr
     9b4:	6d000001 	stcvs	0, cr0, [r0, #-4]
     9b8:	635f6d65 	cmpvs	pc, #6464	; 0x1940
     9bc:	2d756d63 	ldclcs	13, cr6, [r5, #-396]!	; 0xfffffe74
     9c0:	396e7573 	stmdbcc	lr!, {r0, r1, r4, r5, r6, r8, sl, ip, sp, lr}^
     9c4:	70317769 	eorsvc	r7, r1, r9, ror #14
     9c8:	00682e31 	rsbeq	r2, r8, r1, lsr lr
     9cc:	00000001 	andeq	r0, r0, r1
     9d0:	bc020500 	cfstr32lt	mvfx0, [r2], {-0}
     9d4:	03000110 	movweq	r0, #272	; 0x110
     9d8:	2e0100ed 	cdpcs	0, 0, cr0, cr1, cr13, {7}
     9dc:	0c033236 	sfmeq	f3, 4, [r3], {54}	; 0x36
     9e0:	4a74032e 	bmi	1d016a0 <__bss_end+0x1cee554>
     9e4:	dd2e0c03 	stcle	12, cr0, [lr, #-12]!
     9e8:	352e7903 	strcc	r7, [lr, #-2307]!	; 0x903
     9ec:	842e1803 	strthi	r1, [lr], #-2051	; 0x803
     9f0:	364d2f67 	strbcc	r2, [sp], -r7, ror #30
     9f4:	4c2e7803 	stcmi	8, cr7, [lr], #-12
     9f8:	2e5b036c 	cdpcs	3, 5, cr0, cr11, cr12, {3}
     9fc:	30302a32 	eorscc	r2, r0, r2, lsr sl
     a00:	2e780332 	mrccs	3, 3, r0, cr8, cr2, {1}
     a04:	76034c36 			; <UNDEFINED> instruction: 0x76034c36
     a08:	0336302e 	teqeq	r6, #46	; 0x2e
     a0c:	03342e7a 	teqeq	r4, #1952	; 0x7a0
     a10:	038200e6 	orreq	r0, r2, #230	; 0xe6
     a14:	27032e5f 	smlsdcs	r3, pc, lr, r2	; <UNPREDICTABLE>
     a18:	2e59034a 	cdpcs	3, 5, cr0, cr9, cr10, {2}
     a1c:	6625034c 	strtvs	r0, [r5], -ip, asr #6
     a20:	2f2d6731 	svccs	0x002d6731
     a24:	2e0e032f 	cdpcs	3, 0, cr0, cr14, cr15, {1}
     a28:	032e7203 	teqeq	lr, #805306368	; 0x30000000
     a2c:	73032e0e 	movwvc	r2, #15886	; 0x3e0e
     a30:	2f2c4d2e 	svccs	0x002c4d2e
     a34:	2d302f2d 	ldccs	15, cr2, [r0, #-180]!	; 0xffffff4c
     a38:	4e4c312f 	dvfmiep	f3, f4, #10.0
     a3c:	2e140330 	mrccs	3, 0, r0, cr4, cr0, {1}
     a40:	002d6715 	eoreq	r6, sp, r5, lsl r7
     a44:	32010402 	andcc	r0, r1, #33554432	; 0x2000000
     a48:	03667803 	cmneq	r6, #196608	; 0x30000
     a4c:	032f2e71 	teqeq	pc, #1808	; 0x710
     a50:	03502e18 	cmpeq	r0, #384	; 0x180
     a54:	03672e61 	cmneq	r7, #1552	; 0x610
     a58:	0b034a16 	bleq	d32b8 <__bss_end+0xc016c>
     a5c:	4a5e0366 	bmi	17817fc <__bss_end+0x176e6b0>
     a60:	66210367 	strtvs	r0, [r1], -r7, ror #6
     a64:	2a164d2f 	bcs	593f28 <__bss_end+0x580ddc>
     a68:	032d4b32 	teqeq	sp, #51200	; 0xc800
     a6c:	02002e0b 	andeq	r2, r0, #176	; 0xb0
     a70:	79030104 	stmdbvc	r3, {r2, r8}
     a74:	0666064a 	strbteq	r0, [r6], -sl, asr #12
     a78:	032e5b03 	teqeq	lr, #3072	; 0xc00
     a7c:	5b032e25 	blpl	cc318 <__bss_end+0xb91cc>
     a80:	24039f4a 	strcs	r9, [r3], #-3914	; 0xf4a
     a84:	4a5e034a 	bmi	17817b4 <__bss_end+0x176e668>
     a88:	4c4a2403 	cfstrdmi	mvd2, [sl], {3}
     a8c:	9e0a032a 	cdpls	3, 0, cr0, cr10, cr10, {1}
     a90:	2e7f8803 	cdpcs	8, 7, cr8, cr15, cr3, {0}
     a94:	4a00ff03 	bmi	406a8 <__bss_end+0x2d55c>
     a98:	2e7f8103 	expcse	f0, f3
     a9c:	00fd034c 	rscseq	r0, sp, ip, asr #6
     aa0:	2d673166 	stfcse	f3, [r7, #-408]!	; 0xfffffe68
     aa4:	0d032f2f 	stceq	15, cr2, [r3, #-188]	; 0xffffff44
     aa8:	2e73032e 	cdpcs	3, 7, cr0, cr3, cr14, {1}
     aac:	032e0d03 	teqeq	lr, #192	; 0xc0
     ab0:	2c4d2e74 	mcrrcs	14, 7, r2, sp, cr4
     ab4:	302f2d2f 	eorcc	r2, pc, pc, lsr #26
     ab8:	4c312f2d 	ldcmi	15, cr2, [r1], #-180	; 0xffffff4c
     abc:	1431304d 	ldrtne	r3, [r1], #-77	; 0x4d
     ac0:	4c4d4ca0 	mcrrmi	12, 10, r4, sp, cr0
     ac4:	152e2103 	strne	r2, [lr, #-259]!	; 0x103
     ac8:	02002d67 	andeq	r2, r0, #6592	; 0x19c0
     acc:	03320104 	teqeq	r2, #1
     ad0:	65036678 	strvs	r6, [r3, #-1656]	; 0x678
     ad4:	24032f2e 	strcs	r2, [r3], #-3886	; 0xf2e
     ad8:	5503502e 	strpl	r5, [r3, #-46]	; 0x2e
     adc:	2203672e 	andcs	r6, r3, #12058624	; 0xb80000
     ae0:	660b034a 	strvs	r0, [fp], -sl, asr #6
     ae4:	674a5203 	strbvs	r5, [sl, -r3, lsl #4]
     ae8:	2f662d03 	svccs	0x00662d03
     aec:	322a164e 	eorcc	r1, sl, #81788928	; 0x4e00000
     af0:	0b032d4b 	bleq	cc024 <__bss_end+0xb8ed8>
     af4:	0402002e 	streq	r0, [r2], #-46	; 0x2e
     af8:	4a790301 	bmi	1e41704 <__bss_end+0x1e2e5b8>
     afc:	03066606 	movweq	r6, #26118	; 0x6606
     b00:	32032e4e 	andcc	r2, r3, #1248	; 0x4e0
     b04:	4a4e032e 	bmi	13817c4 <__bss_end+0x136e678>
     b08:	4a31039f 	bmi	c4198c <__bss_end+0xc2e840>
     b0c:	034a5103 	movteq	r5, #41219	; 0xa103
     b10:	2a4c4a31 	bcs	13133dc <__bss_end+0x1300290>
     b14:	01000a02 	tsteq	r0, r2, lsl #20
     b18:	00030601 	andeq	r0, r3, r1, lsl #12
     b1c:	d2000200 	andle	r0, r0, #0
     b20:	02000000 	andeq	r0, r0, #0
     b24:	0d0efb01 	vstreq	d15, [lr, #-4]
     b28:	01010100 	mrseq	r0, (UNDEF: 17)
     b2c:	00000001 	andeq	r0, r0, r1
     b30:	01000001 	tsteq	r0, r1
     b34:	68637261 	stmdavs	r3!, {r0, r5, r6, r9, ip, sp, lr}^
     b38:	6d72612f 	ldfvse	f6, [r2, #-188]!	; 0xffffff44
     b3c:	63616d2f 	cmnvs	r1, #3008	; 0xbc0
     b40:	75732d68 	ldrbvc	r2, [r3, #-3432]!	; 0xd68
     b44:	2f69786e 	svccs	0x0069786e
     b48:	732f6d70 	teqvc	pc, #7168	; 0x1c00
     b4c:	646e6174 	strbtvs	r6, [lr], #-372	; 0x174
     b50:	2e2f7962 	cdpcs	9, 2, cr7, cr15, cr2, {3}
     b54:	682f002e 	stmdavs	pc!, {r1, r2, r3, r5}	; <UNPREDICTABLE>
     b58:	2f656d6f 	svccs	0x00656d6f
     b5c:	6f726161 	svcvs	0x00726161
     b60:	6f572f6e 	svcvs	0x00572f6e
     b64:	632f6b72 	teqvs	pc, #116736	; 0x1c800
     b68:	38612d63 	stmdacc	r1!, {r0, r1, r5, r6, r8, sl, fp, sp}^
     b6c:	64732d30 	ldrbtvs	r2, [r3], #-3376	; 0xd30
     b70:	696c2d6b 	stmdbvs	ip!, {r0, r1, r3, r5, r6, r8, sl, fp, sp}^
     b74:	2f78756e 	svccs	0x0078756e
     b78:	6c6f6f74 	stclvs	15, cr6, [pc], #-464	; 9b0 <__resume1_start+0x9b0>
     b7c:	72632f73 	rsbvc	r2, r3, #460	; 0x1cc
     b80:	6373736f 	cmnvs	r3, #-1140850687	; 0xbc000001
     b84:	69706d6f 	ldmdbvs	r0!, {r0, r1, r2, r3, r5, r6, r8, sl, fp, sp, lr}^
     b88:	2f72656c 	svccs	0x0072656c
     b8c:	2f6e6962 	svccs	0x006e6962
     b90:	6c2f2e2e 	stcvs	14, cr2, [pc], #-184	; ae0 <__resume1_start+0xae0>
     b94:	672f6269 	strvs	r6, [pc, -r9, ror #4]!
     b98:	612f6363 	teqvs	pc, r3, ror #6
     b9c:	6c2d6d72 	stcvs	13, cr6, [sp], #-456	; 0xfffffe38
     ba0:	78756e69 	ldmdavc	r5!, {r0, r3, r5, r6, r9, sl, fp, sp, lr}^
     ba4:	756e672d 	strbvc	r6, [lr, #-1837]!	; 0x72d
     ba8:	69626165 	stmdbvs	r2!, {r0, r2, r5, r6, r8, sp, lr}^
     bac:	362e342f 	strtcc	r3, [lr], -pc, lsr #8
     bb0:	692f332e 	stmdbvs	pc!, {r1, r2, r3, r5, r8, r9, ip, sp}	; <UNPREDICTABLE>
     bb4:	756c636e 	strbvc	r6, [ip, #-878]!	; 0x36e
     bb8:	00006564 	andeq	r6, r0, r4, ror #10
     bbc:	5f6d656d 	svcpl	0x006d656d
     bc0:	6e697270 	mcrvs	2, 3, r7, cr9, cr0, {3}
     bc4:	632e6b74 	teqvs	lr, #118784	; 0x1d000
     bc8:	00000100 	andeq	r0, r0, r0, lsl #2
     bcc:	745f6d70 	ldrbvc	r6, [pc], #-3440	; bd4 <__resume1_start+0xbd4>
     bd0:	73657079 	cmnvc	r5, #121	; 0x79
     bd4:	0100682e 	tsteq	r0, lr, lsr #16
     bd8:	74730000 	ldrbtvc	r0, [r3], #-0
     bdc:	67726164 	ldrbvs	r6, [r2, -r4, ror #2]!
     be0:	0200682e 	andeq	r6, r0, #3014656	; 0x2e0000
     be4:	623c0000 	eorsvs	r0, ip, #0
     be8:	746c6975 	strbtvc	r6, [ip], #-2421	; 0x975
     bec:	3e6e692d 	cdpcc	9, 6, cr6, cr14, cr13, {1}
     bf0:	00000000 	andeq	r0, r0, r0
     bf4:	02050000 	andeq	r0, r5, #0
     bf8:	000114f8 	strdeq	r1, [r1], -r8
     bfc:	0101ce03 	tsteq	r1, r3, lsl #28
     c00:	882a2c34 	stmdahi	sl!, {r2, r4, r5, sl, fp, sp}
     c04:	032fa32c 	teqeq	pc, #-1342177280	; 0xb0000000
     c08:	2b332e7a 	blcs	ccc5f8 <__bss_end+0xcb94ac>
     c0c:	04020052 	streq	r0, [r2], #-82	; 0x52
     c10:	02003102 	andeq	r3, r0, #-2147483648	; 0x80000000
     c14:	00830204 	addeq	r0, r3, r4, lsl #4
     c18:	2d020402 	cfstrscs	mvf0, [r2, #-8]
     c1c:	02040200 	andeq	r0, r4, #0
     c20:	0402004b 	streq	r0, [r2], #-75	; 0x4b
     c24:	02002d02 	andeq	r2, r0, #128	; 0x80
     c28:	002f0204 	eoreq	r0, pc, r4, lsl #4
     c2c:	2a020402 	bcs	81c3c <__bss_end+0x6eaf0>
     c30:	03667103 	cmneq	r6, #-1073741824	; 0xc0000000
     c34:	02006617 	andeq	r6, r0, #24117248	; 0x1700000
     c38:	2e060204 	cdpcs	2, 0, cr0, cr6, cr4, {0}
     c3c:	02040200 	andeq	r0, r4, #0
     c40:	02003006 	andeq	r3, r0, #6
     c44:	332c0204 	teqcc	ip, #1073741824	; 0x40000000
     c48:	00fe0369 	rscseq	r0, lr, r9, ror #6
     c4c:	2b2d3282 	blcs	b4d65c <__bss_end+0xb3a510>
     c50:	78038a85 	stmdavc	r3, {r0, r2, r7, r9, fp, pc}
     c54:	03312f2e 	teqeq	r1, #184	; 0xb8
     c58:	032e7ded 	teqeq	lr, #15168	; 0x3b40
     c5c:	032e0293 	teqeq	lr, #805306377	; 0x30000009
     c60:	302e7ded 	eorcc	r7, lr, sp, ror #27
     c64:	82028903 	andhi	r8, r2, #49152	; 0xc000
     c68:	2e7df703 	cdpcs	7, 7, cr15, cr13, cr3, {0}
     c6c:	2e028903 	cdpcs	9, 0, cr8, cr2, cr3, {0}
     c70:	2e7df703 	cdpcs	7, 7, cr15, cr13, cr3, {0}
     c74:	4cbc4652 	ldcmi	6, cr4, [ip], #328	; 0x148
     c78:	2e028e03 	cdpcs	14, 0, cr8, cr2, cr3, {0}
     c7c:	827ea803 	rsbshi	sl, lr, #196608	; 0x30000
     c80:	7a032c36 	bvc	cbd60 <__bss_end+0xb8c14>
     c84:	2f876c2e 	svccs	0x00876c2e
     c88:	332e7a03 	teqcc	lr, #12288	; 0x3000
     c8c:	2e12032b 	cdpcs	3, 1, cr0, cr2, cr11, {1}
     c90:	2d2e7a03 	vstmdbcs	lr!, {s14-s16}
     c94:	032e7003 	teqeq	lr, #3
     c98:	474d2e14 	smlaldmi	r2, sp, r4, lr
     c9c:	63316331 	teqvs	r1, #-1006632960	; 0xc4000000
     ca0:	09036331 	stmdbeq	r3, {r0, r4, r5, r8, r9, sp, lr}
     ca4:	2e77032e 	cdpcs	3, 7, cr0, cr7, cr14, {1}
     ca8:	032e0c03 	teqeq	lr, #768	; 0x300
     cac:	2503665d 	strcs	r6, [r3, #-1629]	; 0x65d
     cb0:	032c4c66 	teqeq	ip, #26112	; 0x6600
     cb4:	2a034a5b 	bcs	d3628 <__bss_end+0xc04dc>
     cb8:	3903692e 	stmdbcc	r3, {r1, r2, r3, r5, r8, fp, sp, lr}
     cbc:	660c039e 			; <UNDEFINED> instruction: 0x660c039e
     cc0:	032e7403 	teqeq	lr, #50331648	; 0x3000000
     cc4:	302d2e0c 	eorcc	r2, sp, ip, lsl #28
     cc8:	c1033048 	tstgt	r3, r8, asr #32
     ccc:	68032e00 	stmdavs	r3, {r9, sl, fp, sp}
     cd0:	2e55032e 	cdpcs	3, 5, cr0, cr5, cr14, {1}
     cd4:	00cb034c 	sbceq	r0, fp, ip, asr #6
     cd8:	7fb5032e 	svcvc	0x00b5032e
     cdc:	c6034c2e 	strgt	r4, [r3], -lr, lsr #24
     ce0:	ba032e00 	blt	cc4e8 <__bss_end+0xb939c>
     ce4:	69312e7f 	ldmdbvs	r1!, {r0, r1, r2, r3, r4, r5, r6, r9, sl, fp, sp}
     ce8:	0903292f 	stmdbeq	r3, {r0, r1, r2, r3, r5, r8, fp, sp}
     cec:	03342a2e 	teqeq	r4, #188416	; 0x2e000
     cf0:	340200c1 	strcc	r0, [r2], #-193	; 0xc1
     cf4:	302c3001 	eorcc	r3, ip, r1
     cf8:	9e540331 	mrcls	3, 2, r0, cr4, cr1, {1}
     cfc:	d67de603 	ldrbtle	lr, [sp], -r3, lsl #12
     d00:	66029b03 	strvs	r9, [r2], -r3, lsl #22
     d04:	2e7de503 	cdpcs	5, 7, cr14, cr13, cr3, {0}
     d08:	82029c03 	andhi	r9, r2, #768	; 0x300
     d0c:	d67df503 	ldrbtle	pc, [sp], -r3, lsl #10	; <UNPREDICTABLE>
     d10:	82028d03 	andhi	r8, r2, #192	; 0xc0
     d14:	2e0b032f 	cdpcs	3, 0, cr0, cr11, cr15, {1}
     d18:	2e7fb903 	cdpcs	9, 7, cr11, cr15, cr3, {0}
     d1c:	2e00c703 	cdpcs	7, 0, cr12, cr0, cr3, {0}
     d20:	667fb903 	ldrbtvs	fp, [pc], -r3, lsl #18
     d24:	2e7eae03 	cdpcs	14, 7, cr10, cr14, cr3, {0}
     d28:	03826f03 	orreq	r6, r2, #12
     d2c:	2ff202ac 	svccs	0x00f202ac
     d30:	032e6303 	teqeq	lr, #201326592	; 0xc000000
     d34:	03d67df0 	bicseq	r7, r6, #15360	; 0x3c00
     d38:	03660291 	cmneq	r6, #268435465	; 0x10000009
     d3c:	032e7def 	teqeq	lr, #15296	; 0x3bc0
     d40:	03820292 	orreq	r0, r2, #536870921	; 0x20000009
     d44:	03d67dff 	bicseq	r7, r6, #16320	; 0x3fc0
     d48:	5082028d 	addpl	r0, r2, sp, lsl #5
     d4c:	2e0d039f 	mcrcs	3, 0, r0, cr13, cr15, {4}
     d50:	8252032f 	subshi	r0, r2, #-1140850688	; 0xbc000000
     d54:	ba7dfb03 	blt	1f7f968 <__bss_end+0x1f6c81c>
     d58:	66028603 	strvs	r8, [r2], -r3, lsl #12
     d5c:	2e7dfa03 	vaddcs.f32	s31, s26, s6
     d60:	82028703 	andhi	r8, r2, #786432	; 0xc0000
     d64:	d67e8a03 	ldrbtle	r8, [lr], -r3, lsl #20
     d68:	82028d03 	andhi	r8, r2, #192	; 0xc0
     d6c:	03663b03 	cmneq	r6, #3072	; 0xc00
     d70:	7403660c 	strvc	r6, [r3], #-1548	; 0x60c
     d74:	2e0c032e 	cdpcs	3, 0, cr0, cr12, cr14, {1}
     d78:	3048302d 	subcc	r3, r8, sp, lsr #32
     d7c:	2e00c103 	mvfcss	f4, f3
     d80:	032e6803 	teqeq	lr, #196608	; 0x30000
     d84:	034c2e55 	movteq	r2, #52821	; 0xce55
     d88:	032e00cb 	teqeq	lr, #203	; 0xcb
     d8c:	4c2e7fb5 	stcmi	15, cr7, [lr], #-724	; 0xfffffd2c
     d90:	2e00c603 	cfmadd32cs	mvax0, mvfx12, mvfx0, mvfx3
     d94:	2e7fba03 	vaddcs.f32	s23, s30, s6
     d98:	292f6931 	stmdbcs	pc!, {r0, r4, r5, r8, fp, sp, lr}	; <UNPREDICTABLE>
     d9c:	2a2e0903 	bcs	b831b0 <__bss_end+0xb70064>
     da0:	00c10334 	sbceq	r0, r1, r4, lsr r3
     da4:	30013402 	andcc	r3, r1, r2, lsl #8
     da8:	0331302c 	teqeq	r1, #44	; 0x2c
     dac:	f1039e54 			; <UNDEFINED> instruction: 0xf1039e54
     db0:	9003d67c 	andls	sp, r3, ip, ror r6
     db4:	f0036603 			; <UNDEFINED> instruction: 0xf0036603
     db8:	91032e7c 	tstls	r3, ip, ror lr
     dbc:	80038203 	andhi	r8, r3, r3, lsl #4
     dc0:	8203d67d 	andhi	sp, r3, #131072000	; 0x7d00000
     dc4:	032f8203 	teqeq	pc, #805306368	; 0x30000000
     dc8:	b9032e0b 	stmdblt	r3, {r0, r1, r3, r9, sl, fp, sp}
     dcc:	c7032e7f 	smlsdxgt	r3, pc, lr, r2	; <UNPREDICTABLE>
     dd0:	b9032e00 	stmdblt	r3, {r9, sl, fp, sp}
     dd4:	b903667f 	stmdblt	r3, {r0, r1, r2, r3, r4, r5, r6, r9, sl, sp, lr}
     dd8:	6f032e7d 	svcvs	0x00032e7d
     ddc:	03a10382 			; <UNDEFINED> instruction: 0x03a10382
     de0:	63032ff2 	movwvs	r2, #16370	; 0x3ff2
     de4:	7cfb032e 	ldclvc	3, cr0, [fp], #184	; 0xb8
     de8:	038603d6 	orreq	r0, r6, #1476395011	; 0x58000003
     dec:	7cfa0366 	ldclvc	3, cr0, [sl], #408	; 0x198
     df0:	0387032e 	orreq	r0, r7, #-1207959552	; 0xb8000000
     df4:	7d8a0382 	stcvc	3, cr0, [sl, #520]	; 0x208
     df8:	038203d6 	orreq	r0, r2, #1476395011	; 0x58000003
     dfc:	039f5082 	orrseq	r5, pc, #130	; 0x82
     e00:	032f2e0d 	teqeq	pc, #208	; 0xd0
     e04:	86038252 			; <UNDEFINED> instruction: 0x86038252
     e08:	fb03ba7d 	blx	ef806 <__bss_end+0xdc6ba>
     e0c:	85036602 	strhi	r6, [r3, #-1538]	; 0x602
     e10:	fc032e7d 	stc2	14, cr2, [r3], {125}	; 0x7d
     e14:	95038202 	strls	r8, [r3, #-514]	; 0x202
     e18:	8203d67d 	andhi	sp, r3, #131072000	; 0x7d00000
     e1c:	06028203 	streq	r8, [r2], -r3, lsl #4
     e20:	a9010100 	stmdbge	r1, {r8}
     e24:	02000000 	andeq	r0, r0, #0
     e28:	00004500 	andeq	r4, r0, r0, lsl #10
     e2c:	fb010200 	blx	41636 <__bss_end+0x2e4ea>
     e30:	01000d0e 	tsteq	r0, lr, lsl #26
     e34:	00010101 	andeq	r0, r1, r1, lsl #2
     e38:	00010000 	andeq	r0, r1, r0
     e3c:	72610100 	rsbvc	r0, r1, #0
     e40:	612f6863 	teqvs	pc, r3, ror #16
     e44:	6d2f6d72 	stcvs	13, cr6, [pc, #-456]!	; c84 <__resume1_start+0xc84>
     e48:	2d686361 	stclcs	3, cr6, [r8, #-388]!	; 0xfffffe7c
     e4c:	786e7573 	stmdavc	lr!, {r0, r1, r4, r5, r6, r8, sl, ip, sp, lr}^
     e50:	6d702f69 	ldclvs	15, cr2, [r0, #-420]!	; 0xfffffe5c
     e54:	6174732f 	cmnvs	r4, pc, lsr #6
     e58:	7962646e 	stmdbvc	r2!, {r1, r2, r3, r5, r6, sl, sp, lr}^
     e5c:	002e2e2f 	eoreq	r2, lr, pc, lsr #28
     e60:	6d656d00 	stclvs	13, cr6, [r5, #-0]
     e64:	7669645f 			; <UNDEFINED> instruction: 0x7669645f
     e68:	2e62696c 	cdpcs	9, 6, cr6, cr2, cr12, {3}
     e6c:	00010053 	andeq	r0, r1, r3, asr r0
     e70:	05000000 	streq	r0, [r0, #-0]
     e74:	011ce402 	tsteq	ip, r2, lsl #8
     e78:	010e0300 	mrseq	r0, ELR_hyp
     e7c:	2f302f2f 	svccs	0x00302f2f
     e80:	302f2f2f 	eorcc	r2, pc, pc, lsr #30
     e84:	2f2f342f 	svccs	0x002f342f
     e88:	2e00d503 	cfsh32cs	mvfx13, mvfx0, #3
     e8c:	332f2f2f 	teqcc	pc, #188	; 0xbc
     e90:	2f2f2f2f 	svccs	0x002f2f2f
     e94:	02302f2f 	eorseq	r2, r0, #188	; 0xbc
     e98:	302f142e 	eorcc	r1, pc, lr, lsr #8
     e9c:	4c302f2f 	ldcmi	15, cr2, [r0], #-188	; 0xffffff44
     ea0:	2f2f342f 	svccs	0x002f342f
     ea4:	2f2f2f2f 	svccs	0x002f2f2f
     ea8:	2f2f2f2f 	svccs	0x002f2f2f
     eac:	2e02302f 	cdpcs	0, 0, cr3, cr2, cr15, {1}
     eb0:	302f2f14 	eorcc	r2, pc, r4, lsl pc	; <UNPREDICTABLE>
     eb4:	2f302f2f 	svccs	0x00302f2f
     eb8:	4c302f2f 	ldcmi	15, cr2, [r0], #-188	; 0xffffff44
     ebc:	332f2f2f 	teqcc	pc, #188	; 0xbc
     ec0:	2f2f2f2f 	svccs	0x002f2f2f
     ec4:	2f2f332f 	svccs	0x002f332f
     ec8:	022f2f2f 	eoreq	r2, pc, #188	; 0xbc
     ecc:	01010002 	tsteq	r1, r2
     ed0:	00000082 	andeq	r0, r0, r2, lsl #1
     ed4:	00540002 	subseq	r0, r4, r2
     ed8:	01020000 	mrseq	r0, (UNDEF: 2)
     edc:	000d0efb 	strdeq	r0, [sp], -fp
     ee0:	01010101 	tsteq	r1, r1, lsl #2
     ee4:	01000000 	mrseq	r0, (UNDEF: 0)
     ee8:	61010000 	mrsvs	r0, (UNDEF: 1)
     eec:	2f686372 	svccs	0x00686372
     ef0:	2f6d7261 	svccs	0x006d7261
     ef4:	6863616d 	stmdavs	r3!, {r0, r2, r3, r5, r6, r8, sp, lr}^
     ef8:	6e75732d 	cdpvs	3, 7, cr7, cr5, cr13, {1}
     efc:	702f6978 	eorvc	r6, pc, r8, ror r9	; <UNPREDICTABLE>
     f00:	74732f6d 	ldrbtvc	r2, [r3], #-3949	; 0xf6d
     f04:	62646e61 	rsbvs	r6, r4, #1552	; 0x610
     f08:	2e2e2f79 	mcrcs	15, 1, r2, cr14, cr9, {3}
     f0c:	656d0000 	strbvs	r0, [sp, #-0]!
     f10:	69645f6d 	stmdbvs	r4!, {r0, r2, r3, r5, r6, r8, r9, sl, fp, ip, lr}^
     f14:	62696c76 	rsbvs	r6, r9, #30208	; 0x7600
     f18:	00632e63 	rsbeq	r2, r3, r3, ror #28
     f1c:	70000001 	andvc	r0, r0, r1
     f20:	79745f6d 	ldmdbvc	r4!, {r0, r2, r3, r5, r6, r8, r9, sl, fp, ip, lr}^
     f24:	2e736570 	mrccs	5, 3, r6, cr3, cr0, {3}
     f28:	00010068 	andeq	r0, r1, r8, rrx
     f2c:	05000000 	streq	r0, [r0, #-0]
     f30:	011ec002 	tsteq	lr, r2
     f34:	4b131500 	blmi	4c633c <__bss_end+0x4b31f0>
     f38:	31173211 	tstcc	r7, r1, lsl r2
     f3c:	0402002b 	streq	r0, [r2], #-43	; 0x2b
     f40:	4a063401 	bmi	18df4c <__bss_end+0x17ae00>
     f44:	032b3106 	teqeq	fp, #-2147483647	; 0x80000001
     f48:	302b4a0b 	eorcc	r4, fp, fp, lsl #20
     f4c:	30342a33 	eorscc	r2, r4, r3, lsr sl
     f50:	0004024d 	andeq	r0, r4, sp, asr #4
     f54:	00f40101 	rscseq	r0, r4, r1, lsl #2
     f58:	00020000 	andeq	r0, r2, r0
     f5c:	0000005d 	andeq	r0, r0, sp, asr r0
     f60:	0efb0102 	cdpeq	1, 15, cr0, cr11, cr2, {0}
     f64:	0101000d 	tsteq	r1, sp
     f68:	00000101 	andeq	r0, r0, r1, lsl #2
     f6c:	00000100 	andeq	r0, r0, r0, lsl #2
     f70:	63726101 	cmnvs	r2, #1073741824	; 0x40000000
     f74:	72612f68 	rsbvc	r2, r1, #416	; 0x1a0
     f78:	616d2f6d 	cmnvs	sp, sp, ror #30
     f7c:	732d6863 	teqvc	sp, #6488064	; 0x630000
     f80:	69786e75 	ldmdbvs	r8!, {r0, r2, r4, r5, r6, r9, sl, fp, sp, lr}^
     f84:	2f6d702f 	svccs	0x006d702f
     f88:	6e617473 	mcrvs	4, 3, r7, cr1, cr3, {3}
     f8c:	2f796264 	svccs	0x00796264
     f90:	00002e2e 	andeq	r2, r0, lr, lsr #28
     f94:	5f6d656d 	svcpl	0x006d656d
     f98:	2e746e69 	cdpcs	14, 7, cr6, cr4, cr9, {3}
     f9c:	00010063 	andeq	r0, r1, r3, rrx
     fa0:	5f6d7000 	svcpl	0x006d7000
     fa4:	65707974 	ldrbvs	r7, [r0, #-2420]!	; 0x974
     fa8:	00682e73 	rsbeq	r2, r8, r3, ror lr
     fac:	6d000001 	stcvs	0, cr0, [r0, #-4]
     fb0:	695f6d65 	ldmdbvs	pc, {r0, r2, r5, r6, r8, sl, fp, sp, lr}^	; <UNPREDICTABLE>
     fb4:	682e746e 	stmdavs	lr!, {r1, r2, r3, r5, r6, sl, ip, sp, lr}
     fb8:	00000100 	andeq	r0, r0, r0, lsl #2
     fbc:	02050000 	andeq	r0, r5, #0
     fc0:	00011f18 	andeq	r1, r1, r8, lsl pc
     fc4:	14012203 	strne	r2, [r1], #-515	; 0x203
     fc8:	2e0a032f 	cdpcs	3, 0, cr0, cr10, cr15, {1}
     fcc:	312e7303 	teqcc	lr, r3, lsl #6
     fd0:	0b032f2d 	bleq	ccc8c <__bss_end+0xb9b40>
     fd4:	75032d2e 	strvc	r2, [r3, #-3374]	; 0xd2e
     fd8:	02002f2e 	andeq	r2, r0, #184	; 0xb8
     fdc:	0b030204 	bleq	c17f4 <__bss_end+0xae6a8>
     fe0:	0402004a 	streq	r0, [r2], #-74	; 0x4a
     fe4:	4a062d02 	bmi	18c3f4 <__bss_end+0x1792a8>
     fe8:	2e0b0306 	cdpcs	3, 0, cr0, cr11, cr6, {0}
     fec:	032e7503 	teqeq	lr, #12582912	; 0xc00000
     ff0:	002d2e0c 	eoreq	r2, sp, ip, lsl #28
     ff4:	2f020402 	svccs	0x00020402
     ff8:	02040200 	andeq	r0, r4, #0
     ffc:	2c304e2d 	ldccs	14, cr4, [r0], #-180	; 0xffffff4c
    1000:	4f2f4c4c 	svcmi	0x002f4c4c
    1004:	14820f03 	strne	r0, [r2], #3843	; 0xf03
    1008:	002b332c 	eoreq	r3, fp, ip, lsr #6
    100c:	a2020402 	andge	r0, r2, #33554432	; 0x2000000
    1010:	02040200 	andeq	r0, r4, #0
    1014:	0402004b 	streq	r0, [r2], #-75	; 0x4b
    1018:	036c8002 	cmneq	ip, #2
    101c:	2d13820f 	lfmcs	f0, 1, [r3, #-60]	; 0xffffffc4
    1020:	322a3232 	eorcc	r3, sl, #536870915	; 0x20000003
    1024:	2a322d2b 	bcs	c8c4d8 <__bss_end+0xc7938c>
    1028:	03312b32 	teqeq	r1, #51200	; 0xc800
    102c:	03302e7a 	teqeq	r0, #1952	; 0x7a0
    1030:	76032e0b 	strvc	r2, [r3], -fp, lsl #28
    1034:	036d312e 	cmneq	sp, #-2147483637	; 0x8000000b
    1038:	31144a0f 	tstcc	r4, pc, lsl #20
    103c:	2b312b4d 	blcs	c4bd78 <__bss_end+0xc38c2c>
    1040:	302c302f 	eorcc	r3, ip, pc, lsr #32
    1044:	352c3329 	strcc	r3, [ip, #-809]!	; 0x329
    1048:	0008024b 	andeq	r0, r8, fp, asr #4
    104c:	00cb0101 	sbceq	r0, fp, r1, lsl #2
    1050:	00020000 	andeq	r0, r2, r0
    1054:	0000005d 	andeq	r0, r0, sp, asr r0
    1058:	0efb0102 	cdpeq	1, 15, cr0, cr11, cr2, {0}
    105c:	0101000d 	tsteq	r1, sp
    1060:	00000101 	andeq	r0, r0, r1, lsl #2
    1064:	00000100 	andeq	r0, r0, r0, lsl #2
    1068:	63726101 	cmnvs	r2, #1073741824	; 0x40000000
    106c:	72612f68 	rsbvc	r2, r1, #416	; 0x1a0
    1070:	616d2f6d 	cmnvs	sp, sp, ror #30
    1074:	732d6863 	teqvc	sp, #6488064	; 0x630000
    1078:	69786e75 	ldmdbvs	r8!, {r0, r2, r4, r5, r6, r9, sl, fp, sp, lr}^
    107c:	2f6d702f 	svccs	0x006d702f
    1080:	6e617473 	mcrvs	4, 3, r7, cr1, cr3, {3}
    1084:	2f796264 	svccs	0x00796264
    1088:	00002e2e 	andeq	r2, r0, lr, lsr #28
    108c:	5f6d656d 	svcpl	0x006d656d
    1090:	2e726d74 	mrccs	13, 3, r6, cr2, cr4, {3}
    1094:	00010063 	andeq	r0, r1, r3, rrx
    1098:	5f6d7000 	svcpl	0x006d7000
    109c:	65707974 	ldrbvs	r7, [r0, #-2420]!	; 0x974
    10a0:	00682e73 	rsbeq	r2, r8, r3, ror lr
    10a4:	6d000001 	stcvs	0, cr0, [r0, #-4]
    10a8:	745f6d65 	ldrbvc	r6, [pc], #-3429	; 10b0 <__resume1_start+0x10b0>
    10ac:	682e726d 	stmdavs	lr!, {r0, r2, r3, r5, r6, r9, ip, sp, lr}
    10b0:	00000100 	andeq	r0, r0, r0, lsl #2
    10b4:	02050000 	andeq	r0, r5, #0
    10b8:	000120a4 	andeq	r2, r1, r4, lsr #1
    10bc:	18011103 	stmdane	r1, {r0, r1, r8, ip}
    10c0:	342e7a03 	strtcc	r7, [lr], #-2563	; 0xa03
    10c4:	312e7a03 	teqcc	lr, r3, lsl #20
    10c8:	2e090385 	cdpcs	3, 0, cr0, cr9, cr5, {4}
    10cc:	2a2e7803 	bcs	b9f0e0 <__bss_end+0xb8bf94>
    10d0:	4b4b2f32 	blmi	12ccda0 <__bss_end+0x12b9c54>
    10d4:	034d4b4b 	movteq	r4, #56139	; 0xdb4b
    10d8:	64144a0f 	ldrvs	r4, [r4], #-2575	; 0xa0f
    10dc:	2e090330 	mcrcs	3, 0, r0, cr9, cr0, {1}
    10e0:	2f2e7703 	svccs	0x002e7703
    10e4:	4b4b4b4b 	blmi	12d3e18 <__bss_end+0x12c0ccc>
    10e8:	0f034d4b 	svceq	0x00034d4b
    10ec:	302c162e 	eorcc	r1, ip, lr, lsr #12
    10f0:	7903512c 	stmdbvc	r3, {r2, r3, r5, r8, ip, lr}
    10f4:	2b2f302e 	blcs	bcd1b4 <__bss_end+0xbba068>
    10f8:	034d2f31 	movteq	r2, #57137	; 0xdf31
    10fc:	33132e0f 	tstcc	r3, #240	; 0xf0
    1100:	2c2f4b29 	stccs	11, cr4, [pc], #-164	; 1064 <__resume1_start+0x1064>
    1104:	03312f2f 	teqeq	r1, #188	; 0xbc
    1108:	bb152e12 	bllt	54c958 <__bss_end+0x53980c>
    110c:	69694d68 	stmdbvs	r9!, {r3, r5, r6, r8, sl, fp, lr}^
    1110:	142e1203 	strtne	r1, [lr], #-515	; 0x203
    1114:	676969bb 			; <UNDEFINED> instruction: 0x676969bb
    1118:	01000202 	tsteq	r0, r2, lsl #4
    111c:	00008b01 	andeq	r8, r0, r1, lsl #22
    1120:	63000200 	movwvs	r0, #512	; 0x200
    1124:	02000000 	andeq	r0, r0, #0
    1128:	0d0efb01 	vstreq	d15, [lr, #-4]
    112c:	01010100 	mrseq	r0, (UNDEF: 17)
    1130:	00000001 	andeq	r0, r0, r1
    1134:	01000001 	tsteq	r0, r1
    1138:	68637261 	stmdavs	r3!, {r0, r5, r6, r9, ip, sp, lr}^
    113c:	6d72612f 	ldfvse	f6, [r2, #-188]!	; 0xffffff44
    1140:	63616d2f 	cmnvs	r1, #3008	; 0xbc0
    1144:	75732d68 	ldrbvc	r2, [r3, #-3432]!	; 0xd68
    1148:	2f69786e 	svccs	0x0069786e
    114c:	732f6d70 	teqvc	pc, #7168	; 0x1c00
    1150:	646e6174 	strbtvs	r6, [lr], #-372	; 0x174
    1154:	2e2f7962 	cdpcs	9, 2, cr7, cr15, cr2, {3}
    1158:	6d00002e 	stcvs	0, cr0, [r0, #-184]	; 0xffffff48
    115c:	745f6d65 	ldrbvc	r6, [pc], #-3429	; 1164 <__resume1_start+0x1164>
    1160:	6d74736d 	ldclvs	3, cr7, [r4, #-436]!	; 0xfffffe4c
    1164:	00632e70 	rsbeq	r2, r3, r0, ror lr
    1168:	70000001 	andvc	r0, r0, r1
    116c:	79745f6d 	ldmdbvc	r4!, {r0, r2, r3, r5, r6, r8, r9, sl, fp, ip, lr}^
    1170:	2e736570 	mrccs	5, 3, r6, cr3, cr0, {3}
    1174:	00010068 	andeq	r0, r1, r8, rrx
    1178:	6d656d00 	stclvs	13, cr6, [r5, #-0]
    117c:	736d745f 	cmnvc	sp, #1593835520	; 0x5f000000
    1180:	2e706d74 	mrccs	13, 3, r6, cr0, cr4, {3}
    1184:	00010068 	andeq	r0, r1, r8, rrx
    1188:	05000000 	streq	r0, [r0, #-0]
    118c:	01224002 	teqeq	r2, r2
    1190:	01110300 	tsteq	r1, r0, lsl #6
    1194:	4d312b15 	fldmdbxmi	r1!, {d2-d11}	;@ Deprecated
    1198:	2f2a512b 	svccs	0x002a512b
    119c:	2e0f034d 	cdpcs	3, 0, cr0, cr15, cr13, {2}
    11a0:	32306414 	eorscc	r6, r0, #335544320	; 0x14000000
    11a4:	024d2f2a 	subeq	r2, sp, #168	; 0xa8
    11a8:	01010002 	tsteq	r1, r2
    11ac:	000000f3 	strdeq	r0, [r0], -r3
    11b0:	00570002 	subseq	r0, r7, r2
    11b4:	01020000 	mrseq	r0, (UNDEF: 2)
    11b8:	000d0efb 	strdeq	r0, [sp], -fp
    11bc:	01010101 	tsteq	r1, r1, lsl #2
    11c0:	01000000 	mrseq	r0, (UNDEF: 0)
    11c4:	61010000 	mrsvs	r0, (UNDEF: 1)
    11c8:	2f686372 	svccs	0x00686372
    11cc:	2f6d7261 	svccs	0x006d7261
    11d0:	6863616d 	stmdavs	r3!, {r0, r2, r3, r5, r6, r8, sp, lr}^
    11d4:	6e75732d 	cdpvs	3, 7, cr7, cr5, cr13, {1}
    11d8:	702f6978 	eorvc	r6, pc, r8, ror r9	; <UNPREDICTABLE>
    11dc:	74732f6d 	ldrbtvc	r2, [r3], #-3949	; 0xf6d
    11e0:	62646e61 	rsbvs	r6, r4, #1552	; 0x610
    11e4:	2e2e2f79 	mcrcs	15, 1, r2, cr14, cr9, {3}
    11e8:	656d0000 	strbvs	r0, [sp, #-0]!
    11ec:	77685f6d 	strbvc	r5, [r8, -sp, ror #30]!
    11f0:	6e697073 	mcrvs	0, 3, r7, cr9, cr3, {3}
    11f4:	6b636f6c 	blvs	18dcfac <__bss_end+0x18c9e60>
    11f8:	0100632e 	tsteq	r0, lr, lsr #6
    11fc:	6d700000 	ldclvs	0, cr0, [r0, #-0]
    1200:	7079745f 	rsbsvc	r7, r9, pc, asr r4
    1204:	682e7365 	stmdavs	lr!, {r0, r2, r5, r6, r8, r9, ip, sp, lr}
    1208:	00000100 	andeq	r0, r0, r0, lsl #2
    120c:	02050000 	andeq	r0, r5, #0
    1210:	00012298 	muleq	r1, r8, r2
    1214:	0100c703 	tsteq	r0, r3, lsl #14
    1218:	2e0b0313 	mcrcs	3, 0, r0, cr11, cr3, {0}
    121c:	332e7703 	teqcc	lr, #786432	; 0xc0000
    1220:	0e036983 	cdpeq	9, 0, cr6, cr3, cr3, {4}
    1224:	7fb5032e 	svcvc	0x00b5032e
    1228:	00d3032e 	sbcseq	r0, r3, lr, lsr #6
    122c:	4731474a 	ldrmi	r4, [r1, -sl, asr #14]!
    1230:	039b6931 	orrseq	r6, fp, #802816	; 0xc4000
    1234:	bf03660c 	svclt	0x0003660c
    1238:	3b034a7f 	blcc	d3c3c <__bss_end+0xc0af0>
    123c:	2f4f4b2e 	svccs	0x004f4b2e
    1240:	14660e03 	strbtne	r0, [r6], #-3587	; 0xe03
    1244:	2e7fae03 	cdpcs	14, 7, cr10, cr15, cr3, {0}
    1248:	2e00d203 	cdpcs	2, 0, cr13, cr0, cr3, {0}
    124c:	667fae03 	ldrbtvs	sl, [pc], -r3, lsl #28
    1250:	2e00d203 	cdpcs	2, 0, cr13, cr0, cr3, {0}
    1254:	2e7fae03 	cdpcs	14, 7, cr10, cr15, cr3, {0}
    1258:	2e00d203 	cdpcs	2, 0, cr13, cr0, cr3, {0}
    125c:	2e7fae03 	cdpcs	14, 7, cr10, cr15, cr3, {0}
    1260:	2e00d803 	cdpcs	8, 0, cr13, cr0, cr3, {0}
    1264:	034a0e03 	movteq	r0, #44547	; 0xae03
    1268:	03017efc 	movweq	r7, #7932	; 0x1efc
    126c:	2b4a018c 	blcs	12818a4 <__bss_end+0x126e758>
    1270:	69314731 	ldmdbvs	r1!, {r0, r4, r5, r8, r9, sl, lr}
    1274:	660c039b 			; <UNDEFINED> instruction: 0x660c039b
    1278:	4a7f8603 	bmi	1fe2a8c <__bss_end+0x1fcf940>
    127c:	2e00f503 	cfsh32cs	mvfx15, mvfx0, #3
    1280:	0e032f4f 	cdpeq	15, 0, cr2, cr3, cr15, {2}
    1284:	f503144a 			; <UNDEFINED> instruction: 0xf503144a
    1288:	8b032e7e 	blhi	ccc88 <__bss_end+0xb9b3c>
    128c:	f5032e01 			; <UNDEFINED> instruction: 0xf5032e01
    1290:	8b03667e 	blhi	dac90 <__bss_end+0xc7b44>
    1294:	f5034a01 			; <UNDEFINED> instruction: 0xf5034a01
    1298:	91032e7e 	tstls	r3, lr, ror lr
    129c:	02022e01 	andeq	r2, r2, #16
    12a0:	2b010100 	blcs	416a8 <__bss_end+0x2e55c>
    12a4:	02000002 	andeq	r0, r0, #2
    12a8:	00007500 	andeq	r7, r0, r0, lsl #10
    12ac:	fb010200 	blx	41ab6 <__bss_end+0x2e96a>
    12b0:	01000d0e 	tsteq	r0, lr, lsl #26
    12b4:	00010101 	andeq	r0, r1, r1, lsl #2
    12b8:	00010000 	andeq	r0, r1, r0
    12bc:	72610100 	rsbvc	r0, r1, #0
    12c0:	612f6863 	teqvs	pc, r3, ror #16
    12c4:	6d2f6d72 	stcvs	13, cr6, [pc, #-456]!	; 1104 <__resume1_start+0x1104>
    12c8:	2d686361 	stclcs	3, cr6, [r8, #-388]!	; 0xfffffe7c
    12cc:	786e7573 	stmdavc	lr!, {r0, r1, r4, r5, r6, r8, sl, ip, sp, lr}^
    12d0:	6d702f69 	ldclvs	15, cr2, [r0, #-420]!	; 0xfffffe5c
    12d4:	6174732f 	cmnvs	r4, pc, lsr #6
    12d8:	7962646e 	stmdbvc	r2!, {r1, r2, r3, r5, r6, sl, sp, lr}^
    12dc:	002e2e2f 	eoreq	r2, lr, pc, lsr #28
    12e0:	6d656d00 	stclvs	13, cr6, [r5, #-0]
    12e4:	6b6c635f 	blvs	1b1a068 <__bss_end+0x1b06f1c>
    12e8:	0100632e 	tsteq	r0, lr, lsr #6
    12ec:	6d700000 	ldclvs	0, cr0, [r0, #-0]
    12f0:	7079745f 	rsbsvc	r7, r9, pc, asr r4
    12f4:	682e7365 	stmdavs	lr!, {r0, r2, r5, r6, r8, r9, ip, sp, lr}
    12f8:	00000100 	andeq	r0, r0, r0, lsl #2
    12fc:	5f6d656d 	svcpl	0x006d656d
    1300:	756d6363 	strbvc	r6, [sp, #-867]!	; 0x363
    1304:	6e75732d 	cdpvs	3, 7, cr7, cr5, cr13, {1}
    1308:	31776939 	cmncc	r7, r9, lsr r9
    130c:	682e3170 	stmdavs	lr!, {r4, r5, r6, r8, ip, sp}
    1310:	00000100 	andeq	r0, r0, r0, lsl #2
    1314:	5f6d656d 	svcpl	0x006d656d
    1318:	2e6b6c63 	cdpcs	12, 6, cr6, cr11, cr3, {3}
    131c:	00010068 	andeq	r0, r1, r8, rrx
    1320:	05000000 	streq	r0, [r0, #-0]
    1324:	01240002 	teqeq	r4, r2
    1328:	01150300 	tsteq	r5, r0, lsl #6
    132c:	484c2f13 	stmdami	ip, {r0, r1, r4, r8, r9, sl, fp, sp}^
    1330:	32302c30 	eorscc	r2, r0, #12288	; 0x3000
    1334:	144a1103 	strbne	r1, [sl], #-259	; 0x103
    1338:	03d0034b 	bicseq	r0, r0, #738197505	; 0x2c000001
    133c:	302b154a 	eorcc	r1, fp, sl, asr #10
    1340:	c3032d2f 	movwgt	r2, #15663	; 0x3d2f
    1344:	be032e00 	cdplt	14, 0, cr2, cr3, cr0, {0}
    1348:	4b362e7f 	blmi	d8cd4c <__bss_end+0xd79c00>
    134c:	4b4c4b4b 	blmi	1314080 <__bss_end+0x1300f34>
    1350:	4b4b4b4b 	blmi	12d4084 <__bss_end+0x12c0f38>
    1354:	4b4b4c4c 	blmi	12d448c <__bss_end+0x12c1340>
    1358:	4b4b4b4c 	blmi	12d4090 <__bss_end+0x12c0f44>
    135c:	4b4d4b4b 	blmi	1354090 <__bss_end+0x1340f44>
    1360:	4b4c4b4b 	blmi	1314094 <__bss_end+0x1300f48>
    1364:	4b4b4b4b 	blmi	12d4098 <__bss_end+0x12c0f4c>
    1368:	4c4b4b4b 	mcrrmi	11, 4, r4, fp, cr11
    136c:	4b4b4b4b 	blmi	12d40a0 <__bss_end+0x12c0f54>
    1370:	4b4b4b4b 	blmi	12d40a4 <__bss_end+0x12c0f58>
    1374:	4c4b4b4b 	mcrrmi	11, 4, r4, fp, cr11
    1378:	12034d4b 	andne	r4, r3, #4800	; 0x12c0
    137c:	4b332e2e 	blmi	cccc3c <__bss_end+0xcb9af0>
    1380:	2e0a0331 	mcrcs	3, 0, r0, cr10, cr1, {1}
    1384:	4b2e7603 	blmi	b9eb98 <__bss_end+0xb8ba4c>
    1388:	67676867 	strbvs	r6, [r7, -r7, ror #16]!
    138c:	032f6967 	teqeq	pc, #1687552	; 0x19c000
    1390:	76032e0a 	strvc	r2, [r3], -sl, lsl #28
    1394:	4c674b2e 	stclmi	11, cr4, [r7], #-184	; 0xffffff48
    1398:	69676767 	stmdbvs	r7!, {r0, r1, r2, r5, r6, r8, r9, sl, sp, lr}^
    139c:	2d2f4b2f 	fstmdbxcs	pc!, {d4-d26}	;@ Deprecated
    13a0:	2d2f2f4b 	stccs	15, cr2, [pc, #-300]!	; 127c <__resume1_start+0x127c>
    13a4:	2d2f2f4b 	stccs	15, cr2, [pc, #-300]!	; 1280 <__resume1_start+0x1280>
    13a8:	2d2f304b 	stccs	0, cr3, [pc, #-300]!	; 1284 <__resume1_start+0x1284>
    13ac:	2d2f2f4b 	stccs	15, cr2, [pc, #-300]!	; 1288 <__resume1_start+0x1288>
    13b0:	2d2f2f4b 	stccs	15, cr2, [pc, #-300]!	; 128c <__resume1_start+0x128c>
    13b4:	2d67314b 	stfcse	f3, [r7, #-300]!	; 0xfffffed4
    13b8:	2f4b2f2f 	svccs	0x004b2f2f
    13bc:	2f2f4b2d 	svccs	0x002f4b2d
    13c0:	2f2f4b2d 	svccs	0x002f4b2d
    13c4:	2f314b2d 	svccs	0x00314b2d
    13c8:	4c2f672d 	stcmi	7, cr6, [pc], #-180	; 131c <__resume1_start+0x131c>
    13cc:	30672d2f 	rsbcc	r2, r7, pc, lsr #26
    13d0:	2f4b2d2f 	svccs	0x004b2d2f
    13d4:	4c2c304c 	stcmi	0, cr3, [ip], #-304	; 0xfffffed0
    13d8:	4b2d2f30 	blmi	b4d0a0 <__bss_end+0xb39f54>
    13dc:	2b314c2f 	blcs	c544a0 <__bss_end+0xc41354>
    13e0:	2f838367 	svccs	0x00838367
    13e4:	83672c30 	cmnhi	r7, #12288	; 0x3000
    13e8:	7803362f 	stmdavc	r3, {r0, r1, r2, r3, r5, r9, sl, ip, sp}
    13ec:	67674b2e 	strbvs	r4, [r7, -lr, lsr #22]!
    13f0:	68676767 	stmdavs	r7!, {r0, r1, r2, r5, r6, r8, r9, sl, sp, lr}^
    13f4:	4b2d2f2f 	blmi	b4d0b8 <__bss_end+0xb39f6c>
    13f8:	4b2a322f 	blmi	a8dcbc <__bss_end+0xa7ab70>
    13fc:	302f6867 	eorcc	r6, pc, r7, ror #16
    1400:	f4034c2c 			; <UNDEFINED> instruction: 0xf4034c2c
    1404:	312f2e7d 	teqcc	pc, sp, ror lr	; <UNPREDICTABLE>
    1408:	302c302c 	eorcc	r3, ip, ip, lsr #32
    140c:	2f2f2f2f 	svccs	0x002f2f2f
    1410:	2f306731 	svccs	0x00306731
    1414:	2f68312f 	svccs	0x0068312f
    1418:	4c302f2f 	ldcmi	15, cr2, [r0], #-188	; 0xffffff44
    141c:	2f2f4b67 	svccs	0x002f4b67
    1420:	4b67302f 	blmi	19cd4e4 <__bss_end+0x19ba398>
    1424:	312f2f2f 	teqcc	pc, pc, lsr #30
    1428:	2f312f2f 	svccs	0x00312f2f
    142c:	2f4c302f 	svccs	0x004c302f
    1430:	2f2f2f2f 	svccs	0x002f2f2f
    1434:	4a01d403 	bmi	76448 <__bss_end+0x632fc>
    1438:	4a0f034c 	bmi	3c2170 <__bss_end+0x3af024>
    143c:	4f2b3513 	svcmi	0x002b3513
    1440:	312e7803 	teqcc	lr, r3, lsl #16
    1444:	0e033131 	mcreq	1, 0, r3, cr3, cr1, {1}
    1448:	4c31134a 	ldcmi	3, cr1, [r1], #-296	; 0xfffffed8
    144c:	2e7a0330 	mrccs	3, 3, r0, cr10, cr0, {1}
    1450:	03313030 	teqeq	r1, #48	; 0x30
    1454:	65134a10 	ldrvs	r4, [r3, #-2576]	; 0xa10
    1458:	034a0a03 	movteq	r0, #43523	; 0xaa03
    145c:	2f2b2e7a 	svccs	0x002b2e7a
    1460:	4b674b30 	blmi	19d4128 <__bss_end+0x19c0fdc>
    1464:	4a0f034d 	bmi	3c21a0 <__bss_end+0x3af054>
    1468:	2d2f6513 	cfstr32cs	mvfx6, [pc, #-76]!	; 1424 <__resume1_start+0x1424>
    146c:	2e7a0336 	mrccs	3, 3, r0, cr10, cr6, {1}
    1470:	2b2f2f2f 	blcs	bcd134 <__bss_end+0xbb9fe8>
    1474:	312f2f2f 	teqcc	pc, pc, lsr #30
    1478:	154a0e03 	strbne	r0, [sl, #-3587]	; 0xe03
    147c:	032f492c 	teqeq	pc, #720896	; 0xb0000
    1480:	64032e1c 	strvs	r2, [r3], #-3612	; 0xe1c
    1484:	4b2f302e 	blmi	bcd544 <__bss_end+0xbba3f8>
    1488:	4b4b4d4b 	blmi	12d49bc <__bss_end+0x12c1870>
    148c:	4c4b4b4c 	mcrrmi	11, 4, r4, fp, cr12
    1490:	7903524b 	stmdbvc	r3, {r0, r1, r3, r6, r9, ip, lr}
    1494:	4b2f502e 	blmi	bd5554 <__bss_end+0xbc2408>
    1498:	2e0f0330 	mcrcs	3, 0, r0, cr15, cr0, {1}
    149c:	032f6513 	teqeq	pc, #79691776	; 0x4c00000
    14a0:	71032e10 	tstvc	r3, r0, lsl lr
    14a4:	4b4b4b2e 	blmi	12d4164 <__bss_end+0x12c1018>
    14a8:	4b4b4b4b 	blmi	12d41dc <__bss_end+0x12c1090>
    14ac:	4b4b4b4b 	blmi	12d41e0 <__bss_end+0x12c1094>
    14b0:	0e034d4b 	cdpeq	13, 0, cr4, cr3, cr11, {2}
    14b4:	78031a2e 	stmdavc	r3, {r1, r2, r3, r5, r9, fp, ip}
    14b8:	2a4e362e 	bcs	138ed78 <__bss_end+0x137bc2c>
    14bc:	2e0d0332 	mcrcs	3, 0, r0, cr13, cr2, {1}
    14c0:	32667703 	rsbcc	r7, r6, #786432	; 0xc0000
    14c4:	2f2f2c2d 	svccs	0x002f2c2d
    14c8:	33322a4b 	teqcc	r2, #307200	; 0x4b000
    14cc:	00040229 	andeq	r0, r4, r9, lsr #4
    14d0:	Address 0x000014d0 is out of bounds.


Disassembly of section .debug_str:

00000000 <.debug_str>:
       0:	676e6f6c 	strbvs	r6, [lr, -ip, ror #30]!
       4:	6e6f6c20 	cdpvs	12, 6, cr6, cr15, cr0, {1}
       8:	6e692067 	cdpvs	0, 6, cr2, cr9, cr7, {3}
       c:	525f0074 	subspl	r0, pc, #116	; 0x74
      10:	6d757365 	ldclvs	3, cr7, [r5, #-404]!	; 0xfffffe6c
      14:	69665f65 	stmdbvs	r6!, {r0, r2, r5, r6, r8, r9, sl, fp, ip, lr}^
      18:	685f656c 	ldmdavs	pc, {r2, r3, r5, r6, r8, sl, sp, lr}^	; <UNPREDICTABLE>
      1c:	00646165 	rsbeq	r6, r4, r5, ror #2
      20:	656c6966 	strbvs	r6, [ip, #-2406]!	; 0x966
      24:	6165685f 	cmnvs	r5, pc, asr r8
      28:	73765f64 	cmnvc	r6, #400	; 0x190
      2c:	656c006e 	strbvs	r0, [ip, #-110]!	; 0x6e
      30:	6874676e 	ldmdavs	r4!, {r1, r2, r3, r5, r6, r8, r9, sl, sp, lr}^
      34:	6f682f00 	svcvs	0x00682f00
      38:	612f656d 	teqvs	pc, sp, ror #10
      3c:	6e6f7261 	cdpvs	2, 6, cr7, cr15, cr1, {3}
      40:	726f572f 	rsbvc	r5, pc, #12320768	; 0xbc0000
      44:	63632f6b 	cmnvs	r3, #428	; 0x1ac
      48:	3038612d 	eorscc	r6, r8, sp, lsr #2
      4c:	6b64732d 	blvs	191cd08 <__bss_end+0x1909bbc>
      50:	6e696c2d 	cdpvs	12, 6, cr6, cr9, cr13, {1}
      54:	6c2f7875 	stcvs	8, cr7, [pc], #-468	; fffffe88 <__bss_end+0xfffecd3c>
      58:	78756e69 	ldmdavc	r5!, {r0, r3, r5, r6, r9, sl, fp, sp, lr}^
      5c:	342e332d 	strtcc	r3, [lr], #-813	; 0x32d
      60:	62757000 	rsbsvs	r7, r5, #0
      64:	6165685f 	cmnvs	r5, pc, asr r8
      68:	73765f64 	cmnvc	r6, #400	; 0x190
      6c:	6f6c006e 	svcvs	0x006c006e
      70:	6c20676e 	stcvs	7, cr6, [r0], #-440	; 0xfffffe48
      74:	20676e6f 	rsbcs	r6, r7, pc, ror #28
      78:	69736e75 	ldmdbvs	r3!, {r0, r2, r4, r5, r6, r9, sl, fp, sp, lr}^
      7c:	64656e67 	strbtvs	r6, [r5], #-3687	; 0xe67
      80:	746e6920 	strbtvc	r6, [lr], #-2336	; 0x920
      84:	63726100 	cmnvs	r2, #0
      88:	72612f68 	rsbvc	r2, r1, #416	; 0x1a0
      8c:	616d2f6d 	cmnvs	sp, sp, ror #30
      90:	732d6863 	teqvc	sp, #6488064	; 0x630000
      94:	69786e75 	ldmdbvs	r8!, {r0, r2, r4, r5, r6, r9, sl, fp, sp, lr}^
      98:	2f6d702f 	svccs	0x006d702f
      9c:	6e617473 	mcrvs	4, 3, r7, cr1, cr3, {3}
      a0:	2f796264 	svccs	0x00796264
      a4:	65707573 	ldrbvs	r7, [r0, #-1395]!	; 0x573
      a8:	65722f72 	ldrbvs	r2, [r2, #-3954]!	; 0xf72
      ac:	656d7573 	strbvs	r7, [sp, #-1395]!	; 0x573
      b0:	7365722f 	cmnvc	r5, #-268435454	; 0xf0000002
      b4:	5f656d75 	svcpl	0x00656d75
      b8:	64616568 	strbtvs	r6, [r1], #-1384	; 0x568
      bc:	5200632e 	andpl	r6, r0, #-1207959552	; 0xb8000000
      c0:	6d757365 	ldclvs	3, cr7, [r5, #-404]!	; 0xfffffe6c
      c4:	73765f65 	cmnvc	r6, #404	; 0x194
      c8:	616d006e 	cmnvs	sp, lr, rrx
      cc:	00636967 	rsbeq	r6, r3, r7, ror #18
      d0:	5f627570 	svcpl	0x00627570
      d4:	64616568 	strbtvs	r6, [r1], #-1384	; 0x568
      d8:	7a69735f 	bvc	1a5ce5c <__bss_end+0x1a49d10>
      dc:	6e750065 	cdpvs	0, 7, cr0, cr5, cr5, {3}
      e0:	6e676973 	mcrvs	9, 3, r6, cr7, cr3, {3}
      e4:	63206465 	teqvs	r0, #1694498816	; 0x65000000
      e8:	00726168 	rsbseq	r6, r2, r8, ror #2
      ec:	706d756a 	rsbvc	r7, sp, sl, ror #10
      f0:	736e695f 	cmnvc	lr, #1556480	; 0x17c000
      f4:	63757274 	cmnvs	r5, #1073741831	; 0x40000007
      f8:	6e6f6974 	mcrvs	9, 3, r6, cr15, cr4, {3}
      fc:	65686300 	strbvs	r6, [r8, #-768]!	; 0x300
     100:	735f6b63 	cmpvc	pc, #101376	; 0x18c00
     104:	73006d75 	movwvc	r6, #3445	; 0xd75
     108:	74726f68 	ldrbtvc	r6, [r2], #-3944	; 0xf68
     10c:	736e7520 	cmnvc	lr, #134217728	; 0x8000000
     110:	656e6769 	strbvs	r6, [lr, #-1897]!	; 0x769
     114:	6e692064 	cdpvs	0, 6, cr2, cr9, cr4, {3}
     118:	4e470074 	mcrmi	0, 2, r0, cr7, cr4, {3}
     11c:	20432055 	subcs	r2, r3, r5, asr r0
     120:	2e362e34 	mrccs	14, 1, r2, cr6, cr4, {1}
     124:	30322033 	eorscc	r2, r2, r3, lsr r0
     128:	32303231 	eorscc	r3, r0, #268435459	; 0x10000003
     12c:	28203130 	stmdacs	r0!, {r4, r5, r8, ip, sp}
     130:	72657270 	rsbvc	r7, r5, #7
     134:	61656c65 	cmnvs	r5, r5, ror #24
     138:	00296573 	eoreq	r6, r9, r3, ror r5
     13c:	4e4f4765 	cdpmi	7, 4, cr4, cr15, cr5, {3}
     140:	6e73765f 	mrcvs	6, 3, r7, cr3, cr15, {2}
     144:	616c7000 	cmnvs	ip, r0
     148:	726f6674 	rsbvc	r6, pc, #121634816	; 0x7400000
     14c:	6873006d 	ldmdavs	r3!, {r0, r2, r3, r5, r6}^
     150:	2074726f 	rsbscs	r7, r4, pc, ror #4
     154:	00746e69 	rsbseq	r6, r4, r9, ror #28
     158:	75736572 	ldrbvc	r6, [r3, #-1394]!	; 0x572
     15c:	685f656d 	ldmdavs	pc, {r0, r2, r3, r5, r6, r8, sl, sp, lr}^	; <UNPREDICTABLE>
     160:	00646165 	rsbeq	r6, r4, r5, ror #2
     164:	75736572 	ldrbvc	r6, [r3, #-1394]!	; 0x572
     168:	665f656d 	ldrbvs	r6, [pc], -sp, ror #10
     16c:	5f656c69 	svcpl	0x00656c69
     170:	64616568 	strbtvs	r6, [r1], #-1384	; 0x568
     174:	6100745f 	tstvs	r0, pc, asr r4
     178:	2f686372 	svccs	0x00686372
     17c:	2f6d7261 	svccs	0x006d7261
     180:	6863616d 	stmdavs	r3!, {r0, r2, r3, r5, r6, r8, sp, lr}^
     184:	6e75732d 	cdpvs	3, 7, cr7, cr5, cr13, {1}
     188:	702f6978 	eorvc	r6, pc, r8, ror r9	; <UNPREDICTABLE>
     18c:	74732f6d 	ldrbtvc	r2, [r3], #-3949	; 0xf6d
     190:	62646e61 	rsbvs	r6, r4, #1552	; 0x610
     194:	75732f79 	ldrbvc	r2, [r3, #-3961]!	; 0xf79
     198:	2f726570 	svccs	0x00726570
     19c:	6d6d6f63 	stclvs	15, cr6, [sp, #-396]!	; 0xfffffe74
     1a0:	632e6e6f 	teqvs	lr, #1776	; 0x6f0
     1a4:	706d7400 	rsbvc	r7, sp, r0, lsl #8
     1a8:	7473645f 	ldrbtvc	r6, [r3], #-1119	; 0x45f
     1ac:	706d7400 	rsbvc	r7, sp, r0, lsl #8
     1b0:	6372735f 	cmnvs	r2, #2080374785	; 0x7c000001
     1b4:	6d656d00 	stclvs	13, cr6, [r5, #-0]
     1b8:	6d656d5f 	stclvs	13, cr6, [r5, #-380]!	; 0xfffffe84
     1bc:	00797063 	rsbseq	r7, r9, r3, rrx
     1c0:	68637261 	stmdavs	r3!, {r0, r5, r6, r9, ip, sp, lr}^
     1c4:	6d72612f 	ldfvse	f6, [r2, #-188]!	; 0xffffff44
     1c8:	63616d2f 	cmnvs	r1, #3008	; 0xbc0
     1cc:	75732d68 	ldrbvc	r2, [r3, #-3432]!	; 0xd68
     1d0:	2f69786e 	svccs	0x0069786e
     1d4:	732f6d70 	teqvc	pc, #7168	; 0x1c00
     1d8:	646e6174 	strbtvs	r6, [lr], #-372	; 0x174
     1dc:	732f7962 	teqvc	pc, #1605632	; 0x188000
     1e0:	72657075 	rsbvc	r7, r5, #117	; 0x75
     1e4:	7075732f 	rsbsvc	r7, r5, pc, lsr #6
     1e8:	745f7265 	ldrbvc	r7, [pc], #-613	; 1f0 <__resume1_start+0x1f0>
     1ec:	632e6977 	teqvs	lr, #1949696	; 0x1dc000
     1f0:	63726100 	cmnvs	r2, #0
     1f4:	72612f68 	rsbvc	r2, r1, #416	; 0x1a0
     1f8:	616d2f6d 	cmnvs	sp, sp, ror #30
     1fc:	732d6863 	teqvc	sp, #6488064	; 0x630000
     200:	69786e75 	ldmdbvs	r8!, {r0, r2, r4, r5, r6, r9, sl, fp, sp, lr}^
     204:	2f6d702f 	svccs	0x006d702f
     208:	6e617473 	mcrvs	4, 3, r7, cr1, cr3, {3}
     20c:	2f796264 	svccs	0x00796264
     210:	65707573 	ldrbvs	r7, [r0, #-1395]!	; 0x573
     214:	75732f72 	ldrbvc	r2, [r3, #-3954]!	; 0xf72
     218:	5f726570 	svcpl	0x00726570
     21c:	636f6c63 	cmnvs	pc, #25344	; 0x6300
     220:	00632e6b 	rsbeq	r2, r3, fp, ror #28
     224:	68637261 	stmdavs	r3!, {r0, r5, r6, r9, ip, sp, lr}^
     228:	6d72612f 	ldfvse	f6, [r2, #-188]!	; 0xffffff44
     22c:	63616d2f 	cmnvs	r1, #3008	; 0xbc0
     230:	75732d68 	ldrbvc	r2, [r3, #-3432]!	; 0xd68
     234:	2f69786e 	svccs	0x0069786e
     238:	732f6d70 	teqvc	pc, #7168	; 0x1c00
     23c:	646e6174 	strbtvs	r6, [lr], #-372	; 0x174
     240:	732f7962 	teqvc	pc, #1605632	; 0x188000
     244:	72657075 	rsbvc	r7, r5, #117	; 0x75
     248:	7075732f 	rsbsvc	r7, r5, pc, lsr #6
     24c:	705f7265 	subsvc	r7, pc, r5, ror #4
     250:	7265776f 	rsbvc	r7, r5, #29097984	; 0x1bc0000
     254:	6100632e 	tstvs	r0, lr, lsr #6
     258:	2f686372 	svccs	0x00686372
     25c:	2f6d7261 	svccs	0x006d7261
     260:	6863616d 	stmdavs	r3!, {r0, r2, r3, r5, r6, r8, sp, lr}^
     264:	6e75732d 	cdpvs	3, 7, cr7, cr5, cr13, {1}
     268:	702f6978 	eorvc	r6, pc, r8, ror r9	; <UNPREDICTABLE>
     26c:	74732f6d 	ldrbtvc	r2, [r3], #-3949	; 0xf6d
     270:	62646e61 	rsbvs	r6, r4, #1552	; 0x610
     274:	75732f79 	ldrbvc	r2, [r3, #-3961]!	; 0xf79
     278:	2f726570 	svccs	0x00726570
     27c:	65707573 	ldrbvs	r7, [r0, #-1395]!	; 0x573
     280:	70635f72 	rsbvc	r5, r3, r2, ror pc
     284:	632e7375 	teqvs	lr, #-738197503	; 0xd4000001
     288:	4c4c5000 	marmi	acc0, r5, ip
     28c:	5550475f 	ldrbpl	r4, [r0, #-1887]	; 0x75f
     290:	4746435f 	smlsldmi	r4, r6, pc, r3	; <UNPREDICTABLE>
     294:	4745525f 	smlsldmi	r5, r5, pc, r2	; <UNPREDICTABLE>
     298:	5000745f 	andpl	r7, r0, pc, asr r4
     29c:	445f6c6c 	ldrbmi	r6, [pc], #-3180	; 2a4 <__resume1_start+0x2a4>
     2a0:	425f7264 	subsmi	r7, pc, #1073741830	; 0x40000006
     2a4:	00736169 	rsbseq	r6, r3, r9, ror #2
     2a8:	31757063 	cmncc	r5, r3, rrx
     2ac:	7365725f 	cmnvc	r5, #-268435451	; 0xf0000005
     2b0:	64007465 	strvs	r7, [r0], #-1125	; 0x465
     2b4:	67756265 	ldrbvs	r6, [r5, -r5, ror #4]!
     2b8:	73616d5f 	cmnvc	r1, #6080	; 0x17c0
     2bc:	6363006b 	cmnvs	r3, #107	; 0x6b
     2c0:	30303469 	eorscc	r3, r0, r9, ror #8
     2c4:	6b6c635f 	blvs	1b19048 <__bss_end+0x1b05efc>
     2c8:	7669645f 			; <UNDEFINED> instruction: 0x7669645f
     2cc:	7461725f 	strbtvc	r7, [r1], #-607	; 0x25f
     2d0:	64006f69 	strvs	r6, [r0], #-3945	; 0xf69
     2d4:	6c617677 	stclvs	6, cr7, [r1], #-476	; 0xfffffe24
     2d8:	76617300 	strbtvc	r7, [r1], -r0, lsl #6
     2dc:	725f6465 	subsvc	r6, pc, #1694498816	; 0x65000000
     2e0:	69746e75 	ldmdbvs	r4!, {r0, r2, r4, r5, r6, r9, sl, fp, sp, lr}^
     2e4:	635f656d 	cmpvs	pc, #457179136	; 0x1b400000
     2e8:	65746e6f 	ldrbvs	r6, [r4, #-3695]!	; 0xe6f
     2ec:	735f7478 	cmpvc	pc, #2013265920	; 0x78000000
     2f0:	77006376 	smlsdxvc	r0, r6, r3, r6
     2f4:	5f657661 	svcpl	0x00657661
     2f8:	00746f62 	rsbseq	r6, r4, r2, ror #30
     2fc:	5f4c4c50 	svcpl	0x004c4c50
     300:	49445541 	stmdbmi	r4, {r0, r6, r8, sl, ip, lr}^
     304:	41505f4f 	cmpmi	r0, pc, asr #30
     308:	46435f54 			; <UNDEFINED> instruction: 0x46435f54
     30c:	45525f47 	ldrbmi	r5, [r2, #-3911]	; 0xf47
     310:	00745f47 	rsbseq	r5, r4, r7, asr #30
     314:	5f727073 	svcpl	0x00727073
     318:	71657266 	cmnvc	r5, r6, ror #4
     31c:	646f6d5f 	strbtvs	r6, [pc], #-3423	; 324 <__resume1_start+0x324>
     320:	4c500065 	mrrcmi	0, 6, r0, r0, cr5	; <UNPREDICTABLE>
     324:	44445f4c 	strbmi	r5, [r4], #-3916	; 0xf4c
     328:	49425f52 	stmdbmi	r2, {r1, r4, r6, r8, r9, sl, fp, ip, lr}^
     32c:	525f5341 	subspl	r5, pc, #67108865	; 0x4000001
     330:	745f4745 	ldrbvc	r4, [pc], #-1861	; 338 <__resume1_start+0x338>
     334:	43544700 	cmpmi	r4, #0
     338:	435f4b4c 	cmpmi	pc, #77824	; 0x13000
     33c:	525f4746 	subspl	r4, pc, #18350080	; 0x1180000
     340:	745f4745 	ldrbvc	r4, [pc], #-1861	; 348 <__resume1_start+0x348>
     344:	6c6c7000 	stclvs	0, cr7, [ip], #-0
     348:	736f705f 	cmnvc	pc, #95	; 0x5f
     34c:	76696474 			; <UNDEFINED> instruction: 0x76696474
     350:	70006d5f 	andvc	r6, r0, pc, asr sp
     354:	705f6c6c 	subsvc	r6, pc, ip, ror #24
     358:	6474736f 	ldrbtvs	r7, [r4], #-879	; 0x36f
     35c:	705f7669 	subsvc	r7, pc, r9, ror #12
     360:	6b6c4300 	blvs	1b10f68 <__bss_end+0x1afde1c>
     364:	74754f5f 	ldrbtvc	r4, [r5], #-3935	; 0xf5f
     368:	74610062 	strbtvc	r0, [r1], #-98	; 0x62
     36c:	615f3062 	cmpvs	pc, r2, rrx
     370:	635f6270 	cmpvs	pc, #7
     374:	645f6b6c 	ldrbvs	r6, [pc], #-2924	; 37c <__resume1_start+0x37c>
     378:	50007669 	andpl	r7, r0, r9, ror #12
     37c:	435f4c4c 	cmpmi	pc, #19456	; 0x4c00
     380:	46435f31 			; <UNDEFINED> instruction: 0x46435f31
     384:	45525f47 	ldrbmi	r5, [r2, #-3911]	; 0xf47
     388:	00745f47 	rsbseq	r5, r4, r7, asr #30
     38c:	5f6c6c50 	svcpl	0x006c6c50
     390:	69726550 	ldmdbvs	r2!, {r4, r6, r8, sl, sp, lr}^
     394:	5f326870 	svcpl	0x00326870
     398:	00676643 	rsbeq	r6, r7, r3, asr #12
     39c:	30697841 	rsbcc	r7, r9, r1, asr #16
     3a0:	6766435f 			; <UNDEFINED> instruction: 0x6766435f
     3a4:	6c6c5000 	stclvs	0, cr5, [ip], #-0
     3a8:	6465565f 	strbtvs	r5, [r5], #-1631	; 0x65f
     3ac:	5f326f69 	svcpl	0x00326f69
     3b0:	73616942 	cmnvc	r1, #1081344	; 0x108000
     3b4:	6c6c7000 	stclvs	0, cr7, [ip], #-0
     3b8:	6d64735f 	stclvs	3, cr7, [r4, #-380]!	; 0xfffffe84
     3bc:	006e655f 	rsbeq	r6, lr, pc, asr r5
     3c0:	5f6c6c50 	svcpl	0x006c6c50
     3c4:	435f3143 	cmpmi	pc, #-1073741808	; 0xc0000010
     3c8:	73006766 	movwvc	r6, #1894	; 0x766
     3cc:	64657661 	strbtvs	r7, [r5], #-1633	; 0x661
     3d0:	756d6d5f 	strbvc	r6, [sp, #-3423]!	; 0xd5f
     3d4:	6174735f 	cmnvs	r4, pc, asr r3
     3d8:	50006574 	andpl	r6, r0, r4, ror r5
     3dc:	4c5f4c4c 	mrrcmi	12, 4, r4, pc, cr12	; <UNPREDICTABLE>
     3e0:	5f4b434f 	svcpl	0x004b434f
     3e4:	5f474643 	svcpl	0x00474643
     3e8:	30474552 	subcc	r4, r7, r2, asr r5
     3ec:	4100745f 	tstmi	r0, pc, asr r4
     3f0:	435f5354 	cmpmi	pc, #1342177281	; 0x50000001
     3f4:	525f4b4c 	subspl	r4, pc, #77824	; 0x13000
     3f8:	745f4745 	ldrbvc	r4, [pc], #-1861	; 400 <__resume1_start+0x400>
     3fc:	6c6c7000 	stclvs	0, cr7, [ip], #-0
     400:	7669645f 			; <UNDEFINED> instruction: 0x7669645f
     404:	75706300 	ldrbvc	r6, [r0, #-768]!	; 0x300
     408:	65725f33 	ldrbvs	r5, [r2, #-3891]!	; 0xf33
     40c:	00746573 	rsbseq	r6, r4, r3, ror r5
     410:	5f4c4c50 	svcpl	0x004c4c50
     414:	45444956 	strbmi	r4, [r4, #-2390]	; 0x956
     418:	425f314f 	subsmi	r3, pc, #-1073741805	; 0xc0000013
     41c:	5f534149 	svcpl	0x00534149
     420:	5f474552 	svcpl	0x00474552
     424:	6c630074 	stclvs	0, cr0, [r3], #-464	; 0xfffffe30
     428:	69645f6b 	stmdbvs	r4!, {r0, r1, r3, r5, r6, r8, r9, sl, fp, ip, lr}^
     42c:	61725f76 	cmnvs	r2, r6, ror pc
     430:	5f6f6974 	svcpl	0x006f6974
     434:	6c70006d 	ldclvs	0, cr0, [r0], #-436	; 0xfffffe4c
     438:	61665f6c 	cmnvs	r6, ip, ror #30
     43c:	726f7463 	rsbvc	r7, pc, #1660944384	; 0x63000000
     440:	5000745f 	andpl	r7, r0, pc, asr r4
     444:	435f6c6c 	cmpmi	pc, #27648	; 0x6c00
     448:	69425f31 	stmdbvs	r2, {r0, r4, r5, r8, r9, sl, fp, ip, lr}^
     44c:	70007361 	andvc	r7, r0, r1, ror #6
     450:	635f6c6c 	cmpvs	pc, #27648	; 0x6c00
     454:	74635f70 	strbtvc	r5, [r3], #-3952	; 0xf70
     458:	5f006c72 	svcpl	0x00006c72
     45c:	7373625f 	cmnvc	r3, #-268435451	; 0xf0000005
     460:	646e655f 	strbtvs	r6, [lr], #-1375	; 0x55f
     464:	73657200 	cmnvc	r5, #0
     468:	65767265 	ldrbvs	r7, [r6, #-613]!	; 0x265
     46c:	72003164 	andvc	r3, r0, #25
     470:	72657365 	rsbvc	r7, r5, #-1811939327	; 0x94000001
     474:	34646576 	strbtcc	r6, [r4], #-1398	; 0x576
     478:	6f637600 	svcvs	0x00637600
     47c:	6961675f 	stmdbvs	r1!, {r0, r1, r2, r3, r4, r6, r8, r9, sl, sp, lr}^
     480:	74635f6e 	strbtvc	r5, [r3], #-3950	; 0xf6e
     484:	63006c72 	movwvs	r6, #3186	; 0xc72
     488:	635f7570 	cmpvs	pc, #469762048	; 0x1c000000
     48c:	6c635f31 	stclvs	15, cr5, [r3], #-196	; 0xffffff3c
     490:	72735f6b 	rsbsvc	r5, r3, #428	; 0x1ac
     494:	65735f63 	ldrbvs	r5, [r3, #-3939]!	; 0xf63
     498:	6c50006c 	mrrcvs	0, 6, r0, r0, cr12	; <UNPREDICTABLE>
     49c:	69565f6c 	ldmdbvs	r6, {r2, r3, r5, r6, r8, r9, sl, fp, ip, lr}^
     4a0:	316f6564 	cmncc	pc, r4, ror #10
     4a4:	6766435f 			; <UNDEFINED> instruction: 0x6766435f
     4a8:	6c6c5000 	stclvs	0, cr5, [ip], #-0
     4ac:	5f30435f 	svcpl	0x0030435f
     4b0:	006e7554 	rsbeq	r7, lr, r4, asr r5
     4b4:	75736572 	ldrbvc	r6, [r3, #-1394]!	; 0x572
     4b8:	5f31656d 	svcpl	0x0031656d
     4bc:	61705f63 	cmnvs	r0, r3, ror #30
     4c0:	73007472 	movwvc	r7, #1138	; 0x472
     4c4:	645f6769 	ldrbvs	r6, [pc], #-1897	; 4cc <__resume1_start+0x4cc>
     4c8:	5f746c65 	svcpl	0x00746c65
     4cc:	5f746170 	svcpl	0x00746170
     4d0:	70006e65 	andvc	r6, r0, r5, ror #28
     4d4:	625f6c6c 	subsvs	r6, pc, #27648	; 0x6c00
     4d8:	5f736169 	svcpl	0x00736169
     4dc:	00727563 	rsbseq	r7, r2, r3, ror #10
     4e0:	535f4d50 	cmppl	pc, #5120	; 0x1400
     4e4:	444e4154 	strbmi	r4, [lr], #-340	; 0x154
     4e8:	505f5942 	subspl	r5, pc, r2, asr #18
     4ec:	544e4952 	strbpl	r4, [lr], #-2386	; 0x952
     4f0:	5543435f 	strbpl	r4, [r3, #-863]	; 0x35f
     4f4:	4154535f 	cmpmi	r4, pc, asr r3
     4f8:	00535554 	subseq	r5, r3, r4, asr r5
     4fc:	5f6c6c50 	svcpl	0x006c6c50
     500:	5f726444 	svcpl	0x00726444
     504:	5f746150 	svcpl	0x00746150
     508:	00676643 	rsbeq	r6, r7, r3, asr #12
     50c:	535f4d50 	cmppl	pc, #5120	; 0x1400
     510:	444e4154 	strbmi	r4, [lr], #-340	; 0x154
     514:	505f5942 	subspl	r5, pc, r2, asr #18
     518:	544e4952 	strbpl	r4, [lr], #-2386	; 0x952
     51c:	5345525f 	movtpl	r5, #21087	; 0x525f
     520:	5f454d55 	svcpl	0x00454d55
     524:	535f4f49 	cmppl	pc, #292	; 0x124
     528:	55544154 	ldrbpl	r4, [r4, #-340]	; 0x154
     52c:	68410053 	stmdavs	r1, {r0, r1, r4, r6}^
     530:	435f3262 	cmpmi	pc, #536870918	; 0x20000006
     534:	46006766 	strmi	r6, [r0], -r6, ror #14
     538:	6f746361 	svcvs	0x00746361
     53c:	50004b72 	andpl	r4, r0, r2, ror fp
     540:	435f4c4c 	cmpmi	pc, #19456	; 0x4c00
     544:	46435f30 			; <UNDEFINED> instruction: 0x46435f30
     548:	45525f47 	ldrbmi	r5, [r2, #-3911]	; 0xf47
     54c:	00745f47 	rsbseq	r5, r4, r7, asr #30
     550:	74636146 	strbtvc	r6, [r3], #-326	; 0x146
     554:	004d726f 	subeq	r7, sp, pc, ror #4
     558:	74636146 	strbtvc	r6, [r3], #-326	; 0x146
     55c:	004e726f 	subeq	r7, lr, pc, ror #4
     560:	74636146 	strbtvc	r6, [r3], #-326	; 0x146
     564:	0050726f 	subseq	r7, r0, pc, ror #4
     568:	69766964 	ldmdbvs	r6!, {r2, r5, r6, r8, fp, sp, lr}^
     56c:	5f726564 	svcpl	0x00726564
     570:	6964006d 	stmdbvs	r4!, {r0, r2, r3, r5, r6}^
     574:	65646976 	strbvs	r6, [r4, #-2422]!	; 0x976
     578:	006e5f72 	rsbeq	r5, lr, r2, ror pc
     57c:	65646e69 	strbvs	r6, [r4, #-3689]!	; 0xe69
     580:	6c500078 	mrrcvs	0, 7, r0, r0, cr8	; <UNPREDICTABLE>
     584:	69565f6c 	ldmdbvs	r6, {r2, r3, r5, r6, r8, r9, sl, fp, ip, lr}^
     588:	316f6564 	cmncc	pc, r4, ror #10
     58c:	7461505f 	strbtvc	r5, [r1], #-95	; 0x5f
     590:	6766435f 			; <UNDEFINED> instruction: 0x6766435f
     594:	6c6c5000 	stclvs	0, cr5, [ip], #-0
     598:	5f65445f 	svcpl	0x0065445f
     59c:	73616942 	cmnvc	r1, #1081344	; 0x108000
     5a0:	73757300 	cmnvc	r5, #0
     5a4:	646e6570 	strbtvs	r6, [lr], #-1392	; 0x570
     5a8:	6c65645f 	cfstrdvs	mvd6, [r5], #-380	; 0xfffffe84
     5ac:	6d5f7961 	ldclvs	9, cr7, [pc, #-388]	; 430 <__resume1_start+0x430>
     5b0:	63430073 	movtvs	r0, #12403	; 0x3073
     5b4:	30303469 	eorscc	r3, r0, r9, ror #8
     5b8:	6766435f 			; <UNDEFINED> instruction: 0x6766435f
     5bc:	4c4c5000 	marmi	acc0, r5, ip
     5c0:	5f31435f 	svcpl	0x0031435f
     5c4:	53414942 	movtpl	r4, #6466	; 0x1942
     5c8:	4745525f 	smlsldmi	r5, r5, pc, r2	; <UNPREDICTABLE>
     5cc:	4300745f 	movwmi	r7, #1119	; 0x45f
     5d0:	4f5f4b4c 	svcmi	0x005f4b4c
     5d4:	5f425455 	svcpl	0x00425455
     5d8:	5f474552 	svcpl	0x00474552
     5dc:	63760074 	cmnvs	r6, #116	; 0x74
     5e0:	73725f6f 	cmnvc	r2, #444	; 0x1bc
     5e4:	5f5f0074 	svcpl	0x005f0074
     5e8:	5f737362 	svcpl	0x00737362
     5ec:	72617473 	rsbvc	r7, r1, #1929379840	; 0x73000000
     5f0:	4c500074 	mrrcmi	0, 7, r0, r0, cr4	; <UNPREDICTABLE>
     5f4:	49565f4c 	ldmdbmi	r6, {r2, r3, r6, r8, r9, sl, fp, ip, lr}^
     5f8:	324f4544 	subcc	r4, pc, #285212672	; 0x11000000
     5fc:	5441505f 	strbpl	r5, [r1], #-95	; 0x5f
     600:	4746435f 	smlsldmi	r4, r6, pc, r3	; <UNPREDICTABLE>
     604:	4745525f 	smlsldmi	r5, r5, pc, r2	; <UNPREDICTABLE>
     608:	5000745f 	andpl	r7, r0, pc, asr r4
     60c:	565f4c4c 	ldrbpl	r4, [pc], -ip, asr #24
     610:	4f454449 	svcmi	0x00454449
     614:	41505f31 	cmpmi	r0, r1, lsr pc
     618:	46435f54 			; <UNDEFINED> instruction: 0x46435f54
     61c:	45525f47 	ldrbmi	r5, [r2, #-3911]	; 0xf47
     620:	00745f47 	rsbseq	r5, r4, r7, asr #30
     624:	5f555043 	svcpl	0x00555043
     628:	5f4b4c43 	svcpl	0x004b4c43
     62c:	5f435253 	svcpl	0x00435253
     630:	5f474552 	svcpl	0x00474552
     634:	6c500074 	mrrcvs	0, 7, r0, r0, cr4	; <UNPREDICTABLE>
     638:	65565f6c 	ldrbvs	r5, [r6, #-3948]	; 0xf6c
     63c:	6169425f 	cmnvs	r9, pc, asr r2
     640:	4d500073 	ldclmi	0, cr0, [r0, #-460]	; 0xfffffe34
     644:	4154535f 	cmpmi	r4, pc, asr r3
     648:	5942444e 	stmdbpl	r2, {r1, r2, r3, r6, sl, lr}^
     64c:	4952505f 	ldmdbmi	r2, {r0, r1, r2, r3, r4, r6, ip, lr}^
     650:	495f544e 	ldmdbmi	pc, {r1, r2, r3, r6, sl, ip, lr}^	; <UNPREDICTABLE>
     654:	54535f4f 	ldrbpl	r5, [r3], #-3919	; 0xf4f
     658:	53555441 	cmppl	r5, #1090519040	; 0x41000000
     65c:	4c4c5000 	marmi	acc0, r5, ip
     660:	5f45565f 	svcpl	0x0045565f
     664:	5f474643 	svcpl	0x00474643
     668:	5f474552 	svcpl	0x00474552
     66c:	68610074 	stmdavs	r1!, {r2, r4, r5, r6}^
     670:	635f3162 	cmpvs	pc, #-2147483624	; 0x80000018
     674:	735f6b6c 	cmpvc	pc, #110592	; 0x1b000
     678:	735f6372 	cmpvc	pc, #-939524095	; 0xc8000001
     67c:	41006c65 	tstmi	r0, r5, ror #24
     680:	5f324248 	svcpl	0x00324248
     684:	5f474643 	svcpl	0x00474643
     688:	5f474552 	svcpl	0x00474552
     68c:	70410074 	subvc	r0, r1, r4, ror r0
     690:	435f3062 	cmpmi	pc, #98	; 0x62
     694:	63006766 	movwvs	r6, #1894	; 0x766
     698:	6f5f6b6c 	svcvs	0x005f6b6c
     69c:	655f7475 	ldrbvs	r7, [pc, #-1141]	; 22f <__resume1_start+0x22f>
     6a0:	4c50006e 	mrrcmi	0, 6, r0, r0, cr14	; <UNPREDICTABLE>
     6a4:	31435f4c 	cmpcc	r3, ip, asr #30
     6a8:	4e55545f 	mrcmi	4, 2, r5, cr5, cr15, {2}
     6ac:	4745525f 	smlsldmi	r5, r5, pc, r2	; <UNPREDICTABLE>
     6b0:	6100745f 	tstvs	r0, pc, asr r4
     6b4:	5f316274 	svcpl	0x00316274
     6b8:	5f627061 	svcpl	0x00627061
     6bc:	5f6b6c63 	svcpl	0x006b6c63
     6c0:	00766964 	rsbseq	r6, r6, r4, ror #18
     6c4:	31697861 	cmncc	r9, r1, ror #16
     6c8:	6b6c635f 	blvs	1b1944c <__bss_end+0x1b06300>
     6cc:	7669645f 			; <UNDEFINED> instruction: 0x7669645f
     6d0:	7461725f 	strbtvc	r7, [r1], #-607	; 0x25f
     6d4:	50006f69 	andpl	r6, r0, r9, ror #30
     6d8:	495f6c6c 	ldmdbmi	pc, {r2, r3, r5, r6, sl, fp, sp, lr}^	; <UNPREDICTABLE>
     6dc:	505f7073 	subspl	r7, pc, r3, ror r0	; <UNPREDICTABLE>
     6e0:	435f7461 	cmpmi	pc, #1627389952	; 0x61000000
     6e4:	67006766 	strvs	r6, [r0, -r6, ror #14]
     6e8:	6b6c6374 	blvs	1b194c0 <__bss_end+0x1b06374>
     6ec:	6b6c635f 	blvs	1b19470 <__bss_end+0x1b06324>
     6f0:	7669645f 			; <UNDEFINED> instruction: 0x7669645f
     6f4:	7461725f 	strbtvc	r7, [r1], #-607	; 0x25f
     6f8:	50006f69 	andpl	r6, r0, r9, ror #30
     6fc:	445f6c6c 	ldrbmi	r6, [pc], #-3180	; 704 <__resume1_start+0x704>
     700:	435f7264 	cmpmi	pc, #1073741830	; 0x40000006
     704:	64006766 	strvs	r6, [r0], #-1894	; 0x766
     708:	00726361 	rsbseq	r6, r2, r1, ror #6
     70c:	65766177 	ldrbvs	r6, [r6, #-375]!	; 0x177
     710:	6574735f 	ldrbvs	r7, [r4, #-863]!	; 0x35f
     714:	70610070 	rsbvc	r0, r1, r0, ror r0
     718:	635f3062 	cmpvs	pc, #98	; 0x62
     71c:	735f6b6c 	cmpvc	pc, #110592	; 0x1b000
     720:	735f6372 	cmpvc	pc, #-939524095	; 0xc8000001
     724:	61006c65 	tstvs	r0, r5, ror #24
     728:	2f686372 	svccs	0x00686372
     72c:	2f6d7261 	svccs	0x006d7261
     730:	6863616d 	stmdavs	r3!, {r0, r2, r3, r5, r6, r8, sp, lr}^
     734:	6e75732d 	cdpvs	3, 7, cr7, cr5, cr13, {1}
     738:	702f6978 	eorvc	r6, pc, r8, ror r9	; <UNPREDICTABLE>
     73c:	74732f6d 	ldrbtvc	r2, [r3], #-3949	; 0xf6d
     740:	62646e61 	rsbvs	r6, r4, #1552	; 0x610
     744:	75732f79 	ldrbvc	r2, [r3, #-3961]!	; 0xf79
     748:	2f726570 	svccs	0x00726570
     74c:	75736572 	ldrbvc	r6, [r3, #-1394]!	; 0x572
     750:	722f656d 	eorvc	r6, pc, #457179136	; 0x1b400000
     754:	6d757365 	ldclvs	3, cr7, [r5, #-404]!	; 0xfffffe6c
     758:	635f3165 	cmpvs	pc, #1073741849	; 0x40000019
     75c:	7261705f 	rsbvc	r7, r1, #95	; 0x5f
     760:	00632e74 	rsbeq	r2, r3, r4, ror lr
     764:	535f4d50 	cmppl	pc, #5120	; 0x1400
     768:	444e4154 	strbmi	r4, [lr], #-340	; 0x154
     76c:	505f5942 	subspl	r5, pc, r2, asr #18
     770:	544e4952 	strbpl	r4, [lr], #-2386	; 0x952
     774:	4254475f 	subsmi	r4, r4, #24903680	; 0x17c0000
     778:	525f5355 	subspl	r5, pc, #1409286145	; 0x54000001
     77c:	43004745 	movwmi	r4, #1861	; 0x745
     780:	4f5f6b6c 	svcmi	0x005f6b6c
     784:	00617475 	rsbeq	r7, r1, r5, ror r4
     788:	5f6c6c50 	svcpl	0x006c6c50
     78c:	6b636f4c 	blvs	18dc4c4 <__bss_end+0x18c9378>
     790:	6766435f 			; <UNDEFINED> instruction: 0x6766435f
     794:	5000315f 	andpl	r3, r0, pc, asr r1
     798:	475f6c6c 	ldrbmi	r6, [pc, -ip, ror #24]
     79c:	505f7570 	subspl	r7, pc, r0, ror r5	; <UNPREDICTABLE>
     7a0:	435f7461 	cmpmi	pc, #1627389952	; 0x61000000
     7a4:	50006766 	andpl	r6, r0, r6, ror #14
     7a8:	54535f4d 	ldrbpl	r5, [r3], #-3917	; 0xf4d
     7ac:	42444e41 	submi	r4, r4, #1040	; 0x410
     7b0:	52505f59 	subspl	r5, r0, #356	; 0x164
     7b4:	5f544e49 	svcpl	0x00544e49
     7b8:	4e415453 	mcrmi	4, 2, r5, cr1, cr3, {2}
     7bc:	00594244 	subseq	r4, r9, r4, asr #4
     7c0:	6c637467 	cfstrdvs	mvd7, [r3], #-412	; 0xfffffe64
     7c4:	72735f6b 	rsbsvc	r5, r3, #428	; 0x1ac
     7c8:	65735f63 	ldrbvs	r5, [r3, #-3939]!	; 0xf63
     7cc:	6c63006c 	stclvs	0, cr0, [r3], #-432	; 0xfffffe50
     7d0:	61725f6b 	cmnvs	r2, fp, ror #30
     7d4:	006d5f74 	rsbeq	r5, sp, r4, ror pc
     7d8:	5f6b6c63 	svcpl	0x006b6c63
     7dc:	5f746172 	svcpl	0x00746172
     7e0:	4c50006e 	mrrcmi	0, 6, r0, r0, cr14	; <UNPREDICTABLE>
     7e4:	45505f4c 	ldrbmi	r5, [r0, #-3916]	; 0xf4c
     7e8:	48504952 	ldmdami	r0, {r1, r4, r6, r8, fp, lr}^
     7ec:	46435f32 			; <UNDEFINED> instruction: 0x46435f32
     7f0:	45525f47 	ldrbmi	r5, [r2, #-3911]	; 0xf47
     7f4:	00745f47 	rsbseq	r5, r4, r7, asr #30
     7f8:	5f6c6c70 	svcpl	0x006c6c70
     7fc:	6b636f6c 	blvs	18dc5b4 <__bss_end+0x18c9468>
     800:	6d69745f 	cfstrdvs	mvd7, [r9, #-380]!	; 0xfffffe84
     804:	4c500065 	mrrcmi	0, 6, r0, r0, cr5	; <UNPREDICTABLE>
     808:	53495f4c 	movtpl	r5, #40780	; 0x9f4c
     80c:	41505f50 	cmpmi	r0, r0, asr pc
     810:	46435f54 			; <UNDEFINED> instruction: 0x46435f54
     814:	45525f47 	ldrbmi	r5, [r2, #-3911]	; 0xf47
     818:	00745f47 	rsbseq	r5, r4, r7, asr #30
     81c:	31627061 	cmncc	r2, r1, rrx
     820:	6b6c635f 	blvs	1b195a4 <__bss_end+0x1b06458>
     824:	6372735f 	cmnvs	r2, #2080374785	; 0x7c000001
     828:	6c65735f 	stclvs	3, cr7, [r5], #-380	; 0xfffffe84
     82c:	62684100 	rsbvs	r4, r8, #0
     830:	66435f31 			; <UNDEFINED> instruction: 0x66435f31
     834:	64730067 	ldrbtvs	r0, [r3], #-103	; 0x67
     838:	6c6c7072 	stclvs	0, cr7, [ip], #-456	; 0xfffffe38
     83c:	6470755f 	ldrbtvs	r7, [r0], #-1375	; 0x55f
     840:	64636400 	strbtvs	r6, [r3], #-1024	; 0x400
     844:	64003263 	strvs	r3, [r0], #-611	; 0x263
     848:	33636463 	cmncc	r3, #1660944384	; 0x63000000
     84c:	6c6c5000 	stclvs	0, cr5, [ip], #-0
     850:	7265505f 	rsbvc	r5, r5, #95	; 0x5f
     854:	31687069 	cmncc	r8, r9, rrx
     858:	6766435f 			; <UNDEFINED> instruction: 0x6766435f
     85c:	6b6c6300 	blvs	1b19464 <__bss_end+0x1b06318>
     860:	73696d5f 	cmnvc	r9, #6080	; 0x17c0
     864:	4d500063 	ldclmi	0, cr0, [r0, #-396]	; 0xfffffe74
     868:	4154535f 	cmpmi	r4, pc, asr r3
     86c:	5942444e 	stmdbpl	r2, {r1, r2, r3, r6, sl, lr}^
     870:	4952505f 	ldmdbmi	r2, {r0, r1, r2, r3, r4, r6, ip, lr}^
     874:	525f544e 	subspl	r5, pc, #1308622848	; 0x4e000000
     878:	4d555345 	ldclmi	3, cr5, [r5, #-276]	; 0xfffffeec
     87c:	6c500045 	mrrcvs	0, 4, r0, r0, cr5	; <UNPREDICTABLE>
     880:	65445f6c 	strbvs	r5, [r4, #-3948]	; 0xf6c
     884:	7461505f 	strbtvc	r5, [r1], #-95	; 0x5f
     888:	6766435f 			; <UNDEFINED> instruction: 0x6766435f
     88c:	6c6c5000 	stclvs	0, cr5, [ip], #-0
     890:	5f30435f 	svcpl	0x0030435f
     894:	00676643 	rsbeq	r6, r7, r3, asr #12
     898:	5f4c4c50 	svcpl	0x004c4c50
     89c:	45444956 	strbmi	r4, [r4, #-2390]	; 0x956
     8a0:	435f324f 	cmpmi	pc, #-268435452	; 0xf0000004
     8a4:	525f4746 	subspl	r4, pc, #18350080	; 0x1180000
     8a8:	745f4745 	ldrbvc	r4, [pc], #-1861	; 8b0 <__resume1_start+0x8b0>
     8ac:	755f5f00 	ldrbvc	r5, [pc, #-3840]	; fffff9b4 <__bss_end+0xfffec868>
     8b0:	61003233 	tstvs	r0, r3, lsr r2
     8b4:	5f306978 	svcpl	0x00306978
     8b8:	5f6b6c63 	svcpl	0x006b6c63
     8bc:	5f766964 	svcpl	0x00766964
     8c0:	69746172 	ldmdbvs	r4!, {r1, r4, r5, r6, r8, sp, lr}^
     8c4:	6c50006f 	mrrcvs	0, 6, r0, r0, cr15	; <UNPREDICTABLE>
     8c8:	70475f6c 	subvc	r5, r7, ip, ror #30
     8cc:	66435f75 			; <UNDEFINED> instruction: 0x66435f75
     8d0:	4c500067 	mrrcmi	0, 6, r0, r0, cr7	; <UNPREDICTABLE>
     8d4:	30435f4c 	subcc	r5, r3, ip, asr #30
     8d8:	4e55545f 	mrcmi	4, 2, r5, cr5, cr15, {2}
     8dc:	4745525f 	smlsldmi	r5, r5, pc, r2	; <UNPREDICTABLE>
     8e0:	5000745f 	andpl	r7, r0, pc, asr r4
     8e4:	565f6c6c 	ldrbpl	r6, [pc], -ip, ror #24
     8e8:	66435f65 	strbvs	r5, [r3], -r5, ror #30
     8ec:	6c500067 	mrrcvs	0, 6, r0, r0, cr7	; <UNPREDICTABLE>
     8f0:	65505f6c 	ldrbvs	r5, [r0, #-3948]	; 0xf6c
     8f4:	68706972 	ldmdavs	r0!, {r1, r4, r5, r6, r8, fp, sp, lr}^
     8f8:	69425f32 	stmdbvs	r2, {r1, r4, r5, r8, r9, sl, fp, ip, lr}^
     8fc:	50007361 	andpl	r7, r0, r1, ror #6
     900:	445f4c4c 	ldrbmi	r4, [pc], #-3148	; 908 <__resume1_start+0x908>
     904:	41505f45 	cmpmi	r0, r5, asr #30
     908:	46435f54 			; <UNDEFINED> instruction: 0x46435f54
     90c:	45525f47 	ldrbmi	r5, [r2, #-3911]	; 0xf47
     910:	00745f47 	rsbseq	r5, r4, r7, asr #30
     914:	5f4c4c50 	svcpl	0x004c4c50
     918:	45444956 	strbmi	r4, [r4, #-2390]	; 0x956
     91c:	425f324f 	subsmi	r3, pc, #-268435452	; 0xf0000004
     920:	5f534149 	svcpl	0x00534149
     924:	5f474552 	svcpl	0x00474552
     928:	69620074 	stmdbvs	r2!, {r2, r4, r5, r6}^
     92c:	41007374 	tstmi	r0, r4, ror r3
     930:	5f314250 	svcpl	0x00314250
     934:	5f474643 	svcpl	0x00474643
     938:	5f474552 	svcpl	0x00474552
     93c:	4c500074 	mrrcmi	0, 7, r0, r0, cr4	; <UNPREDICTABLE>
     940:	45505f4c 	ldrbmi	r5, [r0, #-3916]	; 0xf4c
     944:	48504952 	ldmdami	r0, {r1, r4, r6, r8, fp, lr}^
     948:	41505f32 	cmpmi	r0, r2, lsr pc
     94c:	46435f54 			; <UNDEFINED> instruction: 0x46435f54
     950:	45525f47 	ldrbmi	r5, [r2, #-3911]	; 0xf47
     954:	00745f47 	rsbseq	r5, r4, r7, asr #30
     958:	5f737441 	svcpl	0x00737441
     95c:	006b6c43 	rsbeq	r6, fp, r3, asr #24
     960:	5f4c4c50 	svcpl	0x004c4c50
     964:	5f524444 	svcpl	0x00524444
     968:	5f544150 	svcpl	0x00544150
     96c:	5f474643 	svcpl	0x00474643
     970:	5f474552 	svcpl	0x00474552
     974:	6c500074 	mrrcvs	0, 7, r0, r0, cr4	; <UNPREDICTABLE>
     978:	73495f6c 	movtvc	r5, #40812	; 0x9f6c
     97c:	66435f70 			; <UNDEFINED> instruction: 0x66435f70
     980:	4c500067 	mrrcmi	0, 6, r0, r0, cr7	; <UNPREDICTABLE>
     984:	4f4c5f4c 	svcmi	0x004c5f4c
     988:	435f4b43 	cmpmi	pc, #68608	; 0x10c00
     98c:	525f4746 	subspl	r4, pc, #18350080	; 0x1180000
     990:	5f314745 	svcpl	0x00314745
     994:	65720074 	ldrbvs	r0, [r2, #-116]!	; 0x74
     998:	656d7573 	strbvs	r7, [sp, #-1395]!	; 0x573
     99c:	696f705f 	stmdbvs	pc!, {r0, r1, r2, r3, r4, r6, ip, sp, lr}^	; <UNPREDICTABLE>
     9a0:	7265746e 	rsbvc	r7, r5, #1845493760	; 0x6e000000
     9a4:	6c6c5000 	stclvs	0, cr5, [ip], #-0
     9a8:	6469565f 	strbtvs	r5, [r9], #-1631	; 0x65f
     9ac:	5f326f65 	svcpl	0x00326f65
     9b0:	5f746150 	svcpl	0x00746150
     9b4:	00676643 	rsbeq	r6, r7, r3, asr #12
     9b8:	30495841 	subcc	r5, r9, r1, asr #16
     9bc:	4746435f 	smlsldmi	r4, r6, pc, r3	; <UNPREDICTABLE>
     9c0:	4745525f 	smlsldmi	r5, r5, pc, r2	; <UNPREDICTABLE>
     9c4:	5000745f 	andpl	r7, r0, pc, asr r4
     9c8:	415f4c4c 	cmpmi	pc, ip, asr #24
     9cc:	4f494455 	svcmi	0x00494455
     9d0:	4746435f 	smlsldmi	r4, r6, pc, r3	; <UNPREDICTABLE>
     9d4:	4745525f 	smlsldmi	r5, r5, pc, r2	; <UNPREDICTABLE>
     9d8:	6300745f 	movwvs	r7, #1119	; 0x45f
     9dc:	695f625f 	ldmdbvs	pc, {r0, r1, r2, r3, r4, r6, r9, sp, lr}^	; <UNPREDICTABLE>
     9e0:	4d50006e 	ldclmi	0, cr0, [r0, #-440]	; 0xfffffe48
     9e4:	4154535f 	cmpmi	r4, pc, asr r3
     9e8:	5942444e 	stmdbpl	r2, {r1, r2, r3, r6, sl, lr}^
     9ec:	4952505f 	ldmdbmi	r2, {r0, r1, r2, r3, r4, r6, ip, lr}^
     9f0:	435f544e 	cmpmi	pc, #1308622848	; 0x4e000000
     9f4:	45484341 	strbmi	r4, [r8, #-833]	; 0x341
     9f8:	424c545f 	submi	r5, ip, #1593835520	; 0x5f000000
     9fc:	53494d5f 	movtpl	r4, #40287	; 0x9d5f
     a00:	6c500053 	mrrcvs	0, 5, r0, r0, cr3	; <UNPREDICTABLE>
     a04:	65565f6c 	ldrbvs	r5, [r6, #-3948]	; 0xf6c
     a08:	316f6964 	cmncc	pc, r4, ror #18
     a0c:	6169425f 	cmnvs	r9, pc, asr r2
     a10:	48410073 	stmdami	r1, {r0, r1, r4, r5, r6}^
     a14:	435f3142 	cmpmi	pc, #-2147483632	; 0x80000010
     a18:	525f4746 	subspl	r4, pc, #18350080	; 0x1180000
     a1c:	745f4745 	ldrbvc	r4, [pc], #-1861	; a24 <__resume1_start+0xa24>
     a20:	75706300 	ldrbvc	r6, [r0, #-768]!	; 0x300
     a24:	0064695f 	rsbeq	r6, r4, pc, asr r9
     a28:	5f6c6c50 	svcpl	0x006c6c50
     a2c:	69726550 	ldmdbvs	r2!, {r4, r6, r8, sl, sp, lr}^
     a30:	5f316870 	svcpl	0x00316870
     a34:	5f746150 	svcpl	0x00746150
     a38:	00676643 	rsbeq	r6, r7, r3, asr #12
     a3c:	5f4c4c50 	svcpl	0x004c4c50
     a40:	425f4556 	subsmi	r4, pc, #360710144	; 0x15800000
     a44:	5f534149 	svcpl	0x00534149
     a48:	5f474552 	svcpl	0x00474552
     a4c:	70630074 	rsbvc	r0, r3, r4, ror r0
     a50:	725f3275 	subsvc	r3, pc, #1342177287	; 0x50000007
     a54:	74657365 	strbtvc	r7, [r5], #-869	; 0x365
     a58:	6c6c5000 	stclvs	0, cr5, [ip], #-0
     a5c:	6475415f 	ldrbtvs	r4, [r5], #-351	; 0x15f
     a60:	435f6f69 	cmpmi	pc, #420	; 0x1a4
     a64:	73006766 	movwvc	r6, #1894	; 0x766
     a68:	61625f70 	smcvs	9712	; 0x25f0
     a6c:	70756b63 	rsbsvc	r6, r5, r3, ror #22
     a70:	75704300 	ldrbvc	r4, [r0, #-768]!	; 0x300
     a74:	6b6c435f 	blvs	1b117f8 <__bss_end+0x1afe6ac>
     a78:	6372535f 	cmnvs	r2, #2080374785	; 0x7c000001
     a7c:	73657200 	cmnvc	r5, #0
     a80:	65767265 	ldrbvs	r7, [r6, #-613]!	; 0x265
     a84:	50003564 	andpl	r3, r0, r4, ror #10
     a88:	505f4c4c 	subspl	r4, pc, ip, asr #24
     a8c:	50495245 	subpl	r5, r9, r5, asr #4
     a90:	425f3148 	subsmi	r3, pc, #18
     a94:	5f534149 	svcpl	0x00534149
     a98:	5f474552 	svcpl	0x00474552
     a9c:	68610074 	stmdavs	r1!, {r2, r4, r5, r6}^
     aa0:	635f3262 	cmpvs	pc, #536870918	; 0x20000006
     aa4:	645f6b6c 	ldrbvs	r6, [pc], #-2924	; aac <__resume1_start+0xaac>
     aa8:	725f7669 	subsvc	r7, pc, #110100480	; 0x6900000
     aac:	6f697461 	svcvs	0x00697461
     ab0:	6c6c5000 	stclvs	0, cr5, [ip], #-0
     ab4:	5f65445f 	svcpl	0x0065445f
     ab8:	00676643 	rsbeq	r6, r7, r3, asr #12
     abc:	5f4c4c50 	svcpl	0x004c4c50
     ac0:	49524550 	ldmdbmi	r2, {r4, r6, r8, sl, lr}^
     ac4:	5f314850 	svcpl	0x00314850
     ac8:	5f544150 	svcpl	0x00544150
     acc:	5f474643 	svcpl	0x00474643
     ad0:	5f474552 	svcpl	0x00474552
     ad4:	4c500074 	mrrcmi	0, 7, r0, r0, cr4	; <UNPREDICTABLE>
     ad8:	55415f4c 	strbpl	r5, [r1, #-3916]	; 0xf4c
     adc:	5f4f4944 	svcpl	0x004f4944
     ae0:	53414942 	movtpl	r4, #6466	; 0x1942
     ae4:	4745525f 	smlsldmi	r5, r5, pc, r2	; <UNPREDICTABLE>
     ae8:	6100745f 	tstvs	r0, pc, asr r4
     aec:	5f316268 	svcpl	0x00316268
     af0:	5f6b6c63 	svcpl	0x006b6c63
     af4:	5f766964 	svcpl	0x00766964
     af8:	69746172 	ldmdbvs	r4!, {r1, r4, r5, r6, r8, sp, lr}^
     afc:	7861006f 	stmdavc	r1!, {r0, r1, r2, r3, r5, r6}^
     b00:	76655f70 	uqsub16vc	r5, r5, r0
     b04:	00746e65 	rsbseq	r6, r4, r5, ror #28
     b08:	5f6c6c50 	svcpl	0x006c6c50
     b0c:	425f3043 	subsmi	r3, pc, #67	; 0x43
     b10:	00736169 	rsbseq	r6, r3, r9, ror #2
     b14:	30425041 	subcc	r5, r2, r1, asr #32
     b18:	4746435f 	smlsldmi	r4, r6, pc, r3	; <UNPREDICTABLE>
     b1c:	4745525f 	smlsldmi	r5, r5, pc, r2	; <UNPREDICTABLE>
     b20:	5000745f 	andpl	r7, r0, pc, asr r4
     b24:	565f6c6c 	ldrbpl	r6, [pc], -ip, ror #24
     b28:	61505f65 	cmpvs	r0, r5, ror #30
     b2c:	66435f74 			; <UNDEFINED> instruction: 0x66435f74
     b30:	70630067 	rsbvc	r0, r3, r7, rrx
     b34:	30635f75 	rsbcc	r5, r3, r5, ror pc
     b38:	6b6c635f 	blvs	1b198bc <__bss_end+0x1b06770>
     b3c:	6372735f 	cmnvs	r2, #2080374785	; 0x7c000001
     b40:	6c65735f 	stclvs	3, cr7, [r5], #-380	; 0xfffffe84
     b44:	4c4c5000 	marmi	acc0, r5, ip
     b48:	5245505f 	subpl	r5, r5, #95	; 0x5f
     b4c:	31485049 	cmpcc	r8, r9, asr #32
     b50:	4746435f 	smlsldmi	r4, r6, pc, r3	; <UNPREDICTABLE>
     b54:	4745525f 	smlsldmi	r5, r5, pc, r2	; <UNPREDICTABLE>
     b58:	5400745f 	strpl	r7, [r0], #-1119	; 0x45f
     b5c:	45434152 	strbmi	r4, [r3, #-338]	; 0x152
     b60:	4b4c435f 	blmi	13118e4 <__bss_end+0x12fe798>
     b64:	4745525f 	smlsldmi	r5, r5, pc, r2	; <UNPREDICTABLE>
     b68:	7300745f 	movwvc	r7, #1119	; 0x45f
     b6c:	5f6b6c63 	svcpl	0x006b6c63
     b70:	69746167 	ldmdbvs	r4!, {r0, r1, r2, r5, r6, r8, sp, lr}^
     b74:	6300676e 	movwvs	r6, #1902	; 0x76e
     b78:	6f5f625f 	svcvs	0x005f625f
     b7c:	50007475 	andpl	r7, r0, r5, ror r4
     b80:	445f4c4c 	ldrbmi	r4, [pc], #-3148	; b88 <__resume1_start+0xb88>
     b84:	49425f45 	stmdbmi	r2, {r0, r2, r6, r8, r9, sl, fp, ip, lr}^
     b88:	525f5341 	subspl	r5, pc, #67108865	; 0x4000001
     b8c:	745f4745 	ldrbvc	r4, [pc], #-1861	; b94 <__resume1_start+0xb94>
     b90:	6c6c5000 	stclvs	0, cr5, [ip], #-0
     b94:	6475415f 	ldrbtvs	r4, [r5], #-351	; 0x15f
     b98:	505f6f69 	subspl	r6, pc, r9, ror #30
     b9c:	435f7461 	cmpmi	pc, #1627389952	; 0x61000000
     ba0:	43006766 	movwmi	r6, #1894	; 0x766
     ba4:	4f5f4b4c 	svcmi	0x005f4b4c
     ba8:	5f415455 	svcpl	0x00415455
     bac:	5f474552 	svcpl	0x00474552
     bb0:	6c630074 	stclvs	0, cr0, [r3], #-464	; 0xfffffe30
     bb4:	69645f6b 	stmdbvs	r4!, {r0, r1, r3, r5, r6, r8, r9, sl, fp, ip, lr}^
     bb8:	00745f76 	rsbseq	r5, r4, r6, ror pc
     bbc:	5f6b6c63 	svcpl	0x006b6c63
     bc0:	6373696d 	cmnvs	r3, #1785856	; 0x1b4000
     bc4:	5000745f 	andpl	r7, r0, pc, asr r4
     bc8:	565f4c4c 	ldrbpl	r4, [pc], -ip, asr #24
     bcc:	4f454449 	svcmi	0x00454449
     bd0:	46435f31 			; <UNDEFINED> instruction: 0x46435f31
     bd4:	45525f47 	ldrbmi	r5, [r2, #-3911]	; 0xf47
     bd8:	00745f47 	rsbseq	r5, r4, r7, asr #30
     bdc:	5f6f6376 	svcpl	0x006f6376
     be0:	5f676e72 	svcpl	0x00676e72
     be4:	6c727463 	cfldrdvs	mvd7, [r2], #-396	; 0xfffffe74
     be8:	42484100 	submi	r4, r8, #0
     bec:	46435f30 			; <UNDEFINED> instruction: 0x46435f30
     bf0:	45525f47 	ldrbmi	r5, [r2, #-3911]	; 0xf47
     bf4:	00745f47 	rsbseq	r5, r4, r7, asr #30
     bf8:	34696363 	strbtcc	r6, [r9], #-867	; 0x363
     bfc:	635f3030 	cmpvs	pc, #48	; 0x30
     c00:	735f6b6c 	cmpvc	pc, #110592	; 0x1b000
     c04:	735f6372 	cmpvc	pc, #-939524095	; 0xc8000001
     c08:	47006c65 	strmi	r6, [r0, -r5, ror #24]
     c0c:	6b6c6374 	blvs	1b199e4 <__bss_end+0x1b06898>
     c10:	6766435f 			; <UNDEFINED> instruction: 0x6766435f
     c14:	74657300 	strbtvc	r7, [r5], #-768	; 0x300
     c18:	6c6c705f 	stclvs	0, cr7, [ip], #-380	; 0xfffffe84
     c1c:	4c4c5000 	marmi	acc0, r5, ip
     c20:	5053495f 	subspl	r4, r3, pc, asr r9
     c24:	4149425f 	cmpmi	r9, pc, asr r2
     c28:	45525f53 	ldrbmi	r5, [r2, #-3923]	; 0xf53
     c2c:	00745f47 	rsbseq	r5, r4, r7, asr #30
     c30:	30626861 	rsbcc	r6, r2, r1, ror #16
     c34:	6b6c635f 	blvs	1b199b8 <__bss_end+0x1b0686c>
     c38:	7669645f 			; <UNDEFINED> instruction: 0x7669645f
     c3c:	7461725f 	strbtvc	r7, [r1], #-607	; 0x25f
     c40:	61006f69 	tstvs	r0, r9, ror #30
     c44:	5f306270 	svcpl	0x00306270
     c48:	5f6b6c63 	svcpl	0x006b6c63
     c4c:	5f766964 	svcpl	0x00766964
     c50:	69746172 	ldmdbvs	r4!, {r1, r4, r5, r6, r8, sp, lr}^
     c54:	7841006f 	stmdavc	r1, {r0, r1, r2, r3, r5, r6}^
     c58:	435f3169 	cmpmi	pc, #1073741850	; 0x4000001a
     c5c:	72006766 	andvc	r6, r0, #26738688	; 0x1980000
     c60:	72657365 	rsbvc	r7, r5, #-1811939327	; 0x94000001
     c64:	30646576 	rsbcc	r6, r4, r6, ror r5
     c68:	6f5f6300 	svcvs	0x005f6300
     c6c:	65720064 	ldrbvs	r0, [r2, #-100]!	; 0x64
     c70:	76726573 			; <UNDEFINED> instruction: 0x76726573
     c74:	00326465 	eorseq	r6, r2, r5, ror #8
     c78:	65736572 	ldrbvs	r6, [r3, #-1394]!	; 0x572
     c7c:	64657672 	strbtvs	r7, [r5], #-1650	; 0x672
     c80:	6c500033 	mrrcvs	0, 3, r0, r0, cr3	; <UNPREDICTABLE>
     c84:	6f4c5f6c 	svcvs	0x004c5f6c
     c88:	435f6b63 	cmpmi	pc, #101376	; 0x18c00
     c8c:	70006766 	andvc	r6, r0, r6, ror #14
     c90:	6f5f6c6c 	svcvs	0x005f6c6c
     c94:	655f7475 	ldrbvs	r7, [pc, #-1141]	; 827 <__resume1_start+0x827>
     c98:	645f7478 	ldrbvs	r7, [pc], #-1144	; ca0 <__resume1_start+0xca0>
     c9c:	00707669 	rsbseq	r7, r0, r9, ror #12
     ca0:	65736572 	ldrbvs	r6, [r3, #-1394]!	; 0x572
     ca4:	64657672 	strbtvs	r7, [r5], #-1650	; 0x672
     ca8:	65720036 	ldrbvs	r0, [r2, #-54]!	; 0x36
     cac:	76726573 			; <UNDEFINED> instruction: 0x76726573
     cb0:	00376465 	eorseq	r6, r7, r5, ror #8
     cb4:	72636163 	rsbvc	r6, r3, #-1073741800	; 0xc0000018
     cb8:	72777000 	rsbsvc	r7, r7, #0
     cbc:	6765725f 			; <UNDEFINED> instruction: 0x6765725f
     cc0:	61766d00 	cmnvs	r6, r0, lsl #26
     cc4:	6464615f 	strbtvs	r6, [r4], #-351	; 0x15f
     cc8:	6c500072 	mrrcvs	0, 7, r0, r0, cr2	; <UNPREDICTABLE>
     ccc:	70475f6c 	subvc	r5, r7, ip, ror #30
     cd0:	69425f75 	stmdbvs	r2, {r0, r2, r4, r5, r6, r8, r9, sl, fp, ip, lr}^
     cd4:	50007361 	andpl	r7, r0, r1, ror #6
     cd8:	54535f4d 	ldrbpl	r5, [r3], #-3917	; 0xf4d
     cdc:	42444e41 	submi	r4, r4, #1040	; 0x410
     ce0:	52505f59 	subspl	r5, r0, #356	; 0x164
     ce4:	5f544e49 	svcpl	0x00544e49
     ce8:	34494343 	strbcc	r4, [r9], #-835	; 0x343
     cec:	525f3030 	subspl	r3, pc, #48	; 0x30
     cf0:	5f004745 	svcpl	0x00004745
     cf4:	0038755f 	eorseq	r7, r8, pc, asr r5
     cf8:	5f6c6c70 	svcpl	0x006c6c70
     cfc:	31766964 	cmncc	r6, r4, ror #18
     d00:	6c6c7000 	stclvs	0, cr7, [ip], #-0
     d04:	7669645f 			; <UNDEFINED> instruction: 0x7669645f
     d08:	4c500032 	mrrcmi	0, 3, r0, r0, cr2	; <UNPREDICTABLE>
     d0c:	30435f4c 	subcc	r5, r3, ip, asr #30
     d10:	4149425f 	cmpmi	r9, pc, asr r2
     d14:	45525f53 	ldrbmi	r5, [r2, #-3923]	; 0xf53
     d18:	00745f47 	rsbseq	r5, r4, r7, asr #30
     d1c:	5f6c6c70 	svcpl	0x006c6c70
     d20:	62616e65 	rsbvs	r6, r1, #1616	; 0x650
     d24:	7400656c 	strvc	r6, [r0], #-1388	; 0x56c
     d28:	305f6274 	subscc	r6, pc, r4, ror r2	; <UNPREDICTABLE>
     d2c:	58410072 	stmdapl	r1, {r1, r4, r5, r6}^
     d30:	435f3149 	cmpmi	pc, #1073741842	; 0x40000012
     d34:	525f4746 	subspl	r4, pc, #18350080	; 0x1180000
     d38:	745f4745 	ldrbvc	r4, [pc], #-1861	; d40 <__resume1_start+0xd40>
     d3c:	62747400 	rsbsvs	r7, r4, #0
     d40:	43007263 	movwmi	r7, #611	; 0x263
     d44:	6552756d 	ldrbvs	r7, [r2, #-1389]	; 0x56d
     d48:	4d500067 	ldclmi	0, cr0, [r0, #-412]	; 0xfffffe64
     d4c:	4154535f 	cmpmi	r4, pc, asr r3
     d50:	5942444e 	stmdbpl	r2, {r1, r2, r3, r6, sl, lr}^
     d54:	5345545f 	movtpl	r5, #21599	; 0x545f
     d58:	6c500054 	mrrcvs	0, 5, r0, r0, cr4	; <UNPREDICTABLE>
     d5c:	69565f6c 	ldmdbvs	r6, {r2, r3, r5, r6, r8, r9, sl, fp, ip, lr}^
     d60:	326f6564 	rsbcc	r6, pc, #419430400	; 0x19000000
     d64:	6766435f 			; <UNDEFINED> instruction: 0x6766435f
     d68:	6c6c5000 	stclvs	0, cr5, [ip], #-0
     d6c:	5f31435f 	svcpl	0x0031435f
     d70:	006e7554 	rsbeq	r7, lr, r4, asr r5
     d74:	5f6b6c63 	svcpl	0x006b6c63
     d78:	5f74756f 	svcpl	0x0074756f
     d7c:	5f637273 	svcpl	0x00637273
     d80:	006c6573 	rsbeq	r6, ip, r3, ror r5
     d84:	5f6c6c50 	svcpl	0x006c6c50
     d88:	69726550 	ldmdbvs	r2!, {r4, r6, r8, sl, sp, lr}^
     d8c:	5f316870 	svcpl	0x00316870
     d90:	73616942 	cmnvc	r1, #1081344	; 0x108000
     d94:	62686100 	rsbvs	r6, r8, #0
     d98:	6c635f32 	stclvs	15, cr5, [r3], #-200	; 0xffffff38
     d9c:	72735f6b 	rsbsvc	r5, r3, #428	; 0x1ac
     da0:	65735f63 	ldrbvs	r5, [r3, #-3939]!	; 0xf63
     da4:	726e006c 	rsbvc	r0, lr, #108	; 0x6c
     da8:	70007272 	andvc	r7, r0, r2, ror r2
     dac:	665f6c6c 	ldrbvs	r6, [pc], -ip, ror #24
     db0:	6f746361 	svcvs	0x00746361
     db4:	006e5f72 	rsbeq	r5, lr, r2, ror pc
     db8:	50706d74 	rsbspl	r6, r0, r4, ror sp
     dbc:	41007274 	tstmi	r0, r4, ror r2
     dc0:	5f306268 	svcpl	0x00306268
     dc4:	00676643 	rsbeq	r6, r7, r3, asr #12
     dc8:	5f6d656d 	svcpl	0x006d656d
     dcc:	61726170 	cmnvs	r2, r0, ror r1
     dd0:	666e695f 			; <UNDEFINED> instruction: 0x666e695f
     dd4:	5f5f006f 	svcpl	0x005f006f
     dd8:	756d6363 	strbvc	r6, [sp, #-867]!	; 0x363
     ddc:	6765725f 			; <UNDEFINED> instruction: 0x6765725f
     de0:	73696c5f 	cmnvc	r9, #24320	; 0x5f00
     de4:	00745f74 	rsbseq	r5, r4, r4, ror pc
     de8:	34494343 	strbcc	r4, [r9], #-835	; 0x343
     dec:	435f3030 	cmpmi	pc, #48	; 0x30
     df0:	525f4746 	subspl	r4, pc, #18350080	; 0x1180000
     df4:	745f4745 	ldrbvc	r4, [pc], #-1861	; dfc <__resume1_start+0xdfc>
     df8:	73797300 	cmnvc	r9, #0
     dfc:	6576655f 	ldrbvs	r6, [r6, #-1375]!	; 0x55f
     e00:	5000746e 	andpl	r7, r0, lr, ror #8
     e04:	505f6c6c 	subspl	r6, pc, ip, ror #24
     e08:	70697265 	rsbvc	r7, r9, r5, ror #4
     e0c:	505f3268 	subspl	r3, pc, r8, ror #4
     e10:	435f7461 	cmpmi	pc, #1627389952	; 0x61000000
     e14:	50006766 	andpl	r6, r0, r6, ror #14
     e18:	565f4c4c 	ldrbpl	r4, [pc], -ip, asr #24
     e1c:	41505f45 	cmpmi	r0, r5, asr #30
     e20:	46435f54 			; <UNDEFINED> instruction: 0x46435f54
     e24:	45525f47 	ldrbmi	r5, [r2, #-3911]	; 0xf47
     e28:	00745f47 	rsbseq	r5, r4, r7, asr #30
     e2c:	5f627474 	svcpl	0x00627474
     e30:	61007231 	tstvs	r0, r1, lsr r2
     e34:	5f306268 	svcpl	0x00306268
     e38:	5f6b6c63 	svcpl	0x006b6c63
     e3c:	5f637273 	svcpl	0x00637273
     e40:	006c6573 	rsbeq	r6, ip, r3, ror r5
     e44:	5f6c6c50 	svcpl	0x006c6c50
     e48:	69647541 	stmdbvs	r4!, {r0, r6, r8, sl, ip, sp, lr}^
     e4c:	69425f6f 	stmdbvs	r2, {r0, r1, r2, r3, r5, r6, r8, r9, sl, fp, ip, lr}^
     e50:	72007361 	andvc	r7, r0, #-2080374783	; 0x84000001
     e54:	00307365 	eorseq	r7, r0, r5, ror #6
     e58:	31736572 	cmncc	r3, r2, ror r5
     e5c:	73657200 	cmnvc	r5, #0
     e60:	65720032 	ldrbvs	r0, [r2, #-50]!	; 0x32
     e64:	63003373 	movwvs	r3, #883	; 0x373
     e68:	31646f5f 	cmncc	r4, pc, asr pc
     e6c:	746e6300 	strbtvc	r6, [lr], #-768	; 0x300
     e70:	746e695f 	strbtvc	r6, [lr], #-2399	; 0x95f
     e74:	7274635f 	rsbsvc	r6, r4, #2080374785	; 0x7c000001
     e78:	4d50006c 	ldclmi	0, cr0, [r0, #-432]	; 0xfffffe50
     e7c:	4154535f 	cmpmi	r4, pc, asr r3
     e80:	5942444e 	stmdbpl	r2, {r1, r2, r3, r6, sl, lr}^
     e84:	414e455f 	cmpmi	lr, pc, asr r5
     e88:	5f454c42 	svcpl	0x00454c42
     e8c:	4741544a 	strbmi	r5, [r1, -sl, asr #8]
     e90:	4c4c5000 	marmi	acc0, r5, ip
     e94:	434f4c5f 	movtmi	r4, #64607	; 0xfc5f
     e98:	54535f4b 	ldrbpl	r5, [r3], #-3915	; 0xf4b
     e9c:	53555441 	cmppl	r5, #1090519040	; 0x41000000
     ea0:	4745525f 	smlsldmi	r5, r5, pc, r2	; <UNPREDICTABLE>
     ea4:	5000745f 	andpl	r7, r0, pc, asr r4
     ea8:	505f4c4c 	subspl	r4, pc, ip, asr #24
     eac:	50495245 	subpl	r5, r9, r5, asr #4
     eb0:	425f3248 	subsmi	r3, pc, #-2147483644	; 0x80000004
     eb4:	5f534149 	svcpl	0x00534149
     eb8:	5f474552 	svcpl	0x00474552
     ebc:	72540074 	subsvc	r0, r4, #116	; 0x74
     ec0:	5f656361 	svcpl	0x00656361
     ec4:	006b6c43 	rsbeq	r6, fp, r3, asr #24
     ec8:	5f6c6c70 	svcpl	0x006c6c70
     ecc:	73616962 	cmnvc	r1, #1605632	; 0x188000
     ed0:	7274635f 	rsbsvc	r6, r4, #2080374785	; 0x7c000001
     ed4:	4c50006c 	mrrcmi	0, 6, r0, r0, cr12	; <UNPREDICTABLE>
     ed8:	50475f4c 	subpl	r5, r7, ip, asr #30
     edc:	41505f55 	cmpmi	r0, r5, asr pc
     ee0:	46435f54 			; <UNDEFINED> instruction: 0x46435f54
     ee4:	45525f47 	ldrbmi	r5, [r2, #-3911]	; 0xf47
     ee8:	00745f47 	rsbseq	r5, r4, r7, asr #30
     eec:	5f4c4c50 	svcpl	0x004c4c50
     ef0:	435f4544 	cmpmi	pc, #285212672	; 0x11000000
     ef4:	525f4746 	subspl	r4, pc, #18350080	; 0x1180000
     ef8:	745f4745 	ldrbvc	r4, [pc], #-1861	; f00 <__resume1_start+0xf00>
     efc:	73736300 	cmnvc	r3, #0
     f00:	4d500072 	ldclmi	0, cr0, [r0, #-456]	; 0xfffffe38
     f04:	4154535f 	cmpmi	r4, pc, asr r3
     f08:	5942444e 	stmdbpl	r2, {r1, r2, r3, r6, sl, lr}^
     f0c:	4952505f 	ldmdbmi	r2, {r0, r1, r2, r3, r4, r6, ip, lr}^
     f10:	435f544e 	cmpmi	pc, #1308622848	; 0x4e000000
     f14:	5f535550 	svcpl	0x00535550
     f18:	535f4f49 	cmppl	pc, #292	; 0x124
     f1c:	55544154 	ldrbpl	r4, [r4, #-340]	; 0x154
     f20:	5f5f0053 	svcpl	0x005f0053
     f24:	554d4343 	strbpl	r4, [sp, #-835]	; 0x343
     f28:	4745525f 	smlsldmi	r5, r5, pc, r2	; <UNPREDICTABLE>
     f2c:	53494c5f 	movtpl	r4, #40031	; 0x9c5f
     f30:	4c500054 	mrrcmi	0, 5, r0, r0, cr4	; <UNPREDICTABLE>
     f34:	53495f4c 	movtpl	r5, #40780	; 0x9f4c
     f38:	46435f50 			; <UNDEFINED> instruction: 0x46435f50
     f3c:	45525f47 	ldrbmi	r5, [r2, #-3911]	; 0xf47
     f40:	00745f47 	rsbseq	r5, r4, r7, asr #30
     f44:	5f4c4c50 	svcpl	0x004c4c50
     f48:	5f555047 	svcpl	0x00555047
     f4c:	53414942 	movtpl	r4, #6466	; 0x1942
     f50:	4745525f 	smlsldmi	r5, r5, pc, r2	; <UNPREDICTABLE>
     f54:	4100745f 	tstmi	r0, pc, asr r4
     f58:	5f316270 	svcpl	0x00316270
     f5c:	00676643 	rsbeq	r6, r7, r3, asr #12
     f60:	5f6c6c50 	svcpl	0x006c6c50
     f64:	5f707349 	svcpl	0x00707349
     f68:	73616942 	cmnvc	r1, #1081344	; 0x108000
     f6c:	4c4c5000 	marmi	acc0, r5, ip
     f70:	5244445f 	subpl	r4, r4, #1593835520	; 0x5f000000
     f74:	4746435f 	smlsldmi	r4, r6, pc, r3	; <UNPREDICTABLE>
     f78:	4745525f 	smlsldmi	r5, r5, pc, r2	; <UNPREDICTABLE>
     f7c:	6100745f 	tstvs	r0, pc, asr r4
     f80:	656d5f77 	strbvs	r5, [sp, #-3959]!	; 0xf77
     f84:	61705f6d 	cmnvs	r0, sp, ror #30
     f88:	50006172 	andpl	r6, r0, r2, ror r1
     f8c:	4c5f6c6c 	mrrcmi	12, 6, r6, pc, cr12	; <UNPREDICTABLE>
     f90:	5f6b636f 	svcpl	0x006b636f
     f94:	74617453 	strbtvc	r7, [r1], #-1107	; 0x453
     f98:	70007375 	andvc	r7, r0, r5, ror r3
     f9c:	00727272 	rsbseq	r7, r2, r2, ror r2
     fa0:	706f6f6c 	rsbvc	r6, pc, ip, ror #30
     fa4:	616c665f 	cmnvs	ip, pc, asr r6
     fa8:	74730067 	ldrbtvc	r0, [r3], #-103	; 0x67
     fac:	73757461 	cmnvc	r5, #1627389952	; 0x61000000
     fb0:	6765725f 			; <UNDEFINED> instruction: 0x6765725f
     fb4:	73756200 	cmnvc	r5, #0
     fb8:	61775f79 	cmnvs	r7, r9, ror pc
     fbc:	6e697469 	cdpvs	4, 6, cr7, cr9, cr9, {3}
     fc0:	65720067 	ldrbvs	r0, [r2, #-103]!	; 0x67
     fc4:	76726573 			; <UNDEFINED> instruction: 0x76726573
     fc8:	64006465 	strvs	r6, [r0], #-1125	; 0x465
     fcc:	5f617461 	svcpl	0x00617461
     fd0:	77007277 	smlsdxvc	r0, r7, r2, r7
     fd4:	75705f72 	ldrbvc	r5, [r0, #-3954]!	; 0xf72
     fd8:	0065736c 	rsbeq	r7, r5, ip, ror #6
     fdc:	74617473 	strbtvc	r7, [r1], #-1139	; 0x473
     fe0:	725f7375 	subsvc	r7, pc, #-738197503	; 0xd4000001
     fe4:	705f6765 	subsvc	r6, pc, r5, ror #14
     fe8:	6d745f61 	ldclvs	15, cr5, [r4, #-388]!	; 0xfffffe7c
     fec:	6c630070 	stclvs	0, cr0, [r3], #-448	; 0xfffffe40
     ff0:	5f726165 	svcpl	0x00726165
     ff4:	5f6d656d 	svcpl	0x006d656d
     ff8:	67616c66 	strbvs	r6, [r1, -r6, ror #24]!
     ffc:	61747300 	cmnvs	r4, r0, lsl #6
    1000:	5f737574 	svcpl	0x00737574
    1004:	5f676572 	svcpl	0x00676572
    1008:	73006170 	movwvc	r6, #368	; 0x170
    100c:	5f657661 	svcpl	0x00657661
    1010:	5f6d656d 	svcpl	0x006d656d
    1014:	74617473 	strbtvc	r7, [r1], #-1139	; 0x473
    1018:	64007375 	strvs	r7, [r0], #-885	; 0x375
    101c:	00617461 	rsbeq	r7, r1, r1, ror #8
    1020:	5f6d656d 	svcpl	0x006d656d
    1024:	74617473 	strbtvc	r7, [r1], #-1139	; 0x473
    1028:	695f7375 	ldmdbvs	pc, {r0, r2, r4, r5, r6, r8, r9, ip, sp, lr}^	; <UNPREDICTABLE>
    102c:	5f74696e 	svcpl	0x0074696e
    1030:	6d6d6f6e 	stclvs	15, cr6, [sp, #-440]!	; 0xfffffe48
    1034:	68730075 	ldmdavs	r3!, {r0, r2, r4, r5, r6}^
    1038:	6d5f776f 	ldclvs	7, cr7, [pc, #-444]	; e84 <__resume1_start+0xe84>
    103c:	735f6d65 	cmpvc	pc, #6464	; 0x1940
    1040:	75746174 	ldrbvc	r6, [r4, #-372]!	; 0x174
    1044:	6f690073 	svcvs	0x00690073
    1048:	6769685f 			; <UNDEFINED> instruction: 0x6769685f
    104c:	5f5f0068 	svcpl	0x005f0068
    1050:	72705f72 	rsbsvc	r5, r0, #456	; 0x1c8
    1054:	705f6d63 	subsvc	r6, pc, r3, ror #26
    1058:	705f6f69 	subsvc	r6, pc, r9, ror #30
    105c:	685f6461 	ldmdavs	pc, {r0, r5, r6, sl, sp, lr}^	; <UNPREDICTABLE>
    1060:	00646c6f 	rsbeq	r6, r4, pc, ror #24
    1064:	61746164 	cmnvs	r4, r4, ror #2
    1068:	0064725f 	rsbeq	r7, r4, pc, asr r2
    106c:	5f676572 	svcpl	0x00676572
    1070:	006c6573 	rsbeq	r6, ip, r3, ror r5
    1074:	5f725f5f 	svcpl	0x00725f5f
    1078:	5f6f6970 	svcpl	0x006f6970
    107c:	5f646170 	svcpl	0x00646170
    1080:	646c6f68 	strbtvs	r6, [ip], #-3944	; 0xf68
    1084:	6d656d00 	stclvs	13, cr6, [r5, #-0]
    1088:	6174735f 	cmnvs	r4, pc, asr r3
    108c:	5f737574 	svcpl	0x00737574
    1090:	74697865 	strbtvc	r7, [r9], #-2149	; 0x865
    1094:	5f6f6900 	svcpl	0x006f6900
    1098:	74696e69 	strbtvc	r6, [r9], #-3689	; 0xe69
    109c:	63726100 	cmnvs	r2, #0
    10a0:	72612f68 	rsbvc	r2, r1, #416	; 0x1a0
    10a4:	616d2f6d 	cmnvs	sp, sp, ror #30
    10a8:	732d6863 	teqvc	sp, #6488064	; 0x630000
    10ac:	69786e75 	ldmdbvs	r8!, {r0, r2, r4, r5, r6, r9, sl, fp, sp, lr}^
    10b0:	2f6d702f 	svccs	0x006d702f
    10b4:	6e617473 	mcrvs	4, 3, r7, cr1, cr3, {3}
    10b8:	2f796264 	svccs	0x00796264
    10bc:	702f2e2e 	eorvc	r2, pc, lr, lsr #28
    10c0:	65645f6d 	strbvs	r5, [r4, #-3949]!	; 0xf6d
    10c4:	2e677562 	cdpcs	5, 6, cr7, cr7, cr2, {3}
    10c8:	61730063 	cmnvs	r3, r3, rrx
    10cc:	6d5f6576 	cfldr64vs	mvdx6, [pc, #-472]	; efc <__resume1_start+0xefc>
    10d0:	735f6d65 	cmpvc	pc, #6464	; 0x1940
    10d4:	75746174 	ldrbvc	r6, [r4, #-372]!	; 0x174
    10d8:	6f6e5f73 	svcvs	0x006e5f73
    10dc:	00756d6d 	rsbseq	r6, r5, sp, ror #26
    10e0:	5f746567 	svcpl	0x00746567
    10e4:	5f6d656d 	svcpl	0x006d656d
    10e8:	74617473 	strbtvc	r7, [r1], #-1139	; 0x473
    10ec:	6d007375 	stcvs	3, cr7, [r0, #-468]	; 0xfffffe2c
    10f0:	735f6d65 	cmpvc	pc, #6464	; 0x1940
    10f4:	75746174 	ldrbvc	r6, [r4, #-372]!	; 0x174
    10f8:	6c635f73 	stclvs	15, cr5, [r3], #-460	; 0xfffffe34
    10fc:	00726165 	rsbseq	r6, r2, r5, ror #2
    1100:	74617473 	strbtvc	r7, [r1], #-1139	; 0x473
    1104:	725f7375 	subsvc	r7, pc, #-738197503	; 0xd4000001
    1108:	745f6765 	ldrbvc	r6, [pc], #-1893	; 1110 <__resume1_start+0x1110>
    110c:	6d00706d 	stcvs	0, cr7, [r0, #-436]	; 0xfffffe4c
    1110:	735f6d65 	cmpvc	pc, #6464	; 0x1940
    1114:	75746174 	ldrbvc	r6, [r4, #-372]!	; 0x174
    1118:	6e695f73 	mcrvs	15, 3, r5, cr9, cr3, {3}
    111c:	70007469 	andvc	r7, r0, r9, ror #8
    1120:	746e6972 	strbtvc	r6, [lr], #-2418	; 0x972
    1124:	616c665f 	cmnvs	ip, pc, asr r6
    1128:	6f690067 	svcvs	0x00690067
    112c:	696e695f 	stmdbvs	lr!, {r0, r1, r2, r3, r4, r6, r8, fp, sp, lr}^
    1130:	6f6c5f74 	svcvs	0x006c5f74
    1134:	61730077 	cmnvs	r3, r7, ror r0
    1138:	6d5f6576 	cfldr64vs	mvdx6, [pc, #-472]	; f68 <__resume1_start+0xf68>
    113c:	665f6d65 	ldrbvs	r6, [pc], -r5, ror #26
    1140:	0067616c 	rsbeq	r6, r7, ip, ror #2
    1144:	695f6f69 	ldmdbvs	pc, {r0, r3, r5, r6, r8, r9, sl, fp, sp, lr}^	; <UNPREDICTABLE>
    1148:	5f74696e 	svcpl	0x0074696e
    114c:	68676968 	stmdavs	r7!, {r3, r5, r6, r8, fp, sp, lr}^
    1150:	63726100 	cmnvs	r2, #0
    1154:	72612f68 	rsbvc	r2, r1, #416	; 0x1a0
    1158:	616d2f6d 	cmnvs	sp, sp, ror #30
    115c:	732d6863 	teqvc	sp, #6488064	; 0x630000
    1160:	69786e75 	ldmdbvs	r8!, {r0, r2, r4, r5, r6, r9, sl, fp, sp, lr}^
    1164:	2f6d702f 	svccs	0x006d702f
    1168:	6e617473 	mcrvs	4, 3, r7, cr1, cr3, {3}
    116c:	2f796264 	svccs	0x00796264
    1170:	6d2f2e2e 	stcvs	14, cr2, [pc, #-184]!	; 10c0 <__resume1_start+0x10c0>
    1174:	745f6d65 	ldrbvc	r6, [pc], #-3429	; 117c <__resume1_start+0x117c>
    1178:	6e696d69 	cdpvs	13, 6, cr6, cr9, cr9, {3}
    117c:	00632e67 	rsbeq	r2, r3, r7, ror #28
    1180:	41435f49 	cmpmi	r3, r9, asr #30
    1184:	5f454843 	svcpl	0x00454843
    1188:	5353494d 	cmppl	r3, #1261568	; 0x134000
    118c:	65766500 	ldrbvs	r6, [r6, #-1280]!	; 0x500
    1190:	635f746e 	cmpvs	pc, #1845493760	; 0x6e000000
    1194:	6200746e 	andvs	r7, r0, #1845493760	; 0x6e000000
    1198:	756b6361 	strbvc	r6, [fp, #-865]!	; 0x361
    119c:	65705f70 	ldrbvs	r5, [r0, #-3952]!	; 0xf70
    11a0:	635f6672 	cmpvs	pc, #119537664	; 0x7200000
    11a4:	746e756f 	strbtvc	r7, [lr], #-1391	; 0x56f
    11a8:	655f7265 	ldrbvs	r7, [pc, #-613]	; f4b <__resume1_start+0xf4b>
    11ac:	6c62616e 	stfvse	f6, [r2], #-440	; 0xfffffe48
    11b0:	65725f65 	ldrbvs	r5, [r2, #-3941]!	; 0xf65
    11b4:	5f490067 	svcpl	0x00490067
    11b8:	5f424c54 	svcpl	0x00424c54
    11bc:	5353494d 	cmppl	r3, #1261568	; 0x134000
    11c0:	756f6300 	strbvc	r6, [pc, #-768]!	; ec8 <__resume1_start+0xec8>
    11c4:	7265746e 	rsbvc	r7, r5, #1845493760	; 0x6e000000
    11c8:	616e655f 	cmnvs	lr, pc, asr r5
    11cc:	00656c62 	rsbeq	r6, r5, r2, ror #24
    11d0:	67726174 			; <UNDEFINED> instruction: 0x67726174
    11d4:	72007465 	andvc	r7, r0, #1694498816	; 0x65000000
    11d8:	74657365 	strbtvc	r7, [r5], #-869	; 0x365
    11dc:	756f635f 	strbvc	r6, [pc, #-863]!	; e85 <__resume1_start+0xe85>
    11e0:	7265746e 	rsbvc	r7, r5, #1845493760	; 0x6e000000
    11e4:	63616200 	cmnvs	r1, #0
    11e8:	5f70756b 	svcpl	0x0070756b
    11ec:	66726570 			; <UNDEFINED> instruction: 0x66726570
    11f0:	6e756f63 	cdpvs	15, 7, cr6, cr5, cr3, {3}
    11f4:	00726574 	rsbseq	r6, r2, r4, ror r5
    11f8:	616c6564 	cmnvs	ip, r4, ror #10
    11fc:	73755f79 	cmnvc	r5, #484	; 0x1e4
    1200:	735f5f00 	cmpvc	pc, #0
    1204:	75003233 	strvc	r3, [r0, #-563]	; 0x233
    1208:	6e635f73 	mcrvs	15, 3, r5, cr3, cr3, {3}
    120c:	6e690074 	mcrvs	0, 3, r0, cr9, cr4, {3}
    1210:	705f7469 	subsvc	r7, pc, r9, ror #8
    1214:	63667265 	cmnvs	r6, #1342177286	; 0x50000006
    1218:	746e756f 	strbtvc	r7, [lr], #-1391	; 0x56f
    121c:	00737265 	rsbseq	r7, r3, r5, ror #4
    1220:	74696e69 	strbtvc	r6, [r9], #-3689	; 0xe69
    1224:	6576655f 	ldrbvs	r6, [r6, #-1375]!	; 0x55f
    1228:	635f746e 	cmpvs	pc, #1845493760	; 0x6e000000
    122c:	746e756f 	strbtvc	r7, [lr], #-1391	; 0x56f
    1230:	65007265 	strvs	r7, [r0, #-613]	; 0x265
    1234:	6c62616e 	stfvse	f6, [r2], #-440	; 0xfffffe48
    1238:	69645f65 	stmdbvs	r4!, {r0, r2, r5, r6, r8, r9, sl, fp, ip, lr}^
    123c:	65646976 	strbvs	r6, [r4, #-2422]!	; 0x976
    1240:	68630072 	stmdavs	r3!, {r1, r4, r5, r6}^
    1244:	65676e61 	strbvs	r6, [r7, #-3681]!	; 0xe61
    1248:	6e75725f 	mrcvs	2, 3, r7, cr5, cr15, {2}
    124c:	656d6974 	strbvs	r6, [sp, #-2420]!	; 0x974
    1250:	766e655f 			; <UNDEFINED> instruction: 0x766e655f
    1254:	65766f00 	ldrbvs	r6, [r6, #-3840]!	; 0xf00
    1258:	61656872 	smcvs	22146	; 0x5682
    125c:	65670064 	strbvs	r0, [r7, #-100]!	; 0x64
    1260:	79635f74 	stmdbvc	r3!, {r2, r4, r5, r6, r8, r9, sl, fp, ip, lr}^
    1264:	63656c63 	cmnvs	r5, #25344	; 0x6300
    1268:	746e756f 	strbtvc	r7, [lr], #-1391	; 0x56f
    126c:	70797400 	rsbsvc	r7, r9, r0, lsl #8
    1270:	6f640065 	svcvs	0x00640065
    1274:	7365725f 	cmnvc	r5, #-268435451	; 0xf0000005
    1278:	63007465 	movwvs	r7, #1125	; 0x465
    127c:	7265746e 	rsbvc	r7, r5, #1845493760	; 0x6e000000
    1280:	74657300 	strbtvc	r7, [r5], #-768	; 0x300
    1284:	6576655f 	ldrbvs	r6, [r6, #-1375]!	; 0x55f
    1288:	635f746e 	cmpvs	pc, #1845493760	; 0x6e000000
    128c:	746e756f 	strbtvc	r7, [lr], #-1391	; 0x56f
    1290:	6d007265 	sfmvs	f7, 4, [r0, #-404]	; 0xfffffe6c
    1294:	68637461 	stmdavs	r3!, {r0, r5, r6, sl, ip, sp, lr}^
    1298:	6576655f 	ldrbvs	r6, [r6, #-1375]!	; 0x55f
    129c:	635f746e 	cmpvs	pc, #1845493760	; 0x6e000000
    12a0:	746e756f 	strbtvc	r7, [lr], #-1391	; 0x56f
    12a4:	44007265 	strmi	r7, [r0], #-613	; 0x265
    12a8:	4341435f 	movtmi	r4, #4959	; 0x135f
    12ac:	4d5f4548 	cfldr64mi	mvdx4, [pc, #-288]	; 1194 <__resume1_start+0x1194>
    12b0:	00535349 	subseq	r5, r3, r9, asr #6
    12b4:	4c545f44 	mrrcmi	15, 4, r5, r4, cr4
    12b8:	494d5f42 	stmdbmi	sp, {r1, r6, r8, r9, sl, fp, ip, lr}^
    12bc:	62005353 	andvs	r5, r0, #1275068417	; 0x4c000001
    12c0:	756b6361 	strbvc	r6, [fp, #-865]!	; 0x361
    12c4:	65705f70 	ldrbvs	r5, [r0, #-3952]!	; 0xf70
    12c8:	635f6672 	cmpvs	pc, #119537664	; 0x7200000
    12cc:	746e756f 	strbtvc	r7, [lr], #-1391	; 0x56f
    12d0:	635f7265 	cmpvs	pc, #1342177286	; 0x50000006
    12d4:	5f6c7274 	svcpl	0x006c7274
    12d8:	00676572 	rsbeq	r6, r7, r2, ror r5
    12dc:	74736572 	ldrbtvc	r6, [r3], #-1394	; 0x572
    12e0:	5f65726f 	svcpl	0x0065726f
    12e4:	66726570 			; <UNDEFINED> instruction: 0x66726570
    12e8:	6e756f63 	cdpvs	15, 7, cr6, cr5, cr3, {3}
    12ec:	00726574 	rsbseq	r6, r2, r4, ror r5
    12f0:	5f746567 	svcpl	0x00746567
    12f4:	6e657665 	cdpvs	6, 6, cr7, cr5, cr5, {3}
    12f8:	6f635f74 	svcvs	0x00635f74
    12fc:	65746e75 	ldrbvs	r6, [r4, #-3701]!	; 0xe75
    1300:	6f630072 	svcvs	0x00630072
    1304:	65746e75 	ldrbvs	r6, [r4, #-3701]!	; 0xe75
    1308:	79745f72 	ldmdbvc	r4!, {r1, r4, r5, r6, r8, r9, sl, fp, ip, lr}^
    130c:	655f6570 	ldrbvs	r6, [pc, #-1392]	; da4 <__resume1_start+0xda4>
    1310:	63726100 	cmnvs	r2, #0
    1314:	72612f68 	rsbvc	r2, r1, #416	; 0x1a0
    1318:	616d2f6d 	cmnvs	sp, sp, ror #30
    131c:	732d6863 	teqvc	sp, #6488064	; 0x630000
    1320:	69786e75 	ldmdbvs	r8!, {r0, r2, r4, r5, r6, r9, sl, fp, sp, lr}^
    1324:	2f6d702f 	svccs	0x006d702f
    1328:	6e617473 	mcrvs	4, 3, r7, cr1, cr3, {3}
    132c:	2f796264 	svccs	0x00796264
    1330:	6d2f2e2e 	stcvs	14, cr2, [pc, #-184]!	; 1280 <__resume1_start+0x1280>
    1334:	6d5f6d65 	ldclvs	13, cr6, [pc, #-404]	; 11a8 <__resume1_start+0x11a8>
    1338:	705f756d 	subsvc	r7, pc, sp, ror #10
    133c:	00632e63 	rsbeq	r2, r3, r3, ror #28
    1340:	74736572 	ldrbtvc	r6, [r3], #-1394	; 0x572
    1344:	5f65726f 	svcpl	0x0065726f
    1348:	5f756d6d 	svcpl	0x00756d6d
    134c:	74617473 	strbtvc	r7, [r1], #-1139	; 0x473
    1350:	61730065 	cmnvs	r3, r5, rrx
    1354:	6d5f6576 	cfldr64vs	mvdx6, [pc, #-472]	; 1184 <__resume1_start+0x1184>
    1358:	735f756d 	cmpvc	pc, #457179136	; 0x1b400000
    135c:	65746174 	ldrbvs	r6, [r4, #-372]!	; 0x174
    1360:	746f7000 	strbtvc	r7, [pc], #-0	; 1368 <__resume1_start+0x1368>
    1364:	00646970 	rsbeq	r6, r4, r0, ror r9
    1368:	61665f69 	cmnvs	r6, r9, ror #30
    136c:	63730072 	cmnvs	r3, #114	; 0x72
    1370:	72676663 	rsbvc	r6, r7, #103809024	; 0x6300000
    1374:	74657300 	strbtvc	r7, [r5], #-768	; 0x300
    1378:	706f635f 	rsbvc	r6, pc, pc, asr r3	; <UNPREDICTABLE>
    137c:	645f6f72 	ldrbvs	r6, [pc], #-3954	; 1384 <__resume1_start+0x1384>
    1380:	75616665 	strbvc	r6, [r1, #-1637]!	; 0x665
    1384:	6900746c 	stmdbvs	r0, {r2, r3, r5, r6, sl, ip, sp, lr}
    1388:	00726365 	rsbseq	r6, r2, r5, ror #6
    138c:	73665f64 	cmnvc	r6, #400	; 0x190
    1390:	61730072 	cmnvs	r3, r2, ror r0
    1394:	5f646576 	svcpl	0x00646576
    1398:	72737073 	rsbsvc	r7, r3, #115	; 0x73
    139c:	7462615f 	strbtvc	r6, [r2], #-351	; 0x15f
    13a0:	76617300 	strbtvc	r7, [r1], -r0, lsl #6
    13a4:	735f6465 	cmpvc	pc, #1694498816	; 0x65000000
    13a8:	5f727370 	svcpl	0x00727370
    13ac:	006e6f6d 	rsbeq	r6, lr, sp, ror #30
    13b0:	62646373 	rsbvs	r6, r4, #-872415231	; 0xcc000001
    13b4:	626e6567 	rsbvs	r6, lr, #432013312	; 0x19c00000
    13b8:	7300726c 	movwvc	r7, #620	; 0x26c
    13bc:	64657661 	strbtvs	r7, [r5], #-1633	; 0x661
    13c0:	6e6f635f 	mcrvs	3, 3, r6, cr15, cr15, {2}
    13c4:	74786574 	ldrbtvc	r6, [r8], #-1396	; 0x574
    13c8:	3331725f 	teqcc	r1, #-268435451	; 0xf0000005
    13cc:	7169665f 	cmnvc	r9, pc, asr r6
    13d0:	76617300 	strbtvc	r7, [r1], -r0, lsl #6
    13d4:	635f6465 	cmpvs	pc, #1694498816	; 0x65000000
    13d8:	65746e6f 	ldrbvs	r6, [r4, #-3695]!	; 0xe6f
    13dc:	725f7478 	subsvc	r7, pc, #2013265920	; 0x78000000
    13e0:	695f3331 	ldmdbvs	pc, {r0, r4, r5, r8, r9, ip, sp}^	; <UNPREDICTABLE>
    13e4:	72007172 	andvc	r7, r0, #-2147483620	; 0x8000001c
    13e8:	6f747365 	svcvs	0x00747365
    13ec:	705f6572 	subsvc	r6, pc, r2, ror r5	; <UNPREDICTABLE>
    13f0:	65636f72 	strbvs	r6, [r3, #-3954]!	; 0xf72
    13f4:	726f7373 	rsbvc	r7, pc, #-872415231	; 0xcc000001
    13f8:	6274745f 	rsbsvs	r7, r4, #1593835520	; 0x5f000000
    13fc:	73003072 	movwvc	r3, #114	; 0x72
    1400:	64657661 	strbtvs	r7, [r5], #-1633	; 0x661
    1404:	7370735f 	cmnvc	r0, #2080374785	; 0x7c000001
    1408:	76735f72 	uhsub16vc	r5, r3, r2
    140c:	69640063 	stmdbvs	r4!, {r0, r1, r5, r6}^
    1410:	6c626173 	stfvse	f6, [r2], #-460	; 0xfffffe34
    1414:	61635f65 	cmnvs	r3, r5, ror #30
    1418:	5f656863 	svcpl	0x00656863
    141c:	61766e69 	cmnvs	r6, r9, ror #28
    1420:	6164696c 	cmnvs	r4, ip, ror #18
    1424:	5f006574 	svcpl	0x00006574
    1428:	7365725f 	cmnvc	r5, #-268435451	; 0xf0000005
    142c:	65726f74 	ldrbvs	r6, [r2, #-3956]!	; 0xf74
    1430:	6f72705f 	svcvs	0x0072705f
    1434:	73736563 	cmnvc	r3, #415236096	; 0x18c00000
    1438:	735f726f 	cmpvc	pc, #-268435450	; 0xf0000006
    143c:	65746174 	ldrbvs	r6, [r4, #-372]!	; 0x174
    1440:	73656900 	cmnvc	r5, #0
    1444:	61730072 	cmnvs	r3, r2, ror r0
    1448:	5f646576 	svcpl	0x00646576
    144c:	72737073 	rsbsvc	r7, r3, #115	; 0x73
    1450:	7169665f 	cmnvc	r9, pc, asr r6
    1454:	73637000 	cmnvc	r3, #0
    1458:	74630072 	strbtvc	r0, [r3], #-114	; 0x72
    145c:	73007478 	movwvc	r7, #1144	; 0x478
    1460:	64657661 	strbtvs	r7, [r5], #-1633	; 0x661
    1464:	7370735f 	cmnvc	r0, #2080374785	; 0x7c000001
    1468:	72695f72 	rsbvc	r5, r9, #456	; 0x1c8
    146c:	5f640071 	svcpl	0x00640071
    1470:	72736661 	rsbsvc	r6, r3, #101711872	; 0x6100000
    1474:	76617300 	strbtvc	r7, [r1], -r0, lsl #6
    1478:	635f6465 	cmpvs	pc, #1694498816	; 0x65000000
    147c:	65746e6f 	ldrbvs	r6, [r4, #-3695]!	; 0xe6f
    1480:	75007478 	strvc	r7, [r0, #-1144]	; 0x478
    1484:	70747772 	rsbsvc	r7, r4, r2, ror r7
    1488:	6e006469 	cdpvs	4, 0, cr6, cr0, cr9, {3}
    148c:	63736e6f 	cmnvs	r3, #1776	; 0x6f0
    1490:	74636361 	strbtvc	r6, [r3], #-865	; 0x361
    1494:	00726c72 	rsbseq	r6, r2, r2, ror ip
    1498:	72636563 	rsbvc	r6, r3, #415236096	; 0x18c00000
    149c:	74657300 	strbtvc	r7, [r5], #-768	; 0x300
    14a0:	6274745f 	rsbsvs	r7, r4, #1593835520	; 0x5f000000
    14a4:	75003072 	strvc	r3, [r0, #-114]	; 0x72
    14a8:	70746f72 	rsbsvc	r6, r4, r2, ror pc
    14ac:	61006469 	tstvs	r0, r9, ror #8
    14b0:	2f686372 	svccs	0x00686372
    14b4:	2f6d7261 	svccs	0x006d7261
    14b8:	6863616d 	stmdavs	r3!, {r0, r2, r3, r5, r6, r8, sp, lr}^
    14bc:	6e75732d 	cdpvs	3, 7, cr7, cr5, cr13, {1}
    14c0:	702f6978 	eorvc	r6, pc, r8, ror r9	; <UNPREDICTABLE>
    14c4:	74732f6d 	ldrbtvc	r2, [r3], #-3949	; 0xf6d
    14c8:	62646e61 	rsbvs	r6, r4, #1552	; 0x610
    14cc:	2e2e2f79 	mcrcs	15, 1, r2, cr14, cr9, {3}
    14d0:	6d656d2f 	stclvs	13, cr6, [r5, #-188]!	; 0xffffff44
    14d4:	7570635f 	ldrbvc	r6, [r0, #-863]!	; 0x35f
    14d8:	5f00632e 	svcpl	0x0000632e
    14dc:	7661735f 			; <UNDEFINED> instruction: 0x7661735f
    14e0:	72705f65 	rsbsvc	r5, r0, #404	; 0x194
    14e4:	7365636f 	cmnvc	r5, #-1140850687	; 0xbc000001
    14e8:	5f726f73 	svcpl	0x00726f73
    14ec:	74617473 	strbtvc	r7, [r1], #-1139	; 0x473
    14f0:	63660065 	cmnvs	r6, #101	; 0x65
    14f4:	73006573 	movwvc	r6, #1395	; 0x573
    14f8:	64657661 	strbtvs	r7, [r5], #-1633	; 0x661
    14fc:	6e6f635f 	mcrvs	3, 3, r6, cr15, cr15, {2}
    1500:	74786574 	ldrbtvc	r6, [r8], #-1396	; 0x574
    1504:	3331725f 	teqcc	r1, #-268435451	; 0xf0000005
    1508:	646e755f 	strbtvs	r7, [lr], #-1375	; 0x55f
    150c:	76617300 	strbtvc	r7, [r1], -r0, lsl #6
    1510:	635f6465 	cmpvs	pc, #1694498816	; 0x65000000
    1514:	65746e6f 	ldrbvs	r6, [r4, #-3695]!	; 0xe6f
    1518:	725f7478 	subsvc	r7, pc, #2013265920	; 0x78000000
    151c:	735f3231 	cmpvc	pc, #268435459	; 0x10000003
    1520:	73006376 	movwvc	r6, #886	; 0x376
    1524:	64657661 	strbtvs	r7, [r5], #-1633	; 0x661
    1528:	7370635f 	cmnvc	r0, #2080374785	; 0x7c000001
    152c:	76735f72 	uhsub16vc	r5, r3, r2
    1530:	666f0063 	strbtvs	r0, [pc], -r3, rrx
    1534:	70007273 	andvc	r7, r0, r3, ror r2
    1538:	6e6f636d 	cdpvs	3, 6, cr6, cr15, cr13, {3}
    153c:	6c6f7274 	sfmvs	f7, 2, [pc], #-464	; 1374 <__resume1_start+0x1374>
    1540:	65630072 	strbvs	r0, [r3, #-114]!	; 0x72
    1544:	64007273 	strvs	r7, [r0], #-627	; 0x273
    1548:	75616665 	strbvc	r6, [r1, #-1637]!	; 0x665
    154c:	635f746c 	cmpvs	pc, #1811939328	; 0x6c000000
    1550:	6f72706f 	svcvs	0x0072706f
    1554:	6c61765f 	stclvs	6, cr7, [r1], #-380	; 0xfffffe84
    1558:	69006575 	stmdbvs	r0, {r0, r2, r4, r5, r6, r8, sl, sp, lr}
    155c:	7273665f 	rsbsvc	r6, r3, #99614720	; 0x5f00000
    1560:	665f6400 	ldrbvs	r6, [pc], -r0, lsl #8
    1564:	6d007261 	sfmvs	f7, 4, [r0, #-388]	; 0xfffffe7c
    1568:	72616276 	rsbvc	r6, r1, #1610612743	; 0x60000007
    156c:	636d7000 	cmnvs	sp, #0
    1570:	746e756f 	strbtvc	r7, [lr], #-1391	; 0x56f
    1574:	5f690072 	svcpl	0x00690072
    1578:	72736661 	rsbsvc	r6, r3, #101711872	; 0x6100000
    157c:	76617300 	strbtvc	r7, [r1], -r0, lsl #6
    1580:	735f6465 	cmpvc	pc, #1694498816	; 0x65000000
    1584:	5f727370 	svcpl	0x00727370
    1588:	00646e75 	rsbeq	r6, r4, r5, ror lr
    158c:	65766173 	ldrbvs	r6, [r6, #-371]!	; 0x173
    1590:	6f635f64 	svcvs	0x00635f64
    1594:	7865746e 	stmdavc	r5!, {r1, r2, r3, r5, r6, sl, ip, sp, lr}^
    1598:	31725f74 	cmncc	r2, r4, ror pc
    159c:	62615f33 	rsbvs	r5, r1, #204	; 0xcc
    15a0:	61730074 	cmnvs	r3, r4, ror r0
    15a4:	5f646576 	svcpl	0x00646576
    15a8:	74706d65 	ldrbtvc	r6, [r0], #-3429	; 0xd65
    15ac:	6f635f79 	svcvs	0x00635f79
    15b0:	7865746e 	stmdavc	r5!, {r1, r2, r3, r5, r6, sl, ip, sp, lr}^
    15b4:	76735f74 	uhsub16vc	r5, r3, r4
    15b8:	61730063 	cmnvs	r3, r3, rrx
    15bc:	5f646576 	svcpl	0x00646576
    15c0:	746e6f63 	strbtvc	r6, [lr], #-3939	; 0xf63
    15c4:	5f747865 	svcpl	0x00747865
    15c8:	5f333172 	svcpl	0x00333172
    15cc:	00737973 	rsbseq	r7, r3, r3, ror r9
    15d0:	65766173 	ldrbvs	r6, [r6, #-371]!	; 0x173
    15d4:	6f635f64 	svcvs	0x00635f64
    15d8:	7865746e 	stmdavc	r5!, {r1, r2, r3, r5, r6, sl, ip, sp, lr}^
    15dc:	31725f74 	cmncc	r2, r4, ror pc
    15e0:	6f6d5f33 	svcvs	0x006d5f33
    15e4:	6573006e 	ldrbvs	r0, [r3, #-110]!	; 0x6e
    15e8:	65735f74 	ldrbvs	r5, [r3, #-3956]!	; 0xf74
    15ec:	6c616972 	stclvs	9, cr6, [r1], #-456	; 0xfffffe38
    15f0:	6970675f 	ldmdbvs	r0!, {r0, r1, r2, r3, r4, r6, r8, r9, sl, sp, lr}^
    15f4:	6162006f 	cmnvs	r2, pc, rrx
    15f8:	70756b63 	rsbsvc	r6, r5, r3, ror #22
    15fc:	7563635f 	strbvc	r6, [r3, #-863]!	; 0x35f
    1600:	7261755f 	rsbvc	r7, r1, #398458880	; 0x17c00000
    1604:	65730074 	ldrbvs	r0, [r3, #-116]!	; 0x74
    1608:	6c616972 	stclvs	9, cr6, [r1], #-456	; 0xfffffe38
    160c:	7465675f 	strbtvc	r6, [r5], #-1887	; 0x75f
    1610:	32700073 	rsbscc	r0, r0, #115	; 0x73
    1614:	006b6c63 	rsbeq	r6, fp, r3, ror #24
    1618:	69726573 	ldmdbvs	r2!, {r0, r1, r4, r5, r6, r8, sl, sp, lr}^
    161c:	695f6c61 	ldmdbvs	pc, {r0, r5, r6, sl, fp, sp, lr}^	; <UNPREDICTABLE>
    1620:	0074696e 	rsbseq	r6, r4, lr, ror #18
    1624:	6b636162 	blvs	18d9bb4 <__bss_end+0x18c6a68>
    1628:	675f7075 			; <UNDEFINED> instruction: 0x675f7075
    162c:	5f6f6970 	svcpl	0x006f6970
    1630:	74726175 	ldrbtvc	r6, [r2], #-373	; 0x175
    1634:	72657300 	rsbvc	r7, r5, #0
    1638:	5f6c6169 	svcpl	0x006c6169
    163c:	74696e69 	strbtvc	r6, [r9], #-3689	; 0xe69
    1640:	6d6f6e5f 	stclvs	14, cr6, [pc, #-380]!	; 14cc <__resume1_start+0x14cc>
    1644:	7300756d 	movwvc	r7, #1389	; 0x56d
    1648:	61697265 	cmnvs	r9, r5, ror #4
    164c:	75705f6c 	ldrbvc	r5, [r0, #-3948]!	; 0xf6c
    1650:	6e5f7374 	mrcvs	3, 2, r7, cr15, cr4, {3}
    1654:	756d6d6f 	strbvc	r6, [sp, #-3439]!	; 0xd6f
    1658:	72657300 	rsbvc	r7, r5, #0
    165c:	5f6c6169 	svcpl	0x006c6169
    1660:	5f747570 	svcpl	0x00747570
    1664:	72616863 	rsbvc	r6, r1, #6488064	; 0x630000
    1668:	6d6f6e5f 	stclvs	14, cr6, [pc, #-380]!	; 14f4 <__resume1_start+0x14f4>
    166c:	7300756d 	movwvc	r7, #1389	; 0x56d
    1670:	61697265 	cmnvs	r9, r5, ror #4
    1674:	75705f6c 	ldrbvc	r5, [r0, #-3948]!	; 0xf6c
    1678:	68635f74 	stmdavs	r3!, {r2, r4, r5, r6, r8, r9, sl, fp, ip, lr}^
    167c:	73007261 	movwvc	r7, #609	; 0x261
    1680:	61697265 	cmnvs	r9, r5, ror #4
    1684:	65675f6c 	strbvs	r5, [r7, #-3948]!	; 0xf6c
    1688:	68635f74 	stmdavs	r3!, {r2, r4, r5, r6, r8, r9, sl, fp, ip, lr}^
    168c:	73007261 	movwvc	r7, #609	; 0x261
    1690:	61697265 	cmnvs	r9, r5, ror #4
    1694:	6e695f6c 	cdpvs	15, 6, cr5, cr9, cr12, {3}
    1698:	64657469 	strbtvs	r7, [r5], #-1129	; 0x469
    169c:	616c665f 	cmnvs	ip, pc, asr r6
    16a0:	63630067 	cmnvs	r3, #103	; 0x67
    16a4:	65725f75 	ldrbvs	r5, [r2, #-3957]!	; 0xf75
    16a8:	6d6d0067 	stclvs	0, cr0, [sp, #-412]!	; 0xfffffe64
    16ac:	6c665f75 	stclvs	15, cr5, [r6], #-468	; 0xfffffe2c
    16b0:	73006761 	movwvc	r6, #1889	; 0x761
    16b4:	61697265 	cmnvs	r9, r5, ror #4
    16b8:	65675f6c 	strbvs	r5, [r7, #-3948]!	; 0xf6c
    16bc:	6e5f7374 	mrcvs	3, 2, r7, cr15, cr4, {3}
    16c0:	756d6d6f 	strbvc	r6, [sp, #-3439]!	; 0xd6f
    16c4:	63616200 	cmnvs	r1, #0
    16c8:	5f70756b 	svcpl	0x0070756b
    16cc:	5f756363 	svcpl	0x00756363
    16d0:	74726175 	ldrbtvc	r6, [r2], #-373	; 0x175
    16d4:	7365725f 	cmnvc	r5, #-268435451	; 0xf0000005
    16d8:	73007465 	movwvc	r7, #1125	; 0x465
    16dc:	61697265 	cmnvs	r9, r5, ror #4
    16e0:	75705f6c 	ldrbvc	r5, [r0, #-3948]!	; 0xf6c
    16e4:	61007374 	tstvs	r0, r4, ror r3
    16e8:	2f686372 	svccs	0x00686372
    16ec:	2f6d7261 	svccs	0x006d7261
    16f0:	6863616d 	stmdavs	r3!, {r0, r2, r3, r5, r6, r8, sp, lr}^
    16f4:	6e75732d 	cdpvs	3, 7, cr7, cr5, cr13, {1}
    16f8:	702f6978 	eorvc	r6, pc, r8, ror r9	; <UNPREDICTABLE>
    16fc:	74732f6d 	ldrbtvc	r2, [r3], #-3949	; 0xf6d
    1700:	62646e61 	rsbvs	r6, r4, #1552	; 0x610
    1704:	2e2e2f79 	mcrcs	15, 1, r2, cr14, cr9, {3}
    1708:	6d656d2f 	stclvs	13, cr6, [r5, #-188]!	; 0xffffff44
    170c:	7265735f 	rsbvc	r7, r5, #2080374785	; 0x7c000001
    1710:	2e6c6169 	powcsez	f6, f4, #1.0
    1714:	65730063 	ldrbvs	r0, [r3, #-99]!	; 0x63
    1718:	6c616972 	stclvs	9, cr6, [r1], #-456	; 0xfffffe38
    171c:	7465675f 	strbtvc	r6, [r5], #-1887	; 0x75f
    1720:	6168635f 	cmnvs	r8, pc, asr r3
    1724:	6f6e5f72 	svcvs	0x006e5f72
    1728:	00756d6d 	rsbseq	r6, r5, sp, ror #26
    172c:	74726f70 	ldrbtvc	r6, [r2], #-3952	; 0xf70
    1730:	72657300 	rsbvc	r7, r5, #0
    1734:	5f6c6169 	svcpl	0x006c6169
    1738:	74697865 	strbtvc	r7, [r9], #-2149	; 0x865
    173c:	63727300 	cmnvs	r2, #0
    1740:	6572665f 	ldrbvs	r6, [r2, #-1631]!	; 0x65f
    1744:	65730071 	ldrbvs	r0, [r3, #-113]!	; 0x71
    1748:	65735f74 	ldrbvs	r5, [r3, #-3956]!	; 0xf74
    174c:	6c616972 	stclvs	9, cr6, [r1], #-456	; 0xfffffe38
    1750:	6b6c635f 	blvs	1b1a4d4 <__bss_end+0x1b07388>
    1754:	72737000 	rsbsvc	r7, r3, #0
    1758:	69730063 	ldmdbvs	r3!, {r0, r1, r5, r6}^
    175c:	745f657a 	ldrbvc	r6, [pc], #-1402	; 1764 <__resume1_start+0x1764>
    1760:	67726100 	ldrbvs	r6, [r2, -r0, lsl #2]!
    1764:	69640073 	stmdbvs	r4!, {r0, r1, r4, r5, r6}^
    1768:	5f746967 	svcpl	0x00746967
    176c:	69727473 	ldmdbvs	r2!, {r0, r1, r4, r5, r6, sl, ip, sp, lr}^
    1770:	6100676e 	tstvs	r0, lr, ror #14
    1774:	2f686372 	svccs	0x00686372
    1778:	2f6d7261 	svccs	0x006d7261
    177c:	6863616d 	stmdavs	r3!, {r0, r2, r3, r5, r6, r8, sp, lr}^
    1780:	6e75732d 	cdpvs	3, 7, cr7, cr5, cr13, {1}
    1784:	702f6978 	eorvc	r6, pc, r8, ror r9	; <UNPREDICTABLE>
    1788:	74732f6d 	ldrbtvc	r2, [r3], #-3949	; 0xf6d
    178c:	62646e61 	rsbvs	r6, r4, #1552	; 0x610
    1790:	2e2e2f79 	mcrcs	15, 1, r2, cr14, cr9, {3}
    1794:	6d656d2f 	stclvs	13, cr6, [r5, #-188]!	; 0xffffff44
    1798:	6972705f 	ldmdbvs	r2!, {r0, r1, r2, r3, r4, r6, ip, sp, lr}^
    179c:	2e6b746e 	cdpcs	4, 6, cr7, cr11, cr14, {3}
    17a0:	65640063 	strbvs	r0, [r4, #-99]!	; 0x63
    17a4:	67677562 	strbvs	r7, [r7, -r2, ror #10]!
    17a8:	625f7265 	subsvs	r7, pc, #1342177286	; 0x50000006
    17ac:	65666675 	strbvs	r6, [r6, #-1653]!	; 0x675
    17b0:	64700072 	ldrbtvs	r0, [r0], #-114	; 0x72
    17b4:	00747365 	rsbseq	r7, r4, r5, ror #6
    17b8:	63617473 	cmnvs	r1, #1929379840	; 0x73000000
    17bc:	5f5f006b 	svcpl	0x005f006b
    17c0:	63756e67 	cmnvs	r5, #1648	; 0x670
    17c4:	5f61765f 	svcpl	0x0061765f
    17c8:	7473696c 	ldrbtvc	r6, [r3], #-2412	; 0x96c
    17cc:	765f5f00 	ldrbvc	r5, [pc], -r0, lsl #30
    17d0:	696c5f61 	stmdbvs	ip!, {r0, r5, r6, r8, r9, sl, fp, ip, lr}^
    17d4:	70007473 	andvc	r7, r0, r3, ror r4
    17d8:	746e6972 	strbtvc	r6, [lr], #-2418	; 0x972
    17dc:	696c615f 	stmdbvs	ip!, {r0, r1, r2, r3, r4, r6, r8, sp, lr}^
    17e0:	73006e67 	movwvc	r6, #3687	; 0xe67
    17e4:	70637274 	rsbvc	r7, r3, r4, ror r2
    17e8:	74690079 	strbtvc	r0, [r9], #-121	; 0x79
    17ec:	7300616f 	movwvc	r6, #367	; 0x16f
    17f0:	636e7274 	cmnvs	lr, #1073741831	; 0x40000007
    17f4:	66007461 	strvs	r7, [r0], -r1, ror #8
    17f8:	616d726f 	cmnvs	sp, pc, ror #4
    17fc:	74730074 	ldrbtvc	r0, [r3], #-116	; 0x74
    1800:	6e656c72 	mcrvs	12, 3, r6, cr5, cr2, {3}
    1804:	615f5f00 	cmpvs	pc, r0, lsl #30
    1808:	69660070 	stmdbvs	r6!, {r4, r5, r6}^
    180c:	635f6c6c 	cmpvs	pc, #27648	; 0x6c00
    1810:	74750068 	ldrbtvc	r0, [r5], #-104	; 0x68
    1814:	7000616f 	andvc	r6, r0, pc, ror #2
    1818:	746e6972 	strbtvc	r6, [lr], #-2418	; 0x972
    181c:	6172006b 	cmnvs	r2, fp, rrx
    1820:	00786964 	rsbseq	r6, r8, r4, ror #18
    1824:	6e697270 	mcrvs	2, 3, r7, cr9, cr0, {3}
    1828:	6e5f6b74 	vmovvs.s8	r6, d15[3]
    182c:	756d6d6f 	strbvc	r6, [sp, #-3439]!	; 0xd6f
    1830:	67656e00 	strbvs	r6, [r5, -r0, lsl #28]!
    1834:	76697461 	strbtvc	r7, [r9], -r1, ror #8
    1838:	5f5f0065 	svcpl	0x005f0065
    183c:	5f6d656d 	svcpl	0x006d656d
    1840:	30766964 	rsbscc	r6, r6, r4, ror #18
    1844:	706d7400 	rsbvc	r7, sp, r0, lsl #8
    1848:	746f7551 	strbtvc	r7, [pc], #-1361	; 1850 <__resume1_start+0x1850>
    184c:	76696400 	strbtvc	r6, [r9], -r0, lsl #8
    1850:	6f697369 	svcvs	0x00697369
    1854:	69640072 	stmdbvs	r4!, {r1, r4, r5, r6}^
    1858:	65646976 	strbvs	r6, [r4, #-2422]!	; 0x976
    185c:	7200646e 	andvc	r6, r0, #1845493760	; 0x6e000000
    1860:	6c5f7761 	mrrcvs	7, 6, r7, pc, cr1	; <UNPREDICTABLE>
    1864:	755f6269 	ldrbvc	r6, [pc, #-617]	; 1603 <__resume1_start+0x1603>
    1868:	00766964 	rsbseq	r6, r6, r4, ror #18
    186c:	44706d74 	ldrbtmi	r6, [r0], #-3444	; 0xd74
    1870:	61007669 	tstvs	r0, r9, ror #12
    1874:	2f686372 	svccs	0x00686372
    1878:	2f6d7261 	svccs	0x006d7261
    187c:	6863616d 	stmdavs	r3!, {r0, r2, r3, r5, r6, r8, sp, lr}^
    1880:	6e75732d 	cdpvs	3, 7, cr7, cr5, cr13, {1}
    1884:	702f6978 	eorvc	r6, pc, r8, ror r9	; <UNPREDICTABLE>
    1888:	74732f6d 	ldrbtvc	r2, [r3], #-3949	; 0xf6d
    188c:	62646e61 	rsbvs	r6, r4, #1552	; 0x610
    1890:	2e2e2f79 	mcrcs	15, 1, r2, cr14, cr9, {3}
    1894:	6d656d2f 	stclvs	13, cr6, [r5, #-188]!	; 0xffffff44
    1898:	7669645f 			; <UNDEFINED> instruction: 0x7669645f
    189c:	6362696c 	cmnvs	r2, #1769472	; 0x1b0000
    18a0:	7300632e 	movwvc	r6, #814	; 0x32e
    18a4:	74666968 	strbtvc	r6, [r6], #-2408	; 0x968
    18a8:	6d656d00 	stclvs	13, cr6, [r5, #-0]
    18ac:	746e695f 	strbtvc	r6, [lr], #-2399	; 0x95f
    18b0:	6978655f 	ldmdbvs	r8!, {r0, r1, r2, r3, r4, r6, r8, sl, sp, lr}^
    18b4:	6e690074 	mcrvs	0, 3, r0, cr9, cr4, {3}
    18b8:	72726574 	rsbsvc	r6, r2, #486539264	; 0x1d000000
    18bc:	5f747075 	svcpl	0x00747075
    18c0:	72756f73 	rsbsvc	r6, r5, #460	; 0x1cc
    18c4:	655f6563 	ldrbvs	r6, [pc, #-1379]	; 1369 <__resume1_start+0x1369>
    18c8:	6d656d00 	stclvs	13, cr6, [r5, #-0]
    18cc:	6575715f 	ldrbvs	r7, [r5, #-351]!	; 0x15f
    18d0:	695f7972 	ldmdbvs	pc, {r1, r4, r5, r6, r8, fp, ip, sp, lr}^	; <UNPREDICTABLE>
    18d4:	6100746e 	tstvs	r0, lr, ror #8
    18d8:	2f686372 	svccs	0x00686372
    18dc:	2f6d7261 	svccs	0x006d7261
    18e0:	6863616d 	stmdavs	r3!, {r0, r2, r3, r5, r6, r8, sp, lr}^
    18e4:	6e75732d 	cdpvs	3, 7, cr7, cr5, cr13, {1}
    18e8:	702f6978 	eorvc	r6, pc, r8, ror r9	; <UNPREDICTABLE>
    18ec:	74732f6d 	ldrbtvc	r2, [r3], #-3949	; 0xf6d
    18f0:	62646e61 	rsbvs	r6, r4, #1552	; 0x610
    18f4:	2e2e2f79 	mcrcs	15, 1, r2, cr14, cr9, {3}
    18f8:	6d656d2f 	stclvs	13, cr6, [r5, #-188]!	; 0xffffff44
    18fc:	746e695f 	strbtvc	r6, [lr], #-2399	; 0x95f
    1900:	4900632e 	stmdbmi	r0, {r1, r2, r3, r5, r8, r9, sp, lr}
    1904:	535f544e 	cmppl	pc, #1308622848	; 0x4e000000
    1908:	4352554f 	cmpmi	r2, #331350016	; 0x13c00000
    190c:	4f545f45 	svcmi	0x00545f45
    1910:	50484355 	subpl	r4, r8, r5, asr r3
    1914:	47004c4e 	strmi	r4, [r0, -lr, asr #24]
    1918:	44436369 	strbmi	r6, [r3], #-873	; 0x369
    191c:	00637369 	rsbeq	r7, r3, r9, ror #6
    1920:	5f544e49 	svcpl	0x00544e49
    1924:	52554f53 	subspl	r4, r5, #332	; 0x14c
    1928:	4d5f4543 	cfldr64mi	mvdx4, [pc, #-268]	; 1824 <__resume1_start+0x1824>
    192c:	425f4753 	subsmi	r4, pc, #21757952	; 0x14c0000
    1930:	6d00584f 	stcvs	8, cr5, [r0, #-316]	; 0xfffffec4
    1934:	695f6d65 	ldmdbvs	pc, {r0, r2, r5, r6, r8, sl, fp, sp, lr}^	; <UNPREDICTABLE>
    1938:	695f746e 	ldmdbvs	pc, {r1, r2, r3, r5, r6, sl, ip, sp, lr}^	; <UNPREDICTABLE>
    193c:	0074696e 	rsbseq	r6, r4, lr, ror #18
    1940:	5f544e49 	svcpl	0x00544e49
    1944:	52554f53 	subspl	r4, r5, #332	; 0x14c
    1948:	545f4543 	ldrbpl	r4, [pc], #-1347	; 1950 <__resume1_start+0x1950>
    194c:	52454d49 	subpl	r4, r5, #4672	; 0x1240
    1950:	4e490030 	mcrmi	0, 2, r0, cr9, cr0, {1}
    1954:	4f535f54 	svcmi	0x00535f54
    1958:	45435255 	strbmi	r5, [r3, #-597]	; 0x255
    195c:	4d49545f 	cfstrdmi	mvd5, [r9, #-380]	; 0xfffffe84
    1960:	00315245 	eorseq	r5, r1, r5, asr #4
    1964:	5f544e49 	svcpl	0x00544e49
    1968:	52554f53 	subspl	r4, r5, #332	; 0x14c
    196c:	455f4543 	ldrbmi	r4, [pc, #-1347]	; 1431 <__resume1_start+0x1431>
    1970:	4d4e5458 	cfstrdmi	mvd5, [lr, #-352]	; 0xfffffea0
    1974:	6e650049 	cdpvs	0, 6, cr0, cr5, cr9, {2}
    1978:	656c6261 	strbvs	r6, [ip, #-609]!	; 0x261
    197c:	7469625f 	strbtvc	r6, [r9], #-607	; 0x25f
    1980:	73657200 	cmnvc	r5, #0
    1984:	00746c75 	rsbseq	r6, r4, r5, ror ip
    1988:	5f544e49 	svcpl	0x00544e49
    198c:	52554f53 	subspl	r4, r5, #332	; 0x14c
    1990:	4c5f4543 	cfldr64mi	mvdx4, [pc], {67}	; 0x43
    1994:	43444152 	movtmi	r4, #16722	; 0x4152
    1998:	706d7400 	rsbvc	r7, sp, r0, lsl #8
    199c:	00707247 	rsbseq	r7, r0, r7, asr #4
    19a0:	53706d74 	cmnpl	r0, #7424	; 0x1d00
    19a4:	6d006372 	stcvs	3, cr6, [r0, #-456]	; 0xfffffe38
    19a8:	655f6d65 	ldrbvs	r6, [pc, #-3429]	; c4b <__resume1_start+0xc4b>
    19ac:	6c62616e 	stfvse	f6, [r2], #-440	; 0xfffffe48
    19b0:	6e695f65 	cdpvs	15, 6, cr5, cr9, cr5, {3}
    19b4:	69470074 	stmdbvs	r7, {r2, r4, r5, r6}^
    19b8:	69444463 	stmdbvs	r4, {r0, r1, r5, r6, sl, lr}^
    19bc:	57006373 	smlsdxpl	r0, r3, r3, r6
    19c0:	31676f44 	cmncc	r7, r4, asr #30
    19c4:	7172495f 	cmnvc	r2, pc, asr r9
    19c8:	6174535f 	cmnvs	r4, pc, asr r3
    19cc:	73764100 	cmnvc	r6, #0
    19d0:	746e4331 	strbtvc	r4, [lr], #-817	; 0x331
    19d4:	746e4900 	strbtvc	r4, [lr], #-2304	; 0x900
    19d8:	006c7443 	rsbeq	r7, ip, r3, asr #8
    19dc:	30726d54 	rsbscc	r6, r2, r4, asr sp
    19e0:	56746e49 	ldrbtpl	r6, [r4], -r9, asr #28
    19e4:	57006c61 	strpl	r6, [r0, -r1, ror #24]
    19e8:	31676f44 	cmncc	r7, r4, asr #30
    19ec:	7274435f 	rsbsvc	r4, r4, #2080374785	; 0x7c000001
    19f0:	65525f6c 	ldrbvs	r5, [r2, #-3948]	; 0xf6c
    19f4:	6d540067 	ldclvs	0, cr0, [r4, #-412]	; 0xfffffe64
    19f8:	74433172 	strbvc	r3, [r3], #-370	; 0x172
    19fc:	6d54006c 	ldclvs	0, cr0, [r4, #-432]	; 0xfffffe50
    1a00:	6e433072 	mcrvs	0, 2, r3, cr3, cr2, {3}
    1a04:	6c615674 	stclvs	6, cr5, [r1], #-464	; 0xfffffe30
    1a08:	726d5400 	rsbvc	r5, sp, #0
    1a0c:	6c744335 	ldclvs	3, cr4, [r4], #-212	; 0xffffff2c
    1a10:	726d5400 	rsbvc	r5, sp, #0
    1a14:	746e4932 	strbtvc	r4, [lr], #-2354	; 0x932
    1a18:	006c6156 	rsbeq	r6, ip, r6, asr r1
    1a1c:	656d5f5f 	strbvs	r5, [sp, #-3935]!	; 0xf5f
    1a20:	6d745f6d 	ldclvs	15, cr5, [r4, #-436]!	; 0xfffffe4c
    1a24:	65725f72 	ldrbvs	r5, [r2, #-3954]!	; 0xf72
    1a28:	00745f67 	rsbseq	r5, r4, r7, ror #30
    1a2c:	32726d54 	rsbscc	r6, r2, #5376	; 0x1500
    1a30:	56746e43 	ldrbtpl	r6, [r4], -r3, asr #28
    1a34:	57006c61 	strpl	r6, [r0, -r1, ror #24]
    1a38:	68637461 	stmdavs	r3!, {r0, r5, r6, sl, ip, sp, lr}^
    1a3c:	31676f44 	cmncc	r7, r4, asr #30
    1a40:	7172495f 	cmnvc	r2, pc, asr r9
    1a44:	5f6e455f 	svcpl	0x006e455f
    1a48:	006b6142 	rsbeq	r6, fp, r2, asr #2
    1a4c:	5f6d656d 	svcpl	0x006d656d
    1a50:	5f726d74 	svcpl	0x00726d74
    1a54:	74697865 	strbtvc	r7, [r9], #-2149	; 0x865
    1a58:	63726100 	cmnvs	r2, #0
    1a5c:	72612f68 	rsbvc	r2, r1, #416	; 0x1a0
    1a60:	616d2f6d 	cmnvs	sp, sp, ror #30
    1a64:	732d6863 	teqvc	sp, #6488064	; 0x630000
    1a68:	69786e75 	ldmdbvs	r8!, {r0, r2, r4, r5, r6, r9, sl, fp, sp, lr}^
    1a6c:	2f6d702f 	svccs	0x006d702f
    1a70:	6e617473 	mcrvs	4, 3, r7, cr1, cr3, {3}
    1a74:	2f796264 	svccs	0x00796264
    1a78:	6d2f2e2e 	stcvs	14, cr2, [pc, #-184]!	; 19c8 <__resume1_start+0x19c8>
    1a7c:	745f6d65 	ldrbvc	r6, [pc], #-3429	; 1a84 <__resume1_start+0x1a84>
    1a80:	632e726d 	teqvs	lr, #-805306362	; 0xd0000006
    1a84:	726d5400 	rsbvc	r5, sp, #0
    1a88:	746e4934 	strbtvc	r4, [lr], #-2356	; 0x934
    1a8c:	006c6156 	rsbeq	r6, ip, r6, asr r1
    1a90:	34726d54 	ldrbtcc	r6, [r2], #-3412	; 0xd54
    1a94:	56746e43 	ldrbtpl	r6, [r4], -r3, asr #28
    1a98:	57006c61 	strpl	r6, [r0, -r1, ror #24]
    1a9c:	68637461 	stmdavs	r3!, {r0, r5, r6, sl, ip, sp, lr}^
    1aa0:	31676f44 	cmncc	r7, r4, asr #30
    1aa4:	6e6f435f 	mcrvs	3, 3, r4, cr15, cr15, {2}
    1aa8:	5f676966 	svcpl	0x00676966
    1aac:	5f676552 	svcpl	0x00676552
    1ab0:	006b6142 	rsbeq	r6, fp, r2, asr #2
    1ab4:	65736572 	ldrbvs	r6, [r3, #-1394]!	; 0x572
    1ab8:	64657672 	strbtvs	r7, [r5], #-1650	; 0x672
    1abc:	6d540038 	ldclvs	0, cr0, [r4, #-224]	; 0xffffff20
    1ac0:	74433272 	strbvc	r3, [r3], #-626	; 0x272
    1ac4:	4457006c 	ldrbmi	r0, [r7], #-108	; 0x6c
    1ac8:	5f31676f 	svcpl	0x0031676f
    1acc:	65646f4d 	strbvs	r6, [r4, #-3917]!	; 0xf4d
    1ad0:	6765525f 			; <UNDEFINED> instruction: 0x6765525f
    1ad4:	74615700 	strbtvc	r5, [r1], #-1792	; 0x700
    1ad8:	6f446863 	svcvs	0x00446863
    1adc:	4d5f3167 	ldfmie	f3, [pc, #-412]	; 1948 <__resume1_start+0x1948>
    1ae0:	525f646f 	subspl	r6, pc, #1862270976	; 0x6f000000
    1ae4:	425f6765 	subsmi	r6, pc, #26476544	; 0x1940000
    1ae8:	6d006b61 	vstrvs	d6, [r0, #-388]	; 0xfffffe7c
    1aec:	745f6d65 	ldrbvc	r6, [pc], #-3429	; 1af4 <__resume1_start+0x1af4>
    1af0:	655f726d 	ldrbvs	r7, [pc, #-621]	; 188b <__resume1_start+0x188b>
    1af4:	6c62616e 	stfvse	f6, [r2], #-440	; 0xfffffe48
    1af8:	61775f65 	cmnvs	r7, r5, ror #30
    1afc:	64686374 	strbtvs	r6, [r8], #-884	; 0x374
    1b00:	6d00676f 	stcvs	7, cr6, [r0, #-444]	; 0xfffffe44
    1b04:	745f6d65 	ldrbvc	r6, [pc], #-3429	; 1b0c <__resume1_start+0x1b0c>
    1b08:	695f726d 	ldmdbvs	pc, {r0, r2, r3, r5, r6, r9, ip, sp, lr}^	; <UNPREDICTABLE>
    1b0c:	0074696e 	rsbseq	r6, r4, lr, ror #18
    1b10:	676f4457 			; <UNDEFINED> instruction: 0x676f4457
    1b14:	72495f31 	subvc	r5, r9, #196	; 0xc4
    1b18:	6e455f71 	mcrvs	15, 2, r5, cr5, cr1, {3}
    1b1c:	6d656d00 	stclvs	13, cr6, [r5, #-0]
    1b20:	726d745f 	rsbvc	r7, sp, #1593835520	; 0x5f000000
    1b24:	7365725f 	cmnvc	r5, #-268435451	; 0xf0000005
    1b28:	65726f74 	ldrbvs	r6, [r2, #-3956]!	; 0xf74
    1b2c:	4d5f5f00 	ldclmi	15, cr5, [pc, #-0]	; 1b34 <__resume1_start+0x1b34>
    1b30:	545f4d45 	ldrbpl	r4, [pc], #-3397	; 1b38 <__resume1_start+0x1b38>
    1b34:	525f524d 	subspl	r5, pc, #-805306364	; 0xd0000004
    1b38:	6d004745 	stcvs	7, cr4, [r0, #-276]	; 0xfffffeec
    1b3c:	745f6d65 	ldrbvc	r6, [pc], #-3429	; 1b44 <__resume1_start+0x1b44>
    1b40:	645f726d 	ldrbvs	r7, [pc], #-621	; 1b48 <__resume1_start+0x1b48>
    1b44:	62617369 	rsbvs	r7, r1, #-1543503871	; 0xa4000001
    1b48:	775f656c 	ldrbvc	r6, [pc, -ip, ror #10]
    1b4c:	68637461 	stmdavs	r3!, {r0, r5, r6, sl, ip, sp, lr}^
    1b50:	00676f64 	rsbeq	r6, r7, r4, ror #30
    1b54:	31726d54 	cmncc	r2, r4, asr sp
    1b58:	56746e49 	ldrbtpl	r6, [r4], -r9, asr #28
    1b5c:	70006c61 	andvc	r6, r0, r1, ror #24
    1b60:	5f726d74 	svcpl	0x00726d74
    1b64:	74617473 	strbtvc	r7, [r1], #-1139	; 0x473
    1b68:	76410065 	strbvc	r0, [r1], -r5, rrx
    1b6c:	76694473 			; <UNDEFINED> instruction: 0x76694473
    1b70:	726d5400 	rsbvc	r5, sp, #0
    1b74:	6c744333 	ldclvs	3, cr4, [r4], #-204	; 0xffffff34
    1b78:	73764100 	cmnvc	r6, #0
    1b7c:	006c7443 	rsbeq	r7, ip, r3, asr #8
    1b80:	53746e49 	cmnpl	r4, #1168	; 0x490
    1b84:	54006174 	strpl	r6, [r0], #-372	; 0x174
    1b88:	4331726d 	teqmi	r1, #-805306362	; 0xd0000006
    1b8c:	6156746e 	cmpvs	r6, lr, ror #8
    1b90:	6d54006c 	ldclvs	0, cr0, [r4, #-432]	; 0xfffffe50
    1b94:	6e493372 	mcrvs	3, 2, r3, cr9, cr2, {3}
    1b98:	6c615674 	stclvs	6, cr5, [r1], #-464	; 0xfffffe30
    1b9c:	6f445700 	svcvs	0x00445700
    1ba0:	435f3167 	cmpmi	pc, #-1073741799	; 0xc0000019
    1ba4:	525f6766 	subspl	r6, pc, #26738688	; 0x1980000
    1ba8:	41006765 	tstmi	r0, r5, ror #14
    1bac:	43307376 	teqmi	r0, #-671088639	; 0xd8000001
    1bb0:	5400746e 	strpl	r7, [r0], #-1134	; 0x46e
    1bb4:	4935726d 	ldmdbmi	r5!, {r0, r2, r3, r5, r6, r9, ip, sp, lr}
    1bb8:	6156746e 	cmpvs	r6, lr, ror #8
    1bbc:	6d54006c 	ldclvs	0, cr0, [r4, #-432]	; 0xfffffe50
    1bc0:	6e433572 	mcrvs	5, 2, r3, cr3, cr2, {3}
    1bc4:	6c615674 	stclvs	6, cr5, [r1], #-464	; 0xfffffe30
    1bc8:	726d5400 	rsbvc	r5, sp, #0
    1bcc:	00676552 	rsbeq	r6, r7, r2, asr r5
    1bd0:	30726d54 	rsbscc	r6, r2, r4, asr sp
    1bd4:	006c7443 	rsbeq	r7, ip, r3, asr #8
    1bd8:	34726d54 	ldrbtcc	r6, [r2], #-3412	; 0xd54
    1bdc:	006c7443 	rsbeq	r7, ip, r3, asr #8
    1be0:	5f6d656d 	svcpl	0x006d656d
    1be4:	5f726d74 	svcpl	0x00726d74
    1be8:	65766173 	ldrbvs	r6, [r6, #-371]!	; 0x173
    1bec:	4d5f5f00 	ldclmi	15, cr5, [pc, #-0]	; 1bf4 <__resume1_start+0x1bf4>
    1bf0:	545f4d45 	ldrbpl	r4, [pc], #-3397	; 1bf8 <__resume1_start+0x1bf8>
    1bf4:	4d54534d 	ldclmi	3, cr5, [r4, #-308]	; 0xfffffecc
    1bf8:	45525f50 	ldrbmi	r5, [r2, #-3920]	; 0xf50
    1bfc:	5f5f0047 	svcpl	0x005f0047
    1c00:	5f6d656d 	svcpl	0x006d656d
    1c04:	74736d74 	ldrbtvc	r6, [r3], #-3444	; 0xd74
    1c08:	725f706d 	subsvc	r7, pc, #109	; 0x6d
    1c0c:	745f6765 	ldrbvc	r6, [pc], #-1893	; 1c14 <__resume1_start+0x1c14>
    1c10:	736d5400 	cmnvc	sp, #0
    1c14:	52706d74 	rsbspl	r6, r0, #7424	; 0x1d00
    1c18:	43006765 	movwmi	r6, #1893	; 0x765
    1c1c:	7473756c 	ldrbtvc	r7, [r3], #-1388	; 0x56c
    1c20:	43307265 	teqmi	r0, #1342177286	; 0x50000006
    1c24:	526c7274 	rsbpl	r7, ip, #1073741831	; 0x40000007
    1c28:	00316765 	eorseq	r6, r1, r5, ror #14
    1c2c:	5f6d656d 	svcpl	0x006d656d
    1c30:	74736d74 	ldrbtvc	r6, [r3], #-3444	; 0xd74
    1c34:	725f706d 	subsvc	r7, pc, #109	; 0x6d
    1c38:	6f747365 	svcvs	0x00747365
    1c3c:	6d006572 	cfstr32vs	mvfx6, [r0, #-456]	; 0xfffffe38
    1c40:	745f6d65 	ldrbvc	r6, [pc], #-3429	; 1c48 <__resume1_start+0x1c48>
    1c44:	6d74736d 	ldclvs	3, cr7, [r4, #-436]!	; 0xfffffe4c
    1c48:	61735f70 	cmnvs	r3, r0, ror pc
    1c4c:	70006576 	andvc	r6, r0, r6, ror r5
    1c50:	74736d74 	ldrbtvc	r6, [r3], #-3444	; 0xd74
    1c54:	735f706d 	cmpvc	pc, #109	; 0x6d
    1c58:	65746174 	ldrbvs	r6, [r4, #-372]!	; 0x174
    1c5c:	63726100 	cmnvs	r2, #0
    1c60:	72612f68 	rsbvc	r2, r1, #416	; 0x1a0
    1c64:	616d2f6d 	cmnvs	sp, sp, ror #30
    1c68:	732d6863 	teqvc	sp, #6488064	; 0x630000
    1c6c:	69786e75 	ldmdbvs	r8!, {r0, r2, r4, r5, r6, r9, sl, fp, sp, lr}^
    1c70:	2f6d702f 	svccs	0x006d702f
    1c74:	6e617473 	mcrvs	4, 3, r7, cr1, cr3, {3}
    1c78:	2f796264 	svccs	0x00796264
    1c7c:	6d2f2e2e 	stcvs	14, cr2, [pc, #-184]!	; 1bcc <__resume1_start+0x1bcc>
    1c80:	745f6d65 	ldrbvc	r6, [pc], #-3429	; 1c88 <__resume1_start+0x1c88>
    1c84:	6d74736d 	ldclvs	3, cr7, [r4, #-436]!	; 0xfffffe4c
    1c88:	00632e70 	rsbeq	r2, r3, r0, ror lr
    1c8c:	70737768 	rsbsvc	r7, r3, r8, ror #14
    1c90:	755f6e69 	ldrbvc	r6, [pc, #-3689]	; e2f <__resume1_start+0xe2f>
    1c94:	636f6c6e 	cmnvs	pc, #28160	; 0x6e00
    1c98:	6f6e5f6b 	svcvs	0x006e5f6b
    1c9c:	00756d6d 	rsbseq	r6, r5, sp, ror #26
    1ca0:	67616c66 	strbvs	r6, [r1, -r6, ror #24]!
    1ca4:	70630073 	rsbvc	r0, r3, r3, ror r0
    1ca8:	625f7273 	subsvs	r7, pc, #805306375	; 0x30000007
    1cac:	756b6361 	strbvc	r6, [fp, #-865]!	; 0x361
    1cb0:	78650070 	stmdavc	r5!, {r4, r5, r6}^
    1cb4:	65726970 	ldrbvs	r6, [r2, #-2416]!	; 0x970
    1cb8:	73776800 	cmnvc	r7, #0
    1cbc:	5f6e6970 	svcpl	0x006e6970
    1cc0:	6b636f6c 	blvs	18dda78 <__bss_end+0x18ca92c>
    1cc4:	6d69745f 	cfstrdvs	mvd7, [r9, #-380]!	; 0xfffffe84
    1cc8:	74756f65 	ldrbtvc	r6, [r5], #-3941	; 0xf65
    1ccc:	73776800 	cmnvc	r7, #0
    1cd0:	5f6e6970 	svcpl	0x006e6970
    1cd4:	6b636f6c 	blvs	18dda8c <__bss_end+0x18ca940>
    1cd8:	6d69745f 	cfstrdvs	mvd7, [r9, #-380]!	; 0xfffffe84
    1cdc:	74756f65 	ldrbtvc	r6, [r5], #-3941	; 0xf65
    1ce0:	6d6f6e5f 	stclvs	14, cr6, [pc, #-380]!	; 1b6c <__resume1_start+0x1b6c>
    1ce4:	6800756d 	stmdavs	r0, {r0, r2, r3, r5, r6, r8, sl, ip, sp, lr}
    1ce8:	00646977 	rsbeq	r6, r4, r7, ror r9
    1cec:	70737768 	rsbsvc	r7, r3, r8, ror #14
    1cf0:	6f6c6e69 	svcvs	0x006c6e69
    1cf4:	695f6b63 	ldmdbvs	pc, {r0, r1, r5, r6, r8, r9, fp, sp, lr}^	; <UNPREDICTABLE>
    1cf8:	0074696e 	rsbseq	r6, r4, lr, ror #18
    1cfc:	70737768 	rsbsvc	r7, r3, r8, ror #14
    1d00:	755f6e69 	ldrbvc	r6, [pc, #-3689]	; e9f <__resume1_start+0xe9f>
    1d04:	636f6c6e 	cmnvs	pc, #28160	; 0x6e00
    1d08:	7261006b 	rsbvc	r0, r1, #107	; 0x6b
    1d0c:	612f6863 	teqvs	pc, r3, ror #16
    1d10:	6d2f6d72 	stcvs	13, cr6, [pc, #-456]!	; 1b50 <__resume1_start+0x1b50>
    1d14:	2d686361 	stclcs	3, cr6, [r8, #-388]!	; 0xfffffe7c
    1d18:	786e7573 	stmdavc	lr!, {r0, r1, r4, r5, r6, r8, sl, ip, sp, lr}^
    1d1c:	6d702f69 	ldclvs	15, cr2, [r0, #-420]!	; 0xfffffe5c
    1d20:	6174732f 	cmnvs	r4, pc, lsr #6
    1d24:	7962646e 	stmdbvc	r2!, {r1, r2, r3, r5, r6, sl, sp, lr}^
    1d28:	2f2e2e2f 	svccs	0x002e2e2f
    1d2c:	5f6d656d 	svcpl	0x006d656d
    1d30:	70737768 	rsbsvc	r7, r3, r8, ror #14
    1d34:	6f6c6e69 	svcvs	0x006c6e69
    1d38:	632e6b63 	teqvs	lr, #101376	; 0x18c00
    1d3c:	6d656d00 	stclvs	13, cr6, [r5, #-0]
    1d40:	636f6c5f 	cmnvs	pc, #24320	; 0x5f00
    1d44:	695f6c61 	ldmdbvs	pc, {r0, r5, r6, sl, fp, sp, lr}^	; <UNPREDICTABLE>
    1d48:	735f7172 	cmpvc	pc, #-2147483620	; 0x8000001c
    1d4c:	00657661 	rsbeq	r7, r5, r1, ror #12
    1d50:	5f6d656d 	svcpl	0x006d656d
    1d54:	61636f6c 	cmnvs	r3, ip, ror #30
    1d58:	72695f6c 	rsbvc	r5, r9, #432	; 0x1b0
    1d5c:	65725f71 	ldrbvs	r5, [r2, #-3953]!	; 0xf71
    1d60:	726f7473 	rsbvc	r7, pc, #1929379840	; 0x73000000
    1d64:	65760065 	ldrbvs	r0, [r6, #-101]!	; 0x65
    1d68:	6b6c635f 	blvs	1b1aaec <__bss_end+0x1b079a0>
    1d6c:	69736300 	ldmdbvs	r3!, {r8, r9, sp, lr}^
    1d70:	636d5f30 	cmnvs	sp, #192	; 0xc0
    1d74:	75006b6c 	strvc	r6, [r0, #-2924]	; 0xb6c
    1d78:	68706273 	ldmdavs	r0!, {r0, r1, r4, r5, r6, r9, sp, lr}^
    1d7c:	635f3079 	cmpvs	pc, #121	; 0x79
    1d80:	73006766 	movwvc	r6, #1894	; 0x766
    1d84:	5f617461 	svcpl	0x00617461
    1d88:	006b6c63 	rsbeq	r6, fp, r3, ror #24
    1d8c:	5f306473 	svcpl	0x00306473
    1d90:	006b6c63 	rsbeq	r6, fp, r3, ror #24
    1d94:	5f326473 	svcpl	0x00326473
    1d98:	006b6c63 	rsbeq	r6, fp, r3, ror #24
    1d9c:	68637261 	stmdavs	r3!, {r0, r5, r6, r9, ip, sp, lr}^
    1da0:	6d72612f 	ldfvse	f6, [r2, #-188]!	; 0xffffff44
    1da4:	63616d2f 	cmnvs	r1, #3008	; 0xbc0
    1da8:	75732d68 	ldrbvc	r2, [r3, #-3432]!	; 0xd68
    1dac:	2f69786e 	svccs	0x0069786e
    1db0:	732f6d70 	teqvc	pc, #7168	; 0x1c00
    1db4:	646e6174 	strbtvs	r6, [lr], #-372	; 0x174
    1db8:	2e2f7962 	cdpcs	9, 2, cr7, cr15, cr2, {3}
    1dbc:	656d2f2e 	strbvs	r2, [sp, #-3886]!	; 0xf2e
    1dc0:	6c635f6d 	stclvs	15, cr5, [r3], #-436	; 0xfffffe4c
    1dc4:	00632e6b 	rsbeq	r2, r3, fp, ror #28
    1dc8:	31627061 	cmncc	r2, r1, rrx
    1dcc:	7473725f 	ldrbtvc	r7, [r3], #-607	; 0x25f
    1dd0:	62686100 	rsbvs	r6, r8, #0
    1dd4:	61675f31 	cmnvs	r7, r1, lsr pc
    1dd8:	676e6974 			; <UNDEFINED> instruction: 0x676e6974
    1ddc:	6d656d00 	stclvs	13, cr6, [r5, #-0]
    1de0:	6b6c635f 	blvs	1b1ab64 <__bss_end+0x1b07a18>
    1de4:	696e695f 	stmdbvs	lr!, {r0, r1, r2, r3, r4, r6, r8, fp, sp, lr}^
    1de8:	656d0074 	strbvs	r0, [sp, #-116]!	; 0x74
    1dec:	6c635f6d 	stclvs	15, cr5, [r3], #-436	; 0xfffffe4c
    1df0:	65735f6b 	ldrbvs	r5, [r3, #-3947]!	; 0xf6b
    1df4:	696d5f74 	stmdbvs	sp!, {r2, r4, r5, r6, r8, r9, sl, fp, ip, lr}^
    1df8:	6d006373 	stcvs	3, cr6, [r0, #-460]	; 0xfffffe34
    1dfc:	5f697069 	svcpl	0x00697069
    1e00:	5f697368 	svcpl	0x00697368
    1e04:	006b6c63 	rsbeq	r6, fp, r3, ror #24
    1e08:	5f737661 	svcpl	0x00737661
    1e0c:	006b6c63 	rsbeq	r6, fp, r3, ror #24
    1e10:	5f6d656d 	svcpl	0x006d656d
    1e14:	5f6b6c63 	svcpl	0x006b6c63
    1e18:	5f746567 	svcpl	0x00746567
    1e1c:	5f757063 	svcpl	0x00757063
    1e20:	71657266 	cmnvc	r5, r6, ror #4
    1e24:	6d646800 	stclvs	8, cr6, [r4, #-0]
    1e28:	63735f69 	cmnvs	r3, #420	; 0x1a4
    1e2c:	6e006b6c 	vmlsvs.f64	d6, d0, d28
    1e30:	30646e61 	rsbcc	r6, r4, r1, ror #28
    1e34:	6c63735f 	stclvs	3, cr7, [r3], #-380	; 0xfffffe84
    1e38:	635f316b 	cmpvs	pc, #-1073741798	; 0xc000001a
    1e3c:	61006766 	tstvs	r0, r6, ror #14
    1e40:	5f326268 	svcpl	0x00326268
    1e44:	00747372 	rsbseq	r7, r4, r2, ror r3
    1e48:	635f7373 	cmpvs	pc, #-872415231	; 0xcc000001
    1e4c:	6d006b6c 	vstrvs	d6, [r0, #-432]	; 0xfffffe50
    1e50:	635f6d65 	cmpvs	pc, #6464	; 0x1940
    1e54:	735f6b6c 	cmpvc	pc, #110592	; 0x1b000
    1e58:	705f7465 	subsvc	r7, pc, r5, ror #8
    1e5c:	665f6c6c 	ldrbvs	r6, [pc], -ip, ror #24
    1e60:	6f746361 	svcvs	0x00746361
    1e64:	656d0072 	strbvs	r0, [sp, #-114]!	; 0x72
    1e68:	6c635f6d 	stclvs	15, cr5, [r3], #-436	; 0xfffffe4c
    1e6c:	65675f6b 	strbvs	r5, [r7, #-3947]!	; 0xf6b
    1e70:	6c705f74 	ldclvs	15, cr5, [r0], #-464	; 0xfffffe30
    1e74:	61665f6c 	cmnvs	r6, ip, ror #30
    1e78:	726f7463 	rsbvc	r7, pc, #1660944384	; 0x63000000
    1e7c:	6d636300 	stclvs	3, cr6, [r3, #-0]
    1e80:	6765725f 			; <UNDEFINED> instruction: 0x6765725f
    1e84:	69736300 	ldmdbvs	r3!, {r8, r9, sp, lr}^
    1e88:	7073695f 	rsbsvc	r6, r3, pc, asr r9
    1e8c:	6b6c635f 	blvs	1b1ac10 <__bss_end+0x1b07ac4>
    1e90:	67657200 	strbvs	r7, [r5, -r0, lsl #4]!
    1e94:	6c61765f 	stclvs	6, cr7, [r1], #-380	; 0xfffffe84
    1e98:	75616400 	strbvc	r6, [r1, #-1024]!	; 0x400
    1e9c:	316f6964 	cmncc	pc, r4, ror #18
    1ea0:	6b6c635f 	blvs	1b1ac24 <__bss_end+0x1b07ad8>
    1ea4:	6e616e00 	cdpvs	14, 6, cr6, cr1, cr0, {0}
    1ea8:	735f3164 	cmpvc	pc, #25
    1eac:	306b6c63 	rsbcc	r6, fp, r3, ror #24
    1eb0:	6766635f 			; <UNDEFINED> instruction: 0x6766635f
    1eb4:	5f706d00 	svcpl	0x00706d00
    1eb8:	006b6c63 	rsbeq	r6, fp, r3, ror #24
    1ebc:	5f6d656d 	svcpl	0x006d656d
    1ec0:	5f6b6c63 	svcpl	0x006b6c63
    1ec4:	5f746567 	svcpl	0x00746567
    1ec8:	6373696d 	cmnvs	r3, #1785856	; 0x1b4000
    1ecc:	31647300 	cmncc	r4, r0, lsl #6
    1ed0:	6b6c635f 	blvs	1b1ac54 <__bss_end+0x1b07b08>
    1ed4:	62706100 	rsbsvs	r6, r0, #0
    1ed8:	73725f30 	cmnvc	r2, #192	; 0xc0
    1edc:	65720074 	ldrbvs	r0, [r2, #-116]!	; 0x74
    1ee0:	76726573 			; <UNDEFINED> instruction: 0x76726573
    1ee4:	30316465 	eorscc	r6, r1, r5, ror #8
    1ee8:	73657200 	cmnvc	r5, #0
    1eec:	65767265 	ldrbvs	r7, [r6, #-613]!	; 0x265
    1ef0:	00313164 	eorseq	r3, r1, r4, ror #2
    1ef4:	31697073 	smccc	38659	; 0x9703
    1ef8:	6b6c635f 	blvs	1b1ac7c <__bss_end+0x1b07b30>
    1efc:	6d636300 	stclvs	3, cr6, [r3, #-0]
    1f00:	646f6d5f 	strbtvs	r6, [pc], #-3423	; 1f08 <__resume1_start+0x1f08>
    1f04:	6765725f 			; <UNDEFINED> instruction: 0x6765725f
    1f08:	6361625f 	cmnvs	r1, #-268435451	; 0xf0000005
    1f0c:	0070756b 	rsbseq	r7, r0, fp, ror #10
    1f10:	5f6d656d 	svcpl	0x006d656d
    1f14:	5f6b6c63 	svcpl	0x006b6c63
    1f18:	64746573 	ldrbtvs	r6, [r4], #-1395	; 0x573
    1f1c:	6d007669 	stcvs	6, cr7, [r0, #-420]	; 0xfffffe5c
    1f20:	5f697069 	svcpl	0x00697069
    1f24:	5f697363 	svcpl	0x00697363
    1f28:	00676663 	rsbeq	r6, r7, r3, ror #12
    1f2c:	63635f5f 	cmnvs	r3, #380	; 0x17c
    1f30:	6d5f756d 	cfldr64vs	mvdx7, [pc, #-436]	; 1d84 <__resume1_start+0x1d84>
    1f34:	725f646f 	subsvc	r6, pc, #1862270976	; 0x6f000000
    1f38:	6c5f6765 	mrrcvs	7, 6, r6, pc, cr5	; <UNPREDICTABLE>
    1f3c:	5f747369 	svcpl	0x00747369
    1f40:	656d0074 	strbvs	r0, [sp, #-116]!	; 0x74
    1f44:	6c635f6d 	stclvs	15, cr5, [r3], #-436	; 0xfffffe4c
    1f48:	65675f6b 	strbvs	r5, [r7, #-3947]!	; 0xf6b
    1f4c:	76696474 			; <UNDEFINED> instruction: 0x76696474
    1f50:	435f5f00 	cmpmi	pc, #0
    1f54:	5f554d43 	svcpl	0x00554d43
    1f58:	5f444f4d 	svcpl	0x00444f4d
    1f5c:	5f474552 	svcpl	0x00474552
    1f60:	5453494c 	ldrbpl	r4, [r3], #-2380	; 0x94c
    1f64:	75706700 	ldrbvc	r6, [r0, #-1792]!	; 0x700
    1f68:	6d656d5f 	stclvs	13, cr6, [r5, #-380]!	; 0xfffffe84
    1f6c:	6b6c635f 	blvs	1b1acf0 <__bss_end+0x1b07ba4>
    1f70:	6d656d00 	stclvs	13, cr6, [r5, #-0]
    1f74:	7465675f 	strbtvc	r6, [r5], #-1887	; 0x75f
    1f78:	0061625f 	rsbeq	r6, r1, pc, asr r2
    1f7c:	37396361 	ldrcc	r6, [r9, -r1, ror #6]!
    1f80:	6b6c635f 	blvs	1b1ad04 <__bss_end+0x1b07bb8>
    1f84:	756d4300 	strbvc	r4, [sp, #-768]!	; 0x300
    1f88:	5f676552 	svcpl	0x00676552
    1f8c:	30697841 	rsbcc	r7, r9, r1, asr #16
    1f90:	6766435f 			; <UNDEFINED> instruction: 0x6766435f
    1f94:	706d745f 	rsbvc	r7, sp, pc, asr r4
    1f98:	62706100 	rsbsvs	r6, r0, #0
    1f9c:	61675f30 	cmnvs	r7, r0, lsr pc
    1fa0:	676e6974 			; <UNDEFINED> instruction: 0x676e6974
    1fa4:	6d656d00 	stclvs	13, cr6, [r5, #-0]
    1fa8:	6b6c635f 	blvs	1b1ad2c <__bss_end+0x1b07be0>
    1fac:	7661735f 			; <UNDEFINED> instruction: 0x7661735f
    1fb0:	64680065 	strbtvs	r0, [r8], #-101	; 0x65
    1fb4:	735f696d 	cmpvc	pc, #1785856	; 0x1b4000
    1fb8:	5f776f6c 	svcpl	0x00776f6c
    1fbc:	306b6c63 	rsbcc	r6, fp, r3, ror #24
    1fc0:	6d636300 	stclvs	3, cr6, [r3, #-0]
    1fc4:	6765725f 			; <UNDEFINED> instruction: 0x6765725f
    1fc8:	6361625f 	cmnvs	r1, #-268435451	; 0xf0000005
    1fcc:	0070756b 	rsbseq	r7, r0, fp, ror #10
    1fd0:	3164636c 	cmncc	r4, ip, ror #6
    1fd4:	6b6c635f 	blvs	1b1ad58 <__bss_end+0x1b07c0c>
    1fd8:	756d4300 	strbvc	r4, [sp, #-768]!	; 0x300
    1fdc:	5f676552 	svcpl	0x00676552
    1fe0:	5f757043 	svcpl	0x00757043
    1fe4:	5f6b6c43 	svcpl	0x006b6c43
    1fe8:	5f637253 	svcpl	0x00637253
    1fec:	00706d74 	rsbseq	r6, r0, r4, ror sp
    1ff0:	646e616e 	strbtvs	r6, [lr], #-366	; 0x16e
    1ff4:	63735f30 	cmnvs	r3, #192	; 0xc0
    1ff8:	5f306b6c 	svcpl	0x00306b6c
    1ffc:	00676663 	rsbeq	r6, r7, r3, ror #12
    2000:	646e616e 	strbtvs	r6, [lr], #-366	; 0x16e
    2004:	63735f31 	cmnvs	r3, #196	; 0xc4
    2008:	5f316b6c 	svcpl	0x00316b6c
    200c:	00676663 	rsbeq	r6, r7, r3, ror #12
    2010:	31626861 	cmncc	r2, r1, ror #16
    2014:	7473725f 	ldrbtvc	r7, [r3], #-607	; 0x25f
    2018:	69736300 	ldmdbvs	r3!, {r8, r9, sp, lr}^
    201c:	636d5f31 	cmnvs	sp, #196	; 0xc4
    2020:	64006b6c 	strvs	r6, [r0], #-2924	; 0xb6c
    2024:	63735f65 	cmnvs	r3, #404	; 0x194
    2028:	635f6b6c 	cmpvs	pc, #110592	; 0x1b000
    202c:	66006766 	strvs	r6, [r0], -r6, ror #14
    2030:	6c635f64 	stclvs	15, cr5, [r3], #-400	; 0xfffffe70
    2034:	6473006b 	ldrbtvs	r0, [r3], #-107	; 0x6b
    2038:	6c635f33 	stclvs	15, cr5, [r3], #-204	; 0xffffff34
    203c:	6164006b 	cmnvs	r4, fp, rrx
    2040:	6f696475 	svcvs	0x00696475
    2044:	6c635f30 	stclvs	15, cr5, [r3], #-192	; 0xffffff40
    2048:	6861006b 	stmdavs	r1!, {r0, r1, r3, r5, r6}^
    204c:	675f3062 	ldrbvs	r3, [pc, -r2, rrx]
    2050:	6e697461 	cdpvs	4, 6, cr7, cr9, cr1, {3}
    2054:	65730067 	ldrbvs	r0, [r3, #-103]!	; 0x67
    2058:	6e697474 	mcrvs	4, 3, r7, cr9, cr4, {3}
    205c:	68615f67 	stmdavs	r1!, {r0, r1, r2, r5, r6, r8, r9, sl, fp, ip, lr}^
    2060:	705f3062 	subsvc	r3, pc, r2, rrx
    2064:	00617261 	rsbeq	r7, r1, r1, ror #4
    2068:	6970696d 	ldmdbvs	r0!, {r0, r2, r3, r5, r6, r8, fp, sp, lr}^
    206c:	6973645f 	ldmdbvs	r3!, {r0, r1, r2, r3, r4, r6, sl, sp, lr}^
    2070:	6b6c635f 	blvs	1b1adf4 <__bss_end+0x1b07ca8>
    2074:	696d0030 	stmdbvs	sp!, {r4, r5}^
    2078:	645f6970 	ldrbvs	r6, [pc], #-2416	; 2080 <__resume1_start+0x2080>
    207c:	635f6973 	cmpvs	pc, #1884160	; 0x1cc000
    2080:	00316b6c 	eorseq	r6, r1, ip, ror #22
    2084:	33697073 	cmncc	r9, #115	; 0x73
    2088:	6b6c635f 	blvs	1b1ae0c <__bss_end+0x1b07cc0>
    208c:	64707300 	ldrbtvs	r7, [r0], #-768	; 0x300
    2090:	635f6669 	cmpvs	pc, #110100480	; 0x6900000
    2094:	72006b6c 	andvc	r6, r0, #110592	; 0x1b000
    2098:	72657365 	rsbvc	r7, r5, #-1811939327	; 0x94000001
    209c:	39646576 	stmdbcc	r4!, {r1, r2, r4, r5, r6, r8, sl, sp, lr}^
    20a0:	6d656d00 	stclvs	13, cr6, [r5, #-0]
    20a4:	6b6c635f 	blvs	1b1ae28 <__bss_end+0x1b07cdc>
    20a8:	7365725f 	cmnvc	r5, #-268435451	; 0xf0000005
    20ac:	65726f74 	ldrbvs	r6, [r2, #-3956]!	; 0xf74
    20b0:	62686100 	rsbvs	r6, r8, #0
    20b4:	61675f32 	cmnvs	r7, r2, lsr pc
    20b8:	676e6974 			; <UNDEFINED> instruction: 0x676e6974
    20bc:	69707300 	ldmdbvs	r0!, {r8, r9, ip, sp, lr}^
    20c0:	6c635f30 	stclvs	15, cr5, [r3], #-192	; 0xffffff40
    20c4:	7061006b 	rsbvc	r0, r1, fp, rrx
    20c8:	675f3162 	ldrbvs	r3, [pc, -r2, ror #2]
    20cc:	6e697461 	cdpvs	4, 6, cr7, cr9, cr1, {3}
    20d0:	6c630067 	stclvs	0, cr0, [r3], #-412	; 0xfffffe64
    20d4:	74735f6b 	ldrbtvc	r5, [r3], #-3947	; 0xf6b
    20d8:	00657461 	rsbeq	r7, r5, r1, ror #8
    20dc:	5f726963 	svcpl	0x00726963
    20e0:	635f7874 	cmpvs	pc, #7602176	; 0x740000
    20e4:	63006b6c 	movwvs	r6, #2924	; 0xb6c
    20e8:	6d5f6d63 	ldclvs	13, cr6, [pc, #-396]	; 1f64 <__resume1_start+0x1f64>
    20ec:	725f646f 	subsvc	r6, pc, #1862270976	; 0x6f000000
    20f0:	67006765 	strvs	r6, [r0, -r5, ror #14]
    20f4:	635f7570 	cmpvs	pc, #469762048	; 0x1c000000
    20f8:	5f65726f 	svcpl	0x0065726f
    20fc:	006b6c63 	rsbeq	r6, fp, r3, ror #24
    2100:	32697073 	rsbcc	r7, r9, #115	; 0x73
    2104:	6b6c635f 	blvs	1b1ae88 <__bss_end+0x1b07d3c>
    2108:	5f706700 	svcpl	0x00706700
    210c:	00636461 	rsbeq	r6, r3, r1, ror #8
    2110:	7263717a 	rsbvc	r7, r3, #-2147483618	; 0x8000001e
    2114:	3068635f 	rsbcc	r6, r8, pc, asr r3
    2118:	63717a00 	cmnvs	r1, #0
    211c:	68635f72 	stmdavs	r3!, {r1, r4, r5, r6, r8, r9, sl, fp, ip, lr}^
    2120:	6d430031 	stclvs	0, cr0, [r3, #-196]	; 0xffffff3c
    2124:	67655275 			; <UNDEFINED> instruction: 0x67655275
    2128:	6c6c505f 	stclvs	0, cr5, [ip], #-380	; 0xfffffe84
    212c:	5f30435f 	svcpl	0x0030435f
    2130:	5f676643 	svcpl	0x00676643
    2134:	00706d74 	rsbseq	r6, r0, r4, ror sp
    2138:	6d617264 	sfmvs	f7, 2, [r1, #-400]!	; 0xfffffe70
    213c:	6766635f 			; <UNDEFINED> instruction: 0x6766635f
    2140:	5f737400 	svcpl	0x00737400
    2144:	006b6c63 	rsbeq	r6, fp, r3, ror #24
    2148:	3064636c 	rsbcc	r6, r4, ip, ror #6
    214c:	6b6c635f 	blvs	1b1aed0 <__bss_end+0x1b07d84>
    2150:	75706700 	ldrbvc	r6, [r0, #-1792]!	; 0x700
    2154:	6978615f 	ldmdbvs	r8!, {r0, r1, r2, r3, r4, r6, r8, sp, lr}^
    2158:	6b6c635f 	blvs	1b1aedc <__bss_end+0x1b07d90>
    215c:	66646d00 	strbtvs	r6, [r4], -r0, lsl #26
    2160:	6c635f73 	stclvs	15, cr5, [r3], #-460	; 0xfffffe34
    2164:	6465006b 	strbtvs	r0, [r5], #-107	; 0x6b
    2168:	63735f70 	cmnvs	r3, #448	; 0x1c0
    216c:	635f6b6c 	cmpvs	pc, #110592	; 0x1b000
    2170:	61006766 	tstvs	r0, r6, ror #14
    2174:	5f306268 	svcpl	0x00306268
    2178:	00747372 	rsbseq	r7, r4, r2, ror r3

Disassembly of section .comment:

00000000 <.comment>:
   0:	3a434347 	bcc	10d0d24 <__bss_end+0x10bdbd8>
   4:	72632820 	rsbvc	r2, r3, #2097152	; 0x200000
   8:	7473736f 	ldrbtvc	r7, [r3], #-879	; 0x36f
   c:	2d6c6f6f 	stclcs	15, cr6, [ip, #-444]!	; 0xfffffe44
  10:	6c20474e 	stcvs	7, cr4, [r0], #-312	; 0xfffffec8
  14:	72616e69 	rsbvc	r6, r1, #1680	; 0x690
  18:	2e312d6f 	cdpcs	13, 3, cr2, cr1, cr15, {3}
  1c:	312e3331 	teqcc	lr, r1, lsr r3
  20:	3130322d 	teqcc	r0, sp, lsr #4
  24:	32302e32 	eorscc	r2, r0, #800	; 0x320
  28:	3130322d 	teqcc	r0, sp, lsr #4
  2c:	32323032 	eorscc	r3, r2, #50	; 0x32
  30:	202d2032 	eorcs	r2, sp, r2, lsr r0
  34:	616e694c 	cmnvs	lr, ip, asr #18
  38:	47206f72 			; <UNDEFINED> instruction: 0x47206f72
  3c:	32204343 	eorcc	r4, r0, #201326593	; 0xc000001
  40:	2e323130 	mrccs	1, 1, r3, cr2, cr0, {1}
  44:	20293230 	eorcs	r3, r9, r0, lsr r2
  48:	2e362e34 	mrccs	14, 1, r2, cr6, cr4, {1}
  4c:	30322033 	eorscc	r2, r2, r3, lsr r0
  50:	32303231 	eorscc	r3, r0, #268435459	; 0x10000003
  54:	28203130 	stmdacs	r0!, {r4, r5, r8, ip, sp}
  58:	72657270 	rsbvc	r7, r5, #7
  5c:	61656c65 	cmnvs	r5, r5, ror #24
  60:	00296573 	eoreq	r6, r9, r3, ror r5

Disassembly of section .ARM.attributes:

00000000 <.ARM.attributes>:
   0:	00003241 	andeq	r3, r0, r1, asr #4
   4:	61656100 	cmnvs	r5, r0, lsl #2
   8:	01006962 	tsteq	r0, r2, ror #18
   c:	00000028 	andeq	r0, r0, r8, lsr #32
  10:	412d3705 	teqmi	sp, r5, lsl #14
  14:	070a0600 	streq	r0, [sl, -r0, lsl #12]
  18:	09010841 	stmdbeq	r1, {r0, r6, fp}
  1c:	12040a02 	andne	r0, r4, #8192	; 0x2000
  20:	15011404 	strne	r1, [r1, #-1028]	; 0x404
  24:	18031701 	stmdane	r3, {r0, r8, r9, sl, ip}
  28:	1b021a01 	blne	86834 <__bss_end+0x736e8>
  2c:	22021e03 	andcs	r1, r2, #48	; 0x30
  30:	Address 0x00000030 is out of bounds.


Disassembly of section .debug_aranges:

00000000 <.debug_aranges>:
   0:	0000001c 	andeq	r0, r0, ip, lsl r0
   4:	01400002 	cmpeq	r0, r2
   8:	00040000 	andeq	r0, r4, r0
   c:	00000000 	andeq	r0, r0, r0
  10:	00010030 	andeq	r0, r1, r0, lsr r0
  14:	0000004c 	andeq	r0, r0, ip, asr #32
	...
  20:	0000001c 	andeq	r0, r0, ip, lsl r0
  24:	01c80002 	biceq	r0, r8, r2
  28:	00040000 	andeq	r0, r4, r0
  2c:	00000000 	andeq	r0, r0, r0
  30:	0001007c 	andeq	r0, r1, ip, ror r0
  34:	00000028 	andeq	r0, r0, r8, lsr #32
	...
  40:	0000001c 	andeq	r0, r0, ip, lsl r0
  44:	02f60002 	rscseq	r0, r6, #2
  48:	00040000 	andeq	r0, r4, r0
  4c:	00000000 	andeq	r0, r0, r0
  50:	000100a4 	andeq	r0, r1, r4, lsr #1
  54:	00000028 	andeq	r0, r0, r8, lsr #32
	...
  60:	0000001c 	andeq	r0, r0, ip, lsl r0
  64:	04aa0002 	strteq	r0, [sl], #2
  68:	00040000 	andeq	r0, r4, r0
  6c:	00000000 	andeq	r0, r0, r0
  70:	000100cc 	andeq	r0, r1, ip, asr #1
  74:	00000218 	andeq	r0, r0, r8, lsl r2
	...
  80:	0000001c 	andeq	r0, r0, ip, lsl r0
  84:	2e800002 	cdpcs	0, 8, cr0, cr0, cr2, {0}
  88:	00040000 	andeq	r0, r4, r0
  8c:	00000000 	andeq	r0, r0, r0
  90:	000102e4 	andeq	r0, r1, r4, ror #5
  94:	00000344 	andeq	r0, r0, r4, asr #6
	...
  a0:	0000001c 	andeq	r0, r0, ip, lsl r0
  a4:	31ec0002 	mvncc	r0, r2
  a8:	00040000 	andeq	r0, r4, r0
  ac:	00000000 	andeq	r0, r0, r0
  b0:	00010628 	andeq	r0, r1, r8, lsr #12
  b4:	000001bc 			; <UNDEFINED> instruction: 0x000001bc
	...
  c0:	0000001c 	andeq	r0, r0, ip, lsl r0
  c4:	365d0002 	ldrbcc	r0, [sp], -r2
  c8:	00040000 	andeq	r0, r4, r0
  cc:	00000000 	andeq	r0, r0, r0
  d0:	00010800 	andeq	r0, r1, r0, lsl #16
  d4:	000000a0 	andeq	r0, r0, r0, lsr #1
	...
  e0:	0000001c 	andeq	r0, r0, ip, lsl r0
  e4:	37a50002 	strcc	r0, [r5, r2]!
  e8:	00040000 	andeq	r0, r4, r0
  ec:	00000000 	andeq	r0, r0, r0
  f0:	000108a0 	andeq	r0, r1, r0, lsr #17
  f4:	00000528 	andeq	r0, r0, r8, lsr #10
	...
 100:	0000001c 	andeq	r0, r0, ip, lsl r0
 104:	382a0002 	stmdacc	sl!, {r1}
 108:	00040000 	andeq	r0, r4, r0
 10c:	00000000 	andeq	r0, r0, r0
 110:	00010de0 	andeq	r0, r1, r0, ror #27
 114:	000002dc 	ldrdeq	r0, [r0], -ip
	...
 120:	0000001c 	andeq	r0, r0, ip, lsl r0
 124:	3d4a0002 	stclcc	0, cr0, [sl, #-8]
 128:	00040000 	andeq	r0, r4, r0
 12c:	00000000 	andeq	r0, r0, r0
 130:	000110bc 	strheq	r1, [r1], -ip
 134:	0000043c 	andeq	r0, r0, ip, lsr r4
	...
 140:	0000001c 	andeq	r0, r0, ip, lsl r0
 144:	67f80002 	ldrbvs	r0, [r8, r2]!
 148:	00040000 	andeq	r0, r4, r0
 14c:	00000000 	andeq	r0, r0, r0
 150:	000114f8 	strdeq	r1, [r1], -r8
 154:	000007ec 	andeq	r0, r0, ip, ror #15
	...
 160:	0000001c 	andeq	r0, r0, ip, lsl r0
 164:	6fcf0002 	svcvs	0x00cf0002
 168:	00040000 	andeq	r0, r4, r0
 16c:	00000000 	andeq	r0, r0, r0
 170:	00011ce4 	andeq	r1, r1, r4, ror #25
 174:	000001dc 	ldrdeq	r0, [r0], -ip
	...
 180:	0000001c 	andeq	r0, r0, ip, lsl r0
 184:	70500002 	subsvc	r0, r0, r2
 188:	00040000 	andeq	r0, r4, r0
 18c:	00000000 	andeq	r0, r0, r0
 190:	00011ec0 	andeq	r1, r1, r0, asr #29
 194:	00000058 	andeq	r0, r0, r8, asr r0
	...
 1a0:	0000001c 	andeq	r0, r0, ip, lsl r0
 1a4:	71430002 	cmpvc	r3, r2
 1a8:	00040000 	andeq	r0, r4, r0
 1ac:	00000000 	andeq	r0, r0, r0
 1b0:	00011f18 	andeq	r1, r1, r8, lsl pc
 1b4:	0000018c 	andeq	r0, r0, ip, lsl #3
	...
 1c0:	0000001c 	andeq	r0, r0, ip, lsl r0
 1c4:	73220002 	teqvc	r2, #2
 1c8:	00040000 	andeq	r0, r4, r0
 1cc:	00000000 	andeq	r0, r0, r0
 1d0:	000120a4 	andeq	r2, r1, r4, lsr #1
 1d4:	0000019c 	muleq	r0, ip, r1
	...
 1e0:	0000001c 	andeq	r0, r0, ip, lsl r0
 1e4:	770f0002 	strvc	r0, [pc, -r2]
 1e8:	00040000 	andeq	r0, r4, r0
 1ec:	00000000 	andeq	r0, r0, r0
 1f0:	00012240 	andeq	r2, r1, r0, asr #4
 1f4:	00000058 	andeq	r0, r0, r8, asr r0
	...
 200:	0000001c 	andeq	r0, r0, ip, lsl r0
 204:	78550002 	ldmdavc	r5, {r1}^
 208:	00040000 	andeq	r0, r4, r0
 20c:	00000000 	andeq	r0, r0, r0
 210:	00012298 	muleq	r1, r8, r2
 214:	00000168 	andeq	r0, r0, r8, ror #2
	...
 220:	0000001c 	andeq	r0, r0, ip, lsl r0
 224:	7ae40002 	bvc	ff900234 <__bss_end+0xff8ed0e8>
 228:	00040000 	andeq	r0, r4, r0
 22c:	00000000 	andeq	r0, r0, r0
 230:	00012400 	andeq	r2, r1, r0, lsl #8
 234:	00000868 	andeq	r0, r0, r8, ror #16
	...

Disassembly of section .debug_loc:

00000000 <.debug_loc>:
       0:	00000000 	andeq	r0, r0, r0
       4:	00000014 	andeq	r0, r0, r4, lsl r0
       8:	00500001 	subseq	r0, r0, r1
	...
      14:	14000000 	strne	r0, [r0], #-0
      18:	01000000 	mrseq	r0, (UNDEF: 0)
      1c:	00005100 	andeq	r5, r0, r0, lsl #2
	...
      28:	00040000 	andeq	r0, r4, r0
      2c:	00010000 	andeq	r0, r1, r0
      30:	00000452 	andeq	r0, r0, r2, asr r4
      34:	00000800 	andeq	r0, r0, r0, lsl #16
      38:	72000300 	andvc	r0, r0, #0
      3c:	00089f7d 	andeq	r9, r8, sp, ror pc
      40:	00140000 	andseq	r0, r4, r0
      44:	00010000 	andeq	r0, r1, r0
      48:	00000052 	andeq	r0, r0, r2, asr r0
      4c:	00000000 	andeq	r0, r0, r0
      50:	00000800 	andeq	r0, r0, r0, lsl #16
      54:	00001400 	andeq	r1, r0, r0, lsl #8
      58:	51000100 	mrspl	r0, (UNDEF: 16)
	...
      68:	00000004 	andeq	r0, r0, r4
      6c:	007d0002 	rsbseq	r0, sp, r2
      70:	00000004 	andeq	r0, r0, r4
      74:	000000e8 	andeq	r0, r0, r8, ror #1
      78:	087d0002 	ldmdaeq	sp!, {r1}^
	...
      84:	000000e8 	andeq	r0, r0, r8, ror #1
      88:	000000ec 	andeq	r0, r0, ip, ror #1
      8c:	007d0002 	rsbseq	r0, sp, r2
      90:	000000ec 	andeq	r0, r0, ip, ror #1
      94:	00000218 	andeq	r0, r0, r8, lsl r2
      98:	107d0002 	rsbsne	r0, sp, r2
	...
      a4:	00000128 	andeq	r0, r0, r8, lsr #2
      a8:	0000012b 	andeq	r0, r0, fp, lsr #2
      ac:	2b500001 	blcs	14000b8 <__bss_end+0x13ecf6c>
      b0:	d0000001 	andle	r0, r0, r1
      b4:	01000001 	tsteq	r0, r1
      b8:	02005400 	andeq	r5, r0, #0
      bc:	02180000 	andseq	r0, r8, #0
      c0:	00010000 	andeq	r0, r1, r0
      c4:	00000054 	andeq	r0, r0, r4, asr r0
      c8:	00000000 	andeq	r0, r0, r0
      cc:	0000e800 	andeq	lr, r0, r0, lsl #16
      d0:	0000f000 	andeq	pc, r0, r0
      d4:	30000200 	andcc	r0, r0, r0, lsl #4
      d8:	0000f09f 	muleq	r0, pc, r0	; <UNPREDICTABLE>
      dc:	0000f400 	andeq	pc, r0, r0, lsl #8
      e0:	70000500 	andvc	r0, r0, r0, lsl #10
      e4:	9f1a3300 	svcls	0x001a3300
      e8:	000000f4 	strdeq	r0, [r0], -r4
      ec:	0000011c 	andeq	r0, r0, ip, lsl r1
      f0:	1c500001 	mrrcne	0, 0, r0, r0, cr1	; <UNPREDICTABLE>
      f4:	1f000001 	svcne	0x00000001
      f8:	02000001 	andeq	r0, r0, #1
      fc:	d07c7300 	rsbsle	r7, ip, r0, lsl #6
     100:	00000001 	andeq	r0, r0, r1
     104:	01000002 	tsteq	r0, r2
     108:	00005000 	andeq	r5, r0, r0
	...
     114:	00040000 	andeq	r0, r4, r0
     118:	00020000 	andeq	r0, r2, r0
     11c:	0004007d 	andeq	r0, r4, sp, ror r0
     120:	00200000 	eoreq	r0, r0, r0
     124:	00020000 	andeq	r0, r2, r0
     128:	0000087d 	andeq	r0, r0, sp, ror r8
     12c:	00000000 	andeq	r0, r0, r0
     130:	00700000 	rsbseq	r0, r0, r0
     134:	00740000 	rsbseq	r0, r4, r0
     138:	00020000 	andeq	r0, r2, r0
     13c:	0074007d 	rsbseq	r0, r4, sp, ror r0
     140:	01000000 	mrseq	r0, (UNDEF: 0)
     144:	00020000 	andeq	r0, r2, r0
     148:	0000087d 	andeq	r0, r0, sp, ror r8
     14c:	00000000 	andeq	r0, r0, r0
     150:	00700000 	rsbseq	r0, r0, r0
     154:	009c0000 	addseq	r0, ip, r0
     158:	00020000 	andeq	r0, r2, r0
     15c:	00009f31 	andeq	r9, r0, r1, lsr pc
     160:	00000000 	andeq	r0, r0, r0
     164:	01040000 	mrseq	r0, (UNDEF: 4)
     168:	01080000 	mrseq	r0, (UNDEF: 8)
     16c:	00020000 	andeq	r0, r2, r0
     170:	0108007d 	tsteq	r8, sp, ror r0
     174:	010c0000 	mrseq	r0, (UNDEF: 12)
     178:	00020000 	andeq	r0, r2, r0
     17c:	010c047d 	tsteq	ip, sp, ror r4
     180:	01900000 	orrseq	r0, r0, r0
     184:	00020000 	andeq	r0, r2, r0
     188:	0000107d 	andeq	r1, r0, sp, ror r0
     18c:	00000000 	andeq	r0, r0, r0
     190:	01040000 	mrseq	r0, (UNDEF: 4)
     194:	01180000 	tsteq	r8, r0
     198:	00010000 	andeq	r0, r1, r0
     19c:	00011850 	andeq	r1, r1, r0, asr r8
     1a0:	00019000 	andeq	r9, r1, r0
     1a4:	91000200 	mrsls	r0, R8_usr
     1a8:	0000006c 	andeq	r0, r0, ip, rrx
     1ac:	00000000 	andeq	r0, r0, r0
     1b0:	00019000 	andeq	r9, r1, r0
     1b4:	00019400 	andeq	r9, r1, r0, lsl #8
     1b8:	7d000200 	sfmvc	f0, 4, [r0, #-0]
     1bc:	00019400 	andeq	r9, r1, r0, lsl #8
     1c0:	0001dc00 	andeq	sp, r1, r0, lsl #24
     1c4:	7d000200 	sfmvc	f0, 4, [r0, #-0]
     1c8:	00000008 	andeq	r0, r0, r8
     1cc:	00000000 	andeq	r0, r0, r0
     1d0:	00019000 	andeq	r9, r1, r0
     1d4:	0001d400 	andeq	sp, r1, r0, lsl #8
     1d8:	30000200 	andcc	r0, r0, r0, lsl #4
     1dc:	0001d49f 	muleq	r1, pc, r4	; <UNPREDICTABLE>
     1e0:	0001dc00 	andeq	sp, r1, r0, lsl #24
     1e4:	03000c00 	movweq	r0, #3072	; 0xc00
     1e8:	00012d84 	andeq	r2, r1, r4, lsl #27
     1ec:	24480194 	strbcs	r0, [r8], #-404	; 0x194
     1f0:	009f2548 	addseq	r2, pc, r8, asr #10
     1f4:	00000000 	andeq	r0, r0, r0
     1f8:	dc000000 	stcle	0, cr0, [r0], {-0}
     1fc:	e0000001 	and	r0, r0, r1
     200:	02000001 	andeq	r0, r0, #1
     204:	e0007d00 	and	r7, r0, r0, lsl #26
     208:	44000001 	strmi	r0, [r0], #-1
     20c:	02000002 	andeq	r0, r0, #2
     210:	00107d00 	andseq	r7, r0, r0, lsl #26
     214:	00000000 	andeq	r0, r0, r0
     218:	dc000000 	stcle	0, cr0, [r0], {-0}
     21c:	e8000001 	stmda	r0, {r0}
     220:	02000001 	andeq	r0, r0, #1
     224:	309f3100 	addscc	r3, pc, r0, lsl #2
     228:	44000002 	strmi	r0, [r0], #-2
     22c:	01000002 	tsteq	r0, r2
     230:	00005500 	andeq	r5, r0, r0, lsl #10
     234:	00000000 	andeq	r0, r0, r0
     238:	01dc0000 	bicseq	r0, ip, r0
     23c:	01e80000 	mvneq	r0, r0
     240:	00020000 	andeq	r0, r2, r0
     244:	021c9f30 	andseq	r9, ip, #192	; 0xc0
     248:	022f0000 	eoreq	r0, pc, #0
     24c:	000c0000 	andeq	r0, ip, r0
     250:	012d8403 	teqeq	sp, r3, lsl #8
     254:	48019400 	stmdami	r1, {sl, ip, pc}
     258:	9f254824 	svcls	0x00254824
	...
     264:	00000244 	andeq	r0, r0, r4, asr #4
     268:	00000248 	andeq	r0, r0, r8, asr #4
     26c:	007d0002 	rsbseq	r0, sp, r2
     270:	00000248 	andeq	r0, r0, r8, asr #4
     274:	0000024c 	andeq	r0, r0, ip, asr #4
     278:	087d0002 	ldmdaeq	sp!, {r1}^
     27c:	0000024c 	andeq	r0, r0, ip, asr #4
     280:	000002c8 	andeq	r0, r0, r8, asr #5
     284:	107d0002 	rsbsne	r0, sp, r2
	...
     290:	00000244 	andeq	r0, r0, r4, asr #4
     294:	00000258 	andeq	r0, r0, r8, asr r2
     298:	58500001 	ldmdapl	r0, {r0}^
     29c:	c8000002 	stmdagt	r0, {r1}
     2a0:	02000002 	andeq	r0, r0, #2
     2a4:	006c9100 	rsbeq	r9, ip, r0, lsl #2
     2a8:	00000000 	andeq	r0, r0, r0
     2ac:	10000000 	andne	r0, r0, r0
     2b0:	14000003 	strne	r0, [r0], #-3
     2b4:	02000003 	andeq	r0, r0, #3
     2b8:	14007d00 	strne	r7, [r0], #-3328	; 0xd00
     2bc:	44000003 	strmi	r0, [r0], #-3
     2c0:	02000003 	andeq	r0, r0, #3
     2c4:	00107d00 	andseq	r7, r0, r0, lsl #26
     2c8:	00000000 	andeq	r0, r0, r0
     2cc:	10000000 	andne	r0, r0, r0
     2d0:	28000003 	stmdacs	r0, {r0, r1}
     2d4:	01000003 	tsteq	r0, r3
     2d8:	00005000 	andeq	r5, r0, r0
     2dc:	00000000 	andeq	r0, r0, r0
     2e0:	032c0000 	teqeq	ip, #0
     2e4:	033c0000 	teqeq	ip, #0
     2e8:	00010000 	andeq	r0, r1, r0
     2ec:	00033c56 	andeq	r3, r3, r6, asr ip
     2f0:	00034400 	andeq	r4, r3, r0, lsl #8
     2f4:	55000100 	strpl	r0, [r0, #-256]	; 0x100
	...
     304:	00000008 	andeq	r0, r0, r8
     308:	00500001 	subseq	r0, r0, r1
	...
     314:	0c000000 	stceq	0, cr0, [r0], {-0}
     318:	02000000 	andeq	r0, r0, #0
     31c:	0c9f3100 	ldfeqs	f3, [pc], {0}
     320:	14000000 	strne	r0, [r0], #-0
     324:	01000000 	mrseq	r0, (UNDEF: 0)
     328:	00145000 	andseq	r5, r4, r0
     32c:	00180000 	andseq	r0, r8, r0
     330:	00050000 	andeq	r0, r5, r0
     334:	21400070 	hvccs	0
     338:	0000189f 	muleq	r0, pc, r8	; <UNPREDICTABLE>
     33c:	00001c00 	andeq	r1, r0, r0, lsl #24
     340:	50000100 	andpl	r0, r0, r0, lsl #2
     344:	0000001c 	andeq	r0, r0, ip, lsl r0
     348:	0000002c 	andeq	r0, r0, ip, lsr #32
     34c:	049e0006 	ldreq	r0, [lr], #6
     350:	8000000f 	andhi	r0, r0, pc
	...
     35c:	00000074 	andeq	r0, r0, r4, ror r0
     360:	00000078 	andeq	r0, r0, r8, ror r0
     364:	9f300002 	svcls	0x00300002
     368:	00000078 	andeq	r0, r0, r8, ror r0
     36c:	0000007c 	andeq	r0, r0, ip, ror r0
     370:	00730005 	rsbseq	r0, r3, r5
     374:	7c9f2134 	ldfvcs	f2, [pc], {52}	; 0x34
     378:	84000000 	strhi	r0, [r0], #-0
     37c:	01000000 	mrseq	r0, (UNDEF: 0)
     380:	00005300 	andeq	r5, r0, r0, lsl #6
     384:	00000000 	andeq	r0, r0, r0
     388:	00840000 	addeq	r0, r4, r0
     38c:	00880000 	addeq	r0, r8, r0
     390:	00020000 	andeq	r0, r2, r0
     394:	0088007d 	addeq	r0, r8, sp, ror r0
     398:	00ac0000 	adceq	r0, ip, r0
     39c:	00020000 	andeq	r0, r2, r0
     3a0:	0000087d 	andeq	r0, r0, sp, ror r8
     3a4:	00000000 	andeq	r0, r0, r0
     3a8:	00840000 	addeq	r0, r4, r0
     3ac:	008c0000 	addeq	r0, ip, r0
     3b0:	00020000 	andeq	r0, r2, r0
     3b4:	00009f30 	andeq	r9, r0, r0, lsr pc
     3b8:	00000000 	andeq	r0, r0, r0
     3bc:	008c0000 	addeq	r0, ip, r0
     3c0:	00980000 	addseq	r0, r8, r0
     3c4:	00010000 	andeq	r0, r1, r0
     3c8:	00000053 	andeq	r0, r0, r3, asr r0
     3cc:	00000000 	andeq	r0, r0, r0
     3d0:	00009000 	andeq	r9, r0, r0
     3d4:	0000a300 	andeq	sl, r0, r0, lsl #6
     3d8:	52000100 	andpl	r0, r0, #0
	...
     3e4:	000000ac 	andeq	r0, r0, ip, lsr #1
     3e8:	000000b0 	strheq	r0, [r0], -r0	; <UNPREDICTABLE>
     3ec:	007d0002 	rsbseq	r0, sp, r2
     3f0:	000000b0 	strheq	r0, [r0], -r0	; <UNPREDICTABLE>
     3f4:	0000012c 	andeq	r0, r0, ip, lsr #2
     3f8:	107d0002 	rsbsne	r0, sp, r2
	...
     404:	000000ac 	andeq	r0, r0, ip, lsr #1
     408:	000000bc 	strheq	r0, [r0], -ip
     40c:	bc500001 	mrrclt	0, 0, r0, r0, cr1	; <UNPREDICTABLE>
     410:	c4000000 	strgt	r0, [r0], #-0
     414:	01000000 	mrseq	r0, (UNDEF: 0)
     418:	00d05500 	sbcseq	r5, r0, r0, lsl #10
     41c:	00e40000 	rsceq	r0, r4, r0
     420:	00010000 	andeq	r0, r1, r0
     424:	00000055 	andeq	r0, r0, r5, asr r0
     428:	00000000 	andeq	r0, r0, r0
     42c:	0000ac00 	andeq	sl, r0, r0, lsl #24
     430:	0000c400 	andeq	ip, r0, r0, lsl #8
     434:	30000200 	andcc	r0, r0, r0, lsl #4
     438:	0000d09f 	muleq	r0, pc, r0	; <UNPREDICTABLE>
     43c:	0000d800 	andeq	sp, r0, r0, lsl #16
     440:	30000200 	andcc	r0, r0, r0, lsl #4
     444:	0000d89f 	muleq	r0, pc, r8	; <UNPREDICTABLE>
     448:	0000e400 	andeq	lr, r0, r0, lsl #8
     44c:	70000600 	andvc	r0, r0, r0, lsl #12
     450:	1e007501 	cfsh32ne	mvfx7, mvfx0, #1
     454:	0000009f 	muleq	r0, pc, r0	; <UNPREDICTABLE>
     458:	00000000 	andeq	r0, r0, r0
     45c:	0000ac00 	andeq	sl, r0, r0, lsl #24
     460:	0000c400 	andeq	ip, r0, r0, lsl #8
     464:	30000200 	andcc	r0, r0, r0, lsl #4
     468:	0000d09f 	muleq	r0, pc, r0	; <UNPREDICTABLE>
     46c:	0000dc00 	andeq	sp, r0, r0, lsl #24
     470:	30000200 	andcc	r0, r0, r0, lsl #4
     474:	0001109f 	muleq	r1, pc, r0	; <UNPREDICTABLE>
     478:	00011400 	andeq	r1, r1, r0, lsl #8
     47c:	53000100 	movwpl	r0, #256	; 0x100
     480:	00000118 	andeq	r0, r0, r8, lsl r1
     484:	0000011c 	andeq	r0, r0, ip, lsl r1
     488:	00530001 	subseq	r0, r3, r1
     48c:	00000000 	andeq	r0, r0, r0
     490:	ac000000 	stcge	0, cr0, [r0], {-0}
     494:	c4000000 	strgt	r0, [r0], #-0
     498:	02000000 	andeq	r0, r0, #0
     49c:	d09f3000 	addsle	r3, pc, r0
     4a0:	ec000000 	stc	0, cr0, [r0], {-0}
     4a4:	02000000 	andeq	r0, r0, #0
     4a8:	ec9f3000 	ldc	0, cr3, [pc], {0}
     4ac:	2c000000 	stccs	0, cr0, [r0], {-0}
     4b0:	01000001 	tsteq	r0, r1
     4b4:	00005500 	andeq	r5, r0, r0, lsl #10
     4b8:	00000000 	andeq	r0, r0, r0
     4bc:	00ac0000 	adceq	r0, ip, r0
     4c0:	00c40000 	sbceq	r0, r4, r0
     4c4:	00020000 	andeq	r0, r2, r0
     4c8:	00d09f30 	sbcseq	r9, r0, r0, lsr pc
     4cc:	00f00000 	rscseq	r0, r0, r0
     4d0:	00020000 	andeq	r0, r2, r0
     4d4:	00f09f30 	rscseq	r9, r0, r0, lsr pc
     4d8:	00f40000 	rscseq	r0, r4, r0
     4dc:	00010000 	andeq	r0, r1, r0
     4e0:	00000052 	andeq	r0, r0, r2, asr r0
     4e4:	00000000 	andeq	r0, r0, r0
     4e8:	0000fc00 	andeq	pc, r0, r0, lsl #24
     4ec:	00011400 	andeq	r1, r1, r0, lsl #8
     4f0:	30000200 	andcc	r0, r0, r0, lsl #4
     4f4:	0000009f 	muleq	r0, pc, r0	; <UNPREDICTABLE>
     4f8:	00000000 	andeq	r0, r0, r0
     4fc:	0000fc00 	andeq	pc, r0, r0, lsl #24
     500:	00011400 	andeq	r1, r1, r0, lsl #8
     504:	31000200 	mrscc	r0, R8_usr
     508:	0000009f 	muleq	r0, pc, r0	; <UNPREDICTABLE>
     50c:	00000000 	andeq	r0, r0, r0
     510:	0000fc00 	andeq	pc, r0, r0, lsl #24
     514:	00010400 	andeq	r0, r1, r0, lsl #8
     518:	47000200 	strmi	r0, [r0, -r0, lsl #4]
     51c:	0001049f 	muleq	r1, pc, r4	; <UNPREDICTABLE>
     520:	00011400 	andeq	r1, r1, r0, lsl #8
     524:	9e000600 	cfmadd32ls	mvax0, mvfx0, mvfx0, mvfx0
     528:	00000f04 	andeq	r0, r0, r4, lsl #30
     52c:	00000080 	andeq	r0, r0, r0, lsl #1
     530:	00000000 	andeq	r0, r0, r0
     534:	00011800 	andeq	r1, r1, r0, lsl #16
     538:	00011c00 	andeq	r1, r1, r0, lsl #24
     53c:	53000100 	movwpl	r0, #256	; 0x100
	...
     548:	0000012c 	andeq	r0, r0, ip, lsr #2
     54c:	00000134 	andeq	r0, r0, r4, lsr r1
     550:	00500001 	subseq	r0, r0, r1
     554:	00000000 	andeq	r0, r0, r0
     558:	38000000 	stmdacc	r0, {}	; <UNPREDICTABLE>
     55c:	40000001 	andmi	r0, r0, r1
     560:	01000001 	tsteq	r0, r1
     564:	00005000 	andeq	r5, r0, r0
     568:	00000000 	andeq	r0, r0, r0
     56c:	01380000 	teqeq	r8, r0
     570:	01440000 	mrseq	r0, (UNDEF: 68)
     574:	00020000 	andeq	r0, r2, r0
     578:	01449f31 	cmpeq	r4, r1, lsr pc
     57c:	014c0000 	mrseq	r0, (UNDEF: 76)
     580:	00010000 	andeq	r0, r1, r0
     584:	00014c50 	andeq	r4, r1, r0, asr ip
     588:	00015000 	andeq	r5, r1, r0
     58c:	70000500 	andvc	r0, r0, r0, lsl #10
     590:	9f214000 	svcls	0x00214000
     594:	00000150 	andeq	r0, r0, r0, asr r1
     598:	00000154 	andeq	r0, r0, r4, asr r1
     59c:	54500001 	ldrbpl	r0, [r0], #-1
     5a0:	64000001 	strvs	r0, [r0], #-1
     5a4:	06000001 	streq	r0, [r0], -r1
     5a8:	0f049e00 	svceq	0x00049e00
     5ac:	00800000 	addeq	r0, r0, r0
     5b0:	00000000 	andeq	r0, r0, r0
     5b4:	64000000 	strvs	r0, [r0], #-0
     5b8:	74000001 	strvc	r0, [r0], #-1
     5bc:	02000001 	andeq	r0, r0, #1
     5c0:	009f3000 	addseq	r3, pc, r0
     5c4:	00000000 	andeq	r0, r0, r0
     5c8:	90000000 	andls	r0, r0, r0
     5cc:	94000001 	strls	r0, [r0], #-1
     5d0:	01000001 	tsteq	r0, r1
     5d4:	01ac5000 			; <UNDEFINED> instruction: 0x01ac5000
     5d8:	01bc0000 			; <UNDEFINED> instruction: 0x01bc0000
     5dc:	00030000 	andeq	r0, r3, r0
     5e0:	009f0270 	addseq	r0, pc, r0, ror r2	; <UNPREDICTABLE>
     5e4:	00000000 	andeq	r0, r0, r0
     5e8:	90000000 	andls	r0, r0, r0
     5ec:	a4000001 	strge	r0, [r0], #-1
     5f0:	02000001 	andeq	r0, r0, #1
     5f4:	a49f3000 	ldrge	r3, [pc], #0	; 5fc <__resume1_start+0x5fc>
     5f8:	bc000001 	stclt	0, cr0, [r0], {1}
     5fc:	01000001 	tsteq	r0, r1
     600:	00005300 	andeq	r5, r0, r0, lsl #6
     604:	00000000 	andeq	r0, r0, r0
     608:	01900000 	orrseq	r0, r0, r0
     60c:	01ac0000 			; <UNDEFINED> instruction: 0x01ac0000
     610:	00020000 	andeq	r0, r2, r0
     614:	01ac9f30 			; <UNDEFINED> instruction: 0x01ac9f30
     618:	01bc0000 			; <UNDEFINED> instruction: 0x01bc0000
     61c:	00010000 	andeq	r0, r1, r0
     620:	00000050 	andeq	r0, r0, r0, asr r0
     624:	00000000 	andeq	r0, r0, r0
     628:	00019000 	andeq	r9, r1, r0
     62c:	00019400 	andeq	r9, r1, r0, lsl #8
     630:	50000100 	andpl	r0, r0, r0, lsl #2
     634:	00000194 	muleq	r0, r4, r1
     638:	000001bc 			; <UNDEFINED> instruction: 0x000001bc
     63c:	02700003 	rsbseq	r0, r0, #3
     640:	0000009f 	muleq	r0, pc, r0	; <UNPREDICTABLE>
     644:	00000000 	andeq	r0, r0, r0
     648:	0001ec00 	andeq	lr, r1, r0, lsl #24
     64c:	0001f000 	andeq	pc, r1, r0
     650:	72000600 	andvc	r0, r0, #0
     654:	1afc0900 	bne	fff02a5c <__bss_end+0xffeef910>
     658:	0001f09f 	muleq	r1, pc, r0	; <UNPREDICTABLE>
     65c:	0001f800 	andeq	pc, r1, r0, lsl #16
     660:	52000100 	andpl	r0, r0, #0
	...
     66c:	000002cc 	andeq	r0, r0, ip, asr #5
     670:	000002d0 	ldrdeq	r0, [r0], -r0	; <UNPREDICTABLE>
     674:	9f300002 	svcls	0x00300002
     678:	000002d0 	ldrdeq	r0, [r0], -r0	; <UNPREDICTABLE>
     67c:	000002dc 	ldrdeq	r0, [r0], -ip
     680:	00530001 	subseq	r0, r3, r1
	...
     68c:	04000000 	streq	r0, [r0], #-0
     690:	02000000 	andeq	r0, r0, #0
     694:	04007d00 	streq	r7, [r0], #-3328	; 0xd00
     698:	d4000000 	strle	r0, [r0], #-0
     69c:	02000000 	andeq	r0, r0, #0
     6a0:	00107d00 	andseq	r7, r0, r0, lsl #26
	...
     6ac:	0b000000 	bleq	6b4 <__resume1_start+0x6b4>
     6b0:	01000000 	mrseq	r0, (UNDEF: 0)
     6b4:	000b5000 	andeq	r5, fp, r0
     6b8:	00480000 	subeq	r0, r8, r0
     6bc:	00010000 	andeq	r0, r1, r0
     6c0:	00008c54 	andeq	r8, r0, r4, asr ip
     6c4:	00009000 	andeq	r9, r0, r0
     6c8:	54000100 	strpl	r0, [r0], #-256	; 0x100
	...
     6d8:	0000001c 	andeq	r0, r0, ip, lsl r0
     6dc:	9f300002 	svcls	0x00300002
	...
     6e8:	00000040 	andeq	r0, r0, r0, asr #32
     6ec:	00000060 	andeq	r0, r0, r0, rrx
     6f0:	60500001 	subsvs	r0, r0, r1
     6f4:	d4000000 	strle	r0, [r0], #-0
     6f8:	01000000 	mrseq	r0, (UNDEF: 0)
     6fc:	00005500 	andeq	r5, r0, r0, lsl #10
     700:	00000000 	andeq	r0, r0, r0
     704:	00440000 	subeq	r0, r4, r0
     708:	00600000 	rsbeq	r0, r0, r0
     70c:	00060000 	andeq	r0, r6, r0
     710:	0005940c 	andeq	r9, r5, ip, lsl #8
     714:	006c9f06 	rsbeq	r9, ip, r6, lsl #30
     718:	008c0000 	addeq	r0, ip, r0
     71c:	00060000 	andeq	r0, r6, r0
     720:	0005b40c 	andeq	fp, r5, ip, lsl #8
     724:	00009f06 	andeq	r9, r0, r6, lsl #30
     728:	00000000 	andeq	r0, r0, r0
     72c:	000c0000 	andeq	r0, ip, r0
     730:	001c0000 	andseq	r0, ip, r0
     734:	00010000 	andeq	r0, r1, r0
     738:	00000050 	andeq	r0, r0, r0, asr r0
     73c:	00000000 	andeq	r0, r0, r0
     740:	0000d400 	andeq	sp, r0, r0, lsl #8
     744:	0000d800 	andeq	sp, r0, r0, lsl #16
     748:	7d000200 	sfmvc	f0, 4, [r0, #-0]
     74c:	0000d800 	andeq	sp, r0, r0, lsl #16
     750:	00016400 	andeq	r6, r1, r0, lsl #8
     754:	7d000200 	sfmvc	f0, 4, [r0, #-0]
     758:	00000010 	andeq	r0, r0, r0, lsl r0
     75c:	00000000 	andeq	r0, r0, r0
     760:	00011000 	andeq	r1, r1, r0
     764:	00013800 	andeq	r3, r1, r0, lsl #16
     768:	73000500 	movwvc	r0, #1280	; 0x500
     76c:	9f254400 	svcls	0x00254400
	...
     778:	00000114 	andeq	r0, r0, r4, lsl r1
     77c:	00000130 	andeq	r0, r0, r0, lsr r1
     780:	00500001 	subseq	r0, r0, r1
     784:	00000000 	andeq	r0, r0, r0
     788:	fc000000 	stc2	0, cr0, [r0], {-0}
     78c:	04000000 	streq	r0, [r0], #-0
     790:	01000001 	tsteq	r0, r1
     794:	01045000 	mrseq	r5, (UNDEF: 4)
     798:	01140000 	tsteq	r4, r0
     79c:	00050000 	andeq	r0, r5, r0
     7a0:	47e08070 			; <UNDEFINED> instruction: 0x47e08070
     7a4:	0000009f 	muleq	r0, pc, r0	; <UNPREDICTABLE>
     7a8:	00000000 	andeq	r0, r0, r0
     7ac:	00016400 	andeq	r6, r1, r0, lsl #8
     7b0:	00017400 	andeq	r7, r1, r0, lsl #8
     7b4:	50000100 	andpl	r0, r0, r0, lsl #2
     7b8:	00000178 	andeq	r0, r0, r8, ror r1
     7bc:	00000190 	muleq	r0, r0, r1
     7c0:	dc500001 	mrrcle	0, 0, r0, r0, cr1	; <UNPREDICTABLE>
     7c4:	e0000001 	and	r0, r0, r1
     7c8:	01000001 	tsteq	r0, r1
     7cc:	00005000 	andeq	r5, r0, r0
     7d0:	00000000 	andeq	r0, r0, r0
     7d4:	019c0000 	orrseq	r0, ip, r0
     7d8:	01c00000 	biceq	r0, r0, r0
     7dc:	00010000 	andeq	r0, r1, r0
     7e0:	0001c050 	andeq	ip, r1, r0, asr r0
     7e4:	0001c400 	andeq	ip, r1, r0, lsl #8
     7e8:	72000200 	andvc	r0, r0, #0
	...
     7f4:	0001e800 	andeq	lr, r1, r0, lsl #16
     7f8:	0001f000 	andeq	pc, r1, r0
     7fc:	7d000200 	sfmvc	f0, 4, [r0, #-0]
     800:	0001f000 	andeq	pc, r1, r0
     804:	00027000 	andeq	r7, r2, r0
     808:	7d000200 	sfmvc	f0, 4, [r0, #-0]
     80c:	00000004 	andeq	r0, r0, r4
     810:	00000000 	andeq	r0, r0, r0
     814:	0001e800 	andeq	lr, r1, r0, lsl #16
     818:	0001fc00 	andeq	pc, r1, r0, lsl #24
     81c:	50000100 	andpl	r0, r0, r0, lsl #2
	...
     828:	00000208 	andeq	r0, r0, r8, lsl #4
     82c:	0000021c 	andeq	r0, r0, ip, lsl r2
     830:	9f300002 	svcls	0x00300002
     834:	00000260 	andeq	r0, r0, r0, ror #4
     838:	00000270 	andeq	r0, r0, r0, ror r2
     83c:	00540001 	subseq	r0, r4, r1
     840:	00000000 	andeq	r0, r0, r0
     844:	24000000 	strcs	r0, [r0], #-0
     848:	28000002 	stmdacs	r0, {r1}
     84c:	01000002 	tsteq	r0, r2
     850:	02285300 	eoreq	r5, r8, #0
     854:	022c0000 	eoreq	r0, ip, #0
     858:	00030000 	andeq	r0, r3, r0
     85c:	2c9f0173 	ldfcss	f0, [pc], {115}	; 0x73
     860:	40000002 	andmi	r0, r0, r2
     864:	01000002 	tsteq	r0, r2
     868:	00005300 	andeq	r5, r0, r0, lsl #6
     86c:	00000000 	andeq	r0, r0, r0
     870:	02700000 	rsbseq	r0, r0, #0
     874:	02740000 	rsbseq	r0, r4, #0
     878:	00020000 	andeq	r0, r2, r0
     87c:	0274007d 	rsbseq	r0, r4, #125	; 0x7d
     880:	03000000 	movweq	r0, #0
     884:	00020000 	andeq	r0, r2, r0
     888:	0000107d 	andeq	r1, r0, sp, ror r0
     88c:	00000000 	andeq	r0, r0, r0
     890:	02980000 	addseq	r0, r8, #0
     894:	02a00000 	adceq	r0, r0, #0
     898:	00010000 	andeq	r0, r1, r0
     89c:	0002a050 	andeq	sl, r2, r0, asr r0
     8a0:	0002b000 	andeq	fp, r2, r0
     8a4:	70000500 	andvc	r0, r0, r0, lsl #10
     8a8:	9f47e080 	svcls	0x0047e080
	...
     8b4:	000002ac 	andeq	r0, r0, ip, lsr #5
     8b8:	000002d4 	ldrdeq	r0, [r0], -r4
     8bc:	00730005 	rsbseq	r0, r3, r5
     8c0:	009f2544 	addseq	r2, pc, r4, asr #10
     8c4:	00000000 	andeq	r0, r0, r0
     8c8:	b0000000 	andlt	r0, r0, r0
     8cc:	cc000002 	stcgt	0, cr0, [r0], {2}
     8d0:	01000002 	tsteq	r0, r2
     8d4:	00005000 	andeq	r5, r0, r0
     8d8:	00000000 	andeq	r0, r0, r0
     8dc:	03300000 	teqeq	r0, #0
     8e0:	03400000 	movteq	r0, #0
     8e4:	00010000 	andeq	r0, r1, r0
     8e8:	00034450 	andeq	r4, r3, r0, asr r4
     8ec:	00035c00 	andeq	r5, r3, r0, lsl #24
     8f0:	50000100 	andpl	r0, r0, r0, lsl #2
     8f4:	000003a8 	andeq	r0, r0, r8, lsr #7
     8f8:	000003ac 	andeq	r0, r0, ip, lsr #7
     8fc:	00500001 	subseq	r0, r0, r1
     900:	00000000 	andeq	r0, r0, r0
     904:	68000000 	stmdavs	r0, {}	; <UNPREDICTABLE>
     908:	8c000003 	stchi	0, cr0, [r0], {3}
     90c:	01000003 	tsteq	r0, r3
     910:	038c5000 	orreq	r5, ip, #0
     914:	03900000 	orrseq	r0, r0, #0
     918:	00020000 	andeq	r0, r2, r0
     91c:	00000072 	andeq	r0, r0, r2, ror r0
     920:	00000000 	andeq	r0, r0, r0
     924:	03b40000 			; <UNDEFINED> instruction: 0x03b40000
     928:	03bc0000 			; <UNDEFINED> instruction: 0x03bc0000
     92c:	00020000 	andeq	r0, r2, r0
     930:	03bc007d 			; <UNDEFINED> instruction: 0x03bc007d
     934:	043c0000 	ldrteq	r0, [ip], #-0
     938:	00020000 	andeq	r0, r2, r0
     93c:	0000047d 	andeq	r0, r0, sp, ror r4
     940:	00000000 	andeq	r0, r0, r0
     944:	03b40000 			; <UNDEFINED> instruction: 0x03b40000
     948:	03c80000 	biceq	r0, r8, #0
     94c:	00010000 	andeq	r0, r1, r0
     950:	00000050 	andeq	r0, r0, r0, asr r0
     954:	00000000 	andeq	r0, r0, r0
     958:	0003d400 	andeq	sp, r3, r0, lsl #8
     95c:	0003e800 	andeq	lr, r3, r0, lsl #16
     960:	30000200 	andcc	r0, r0, r0, lsl #4
     964:	00042c9f 	muleq	r4, pc, ip	; <UNPREDICTABLE>
     968:	00043c00 	andeq	r3, r4, r0, lsl #24
     96c:	54000100 	strpl	r0, [r0], #-256	; 0x100
	...
     978:	000003f0 	strdeq	r0, [r0], -r0	; <UNPREDICTABLE>
     97c:	000003f4 	strdeq	r0, [r0], -r4
     980:	f4530001 			; <UNDEFINED> instruction: 0xf4530001
     984:	f8000003 			; <UNDEFINED> instruction: 0xf8000003
     988:	03000003 	movweq	r0, #3
     98c:	9f017300 	svcls	0x00017300
     990:	000003f8 	strdeq	r0, [r0], -r8
     994:	0000040c 	andeq	r0, r0, ip, lsl #8
     998:	00530001 	subseq	r0, r3, r1
	...
     9a4:	04000000 	streq	r0, [r0], #-0
     9a8:	02000000 	andeq	r0, r0, #0
     9ac:	04007d00 	streq	r7, [r0], #-3328	; 0xd00
     9b0:	1c000000 	stcne	0, cr0, [r0], {-0}
     9b4:	02000000 	andeq	r0, r0, #0
     9b8:	1c1c7d00 	ldcne	13, cr7, [ip], {-0}
     9bc:	bc000000 	stclt	0, cr0, [r0], {-0}
     9c0:	03000000 	movweq	r0, #0
     9c4:	00c87d00 	sbceq	r7, r8, r0, lsl #26
	...
     9d4:	0000002c 	andeq	r0, r0, ip, lsr #32
     9d8:	2c500001 	mrrccs	0, 0, r0, r0, cr1	; <UNPREDICTABLE>
     9dc:	4c000000 	stcmi	0, cr0, [r0], {-0}
     9e0:	01000000 	mrseq	r0, (UNDEF: 0)
     9e4:	004c5400 	subeq	r5, ip, r0, lsl #8
     9e8:	00500000 	subseq	r0, r0, r0
     9ec:	00010000 	andeq	r0, r1, r0
     9f0:	00007850 	andeq	r7, r0, r0, asr r8
     9f4:	0000ac00 	andeq	sl, r0, r0, lsl #24
     9f8:	50000100 	andpl	r0, r0, r0, lsl #2
	...
     a08:	0000002c 	andeq	r0, r0, ip, lsr #32
     a0c:	2c510001 	mrrccs	0, 0, r0, r1, cr1
     a10:	bc000000 	stclt	0, cr0, [r0], {-0}
     a14:	01000000 	mrseq	r0, (UNDEF: 0)
     a18:	00005700 	andeq	r5, r0, r0, lsl #14
	...
     a24:	002c0000 	eoreq	r0, ip, r0
     a28:	00010000 	andeq	r0, r1, r0
     a2c:	00002c52 	andeq	r2, r0, r2, asr ip
     a30:	0000bc00 	andeq	fp, r0, r0, lsl #24
     a34:	55000100 	strpl	r0, [r0, #-256]	; 0x100
	...
     a40:	0000004c 	andeq	r0, r0, ip, asr #32
     a44:	00000050 	andeq	r0, r0, r0, asr r0
     a48:	80530001 	subshi	r0, r3, r1
     a4c:	84000000 	strhi	r0, [r0], #-0
     a50:	01000000 	mrseq	r0, (UNDEF: 0)
     a54:	00845300 	addeq	r5, r4, r0, lsl #6
     a58:	00900000 	addseq	r0, r0, r0
     a5c:	00010000 	andeq	r0, r1, r0
     a60:	00000058 	andeq	r0, r0, r8, asr r0
     a64:	00000000 	andeq	r0, r0, r0
     a68:	00008400 	andeq	r8, r0, r0, lsl #8
     a6c:	00009000 	andeq	r9, r0, r0
     a70:	30000200 	andcc	r0, r0, r0, lsl #4
     a74:	0000009f 	muleq	r0, pc, r0	; <UNPREDICTABLE>
     a78:	00000000 	andeq	r0, r0, r0
     a7c:	0000bc00 	andeq	fp, r0, r0, lsl #24
     a80:	0000c000 	andeq	ip, r0, r0
     a84:	7d000200 	sfmvc	f0, 4, [r0, #-0]
     a88:	0000c000 	andeq	ip, r0, r0
     a8c:	0000d800 	andeq	sp, r0, r0, lsl #16
     a90:	7d000200 	sfmvc	f0, 4, [r0, #-0]
     a94:	0000d810 	andeq	sp, r0, r0, lsl r8
     a98:	00016400 	andeq	r6, r1, r0, lsl #8
     a9c:	7d000200 	sfmvc	f0, 4, [r0, #-0]
     aa0:	00000028 	andeq	r0, r0, r8, lsr #32
     aa4:	00000000 	andeq	r0, r0, r0
     aa8:	0000bc00 	andeq	fp, r0, r0, lsl #24
     aac:	0000e000 	andeq	lr, r0, r0
     ab0:	50000100 	andpl	r0, r0, r0, lsl #2
     ab4:	000000e0 	andeq	r0, r0, r0, ror #1
     ab8:	00000114 	andeq	r0, r0, r4, lsl r1
     abc:	00550001 	subseq	r0, r5, r1
     ac0:	00000000 	andeq	r0, r0, r0
     ac4:	bc000000 	stclt	0, cr0, [r0], {-0}
     ac8:	e0000000 	and	r0, r0, r0
     acc:	01000000 	mrseq	r0, (UNDEF: 0)
     ad0:	00e05100 	rsceq	r5, r0, r0, lsl #2
     ad4:	01640000 	cmneq	r4, r0
     ad8:	00010000 	andeq	r0, r1, r0
     adc:	00000057 	andeq	r0, r0, r7, asr r0
     ae0:	00000000 	andeq	r0, r0, r0
     ae4:	0000bc00 	andeq	fp, r0, r0, lsl #24
     ae8:	0000e000 	andeq	lr, r0, r0
     aec:	52000100 	andpl	r0, r0, #0
     af0:	000000e0 	andeq	r0, r0, r0, ror #1
     af4:	00000164 	andeq	r0, r0, r4, ror #2
     af8:	00560001 	subseq	r0, r6, r1
	...
     b04:	30000001 	andcc	r0, r0, r1
     b08:	01000001 	tsteq	r0, r1
     b0c:	01305000 	teqeq	r0, r0
     b10:	01480000 	mrseq	r0, (UNDEF: 72)
     b14:	00010000 	andeq	r0, r1, r0
     b18:	00014851 	andeq	r4, r1, r1, asr r8
     b1c:	00014c00 	andeq	r4, r1, r0, lsl #24
     b20:	71000300 	mrsvc	r0, LR_irq
     b24:	014c9f7f 	hvceq	51711	; 0xc9ff
     b28:	01540000 	cmpeq	r4, r0
     b2c:	00010000 	andeq	r0, r1, r0
     b30:	00000051 	andeq	r0, r0, r1, asr r0
     b34:	00000000 	andeq	r0, r0, r0
     b38:	00010000 	andeq	r0, r1, r0
     b3c:	00012c00 	andeq	r2, r1, r0, lsl #24
     b40:	7c000300 	stcvc	3, cr0, [r0], {-0}
     b44:	012c9f70 	teqeq	ip, r0, ror pc
     b48:	01300000 	teqeq	r0, r0
     b4c:	00030000 	andeq	r0, r3, r0
     b50:	009f5491 	umullseq	r5, pc, r1, r4	; <UNPREDICTABLE>
	...
     b5c:	14000001 	strne	r0, [r0], #-1
     b60:	01000001 	tsteq	r0, r1
     b64:	01145500 	tsteq	r4, r0, lsl #10
     b68:	01180000 	tsteq	r8, r0
     b6c:	00010000 	andeq	r0, r1, r0
     b70:	00011853 	andeq	r1, r1, r3, asr r8
     b74:	00012000 	andeq	r2, r1, r0
     b78:	55000100 	strpl	r0, [r0, #-256]	; 0x100
     b7c:	00000120 	andeq	r0, r0, r0, lsr #2
     b80:	00000128 	andeq	r0, r0, r8, lsr #2
     b84:	28530001 	ldmdacs	r3, {r0}^
     b88:	30000001 	andcc	r0, r0, r1
     b8c:	01000001 	tsteq	r0, r1
     b90:	01305500 	teqeq	r0, r0, lsl #10
     b94:	01340000 	teqeq	r4, r0
     b98:	00010000 	andeq	r0, r1, r0
     b9c:	00013453 	andeq	r3, r1, r3, asr r4
     ba0:	00014400 	andeq	r4, r1, r0, lsl #8
     ba4:	55000100 	strpl	r0, [r0, #-256]	; 0x100
     ba8:	00000144 	andeq	r0, r0, r4, asr #2
     bac:	00000154 	andeq	r0, r0, r4, asr r1
     bb0:	00530001 	subseq	r0, r3, r1
	...
     bbc:	14000001 	strne	r0, [r0], #-1
     bc0:	01000001 	tsteq	r0, r1
     bc4:	00005500 	andeq	r5, r0, r0, lsl #10
     bc8:	00000000 	andeq	r0, r0, r0
     bcc:	01640000 	cmneq	r4, r0
     bd0:	01680000 	cmneq	r8, r0
     bd4:	00020000 	andeq	r0, r2, r0
     bd8:	0168007d 	smceq	32781	; 0x800d
     bdc:	017c0000 	cmneq	ip, r0
     be0:	00020000 	andeq	r0, r2, r0
     be4:	017c147d 	cmneq	ip, sp, ror r4
     be8:	024c0000 	subeq	r0, ip, #0
     bec:	00030000 	andeq	r0, r3, r0
     bf0:	0000c07d 	andeq	ip, r0, sp, ror r0
     bf4:	00000000 	andeq	r0, r0, r0
     bf8:	64000000 	strvs	r0, [r0], #-0
     bfc:	84000001 	strhi	r0, [r0], #-1
     c00:	01000001 	tsteq	r0, r1
     c04:	01845000 	orreq	r5, r4, r0
     c08:	01d80000 	bicseq	r0, r8, r0
     c0c:	00010000 	andeq	r0, r1, r0
     c10:	0001d85c 	andeq	sp, r1, ip, asr r8
     c14:	0001e800 	andeq	lr, r1, r0, lsl #16
     c18:	52000100 	andpl	r0, r0, #0
     c1c:	000001e8 	andeq	r0, r0, r8, ror #3
     c20:	000001fc 	strdeq	r0, [r0], -ip
     c24:	005c0001 	subseq	r0, ip, r1
     c28:	00000000 	andeq	r0, r0, r0
     c2c:	64000000 	strvs	r0, [r0], #-0
     c30:	84000001 	strhi	r0, [r0], #-1
     c34:	01000001 	tsteq	r0, r1
     c38:	01845100 	orreq	r5, r4, r0, lsl #2
     c3c:	024c0000 	subeq	r0, ip, #0
     c40:	00010000 	andeq	r0, r1, r0
     c44:	00000056 	andeq	r0, r0, r6, asr r0
     c48:	00000000 	andeq	r0, r0, r0
     c4c:	00016400 	andeq	r6, r1, r0, lsl #8
     c50:	0001a000 	andeq	sl, r1, r0
     c54:	30000200 	andcc	r0, r0, r0, lsl #4
     c58:	0001a09f 	muleq	r1, pc, r0	; <UNPREDICTABLE>
     c5c:	0001b000 	andeq	fp, r1, r0
     c60:	31000200 	mrscc	r0, R8_usr
     c64:	0001b09f 	muleq	r1, pc, r0	; <UNPREDICTABLE>
     c68:	00020400 	andeq	r0, r2, r0, lsl #8
     c6c:	57000100 	strpl	r0, [r0, -r0, lsl #2]
	...
     c78:	000001b0 			; <UNDEFINED> instruction: 0x000001b0
     c7c:	000001c0 	andeq	r0, r0, r0, asr #3
     c80:	9f300002 	svcls	0x00300002
     c84:	000001c0 	andeq	r0, r0, r0, asr #3
     c88:	000001c4 	andeq	r0, r0, r4, asr #3
     c8c:	d8540001 	ldmdale	r4, {r0}^
     c90:	08000001 	stmdaeq	r0, {r0}
     c94:	01000002 	tsteq	r0, r2
     c98:	02085400 	andeq	r5, r8, #0
     c9c:	02300000 	eorseq	r0, r0, #0
     ca0:	00010000 	andeq	r0, r1, r0
     ca4:	00000053 	andeq	r0, r0, r3, asr r0
     ca8:	00000000 	andeq	r0, r0, r0
     cac:	0001fc00 	andeq	pc, r1, r0, lsl #24
     cb0:	00020800 	andeq	r0, r2, r0, lsl #16
     cb4:	30000200 	andcc	r0, r0, r0, lsl #4
     cb8:	0002089f 	muleq	r2, pc, r8	; <UNPREDICTABLE>
     cbc:	00021400 	andeq	r1, r2, r0, lsl #8
     cc0:	57000100 	strpl	r0, [r0, -r0, lsl #2]
	...
     ccc:	0000024c 	andeq	r0, r0, ip, asr #4
     cd0:	00000250 	andeq	r0, r0, r0, asr r2
     cd4:	007d0002 	rsbseq	r0, sp, r2
     cd8:	00000250 	andeq	r0, r0, r0, asr r2
     cdc:	00000254 	andeq	r0, r0, r4, asr r2
     ce0:	107d0002 	rsbsne	r0, sp, r2
     ce4:	00000254 	andeq	r0, r0, r4, asr r2
     ce8:	00000258 	andeq	r0, r0, r8, asr r2
     cec:	307d0002 	rsbscc	r0, sp, r2
     cf0:	00000258 	andeq	r0, r0, r8, asr r2
     cf4:	0000051c 	andeq	r0, r0, ip, lsl r5
     cf8:	c87d0003 	ldmdagt	sp!, {r0, r1}^
	...
     d04:	00024c00 	andeq	r4, r2, r0, lsl #24
     d08:	00026400 	andeq	r6, r2, r0, lsl #8
     d0c:	91000200 	mrsls	r0, R8_usr
     d10:	00026470 	andeq	r6, r2, r0, ror r4
     d14:	00028800 	andeq	r8, r2, r0, lsl #16
     d18:	91000200 	mrsls	r0, R8_usr
     d1c:	00028848 	andeq	r8, r2, r8, asr #16
     d20:	0002a400 	andeq	sl, r2, r0, lsl #8
     d24:	54000100 	strpl	r0, [r0], #-256	; 0x100
     d28:	000002a4 	andeq	r0, r0, r4, lsr #5
     d2c:	000002bc 			; <UNDEFINED> instruction: 0x000002bc
     d30:	01740003 	cmneq	r4, r3
     d34:	0002c49f 	muleq	r2, pc, r4	; <UNPREDICTABLE>
     d38:	00051c00 	andeq	r1, r5, r0, lsl #24
     d3c:	54000100 	strpl	r0, [r0], #-256	; 0x100
	...
     d48:	0000024c 	andeq	r0, r0, ip, asr #4
     d4c:	00000288 	andeq	r0, r0, r8, lsl #5
     d50:	50030006 	andpl	r0, r3, r6
     d54:	9f00012e 	svcls	0x0000012e
     d58:	00000288 	andeq	r0, r0, r8, lsl #5
     d5c:	00000298 	muleq	r0, r8, r2
     d60:	38550001 	ldmdacc	r5, {r0}^
     d64:	50000003 	andpl	r0, r0, r3
     d68:	01000003 	tsteq	r0, r3
     d6c:	03bc5500 			; <UNDEFINED> instruction: 0x03bc5500
     d70:	03c00000 	biceq	r0, r0, #0
     d74:	00010000 	andeq	r0, r1, r0
     d78:	00040c55 	andeq	r0, r4, r5, asr ip
     d7c:	00041000 	andeq	r1, r4, r0
     d80:	55000100 	strpl	r0, [r0, #-256]	; 0x100
     d84:	0000047c 	andeq	r0, r0, ip, ror r4
     d88:	00000480 	andeq	r0, r0, r0, lsl #9
     d8c:	9c550001 	mrrcls	0, 0, r0, r5, cr1
     d90:	a8000004 	stmdage	r0, {r2}
     d94:	03000004 	movweq	r0, #4
     d98:	9f017500 	svcls	0x00017500
     d9c:	000004a8 	andeq	r0, r0, r8, lsr #9
     da0:	000004ac 	andeq	r0, r0, ip, lsr #9
     da4:	14550001 	ldrbne	r0, [r5], #-1
     da8:	1c000005 	stcne	0, cr0, [r0], {5}
     dac:	01000005 	tsteq	r0, r5
     db0:	00005500 	andeq	r5, r0, r0, lsl #10
     db4:	00000000 	andeq	r0, r0, r0
     db8:	03d40000 	bicseq	r0, r4, #0
     dbc:	04100000 	ldreq	r0, [r0], #-0
     dc0:	00040000 	andeq	r0, r4, r0
     dc4:	067fa491 			; <UNDEFINED> instruction: 0x067fa491
	...
     dd0:	000002c0 	andeq	r0, r0, r0, asr #5
     dd4:	0000032c 	andeq	r0, r0, ip, lsr #6
     dd8:	50570001 	subspl	r0, r7, r1
     ddc:	1c000003 	stcne	0, cr0, [r0], {3}
     de0:	01000005 	tsteq	r0, r5
     de4:	00005700 	andeq	r5, r0, r0, lsl #14
     de8:	00000000 	andeq	r0, r0, r0
     dec:	024c0000 	subeq	r0, ip, #0
     df0:	02880000 	addeq	r0, r8, #0
     df4:	00020000 	andeq	r0, r2, r0
     df8:	038c9f30 	orreq	r9, ip, #192	; 0xc0
     dfc:	03a40000 			; <UNDEFINED> instruction: 0x03a40000
     e00:	00010000 	andeq	r0, r1, r0
     e04:	0003a45a 	andeq	sl, r3, sl, asr r4
     e08:	0003c000 	andeq	ip, r3, r0
     e0c:	50000100 	andpl	r0, r0, r0, lsl #2
     e10:	0000044c 	andeq	r0, r0, ip, asr #8
     e14:	00000464 	andeq	r0, r0, r4, ror #8
     e18:	645a0001 	ldrbvs	r0, [sl], #-1
     e1c:	80000004 	andhi	r0, r0, r4
     e20:	01000004 	tsteq	r0, r4
     e24:	04e45000 	strbteq	r5, [r4], #0
     e28:	04fc0000 	ldrbteq	r0, [ip], #0
     e2c:	00010000 	andeq	r0, r1, r0
     e30:	0004fc5a 	andeq	pc, r4, sl, asr ip	; <UNPREDICTABLE>
     e34:	00051c00 	andeq	r1, r5, r0, lsl #24
     e38:	50000100 	andpl	r0, r0, r0, lsl #2
	...
     e44:	0000036c 	andeq	r0, r0, ip, ror #6
     e48:	000003c0 	andeq	r0, r0, r0, asr #7
     e4c:	00560001 	subseq	r0, r6, r1
     e50:	00000000 	andeq	r0, r0, r0
     e54:	6c000000 	stcvs	0, cr0, [r0], {-0}
     e58:	7c000003 	stcvc	0, cr0, [r0], {3}
     e5c:	01000003 	tsteq	r0, r3
     e60:	037c5600 	cmneq	ip, #0
     e64:	03800000 	orreq	r0, r0, #0
     e68:	00010000 	andeq	r0, r1, r0
     e6c:	0003805a 	andeq	r8, r3, sl, asr r0
     e70:	00038c00 	andeq	r8, r3, r0, lsl #24
     e74:	7a000300 	bvc	1a7c <__resume1_start+0x1a7c>
     e78:	00009f7f 	andeq	r9, r0, pc, ror pc
     e7c:	00000000 	andeq	r0, r0, r0
     e80:	03a40000 			; <UNDEFINED> instruction: 0x03a40000
     e84:	03a80000 			; <UNDEFINED> instruction: 0x03a80000
     e88:	00010000 	andeq	r0, r1, r0
     e8c:	00000056 	andeq	r0, r0, r6, asr r0
     e90:	00000000 	andeq	r0, r0, r0
     e94:	0003a400 	andeq	sl, r3, r0, lsl #8
     e98:	0003a800 	andeq	sl, r3, r0, lsl #16
     e9c:	55000100 	strpl	r0, [r0, #-256]	; 0x100
     ea0:	000003a8 	andeq	r0, r0, r8, lsr #7
     ea4:	000003c0 	andeq	r0, r0, r0, asr #7
     ea8:	00510001 	subseq	r0, r1, r1
     eac:	00000000 	andeq	r0, r0, r0
     eb0:	a4000000 	strge	r0, [r0], #-0
     eb4:	bc000003 	stclt	0, cr0, [r0], {3}
     eb8:	01000003 	tsteq	r0, r3
     ebc:	00005500 	andeq	r5, r0, r0, lsl #10
     ec0:	00000000 	andeq	r0, r0, r0
     ec4:	03d40000 	bicseq	r0, r4, #0
     ec8:	03d80000 	bicseq	r0, r8, #0
     ecc:	00040000 	andeq	r0, r4, r0
     ed0:	067fa491 			; <UNDEFINED> instruction: 0x067fa491
	...
     edc:	000003d4 	ldrdeq	r0, [r0], -r4
     ee0:	000003d8 	ldrdeq	r0, [r0], -r8
     ee4:	d8550001 	ldmdale	r5, {r0}^
     ee8:	10000003 	andne	r0, r0, r3
     eec:	01000004 	tsteq	r0, r4
     ef0:	00005100 	andeq	r5, r0, r0, lsl #2
     ef4:	00000000 	andeq	r0, r0, r0
     ef8:	03d40000 	bicseq	r0, r4, #0
     efc:	040c0000 	streq	r0, [ip], #-0
     f00:	00010000 	andeq	r0, r1, r0
     f04:	00000055 	andeq	r0, r0, r5, asr r0
     f08:	00000000 	andeq	r0, r0, r0
     f0c:	0003e800 	andeq	lr, r3, r0, lsl #16
     f10:	0003f800 	andeq	pc, r3, r0, lsl #16
     f14:	91000400 	tstls	r0, r0, lsl #8
     f18:	f8067fa4 			; <UNDEFINED> instruction: 0xf8067fa4
     f1c:	fc000003 	stc2	0, cr0, [r0], {3}
     f20:	01000003 	tsteq	r0, r3
     f24:	03fc5300 	mvnseq	r5, #0
     f28:	04080000 	streq	r0, [r8], #-0
     f2c:	00030000 	andeq	r0, r3, r0
     f30:	009f7f73 	addseq	r7, pc, r3, ror pc	; <UNPREDICTABLE>
     f34:	00000000 	andeq	r0, r0, r0
     f38:	2c000000 	stccs	0, cr0, [r0], {-0}
     f3c:	80000004 	andhi	r0, r0, r4
     f40:	01000004 	tsteq	r0, r4
     f44:	00005600 	andeq	r5, r0, r0, lsl #12
     f48:	00000000 	andeq	r0, r0, r0
     f4c:	042c0000 	strteq	r0, [ip], #-0
     f50:	043c0000 	ldrteq	r0, [ip], #-0
     f54:	00010000 	andeq	r0, r1, r0
     f58:	00043c56 	andeq	r3, r4, r6, asr ip
     f5c:	00044000 	andeq	r4, r4, r0
     f60:	5a000100 	bpl	1368 <__resume1_start+0x1368>
     f64:	00000440 	andeq	r0, r0, r0, asr #8
     f68:	0000044c 	andeq	r0, r0, ip, asr #8
     f6c:	7f7a0003 	svcvc	0x007a0003
     f70:	0000009f 	muleq	r0, pc, r0	; <UNPREDICTABLE>
     f74:	00000000 	andeq	r0, r0, r0
     f78:	00046400 	andeq	r6, r4, r0, lsl #8
     f7c:	00046800 	andeq	r6, r4, r0, lsl #16
     f80:	56000100 	strpl	r0, [r0], -r0, lsl #2
	...
     f8c:	00000464 	andeq	r0, r0, r4, ror #8
     f90:	00000468 	andeq	r0, r0, r8, ror #8
     f94:	68550001 	ldmdavs	r5, {r0}^
     f98:	80000004 	andhi	r0, r0, r4
     f9c:	01000004 	tsteq	r0, r4
     fa0:	00005100 	andeq	r5, r0, r0, lsl #2
     fa4:	00000000 	andeq	r0, r0, r0
     fa8:	04640000 	strbteq	r0, [r4], #-0
     fac:	047c0000 	ldrbteq	r0, [ip], #-0
     fb0:	00010000 	andeq	r0, r1, r0
     fb4:	00000055 	andeq	r0, r0, r5, asr r0
     fb8:	00000000 	andeq	r0, r0, r0
     fbc:	0004c400 	andeq	ip, r4, r0, lsl #8
     fc0:	0004d400 	andeq	sp, r4, r0, lsl #8
     fc4:	56000100 	strpl	r0, [r0], -r0, lsl #2
     fc8:	000004d4 	ldrdeq	r0, [r0], -r4
     fcc:	000004d8 	ldrdeq	r0, [r0], -r8
     fd0:	d85a0001 	ldmdale	sl, {r0}^
     fd4:	e4000004 	str	r0, [r0], #-4
     fd8:	03000004 	movweq	r0, #4
     fdc:	9f7f7a00 	svcls	0x007f7a00
	...
     fe8:	000004fc 	strdeq	r0, [r0], -ip
     fec:	00000500 	andeq	r0, r0, r0, lsl #10
     ff0:	00560001 	subseq	r0, r6, r1
     ff4:	00000000 	andeq	r0, r0, r0
     ff8:	fc000000 	stc2	0, cr0, [r0], {-0}
     ffc:	00000004 	andeq	r0, r0, r4
    1000:	01000005 	tsteq	r0, r5
    1004:	05005500 	streq	r5, [r0, #-1280]	; 0x500
    1008:	051c0000 	ldreq	r0, [ip, #-0]
    100c:	00010000 	andeq	r0, r1, r0
    1010:	00000051 	andeq	r0, r0, r1, asr r0
    1014:	00000000 	andeq	r0, r0, r0
    1018:	0004fc00 	andeq	pc, r4, r0, lsl #24
    101c:	00051400 	andeq	r1, r5, r0, lsl #8
    1020:	55000100 	strpl	r0, [r0, #-256]	; 0x100
	...
    102c:	0000051c 	andeq	r0, r0, ip, lsl r5
    1030:	00000520 	andeq	r0, r0, r0, lsr #10
    1034:	007d0002 	rsbseq	r0, sp, r2
    1038:	00000520 	andeq	r0, r0, r0, lsr #10
    103c:	00000524 	andeq	r0, r0, r4, lsr #10
    1040:	107d0002 	rsbsne	r0, sp, r2
    1044:	00000524 	andeq	r0, r0, r4, lsr #10
    1048:	00000528 	andeq	r0, r0, r8, lsr #10
    104c:	307d0002 	rsbscc	r0, sp, r2
    1050:	00000528 	andeq	r0, r0, r8, lsr #10
    1054:	000007ec 	andeq	r0, r0, ip, ror #15
    1058:	c87d0003 	ldmdagt	sp!, {r0, r1}^
	...
    1064:	00051c00 	andeq	r1, r5, r0, lsl #24
    1068:	00053400 	andeq	r3, r5, r0, lsl #8
    106c:	91000200 	mrsls	r0, R8_usr
    1070:	00053470 	andeq	r3, r5, r0, ror r4
    1074:	00055800 	andeq	r5, r5, r0, lsl #16
    1078:	91000200 	mrsls	r0, R8_usr
    107c:	00055848 	andeq	r5, r5, r8, asr #16
    1080:	00057400 	andeq	r7, r5, r0, lsl #8
    1084:	54000100 	strpl	r0, [r0], #-256	; 0x100
    1088:	00000574 	andeq	r0, r0, r4, ror r5
    108c:	0000058c 	andeq	r0, r0, ip, lsl #11
    1090:	01740003 	cmneq	r4, r3
    1094:	0005949f 	muleq	r5, pc, r4	; <UNPREDICTABLE>
    1098:	0007ec00 	andeq	lr, r7, r0, lsl #24
    109c:	54000100 	strpl	r0, [r0], #-256	; 0x100
	...
    10a8:	0000051c 	andeq	r0, r0, ip, lsl r5
    10ac:	00000558 	andeq	r0, r0, r8, asr r5
    10b0:	50030006 	andpl	r0, r3, r6
    10b4:	9f00012e 	svcls	0x0000012e
    10b8:	00000558 	andeq	r0, r0, r8, asr r5
    10bc:	00000568 	andeq	r0, r0, r8, ror #10
    10c0:	08550001 	ldmdaeq	r5, {r0}^
    10c4:	20000006 	andcs	r0, r0, r6
    10c8:	01000006 	tsteq	r0, r6
    10cc:	068c5500 	streq	r5, [ip], r0, lsl #10
    10d0:	06900000 	ldreq	r0, [r0], r0
    10d4:	00010000 	andeq	r0, r1, r0
    10d8:	0006dc55 	andeq	sp, r6, r5, asr ip
    10dc:	0006e000 	andeq	lr, r6, r0
    10e0:	55000100 	strpl	r0, [r0, #-256]	; 0x100
    10e4:	0000074c 	andeq	r0, r0, ip, asr #14
    10e8:	00000750 	andeq	r0, r0, r0, asr r7
    10ec:	6c550001 	mrrcvs	0, 0, r0, r5, cr1
    10f0:	78000007 	stmdavc	r0, {r0, r1, r2}
    10f4:	03000007 	movweq	r0, #7
    10f8:	9f017500 	svcls	0x00017500
    10fc:	00000778 	andeq	r0, r0, r8, ror r7
    1100:	0000077c 	andeq	r0, r0, ip, ror r7
    1104:	e4550001 	ldrb	r0, [r5], #-1
    1108:	ec000007 	stc	0, cr0, [r0], {7}
    110c:	01000007 	tsteq	r0, r7
    1110:	00005500 	andeq	r5, r0, r0, lsl #10
    1114:	00000000 	andeq	r0, r0, r0
    1118:	06a40000 	strteq	r0, [r4], r0
    111c:	06e00000 	strbteq	r0, [r0], r0
    1120:	00040000 	andeq	r0, r4, r0
    1124:	067fa491 			; <UNDEFINED> instruction: 0x067fa491
	...
    1130:	00000590 	muleq	r0, r0, r5
    1134:	000005fc 	strdeq	r0, [r0], -ip
    1138:	20570001 	subscs	r0, r7, r1
    113c:	ec000006 	stc	0, cr0, [r0], {6}
    1140:	01000007 	tsteq	r0, r7
    1144:	00005700 	andeq	r5, r0, r0, lsl #14
    1148:	00000000 	andeq	r0, r0, r0
    114c:	051c0000 	ldreq	r0, [ip, #-0]
    1150:	05580000 	ldrbeq	r0, [r8, #-0]
    1154:	00020000 	andeq	r0, r2, r0
    1158:	065c9f30 	uasxeq	r9, ip, r0
    115c:	06740000 	ldrbteq	r0, [r4], -r0
    1160:	00010000 	andeq	r0, r1, r0
    1164:	0006745a 	andeq	r7, r6, sl, asr r4
    1168:	00069000 	andeq	r9, r6, r0
    116c:	50000100 	andpl	r0, r0, r0, lsl #2
    1170:	0000071c 	andeq	r0, r0, ip, lsl r7
    1174:	00000734 	andeq	r0, r0, r4, lsr r7
    1178:	345a0001 	ldrbcc	r0, [sl], #-1
    117c:	50000007 	andpl	r0, r0, r7
    1180:	01000007 	tsteq	r0, r7
    1184:	07b45000 	ldreq	r5, [r4, r0]!
    1188:	07cc0000 	strbeq	r0, [ip, r0]
    118c:	00010000 	andeq	r0, r1, r0
    1190:	0007cc5a 	andeq	ip, r7, sl, asr ip
    1194:	0007ec00 	andeq	lr, r7, r0, lsl #24
    1198:	50000100 	andpl	r0, r0, r0, lsl #2
	...
    11a4:	0000063c 	andeq	r0, r0, ip, lsr r6
    11a8:	00000690 	muleq	r0, r0, r6
    11ac:	00560001 	subseq	r0, r6, r1
    11b0:	00000000 	andeq	r0, r0, r0
    11b4:	3c000000 	stccc	0, cr0, [r0], {-0}
    11b8:	4c000006 	stcmi	0, cr0, [r0], {6}
    11bc:	01000006 	tsteq	r0, r6
    11c0:	064c5600 	strbeq	r5, [ip], -r0, lsl #12
    11c4:	06500000 	ldrbeq	r0, [r0], -r0
    11c8:	00010000 	andeq	r0, r1, r0
    11cc:	0006505a 	andeq	r5, r6, sl, asr r0
    11d0:	00065c00 	andeq	r5, r6, r0, lsl #24
    11d4:	7a000300 	bvc	1ddc <__resume1_start+0x1ddc>
    11d8:	00009f7f 	andeq	r9, r0, pc, ror pc
    11dc:	00000000 	andeq	r0, r0, r0
    11e0:	06740000 	ldrbteq	r0, [r4], -r0
    11e4:	06780000 	ldrbteq	r0, [r8], -r0
    11e8:	00010000 	andeq	r0, r1, r0
    11ec:	00000056 	andeq	r0, r0, r6, asr r0
    11f0:	00000000 	andeq	r0, r0, r0
    11f4:	00067400 	andeq	r7, r6, r0, lsl #8
    11f8:	00067800 	andeq	r7, r6, r0, lsl #16
    11fc:	55000100 	strpl	r0, [r0, #-256]	; 0x100
    1200:	00000678 	andeq	r0, r0, r8, ror r6
    1204:	00000690 	muleq	r0, r0, r6
    1208:	00510001 	subseq	r0, r1, r1
    120c:	00000000 	andeq	r0, r0, r0
    1210:	74000000 	strvc	r0, [r0], #-0
    1214:	8c000006 	stchi	0, cr0, [r0], {6}
    1218:	01000006 	tsteq	r0, r6
    121c:	00005500 	andeq	r5, r0, r0, lsl #10
    1220:	00000000 	andeq	r0, r0, r0
    1224:	06a40000 	strteq	r0, [r4], r0
    1228:	06a80000 	strteq	r0, [r8], r0
    122c:	00040000 	andeq	r0, r4, r0
    1230:	067fa491 			; <UNDEFINED> instruction: 0x067fa491
	...
    123c:	000006a4 	andeq	r0, r0, r4, lsr #13
    1240:	000006a8 	andeq	r0, r0, r8, lsr #13
    1244:	a8550001 	ldmdage	r5, {r0}^
    1248:	e0000006 	and	r0, r0, r6
    124c:	01000006 	tsteq	r0, r6
    1250:	00005100 	andeq	r5, r0, r0, lsl #2
    1254:	00000000 	andeq	r0, r0, r0
    1258:	06a40000 	strteq	r0, [r4], r0
    125c:	06dc0000 	ldrbeq	r0, [ip], r0
    1260:	00010000 	andeq	r0, r1, r0
    1264:	00000055 	andeq	r0, r0, r5, asr r0
    1268:	00000000 	andeq	r0, r0, r0
    126c:	0006b800 	andeq	fp, r6, r0, lsl #16
    1270:	0006c800 	andeq	ip, r6, r0, lsl #16
    1274:	91000400 	tstls	r0, r0, lsl #8
    1278:	c8067fa4 	stmdagt	r6, {r2, r5, r7, r8, r9, sl, fp, ip, sp, lr}
    127c:	cc000006 	stcgt	0, cr0, [r0], {6}
    1280:	01000006 	tsteq	r0, r6
    1284:	06cc5300 	strbeq	r5, [ip], r0, lsl #6
    1288:	06d80000 	ldrbeq	r0, [r8], r0
    128c:	00030000 	andeq	r0, r3, r0
    1290:	009f7f73 	addseq	r7, pc, r3, ror pc	; <UNPREDICTABLE>
    1294:	00000000 	andeq	r0, r0, r0
    1298:	fc000000 	stc2	0, cr0, [r0], {-0}
    129c:	50000006 	andpl	r0, r0, r6
    12a0:	01000007 	tsteq	r0, r7
    12a4:	00005600 	andeq	r5, r0, r0, lsl #12
    12a8:	00000000 	andeq	r0, r0, r0
    12ac:	06fc0000 	ldrbteq	r0, [ip], r0
    12b0:	070c0000 	streq	r0, [ip, -r0]
    12b4:	00010000 	andeq	r0, r1, r0
    12b8:	00070c56 	andeq	r0, r7, r6, asr ip
    12bc:	00071000 	andeq	r1, r7, r0
    12c0:	5a000100 	bpl	16c8 <__resume1_start+0x16c8>
    12c4:	00000710 	andeq	r0, r0, r0, lsl r7
    12c8:	0000071c 	andeq	r0, r0, ip, lsl r7
    12cc:	7f7a0003 	svcvc	0x007a0003
    12d0:	0000009f 	muleq	r0, pc, r0	; <UNPREDICTABLE>
    12d4:	00000000 	andeq	r0, r0, r0
    12d8:	00073400 	andeq	r3, r7, r0, lsl #8
    12dc:	00073800 	andeq	r3, r7, r0, lsl #16
    12e0:	56000100 	strpl	r0, [r0], -r0, lsl #2
	...
    12ec:	00000734 	andeq	r0, r0, r4, lsr r7
    12f0:	00000738 	andeq	r0, r0, r8, lsr r7
    12f4:	38550001 	ldmdacc	r5, {r0}^
    12f8:	50000007 	andpl	r0, r0, r7
    12fc:	01000007 	tsteq	r0, r7
    1300:	00005100 	andeq	r5, r0, r0, lsl #2
    1304:	00000000 	andeq	r0, r0, r0
    1308:	07340000 	ldreq	r0, [r4, -r0]!
    130c:	074c0000 	strbeq	r0, [ip, -r0]
    1310:	00010000 	andeq	r0, r1, r0
    1314:	00000055 	andeq	r0, r0, r5, asr r0
    1318:	00000000 	andeq	r0, r0, r0
    131c:	00079400 	andeq	r9, r7, r0, lsl #8
    1320:	0007a400 	andeq	sl, r7, r0, lsl #8
    1324:	56000100 	strpl	r0, [r0], -r0, lsl #2
    1328:	000007a4 	andeq	r0, r0, r4, lsr #15
    132c:	000007a8 	andeq	r0, r0, r8, lsr #15
    1330:	a85a0001 	ldmdage	sl, {r0}^
    1334:	b4000007 	strlt	r0, [r0], #-7
    1338:	03000007 	movweq	r0, #7
    133c:	9f7f7a00 	svcls	0x007f7a00
	...
    1348:	000007cc 	andeq	r0, r0, ip, asr #15
    134c:	000007d0 	ldrdeq	r0, [r0], -r0	; <UNPREDICTABLE>
    1350:	00560001 	subseq	r0, r6, r1
    1354:	00000000 	andeq	r0, r0, r0
    1358:	cc000000 	stcgt	0, cr0, [r0], {-0}
    135c:	d0000007 	andle	r0, r0, r7
    1360:	01000007 	tsteq	r0, r7
    1364:	07d05500 	ldrbeq	r5, [r0, r0, lsl #10]
    1368:	07ec0000 	strbeq	r0, [ip, r0]!
    136c:	00010000 	andeq	r0, r1, r0
    1370:	00000051 	andeq	r0, r0, r1, asr r0
    1374:	00000000 	andeq	r0, r0, r0
    1378:	0007cc00 	andeq	ip, r7, r0, lsl #24
    137c:	0007e400 	andeq	lr, r7, r0, lsl #8
    1380:	55000100 	strpl	r0, [r0, #-256]	; 0x100
	...
    138c:	0000000c 	andeq	r0, r0, ip
    1390:	00000054 	andeq	r0, r0, r4, asr r0
    1394:	00500001 	subseq	r0, r0, r1
    1398:	00000000 	andeq	r0, r0, r0
    139c:	0c000000 	stceq	0, cr0, [r0], {-0}
    13a0:	10000000 	andne	r0, r0, r0
    13a4:	01000000 	mrseq	r0, (UNDEF: 0)
    13a8:	00005100 	andeq	r5, r0, r0, lsl #2
    13ac:	00000000 	andeq	r0, r0, r0
    13b0:	000c0000 	andeq	r0, ip, r0
    13b4:	00200000 	eoreq	r0, r0, r0
    13b8:	00010000 	andeq	r0, r1, r0
    13bc:	00002051 	andeq	r2, r0, r1, asr r0
    13c0:	00002400 	andeq	r2, r0, r0, lsl #8
    13c4:	71000500 	tstvc	r0, r0, lsl #10
    13c8:	9f243100 	svcls	0x00243100
    13cc:	00000024 	andeq	r0, r0, r4, lsr #32
    13d0:	00000028 	andeq	r0, r0, r8, lsr #32
    13d4:	30510001 	subscc	r0, r1, r1
    13d8:	58000000 	stmdapl	r0, {}	; <UNPREDICTABLE>
    13dc:	01000000 	mrseq	r0, (UNDEF: 0)
    13e0:	00005100 	andeq	r5, r0, r0, lsl #2
    13e4:	00000000 	andeq	r0, r0, r0
    13e8:	000c0000 	andeq	r0, ip, r0
    13ec:	00300000 	eorseq	r0, r0, r0
    13f0:	00020000 	andeq	r0, r2, r0
    13f4:	00309f30 	eorseq	r9, r0, r0, lsr pc
    13f8:	00400000 	subeq	r0, r0, r0
    13fc:	00010000 	andeq	r0, r1, r0
    1400:	00004452 	andeq	r4, r0, r2, asr r4
    1404:	00005000 	andeq	r5, r0, r0
    1408:	52000100 	andpl	r0, r0, #0
	...
    1414:	0000000c 	andeq	r0, r0, ip
    1418:	00000020 	andeq	r0, r0, r0, lsr #32
    141c:	9f300002 	svcls	0x00300002
    1420:	00000028 	andeq	r0, r0, r8, lsr #32
    1424:	0000002c 	andeq	r0, r0, ip, lsr #32
    1428:	30530001 	subscc	r0, r3, r1
    142c:	48000000 	stmdami	r0, {}	; <UNPREDICTABLE>
    1430:	01000000 	mrseq	r0, (UNDEF: 0)
    1434:	00005300 	andeq	r5, r0, r0, lsl #6
	...
    1440:	00100000 	andseq	r0, r0, r0
    1444:	00020000 	andeq	r0, r2, r0
    1448:	0010007d 	andseq	r0, r0, sp, ror r0
    144c:	00900000 	addseq	r0, r0, r0
    1450:	00020000 	andeq	r0, r2, r0
    1454:	0000087d 	andeq	r0, r0, sp, ror r8
	...
    1460:	00300000 	eorseq	r0, r0, r0
    1464:	00020000 	andeq	r0, r2, r0
    1468:	006c9f30 	rsbeq	r9, ip, r0, lsr pc
    146c:	007f0000 	rsbseq	r0, pc, r0
    1470:	00010000 	andeq	r0, r1, r0
    1474:	00000051 	andeq	r0, r0, r1, asr r0
    1478:	00000000 	andeq	r0, r0, r0
    147c:	00009000 	andeq	r9, r0, r0
    1480:	00009800 	andeq	r9, r0, r0, lsl #16
    1484:	7d000200 	sfmvc	f0, 4, [r0, #-0]
    1488:	00009800 	andeq	r9, r0, r0, lsl #16
    148c:	0000e400 	andeq	lr, r0, r0, lsl #8
    1490:	7d000200 	sfmvc	f0, 4, [r0, #-0]
    1494:	00000008 	andeq	r0, r0, r8
    1498:	00000000 	andeq	r0, r0, r0
    149c:	00009000 	andeq	r9, r0, r0
    14a0:	0000b000 	andeq	fp, r0, r0
    14a4:	30000200 	andcc	r0, r0, r0, lsl #4
    14a8:	0000cc9f 	muleq	r0, pc, ip	; <UNPREDICTABLE>
    14ac:	0000e400 	andeq	lr, r0, r0, lsl #8
    14b0:	53000100 	movwpl	r0, #256	; 0x100
	...
    14bc:	000000a0 	andeq	r0, r0, r0, lsr #1
    14c0:	000000b4 	strheq	r0, [r0], -r4
    14c4:	74910002 	ldrvc	r0, [r1], #2
    14c8:	000000b4 	strheq	r0, [r0], -r4
    14cc:	000000bc 	strheq	r0, [r0], -ip
    14d0:	bc510001 	mrrclt	0, 0, r0, r1, cr1
    14d4:	e4000000 	str	r0, [r0], #-0
    14d8:	02000000 	andeq	r0, r0, #0
    14dc:	00749100 	rsbseq	r9, r4, r0, lsl #2
    14e0:	00000000 	andeq	r0, r0, r0
    14e4:	e4000000 	str	r0, [r0], #-0
    14e8:	ec000000 	stc	0, cr0, [r0], {-0}
    14ec:	02000000 	andeq	r0, r0, #0
    14f0:	ec007d00 	stc	13, cr7, [r0], {-0}
    14f4:	3c000000 	stccc	0, cr0, [r0], {-0}
    14f8:	02000001 	andeq	r0, r0, #1
    14fc:	00087d00 	andeq	r7, r8, r0, lsl #26
    1500:	00000000 	andeq	r0, r0, r0
    1504:	e4000000 	str	r0, [r0], #-0
    1508:	24000000 	strcs	r0, [r0], #-0
    150c:	01000001 	tsteq	r0, r1
    1510:	00005000 	andeq	r5, r0, r0
    1514:	00000000 	andeq	r0, r0, r0
    1518:	00e40000 	rsceq	r0, r4, r0
    151c:	01240000 	teqeq	r4, r0
    1520:	00050000 	andeq	r0, r5, r0
    1524:	25350070 	ldrcs	r0, [r5, #-112]!	; 0x70
    1528:	0000009f 	muleq	r0, pc, r0	; <UNPREDICTABLE>
    152c:	00000000 	andeq	r0, r0, r0
    1530:	0000e400 	andeq	lr, r0, r0, lsl #8
    1534:	00012400 	andeq	r2, r1, r0, lsl #8
    1538:	70000500 	andvc	r0, r0, r0, lsl #10
    153c:	9f1a4f00 	svcls	0x001a4f00
    1540:	00000124 	andeq	r0, r0, r4, lsr #2
    1544:	0000013c 	andeq	r0, r0, ip, lsr r1
    1548:	00550001 	subseq	r0, r5, r1
    154c:	00000000 	andeq	r0, r0, r0
    1550:	3c000000 	stccc	0, cr0, [r0], {-0}
    1554:	6c000001 	stcvs	0, cr0, [r0], {1}
    1558:	01000001 	tsteq	r0, r1
    155c:	00005000 	andeq	r5, r0, r0
    1560:	00000000 	andeq	r0, r0, r0
    1564:	013c0000 	teqeq	ip, r0
    1568:	01700000 	cmneq	r0, r0
    156c:	00020000 	andeq	r0, r2, r0
    1570:	00009f30 	andeq	r9, r0, r0, lsr pc
    1574:	00000000 	andeq	r0, r0, r0
    1578:	013c0000 	teqeq	ip, r0
    157c:	016c0000 	cmneq	ip, r0
    1580:	00050000 	andeq	r0, r5, r0
    1584:	25350070 	ldrcs	r0, [r5, #-112]!	; 0x70
    1588:	0000009f 	muleq	r0, pc, r0	; <UNPREDICTABLE>
    158c:	00000000 	andeq	r0, r0, r0
    1590:	00013c00 	andeq	r3, r1, r0, lsl #24
    1594:	00016c00 	andeq	r6, r1, r0, lsl #24
    1598:	70000500 	andvc	r0, r0, r0, lsl #10
    159c:	9f1a4f00 	svcls	0x001a4f00
    15a0:	0000016c 	andeq	r0, r0, ip, ror #2
    15a4:	00000184 	andeq	r0, r0, r4, lsl #3
    15a8:	00500001 	subseq	r0, r0, r1
	...
    15b4:	08000000 	stmdaeq	r0, {}	; <UNPREDICTABLE>
    15b8:	02000000 	andeq	r0, r0, #0
    15bc:	08007d00 	stmdaeq	r0, {r8, sl, fp, ip, sp, lr}
    15c0:	64000000 	strvs	r0, [r0], #-0
    15c4:	02000000 	andeq	r0, r0, #0
    15c8:	00047d00 	andeq	r7, r4, r0, lsl #26
	...
    15d4:	28000000 	stmdacs	r0, {}	; <UNPREDICTABLE>
    15d8:	01000000 	mrseq	r0, (UNDEF: 0)
    15dc:	00285000 	eoreq	r5, r8, r0
    15e0:	00640000 	rsbeq	r0, r4, r0
    15e4:	00010000 	andeq	r0, r1, r0
    15e8:	00000053 	andeq	r0, r0, r3, asr r0
    15ec:	00000000 	andeq	r0, r0, r0
    15f0:	00006400 	andeq	r6, r0, r0, lsl #8
    15f4:	00007c00 	andeq	r7, r0, r0, lsl #24
    15f8:	50000100 	andpl	r0, r0, r0, lsl #2
    15fc:	0000007c 	andeq	r0, r0, ip, ror r0
    1600:	000000ac 	andeq	r0, r0, ip, lsr #1
    1604:	00520001 	subseq	r0, r2, r1
	...
    1610:	10000000 	andne	r0, r0, r0
    1614:	01000000 	mrseq	r0, (UNDEF: 0)
    1618:	00105000 	andseq	r5, r0, r0
    161c:	00300000 	eorseq	r0, r0, r0
    1620:	00010000 	andeq	r0, r1, r0
    1624:	00000052 	andeq	r0, r0, r2, asr r0
    1628:	00000000 	andeq	r0, r0, r0
    162c:	00003000 	andeq	r3, r0, r0
    1630:	00004800 	andeq	r4, r0, r0, lsl #16
    1634:	50000100 	andpl	r0, r0, r0, lsl #2
    1638:	00000048 	andeq	r0, r0, r8, asr #32
    163c:	00000050 	andeq	r0, r0, r0, asr r0
    1640:	00520001 	subseq	r0, r2, r1
	...
    164c:	08000000 	stmdaeq	r0, {}	; <UNPREDICTABLE>
    1650:	01000000 	mrseq	r0, (UNDEF: 0)
    1654:	00005000 	andeq	r5, r0, r0
    1658:	00000000 	andeq	r0, r0, r0
    165c:	002c0000 	eoreq	r0, ip, r0
    1660:	00300000 	eorseq	r0, r0, r0
    1664:	00020000 	andeq	r0, r2, r0
    1668:	0030007d 	eorseq	r0, r0, sp, ror r0
    166c:	00a80000 	adceq	r0, r8, r0
    1670:	00020000 	andeq	r0, r2, r0
    1674:	0000087d 	andeq	r0, r0, sp, ror r8
    1678:	00000000 	andeq	r0, r0, r0
    167c:	002c0000 	eoreq	r0, ip, r0
    1680:	00800000 	addeq	r0, r0, r0
    1684:	00010000 	andeq	r0, r1, r0
    1688:	00008450 	andeq	r8, r0, r0, asr r4
    168c:	00008c00 	andeq	r8, r0, r0, lsl #24
    1690:	50000100 	andpl	r0, r0, r0, lsl #2
    1694:	00000098 	muleq	r0, r8, r0
    1698:	0000009c 	muleq	r0, ip, r0
    169c:	00500001 	subseq	r0, r0, r1
    16a0:	00000000 	andeq	r0, r0, r0
    16a4:	2c000000 	stccs	0, cr0, [r0], {-0}
    16a8:	60000000 	andvs	r0, r0, r0
    16ac:	01000000 	mrseq	r0, (UNDEF: 0)
    16b0:	00985100 	addseq	r5, r8, r0, lsl #2
    16b4:	00a80000 	adceq	r0, r8, r0
    16b8:	00010000 	andeq	r0, r1, r0
    16bc:	00000051 	andeq	r0, r0, r1, asr r0
    16c0:	00000000 	andeq	r0, r0, r0
    16c4:	00002c00 	andeq	r2, r0, r0, lsl #24
    16c8:	00006000 	andeq	r6, r0, r0
    16cc:	71000500 	tstvc	r0, r0, lsl #10
    16d0:	9f243a00 	svcls	0x00243a00
    16d4:	00000060 	andeq	r0, r0, r0, rrx
    16d8:	00000068 	andeq	r0, r0, r8, rrx
    16dc:	68510001 	ldmdavs	r1, {r0}^
    16e0:	6c000000 	stcvs	0, cr0, [r0], {-0}
    16e4:	03000000 	movweq	r0, #0
    16e8:	9f7f7100 	svcls	0x007f7100
    16ec:	0000006c 	andeq	r0, r0, ip, rrx
    16f0:	00000070 	andeq	r0, r0, r0, ror r0
    16f4:	70510001 	subsvc	r0, r1, r1
    16f8:	84000000 	strhi	r0, [r0], #-0
    16fc:	03000000 	movweq	r0, #0
    1700:	9f7f7100 	svcls	0x007f7100
    1704:	00000098 	muleq	r0, r8, r0
    1708:	000000a8 	andeq	r0, r0, r8, lsr #1
    170c:	00710005 	rsbseq	r0, r1, r5
    1710:	009f243a 	addseq	r2, pc, sl, lsr r4	; <UNPREDICTABLE>
    1714:	00000000 	andeq	r0, r0, r0
    1718:	38000000 	stmdacc	r0, {}	; <UNPREDICTABLE>
    171c:	8f000000 	svchi	0x00000000
    1720:	01000000 	mrseq	r0, (UNDEF: 0)
    1724:	00985c00 	addseq	r5, r8, r0, lsl #24
    1728:	00a80000 	adceq	r0, r8, r0
    172c:	00010000 	andeq	r0, r1, r0
    1730:	0000005c 	andeq	r0, r0, ip, asr r0
    1734:	00000000 	andeq	r0, r0, r0
    1738:	00008400 	andeq	r8, r0, r0, lsl #8
    173c:	00008f00 	andeq	r8, r0, r0, lsl #30
    1740:	5c000100 	stfpls	f0, [r0], {-0}
	...
    174c:	000000a8 	andeq	r0, r0, r8, lsr #1
    1750:	000000d4 	ldrdeq	r0, [r0], -r4
    1754:	00500001 	subseq	r0, r0, r1
    1758:	00000000 	andeq	r0, r0, r0
    175c:	d8000000 	stmdale	r0, {}	; <UNPREDICTABLE>
    1760:	e4000000 	str	r0, [r0], #-0
    1764:	01000000 	mrseq	r0, (UNDEF: 0)
    1768:	00e45000 	rsceq	r5, r4, r0
    176c:	00ec0000 	rsceq	r0, ip, r0
    1770:	00060000 	andeq	r0, r6, r0
    1774:	80808070 	addhi	r8, r0, r0, ror r0
    1778:	00ec9f7f 	rsceq	r9, ip, pc, ror pc
    177c:	00f00000 	rscseq	r0, r0, r0
    1780:	00060000 	andeq	r0, r6, r0
    1784:	ffdfc070 			; <UNDEFINED> instruction: 0xffdfc070
    1788:	00009f7e 	andeq	r9, r0, lr, ror pc
    178c:	00000000 	andeq	r0, r0, r0
    1790:	00d80000 	sbcseq	r0, r8, r0
    1794:	01000000 	mrseq	r0, (UNDEF: 0)
    1798:	00010000 	andeq	r0, r1, r0
    179c:	00013451 	andeq	r3, r1, r1, asr r4
    17a0:	00014000 	andeq	r4, r1, r0
    17a4:	51000100 	mrspl	r0, (UNDEF: 16)
	...
    17b0:	000000d8 	ldrdeq	r0, [r0], -r8
    17b4:	00000104 	andeq	r0, r0, r4, lsl #2
    17b8:	00710005 	rsbseq	r0, r1, r5
    17bc:	049f243a 	ldreq	r2, [pc], #1082	; 17c4 <__resume1_start+0x17c4>
    17c0:	0c000001 	stceq	0, cr0, [r0], {1}
    17c4:	01000001 	tsteq	r0, r1
    17c8:	010c5100 	mrseq	r5, (UNDEF: 28)
    17cc:	01100000 	tsteq	r0, r0
    17d0:	00030000 	andeq	r0, r3, r0
    17d4:	109f7f71 	addsne	r7, pc, r1, ror pc	; <UNPREDICTABLE>
    17d8:	14000001 	strne	r0, [r0], #-1
    17dc:	01000001 	tsteq	r0, r1
    17e0:	01145100 	tsteq	r4, r0, lsl #2
    17e4:	01280000 	teqeq	r8, r0
    17e8:	00030000 	andeq	r0, r3, r0
    17ec:	349f7f71 	ldrcc	r7, [pc], #3953	; 17f4 <__resume1_start+0x17f4>
    17f0:	40000001 	andmi	r0, r0, r1
    17f4:	05000001 	streq	r0, [r0, #-1]
    17f8:	3a007100 	bcc	1dc00 <__bss_end+0xaab4>
    17fc:	00009f24 	andeq	r9, r0, r4, lsr #30
    1800:	00000000 	andeq	r0, r0, r0
    1804:	01280000 	teqeq	r8, r0
    1808:	01340000 	teqeq	r4, r0
    180c:	00010000 	andeq	r0, r1, r0
    1810:	00000052 	andeq	r0, r0, r2, asr r0
    1814:	00000000 	andeq	r0, r0, r0
    1818:	00014000 	andeq	r4, r1, r0
    181c:	00015000 	andeq	r5, r1, r0
    1820:	50000100 	andpl	r0, r0, r0, lsl #2
    1824:	00000150 	andeq	r0, r0, r0, asr r1
    1828:	00000154 	andeq	r0, r0, r4, asr r1
    182c:	c0720006 	rsbsgt	r0, r2, r6
    1830:	9f7effdf 	svcls	0x007effdf
	...
    1840:	00000018 	andeq	r0, r0, r8, lsl r0
    1844:	00500001 	subseq	r0, r0, r1
    1848:	00000000 	andeq	r0, r0, r0
    184c:	3c000000 	stccc	0, cr0, [r0], {-0}
    1850:	54000000 	strpl	r0, [r0], #-0
    1854:	01000000 	mrseq	r0, (UNDEF: 0)
    1858:	00545000 	subseq	r5, r4, r0
    185c:	01d40000 	bicseq	r0, r4, r0
    1860:	00010000 	andeq	r0, r1, r0
    1864:	00000053 	andeq	r0, r0, r3, asr r0
    1868:	00000000 	andeq	r0, r0, r0
    186c:	0001d400 	andeq	sp, r1, r0, lsl #8
    1870:	0001d800 	andeq	sp, r1, r0, lsl #16
    1874:	7d000200 	sfmvc	f0, 4, [r0, #-0]
    1878:	0001d800 	andeq	sp, r1, r0, lsl #16
    187c:	00060c00 	andeq	r0, r6, r0, lsl #24
    1880:	7d000200 	sfmvc	f0, 4, [r0, #-0]
    1884:	00000018 	andeq	r0, r0, r8, lsl r0
    1888:	00000000 	andeq	r0, r0, r0
    188c:	0001d400 	andeq	sp, r1, r0, lsl #8
    1890:	0001e000 	andeq	lr, r1, r0
    1894:	50000100 	andpl	r0, r0, r0, lsl #2
    1898:	000001e0 	andeq	r0, r0, r0, ror #3
    189c:	00000518 	andeq	r0, r0, r8, lsl r5
    18a0:	00540001 	subseq	r0, r4, r1
    18a4:	00000000 	andeq	r0, r0, r0
    18a8:	0c000000 	stceq	0, cr0, [r0], {-0}
    18ac:	28000005 	stmdacs	r0, {r0, r2}
    18b0:	02000005 	andeq	r0, r0, #5
    18b4:	289f3000 	ldmcs	pc, {ip, sp}	; <UNPREDICTABLE>
    18b8:	77000005 	strvc	r0, [r0, -r5]
    18bc:	01000005 	tsteq	r0, r5
    18c0:	05845300 	streq	r5, [r4, #768]	; 0x300
    18c4:	05880000 	streq	r0, [r8]
    18c8:	00010000 	andeq	r0, r1, r0
    18cc:	00058c52 	andeq	r8, r5, r2, asr ip
    18d0:	0005ac00 	andeq	sl, r5, r0, lsl #24
    18d4:	52000100 	andpl	r0, r0, #0
    18d8:	000005b0 			; <UNDEFINED> instruction: 0x000005b0
    18dc:	000005df 	ldrdeq	r0, [r0], -pc	; <UNPREDICTABLE>
    18e0:	e4520001 	ldrb	r0, [r2], #-1
    18e4:	fb000005 	blx	1902 <__resume1_start+0x1902>
    18e8:	01000005 	tsteq	r0, r5
    18ec:	00005300 	andeq	r5, r0, r0, lsl #6
    18f0:	00000000 	andeq	r0, r0, r0
    18f4:	050c0000 	streq	r0, [ip, #-0]
    18f8:	05600000 	strbeq	r0, [r0, #-0]!
    18fc:	00020000 	andeq	r0, r2, r0
    1900:	05609f30 	strbeq	r9, [r0, #-3888]!	; 0xf30
    1904:	060c0000 	streq	r0, [ip], -r0
    1908:	00010000 	andeq	r0, r1, r0
    190c:	00000057 	andeq	r0, r0, r7, asr r0
    1910:	00000000 	andeq	r0, r0, r0
    1914:	00050c00 	andeq	r0, r5, r0, lsl #24
    1918:	00054400 	andeq	r4, r5, r0, lsl #8
    191c:	30000200 	andcc	r0, r0, r0, lsl #4
    1920:	0005449f 	muleq	r5, pc, r4	; <UNPREDICTABLE>
    1924:	00060c00 	andeq	r0, r6, r0, lsl #24
    1928:	58000100 	stmdapl	r0, {r8}
	...
    1934:	0000060c 	andeq	r0, r0, ip, lsl #12
    1938:	00000620 	andeq	r0, r0, r0, lsr #12
    193c:	00500001 	subseq	r0, r0, r1
    1940:	00000000 	andeq	r0, r0, r0
    1944:	34000000 	strcc	r0, [r0], #-0
    1948:	48000006 	stmdami	r0, {r1, r2}
    194c:	01000006 	tsteq	r0, r6
    1950:	06485000 	strbeq	r5, [r8], -r0
    1954:	065c0000 	ldrbeq	r0, [ip], -r0
    1958:	00010000 	andeq	r0, r1, r0
    195c:	00000052 	andeq	r0, r0, r2, asr r0
    1960:	00000000 	andeq	r0, r0, r0
    1964:	00065c00 	andeq	r5, r6, r0, lsl #24
    1968:	00067000 	andeq	r7, r6, r0
    196c:	7d000200 	sfmvc	f0, 4, [r0, #-0]
    1970:	00067000 	andeq	r7, r6, r0
    1974:	0006ac00 	andeq	sl, r6, r0, lsl #24
    1978:	7d000200 	sfmvc	f0, 4, [r0, #-0]
    197c:	00000004 	andeq	r0, r0, r4
    1980:	00000000 	andeq	r0, r0, r0
    1984:	00065c00 	andeq	r5, r6, r0, lsl #24
    1988:	00067400 	andeq	r7, r6, r0, lsl #8
    198c:	50000100 	andpl	r0, r0, r0, lsl #2
    1990:	00000674 	andeq	r0, r0, r4, ror r6
    1994:	00000698 	muleq	r0, r8, r6
    1998:	00510001 	subseq	r0, r1, r1
    199c:	00000000 	andeq	r0, r0, r0
    19a0:	ac000000 	stcge	0, cr0, [r0], {-0}
    19a4:	bc000006 	stclt	0, cr0, [r0], {6}
    19a8:	02000006 	andeq	r0, r0, #6
    19ac:	bc007d00 	stclt	13, cr7, [r0], {-0}
    19b0:	f0000006 			; <UNDEFINED> instruction: 0xf0000006
    19b4:	02000006 	andeq	r0, r0, #6
    19b8:	00087d00 	andeq	r7, r8, r0, lsl #26
    19bc:	00000000 	andeq	r0, r0, r0
    19c0:	ac000000 	stcge	0, cr0, [r0], {-0}
    19c4:	c8000006 	stmdagt	r0, {r1, r2}
    19c8:	01000006 	tsteq	r0, r6
    19cc:	06c85000 	strbeq	r5, [r8], r0
    19d0:	06f00000 	ldrbteq	r0, [r0], r0
    19d4:	00010000 	andeq	r0, r1, r0
    19d8:	00000051 	andeq	r0, r0, r1, asr r0
    19dc:	00000000 	andeq	r0, r0, r0
    19e0:	0006f000 	andeq	pc, r6, r0
    19e4:	00070800 	andeq	r0, r7, r0, lsl #16
    19e8:	50000100 	andpl	r0, r0, r0, lsl #2
    19ec:	00000708 	andeq	r0, r0, r8, lsl #14
    19f0:	00000770 	andeq	r0, r0, r0, ror r7
    19f4:	00520001 	subseq	r0, r2, r1
    19f8:	00000000 	andeq	r0, r0, r0
    19fc:	88000000 	stmdahi	r0, {}	; <UNPREDICTABLE>
    1a00:	a0000007 	andge	r0, r0, r7
    1a04:	01000007 	tsteq	r0, r7
    1a08:	07a05000 	streq	r5, [r0, r0]!
    1a0c:	080c0000 	stmdaeq	ip, {}	; <UNPREDICTABLE>
    1a10:	00010000 	andeq	r0, r1, r0
    1a14:	00000052 	andeq	r0, r0, r2, asr r0
    1a18:	00000000 	andeq	r0, r0, r0
    1a1c:	00080c00 	andeq	r0, r8, r0, lsl #24
    1a20:	00081400 	andeq	r1, r8, r0, lsl #8
    1a24:	7d000200 	sfmvc	f0, 4, [r0, #-0]
    1a28:	00081400 	andeq	r1, r8, r0, lsl #8
    1a2c:	00086800 	andeq	r6, r8, r0, lsl #16
    1a30:	7d000200 	sfmvc	f0, 4, [r0, #-0]
    1a34:	00000004 	andeq	r0, r0, r4
    1a38:	00000000 	andeq	r0, r0, r0
    1a3c:	00080c00 	andeq	r0, r8, r0, lsl #24
    1a40:	00084400 	andeq	r4, r8, r0, lsl #8
    1a44:	31000200 	mrscc	r0, R8_usr
    1a48:	0008449f 	muleq	r8, pc, r4	; <UNPREDICTABLE>
    1a4c:	00085400 	andeq	r5, r8, r0, lsl #8
    1a50:	50000100 	andpl	r0, r0, r0, lsl #2
	...
    1a5c:	0000080c 	andeq	r0, r0, ip, lsl #16
    1a60:	00000848 	andeq	r0, r0, r8, asr #16
    1a64:	9f310002 	svcls	0x00310002
    1a68:	00000848 	andeq	r0, r0, r8, asr #16
    1a6c:	00000863 	andeq	r0, r0, r3, ror #16
    1a70:	017c0003 	cmneq	ip, r3
    1a74:	0000009f 	muleq	r0, pc, r0	; <UNPREDICTABLE>
    1a78:	00000000 	andeq	r0, r0, r0
    1a7c:	00080c00 	andeq	r0, r8, r0, lsl #24
    1a80:	00085000 	andeq	r5, r8, r0
    1a84:	31000200 	mrscc	r0, R8_usr
    1a88:	0008509f 	muleq	r8, pc, r0	; <UNPREDICTABLE>
    1a8c:	00085c00 	andeq	r5, r8, r0, lsl #24
    1a90:	51000100 	mrspl	r0, (UNDEF: 16)
	...
    1a9c:	0000080c 	andeq	r0, r0, ip, lsl #16
    1aa0:	00000824 	andeq	r0, r0, r4, lsr #16
    1aa4:	9f300002 	svcls	0x00300002
    1aa8:	00000824 	andeq	r0, r0, r4, lsr #16
    1aac:	00000863 	andeq	r0, r0, r3, ror #16
    1ab0:	7c03000c 	stcvc	0, cr0, [r3], {12}
    1ab4:	9400012f 	strls	r0, [r0], #-303	; 0x12f
    1ab8:	48244801 	stmdami	r4!, {r0, fp, lr}
    1abc:	00009f25 	andeq	r9, r0, r5, lsr #30
    1ac0:	00000000 	andeq	r0, r0, r0
    1ac4:	080c0000 	stmdaeq	ip, {}	; <UNPREDICTABLE>
    1ac8:	08280000 	stmdaeq	r8!, {}	; <UNPREDICTABLE>
    1acc:	00020000 	andeq	r0, r2, r0
    1ad0:	08289f30 	stmdaeq	r8!, {r4, r5, r8, r9, sl, fp, ip, pc}
    1ad4:	08340000 	ldmdaeq	r4!, {}	; <UNPREDICTABLE>
    1ad8:	00040000 	andeq	r0, r4, r0
    1adc:	9f5dc00a 	svcls	0x005dc00a
    1ae0:	00000834 	andeq	r0, r0, r4, lsr r8
    1ae4:	00000868 	andeq	r0, r0, r8, ror #16
    1ae8:	9f300002 	svcls	0x00300002
	...

Disassembly of section .debug_frame:

00000000 <.debug_frame>:
   0:	0000000c 	andeq	r0, r0, ip
   4:	ffffffff 			; <UNDEFINED> instruction: 0xffffffff
   8:	7c020001 	stcvc	0, cr0, [r2], {1}
   c:	000d0c0e 	andeq	r0, sp, lr, lsl #24
  10:	0000000c 	andeq	r0, r0, ip
  14:	00000000 	andeq	r0, r0, r0
  18:	0001007c 	andeq	r0, r1, ip, ror r0
  1c:	00000028 	andeq	r0, r0, r8, lsr #32
  20:	0000000c 	andeq	r0, r0, ip
  24:	ffffffff 			; <UNDEFINED> instruction: 0xffffffff
  28:	7c020001 	stcvc	0, cr0, [r2], {1}
  2c:	000d0c0e 	andeq	r0, sp, lr, lsl #24
  30:	00000014 	andeq	r0, r0, r4, lsl r0
  34:	00000020 	andeq	r0, r0, r0, lsr #32
  38:	000100cc 	andeq	r0, r1, ip, asr #1
  3c:	000000e8 	andeq	r0, r0, r8, ror #1
  40:	8e080e42 	cdphi	14, 0, cr0, cr8, cr2, {2}
  44:	00028401 	andeq	r8, r2, r1, lsl #8
  48:	00000018 	andeq	r0, r0, r8, lsl r0
  4c:	00000020 	andeq	r0, r0, r0, lsr #32
  50:	000101b4 			; <UNDEFINED> instruction: 0x000101b4
  54:	00000130 	andeq	r0, r0, r0, lsr r1
  58:	8e100e42 	cdphi	14, 1, cr0, cr0, cr2, {2}
  5c:	85028601 	strhi	r8, [r2, #-1537]	; 0x601
  60:	00048403 	andeq	r8, r4, r3, lsl #8
  64:	0000000c 	andeq	r0, r0, ip
  68:	ffffffff 			; <UNDEFINED> instruction: 0xffffffff
  6c:	7c020001 	stcvc	0, cr0, [r2], {1}
  70:	000d0c0e 	andeq	r0, sp, lr, lsl #24
  74:	00000010 	andeq	r0, r0, r0, lsl r0
  78:	00000064 	andeq	r0, r0, r4, rrx
  7c:	000102e4 	andeq	r0, r1, r4, ror #5
  80:	00000020 	andeq	r0, r0, r0, lsr #32
  84:	00080e42 	andeq	r0, r8, r2, asr #28
  88:	0000000c 	andeq	r0, r0, ip
  8c:	00000064 	andeq	r0, r0, r4, rrx
  90:	00010304 	andeq	r0, r1, r4, lsl #6
  94:	00000004 	andeq	r0, r0, r4
  98:	0000000c 	andeq	r0, r0, ip
  9c:	00000064 	andeq	r0, r0, r4, rrx
  a0:	00010308 	andeq	r0, r1, r8, lsl #6
  a4:	00000004 	andeq	r0, r0, r4
  a8:	0000000c 	andeq	r0, r0, ip
  ac:	00000064 	andeq	r0, r0, r4, rrx
  b0:	0001030c 	andeq	r0, r1, ip, lsl #6
  b4:	00000024 	andeq	r0, r0, r4, lsr #32
  b8:	0000000c 	andeq	r0, r0, ip
  bc:	00000064 	andeq	r0, r0, r4, rrx
  c0:	00010330 	andeq	r0, r1, r0, lsr r3
  c4:	00000024 	andeq	r0, r0, r4, lsr #32
  c8:	00000014 	andeq	r0, r0, r4, lsl r0
  cc:	00000064 	andeq	r0, r0, r4, rrx
  d0:	00010354 	andeq	r0, r1, r4, asr r3
  d4:	00000090 	muleq	r0, r0, r0
  d8:	8e080e42 	cdphi	14, 0, cr0, cr8, cr2, {2}
  dc:	00028401 	andeq	r8, r2, r1, lsl #8
  e0:	0000000c 	andeq	r0, r0, ip
  e4:	00000064 	andeq	r0, r0, r4, rrx
  e8:	000103e4 	andeq	r0, r1, r4, ror #7
  ec:	00000004 	andeq	r0, r0, r4
  f0:	00000014 	andeq	r0, r0, r4, lsl r0
  f4:	00000064 	andeq	r0, r0, r4, rrx
  f8:	000103e8 	andeq	r0, r1, r8, ror #7
  fc:	0000008c 	andeq	r0, r0, ip, lsl #1
 100:	8e040e42 	cdphi	14, 0, cr0, cr4, cr2, {2}
 104:	100e4201 	andne	r4, lr, r1, lsl #4
 108:	00000014 	andeq	r0, r0, r4, lsl r0
 10c:	00000064 	andeq	r0, r0, r4, rrx
 110:	00010474 	andeq	r0, r1, r4, ror r4
 114:	0000004c 	andeq	r0, r0, ip, asr #32
 118:	8e080e42 	cdphi	14, 0, cr0, cr8, cr2, {2}
 11c:	00028401 	andeq	r8, r2, r1, lsl #8
 120:	00000018 	andeq	r0, r0, r8, lsl r0
 124:	00000064 	andeq	r0, r0, r4, rrx
 128:	000104c0 	andeq	r0, r1, r0, asr #9
 12c:	00000068 	andeq	r0, r0, r8, rrx
 130:	8e100e42 	cdphi	14, 1, cr0, cr0, cr2, {2}
 134:	84028501 	strhi	r8, [r2], #-1281	; 0x501
 138:	00048303 	andeq	r8, r4, r3, lsl #6
 13c:	00000018 	andeq	r0, r0, r8, lsl r0
 140:	00000064 	andeq	r0, r0, r4, rrx
 144:	00010528 	andeq	r0, r1, r8, lsr #10
 148:	00000084 	andeq	r0, r0, r4, lsl #1
 14c:	8e080e42 	cdphi	14, 0, cr0, cr8, cr2, {2}
 150:	42028401 	andmi	r8, r2, #16777216	; 0x1000000
 154:	0000100e 	andeq	r1, r0, lr
 158:	0000000c 	andeq	r0, r0, ip
 15c:	00000064 	andeq	r0, r0, r4, rrx
 160:	000105ac 	andeq	r0, r1, ip, lsr #11
 164:	00000018 	andeq	r0, r0, r8, lsl r0
 168:	0000000c 	andeq	r0, r0, ip
 16c:	00000064 	andeq	r0, r0, r4, rrx
 170:	000105c4 	andeq	r0, r1, r4, asr #11
 174:	00000018 	andeq	r0, r0, r8, lsl r0
 178:	0000000c 	andeq	r0, r0, ip
 17c:	00000064 	andeq	r0, r0, r4, rrx
 180:	000105dc 	ldrdeq	r0, [r1], -ip
 184:	00000018 	andeq	r0, r0, r8, lsl r0
 188:	00000018 	andeq	r0, r0, r8, lsl r0
 18c:	00000064 	andeq	r0, r0, r4, rrx
 190:	000105f4 	strdeq	r0, [r1], -r4
 194:	00000034 	andeq	r0, r0, r4, lsr r0
 198:	8e100e42 	cdphi	14, 1, cr0, cr0, cr2, {2}
 19c:	85028601 	strhi	r8, [r2, #-1537]	; 0x601
 1a0:	00048403 	andeq	r8, r4, r3, lsl #8
 1a4:	0000000c 	andeq	r0, r0, ip
 1a8:	ffffffff 			; <UNDEFINED> instruction: 0xffffffff
 1ac:	7c020001 	stcvc	0, cr0, [r2], {1}
 1b0:	000d0c0e 	andeq	r0, sp, lr, lsl #24
 1b4:	0000000c 	andeq	r0, r0, ip
 1b8:	000001a4 	andeq	r0, r0, r4, lsr #3
 1bc:	00010628 	andeq	r0, r1, r8, lsr #12
 1c0:	0000002c 	andeq	r0, r0, ip, lsr #32
 1c4:	0000000c 	andeq	r0, r0, ip
 1c8:	000001a4 	andeq	r0, r0, r4, lsr #3
 1cc:	00010654 	andeq	r0, r1, r4, asr r6
 1d0:	0000001c 	andeq	r0, r0, ip, lsl r0
 1d4:	0000000c 	andeq	r0, r0, ip
 1d8:	000001a4 	andeq	r0, r0, r4, lsr #3
 1dc:	00010670 	andeq	r0, r1, r0, ror r6
 1e0:	00000024 	andeq	r0, r0, r4, lsr #32
 1e4:	0000000c 	andeq	r0, r0, ip
 1e8:	000001a4 	andeq	r0, r0, r4, lsr #3
 1ec:	00010694 	muleq	r1, r4, r6
 1f0:	00000008 	andeq	r0, r0, r8
 1f4:	0000000c 	andeq	r0, r0, ip
 1f8:	000001a4 	andeq	r0, r0, r4, lsr #3
 1fc:	0001069c 	muleq	r1, ip, r6
 200:	00000010 	andeq	r0, r0, r0, lsl r0
 204:	00000014 	andeq	r0, r0, r4, lsl r0
 208:	000001a4 	andeq	r0, r0, r4, lsr #3
 20c:	000106ac 	andeq	r0, r1, ip, lsr #13
 210:	00000028 	andeq	r0, r0, r8, lsr #32
 214:	8e080e42 	cdphi	14, 0, cr0, cr8, cr2, {2}
 218:	00028401 	andeq	r8, r2, r1, lsl #8
 21c:	00000018 	andeq	r0, r0, r8, lsl r0
 220:	000001a4 	andeq	r0, r0, r4, lsr #3
 224:	000106d4 	ldrdeq	r0, [r1], -r4
 228:	00000080 	andeq	r0, r0, r0, lsl #1
 22c:	8e100e42 	cdphi	14, 1, cr0, cr0, cr2, {2}
 230:	84028501 	strhi	r8, [r2], #-1281	; 0x501
 234:	00048303 	andeq	r8, r4, r3, lsl #6
 238:	0000000c 	andeq	r0, r0, ip
 23c:	000001a4 	andeq	r0, r0, r4, lsr #3
 240:	00010754 	andeq	r0, r1, r4, asr r7
 244:	0000000c 	andeq	r0, r0, ip
 248:	0000000c 	andeq	r0, r0, ip
 24c:	000001a4 	andeq	r0, r0, r4, lsr #3
 250:	00010760 	andeq	r0, r1, r0, ror #14
 254:	0000002c 	andeq	r0, r0, ip, lsr #32
 258:	0000000c 	andeq	r0, r0, ip
 25c:	000001a4 	andeq	r0, r0, r4, lsr #3
 260:	0001078c 	andeq	r0, r1, ip, lsl #15
 264:	0000002c 	andeq	r0, r0, ip, lsr #32
 268:	0000000c 	andeq	r0, r0, ip
 26c:	000001a4 	andeq	r0, r0, r4, lsr #3
 270:	000107b8 			; <UNDEFINED> instruction: 0x000107b8
 274:	0000002c 	andeq	r0, r0, ip, lsr #32
 278:	0000000c 	andeq	r0, r0, ip
 27c:	ffffffff 			; <UNDEFINED> instruction: 0xffffffff
 280:	7c020001 	stcvc	0, cr0, [r2], {1}
 284:	000d0c0e 	andeq	r0, sp, lr, lsl #24
 288:	0000000c 	andeq	r0, r0, ip
 28c:	00000278 	andeq	r0, r0, r8, ror r2
 290:	00010800 	andeq	r0, r1, r0, lsl #16
 294:	0000003c 	andeq	r0, r0, ip, lsr r0
 298:	0000000c 	andeq	r0, r0, ip
 29c:	00000278 	andeq	r0, r0, r8, ror r2
 2a0:	0001083c 	andeq	r0, r1, ip, lsr r8
 2a4:	00000064 	andeq	r0, r0, r4, rrx
 2a8:	0000000c 	andeq	r0, r0, ip
 2ac:	ffffffff 			; <UNDEFINED> instruction: 0xffffffff
 2b0:	7c020001 	stcvc	0, cr0, [r2], {1}
 2b4:	000d0c0e 	andeq	r0, sp, lr, lsl #24
 2b8:	0000000c 	andeq	r0, r0, ip
 2bc:	000002a8 	andeq	r0, r0, r8, lsr #5
 2c0:	00010de0 	andeq	r0, r1, r0, ror #27
 2c4:	0000010c 	andeq	r0, r0, ip, lsl #2
 2c8:	0000000c 	andeq	r0, r0, ip
 2cc:	000002a8 	andeq	r0, r0, r8, lsr #5
 2d0:	00010eec 	andeq	r0, r1, ip, ror #29
 2d4:	000000d4 	ldrdeq	r0, [r0], -r4
 2d8:	0000000c 	andeq	r0, r0, ip
 2dc:	000002a8 	andeq	r0, r0, r8, lsr #5
 2e0:	00010fc0 	andeq	r0, r1, r0, asr #31
 2e4:	00000018 	andeq	r0, r0, r8, lsl r0
 2e8:	0000000c 	andeq	r0, r0, ip
 2ec:	000002a8 	andeq	r0, r0, r8, lsr #5
 2f0:	00010fd8 	ldrdeq	r0, [r1], -r8
 2f4:	000000a8 	andeq	r0, r0, r8, lsr #1
 2f8:	0000000c 	andeq	r0, r0, ip
 2fc:	000002a8 	andeq	r0, r0, r8, lsr #5
 300:	00011080 	andeq	r1, r1, r0, lsl #1
 304:	0000000c 	andeq	r0, r0, ip
 308:	0000000c 	andeq	r0, r0, ip
 30c:	000002a8 	andeq	r0, r0, r8, lsr #5
 310:	0001108c 	andeq	r1, r1, ip, lsl #1
 314:	0000000c 	andeq	r0, r0, ip
 318:	0000000c 	andeq	r0, r0, ip
 31c:	000002a8 	andeq	r0, r0, r8, lsr #5
 320:	00011098 	muleq	r1, r8, r0
 324:	00000014 	andeq	r0, r0, r4, lsl r0
 328:	0000000c 	andeq	r0, r0, ip
 32c:	000002a8 	andeq	r0, r0, r8, lsr #5
 330:	000110ac 	andeq	r1, r1, ip, lsr #1
 334:	00000010 	andeq	r0, r0, r0, lsl r0
 338:	0000000c 	andeq	r0, r0, ip
 33c:	ffffffff 			; <UNDEFINED> instruction: 0xffffffff
 340:	7c020001 	stcvc	0, cr0, [r2], {1}
 344:	000d0c0e 	andeq	r0, sp, lr, lsl #24
 348:	00000018 	andeq	r0, r0, r8, lsl r0
 34c:	00000338 	andeq	r0, r0, r8, lsr r3
 350:	000110bc 	strheq	r1, [r1], -ip
 354:	000000d4 	ldrdeq	r0, [r0], -r4
 358:	8e100e42 	cdphi	14, 1, cr0, cr0, cr2, {2}
 35c:	84028501 	strhi	r8, [r2], #-1281	; 0x501
 360:	00048303 	andeq	r8, r4, r3, lsl #6
 364:	00000018 	andeq	r0, r0, r8, lsl r0
 368:	00000338 	andeq	r0, r0, r8, lsr r3
 36c:	00011190 	muleq	r1, r0, r1
 370:	00000090 	muleq	r0, r0, r0
 374:	8e100e42 	cdphi	14, 1, cr0, cr0, cr2, {2}
 378:	84028501 	strhi	r8, [r2], #-1281	; 0x501
 37c:	00048303 	andeq	r8, r4, r3, lsl #6
 380:	0000000c 	andeq	r0, r0, ip
 384:	00000338 	andeq	r0, r0, r8, lsr r3
 388:	00011220 	andeq	r1, r1, r0, lsr #4
 38c:	00000084 	andeq	r0, r0, r4, lsl #1
 390:	00000014 	andeq	r0, r0, r4, lsl r0
 394:	00000338 	andeq	r0, r0, r8, lsr r3
 398:	000112a4 	andeq	r1, r1, r4, lsr #5
 39c:	00000088 	andeq	r0, r0, r8, lsl #1
 3a0:	84040e44 	strhi	r0, [r4], #-3652	; 0xe44
 3a4:	00000001 	andeq	r0, r0, r1
 3a8:	00000018 	andeq	r0, r0, r8, lsl r0
 3ac:	00000338 	andeq	r0, r0, r8, lsr r3
 3b0:	0001132c 	andeq	r1, r1, ip, lsr #6
 3b4:	00000090 	muleq	r0, r0, r0
 3b8:	8e100e42 	cdphi	14, 1, cr0, cr0, cr2, {2}
 3bc:	84028501 	strhi	r8, [r2], #-1281	; 0x501
 3c0:	00048303 	andeq	r8, r4, r3, lsl #6
 3c4:	0000000c 	andeq	r0, r0, ip
 3c8:	00000338 	andeq	r0, r0, r8, lsr r3
 3cc:	000113bc 			; <UNDEFINED> instruction: 0x000113bc
 3d0:	00000030 	andeq	r0, r0, r0, lsr r0
 3d4:	0000000c 	andeq	r0, r0, ip
 3d8:	00000338 	andeq	r0, r0, r8, lsr r3
 3dc:	000113ec 	andeq	r1, r1, ip, ror #7
 3e0:	00000084 	andeq	r0, r0, r4, lsl #1
 3e4:	00000014 	andeq	r0, r0, r4, lsl r0
 3e8:	00000338 	andeq	r0, r0, r8, lsr r3
 3ec:	00011470 	andeq	r1, r1, r0, ror r4
 3f0:	00000088 	andeq	r0, r0, r8, lsl #1
 3f4:	84040e44 	strhi	r0, [r4], #-3652	; 0xe44
 3f8:	00000001 	andeq	r0, r0, r1
 3fc:	0000000c 	andeq	r0, r0, ip
 400:	ffffffff 			; <UNDEFINED> instruction: 0xffffffff
 404:	7c020001 	stcvc	0, cr0, [r2], {1}
 408:	000d0c0e 	andeq	r0, sp, lr, lsl #24
 40c:	00000020 	andeq	r0, r0, r0, lsr #32
 410:	000003fc 	strdeq	r0, [r0], -ip
 414:	000114f8 	strdeq	r1, [r1], -r8
 418:	000000bc 	strheq	r0, [r0], -ip
 41c:	8e1c0e42 	cdphi	14, 1, cr0, cr12, cr2, {2}
 420:	88028a01 	stmdahi	r2, {r0, r9, fp, pc}
 424:	86048703 	strhi	r8, [r4], -r3, lsl #14
 428:	84068505 	strhi	r8, [r6], #-1285	; 0x505
 42c:	480e4c07 	stmdami	lr, {r0, r1, r2, sl, fp, lr}
 430:	0000001c 	andeq	r0, r0, ip, lsl r0
 434:	000003fc 	strdeq	r0, [r0], -ip
 438:	000115b4 			; <UNDEFINED> instruction: 0x000115b4
 43c:	000000a8 	andeq	r0, r0, r8, lsr #1
 440:	87100e42 	ldrhi	r0, [r0, -r2, asr #28]
 444:	85028601 	strhi	r8, [r2, #-1537]	; 0x601
 448:	4c048403 	cfstrsmi	mvf8, [r4], {3}
 44c:	0000280e 	andeq	r2, r0, lr, lsl #16
 450:	0000001c 	andeq	r0, r0, ip, lsl r0
 454:	000003fc 	strdeq	r0, [r0], -ip
 458:	0001165c 	andeq	r1, r1, ip, asr r6
 45c:	000000e8 	andeq	r0, r0, r8, ror #1
 460:	88140e42 	ldmdahi	r4, {r1, r6, r9, sl, fp}
 464:	86028701 	strhi	r8, [r2], -r1, lsl #14
 468:	84048503 	strhi	r8, [r4], #-1283	; 0x503
 46c:	400e4a05 	andmi	r4, lr, r5, lsl #20
 470:	00000030 	andeq	r0, r0, r0, lsr r0
 474:	000003fc 	strdeq	r0, [r0], -ip
 478:	00011744 	andeq	r1, r1, r4, asr #14
 47c:	000002d0 	ldrdeq	r0, [r0], -r0	; <UNPREDICTABLE>
 480:	83100e42 	tsthi	r0, #1056	; 0x420
 484:	81028201 	tsthi	r2, r1, lsl #4
 488:	42048003 	andmi	r8, r4, #3
 48c:	058e300e 	streq	r3, [lr, #14]
 490:	0789068a 	streq	r0, [r9, sl, lsl #13]
 494:	09870888 	stmibeq	r7, {r3, r7, fp}
 498:	0b850a86 	bleq	fe142eb8 <__bss_end+0xfe12fd6c>
 49c:	0e420c84 	cdpeq	12, 4, cr0, cr2, cr4, {4}
 4a0:	00000048 	andeq	r0, r0, r8, asr #32
 4a4:	00000030 	andeq	r0, r0, r0, lsr r0
 4a8:	000003fc 	strdeq	r0, [r0], -ip
 4ac:	00011a14 	andeq	r1, r1, r4, lsl sl
 4b0:	000002d0 	ldrdeq	r0, [r0], -r0	; <UNPREDICTABLE>
 4b4:	83100e42 	tsthi	r0, #1056	; 0x420
 4b8:	81028201 	tsthi	r2, r1, lsl #4
 4bc:	42048003 	andmi	r8, r4, #3
 4c0:	058e300e 	streq	r3, [lr, #14]
 4c4:	0789068a 	streq	r0, [r9, sl, lsl #13]
 4c8:	09870888 	stmibeq	r7, {r3, r7, fp}
 4cc:	0b850a86 	bleq	fe142eec <__bss_end+0xfe12fda0>
 4d0:	0e420c84 	cdpeq	12, 4, cr0, cr2, cr4, {4}
 4d4:	00000048 	andeq	r0, r0, r8, asr #32
 4d8:	0000000c 	andeq	r0, r0, ip
 4dc:	ffffffff 			; <UNDEFINED> instruction: 0xffffffff
 4e0:	7c020001 	stcvc	0, cr0, [r2], {1}
 4e4:	000d0c0e 	andeq	r0, sp, lr, lsl #24
 4e8:	0000000c 	andeq	r0, r0, ip
 4ec:	000004d8 	ldrdeq	r0, [r0], -r8
 4f0:	00011ec0 	andeq	r1, r1, r0, asr #29
 4f4:	0000000c 	andeq	r0, r0, ip
 4f8:	0000000c 	andeq	r0, r0, ip
 4fc:	000004d8 	ldrdeq	r0, [r0], -r8
 500:	00011ecc 	andeq	r1, r1, ip, asr #29
 504:	0000004c 	andeq	r0, r0, ip, asr #32
 508:	0000000c 	andeq	r0, r0, ip
 50c:	ffffffff 			; <UNDEFINED> instruction: 0xffffffff
 510:	7c020001 	stcvc	0, cr0, [r2], {1}
 514:	000d0c0e 	andeq	r0, sp, lr, lsl #24
 518:	00000014 	andeq	r0, r0, r4, lsl r0
 51c:	00000508 	andeq	r0, r0, r8, lsl #10
 520:	00011f18 	andeq	r1, r1, r8, lsl pc
 524:	00000090 	muleq	r0, r0, r0
 528:	8e080e48 	cdphi	14, 0, cr0, cr8, cr8, {2}
 52c:	00028401 	andeq	r8, r2, r1, lsl #8
 530:	00000010 	andeq	r0, r0, r0, lsl r0
 534:	00000508 	andeq	r0, r0, r8, lsl #10
 538:	00011fa8 	andeq	r1, r1, r8, lsr #31
 53c:	00000054 	andeq	r0, r0, r4, asr r0
 540:	00080e44 	andeq	r0, r8, r4, asr #28
 544:	00000014 	andeq	r0, r0, r4, lsl r0
 548:	00000508 	andeq	r0, r0, r8, lsl #10
 54c:	00011ffc 	strdeq	r1, [r1], -ip
 550:	00000058 	andeq	r0, r0, r8, asr r0
 554:	85080e44 	strhi	r0, [r8, #-3652]	; 0xe44
 558:	00028401 	andeq	r8, r2, r1, lsl #8
 55c:	0000000c 	andeq	r0, r0, ip
 560:	00000508 	andeq	r0, r0, r8, lsl #10
 564:	00012054 	andeq	r2, r1, r4, asr r0
 568:	00000050 	andeq	r0, r0, r0, asr r0
 56c:	0000000c 	andeq	r0, r0, ip
 570:	ffffffff 			; <UNDEFINED> instruction: 0xffffffff
 574:	7c020001 	stcvc	0, cr0, [r2], {1}
 578:	000d0c0e 	andeq	r0, sp, lr, lsl #24
 57c:	00000014 	andeq	r0, r0, r4, lsl r0
 580:	0000056c 	andeq	r0, r0, ip, ror #10
 584:	000120a4 	andeq	r2, r1, r4, lsr #1
 588:	00000064 	andeq	r0, r0, r4, rrx
 58c:	84040e44 	strhi	r0, [r4], #-3652	; 0xe44
 590:	00000001 	andeq	r0, r0, r1
 594:	0000000c 	andeq	r0, r0, ip
 598:	0000056c 	andeq	r0, r0, ip, ror #10
 59c:	00012108 	andeq	r2, r1, r8, lsl #2
 5a0:	00000050 	andeq	r0, r0, r0, asr r0
 5a4:	0000000c 	andeq	r0, r0, ip
 5a8:	0000056c 	andeq	r0, r0, ip, ror #10
 5ac:	00012158 	andeq	r2, r1, r8, asr r1
 5b0:	00000038 	andeq	r0, r0, r8, lsr r0
 5b4:	0000000c 	andeq	r0, r0, ip
 5b8:	0000056c 	andeq	r0, r0, ip, ror #10
 5bc:	00012190 	muleq	r1, r0, r1
 5c0:	00000028 	andeq	r0, r0, r8, lsr #32
 5c4:	0000000c 	andeq	r0, r0, ip
 5c8:	0000056c 	andeq	r0, r0, ip, ror #10
 5cc:	000121b8 			; <UNDEFINED> instruction: 0x000121b8
 5d0:	00000048 	andeq	r0, r0, r8, asr #32
 5d4:	0000000c 	andeq	r0, r0, ip
 5d8:	0000056c 	andeq	r0, r0, ip, ror #10
 5dc:	00012200 	andeq	r2, r1, r0, lsl #4
 5e0:	00000040 	andeq	r0, r0, r0, asr #32
 5e4:	0000000c 	andeq	r0, r0, ip
 5e8:	ffffffff 			; <UNDEFINED> instruction: 0xffffffff
 5ec:	7c020001 	stcvc	0, cr0, [r2], {1}
 5f0:	000d0c0e 	andeq	r0, sp, lr, lsl #24
 5f4:	0000000c 	andeq	r0, r0, ip
 5f8:	000005e4 	andeq	r0, r0, r4, ror #11
 5fc:	00012240 	andeq	r2, r1, r0, asr #4
 600:	00000030 	andeq	r0, r0, r0, lsr r0
 604:	0000000c 	andeq	r0, r0, ip
 608:	000005e4 	andeq	r0, r0, r4, ror #11
 60c:	00012270 	andeq	r2, r1, r0, ror r2
 610:	00000028 	andeq	r0, r0, r8, lsr #32
 614:	0000000c 	andeq	r0, r0, ip
 618:	ffffffff 			; <UNDEFINED> instruction: 0xffffffff
 61c:	7c020001 	stcvc	0, cr0, [r2], {1}
 620:	000d0c0e 	andeq	r0, sp, lr, lsl #24
 624:	0000000c 	andeq	r0, r0, ip
 628:	00000614 	andeq	r0, r0, r4, lsl r6
 62c:	00012298 	muleq	r1, r8, r2
 630:	0000002c 	andeq	r0, r0, ip, lsr #32
 634:	00000014 	andeq	r0, r0, r4, lsl r0
 638:	00000614 	andeq	r0, r0, r4, lsl r6
 63c:	000122c4 	andeq	r2, r1, r4, asr #5
 640:	0000007c 	andeq	r0, r0, ip, ror r0
 644:	8e080e42 	cdphi	14, 0, cr0, cr8, cr2, {2}
 648:	00028301 	andeq	r8, r2, r1, lsl #6
 64c:	0000000c 	andeq	r0, r0, ip
 650:	00000614 	andeq	r0, r0, r4, lsl r6
 654:	00012340 	andeq	r2, r1, r0, asr #6
 658:	00000030 	andeq	r0, r0, r0, lsr r0
 65c:	0000000c 	andeq	r0, r0, ip
 660:	00000614 	andeq	r0, r0, r4, lsl r6
 664:	00012370 	andeq	r2, r1, r0, ror r3
 668:	00000068 	andeq	r0, r0, r8, rrx
 66c:	0000000c 	andeq	r0, r0, ip
 670:	00000614 	andeq	r0, r0, r4, lsl r6
 674:	000123d8 	ldrdeq	r2, [r1], -r8
 678:	00000028 	andeq	r0, r0, r8, lsr #32
 67c:	0000000c 	andeq	r0, r0, ip
 680:	ffffffff 			; <UNDEFINED> instruction: 0xffffffff
 684:	7c020001 	stcvc	0, cr0, [r2], {1}
 688:	000d0c0e 	andeq	r0, sp, lr, lsl #24
 68c:	0000000c 	andeq	r0, r0, ip
 690:	0000067c 	andeq	r0, r0, ip, ror r6
 694:	00012400 	andeq	r2, r1, r0, lsl #8
 698:	0000002c 	andeq	r0, r0, ip, lsr #32
 69c:	0000000c 	andeq	r0, r0, ip
 6a0:	0000067c 	andeq	r0, r0, ip, ror r6
 6a4:	0001242c 	andeq	r2, r1, ip, lsr #8
 6a8:	00000010 	andeq	r0, r0, r0, lsl r0
 6ac:	0000000c 	andeq	r0, r0, ip
 6b0:	0000067c 	andeq	r0, r0, ip, ror r6
 6b4:	0001243c 	andeq	r2, r1, ip, lsr r4
 6b8:	00000198 	muleq	r0, r8, r1
 6bc:	0000001c 	andeq	r0, r0, ip, lsl r0
 6c0:	0000067c 	andeq	r0, r0, ip, ror r6
 6c4:	000125d4 	ldrdeq	r2, [r1], -r4
 6c8:	00000438 	andeq	r0, r0, r8, lsr r4
 6cc:	8e180e42 	cdphi	14, 1, cr0, cr8, cr2, {2}
 6d0:	87028801 	strhi	r8, [r2, -r1, lsl #16]
 6d4:	85048603 	strhi	r8, [r4, #-1539]	; 0x603
 6d8:	00068405 	andeq	r8, r6, r5, lsl #8
 6dc:	0000000c 	andeq	r0, r0, ip
 6e0:	0000067c 	andeq	r0, r0, ip, ror r6
 6e4:	00012a0c 	andeq	r2, r1, ip, lsl #20
 6e8:	00000028 	andeq	r0, r0, r8, lsr #32
 6ec:	0000000c 	andeq	r0, r0, ip
 6f0:	0000067c 	andeq	r0, r0, ip, ror r6
 6f4:	00012a34 	andeq	r2, r1, r4, lsr sl
 6f8:	00000028 	andeq	r0, r0, r8, lsr #32
 6fc:	00000014 	andeq	r0, r0, r4, lsl r0
 700:	0000067c 	andeq	r0, r0, ip, ror r6
 704:	00012a5c 	andeq	r2, r1, ip, asr sl
 708:	00000050 	andeq	r0, r0, r0, asr r0
 70c:	84040e4a 	strhi	r0, [r4], #-3658	; 0xe4a
 710:	00000001 	andeq	r0, r0, r1
 714:	00000014 	andeq	r0, r0, r4, lsl r0
 718:	0000067c 	andeq	r0, r0, ip, ror r6
 71c:	00012aac 	andeq	r2, r1, ip, lsr #21
 720:	00000044 	andeq	r0, r0, r4, asr #32
 724:	85080e48 	strhi	r0, [r8, #-3656]	; 0xe48
 728:	00028401 	andeq	r8, r2, r1, lsl #8
 72c:	0000000c 	andeq	r0, r0, ip
 730:	0000067c 	andeq	r0, r0, ip, ror r6
 734:	00012af0 	strdeq	r2, [r1], -r0
 738:	00000098 	muleq	r0, r8, r0
 73c:	0000000c 	andeq	r0, r0, ip
 740:	0000067c 	andeq	r0, r0, ip, ror r6
 744:	00012b88 	andeq	r2, r1, r8, lsl #23
 748:	00000084 	andeq	r0, r0, r4, lsl #1
 74c:	00000014 	andeq	r0, r0, r4, lsl r0
 750:	0000067c 	andeq	r0, r0, ip, ror r6
 754:	00012c0c 	andeq	r2, r1, ip, lsl #24
 758:	0000005c 	andeq	r0, r0, ip, asr r0
 75c:	84040e44 	strhi	r0, [r4], #-3652	; 0xe44
 760:	00000001 	andeq	r0, r0, r1

Disassembly of section .debug_ranges:

00000000 <.debug_ranges>:
   0:	000000d8 	ldrdeq	r0, [r0], -r8
   4:	000000e0 	andeq	r0, r0, r0, ror #1
   8:	000000e4 	andeq	r0, r0, r4, ror #1
   c:	000000f8 	strdeq	r0, [r0], -r8
	...
  18:	000000d8 	ldrdeq	r0, [r0], -r8
  1c:	000000e0 	andeq	r0, r0, r0, ror #1
  20:	000000e4 	andeq	r0, r0, r4, ror #1
  24:	000000f8 	strdeq	r0, [r0], -r8
	...
  30:	00000188 	andeq	r0, r0, r8, lsl #3
  34:	00000190 	muleq	r0, r0, r1
  38:	000001c4 	andeq	r0, r0, r4, asr #3
  3c:	000001dc 	ldrdeq	r0, [r0], -ip
	...
  48:	00000218 	andeq	r0, r0, r8, lsl r2
  4c:	0000021c 	andeq	r0, r0, ip, lsl r2
  50:	00000224 	andeq	r0, r0, r4, lsr #4
  54:	00000240 	andeq	r0, r0, r0, asr #4
  58:	00000248 	andeq	r0, r0, r8, asr #4
  5c:	00000250 	andeq	r0, r0, r0, asr r2
	...
  68:	00000218 	andeq	r0, r0, r8, lsl r2
  6c:	0000021c 	andeq	r0, r0, ip, lsl r2
  70:	00000224 	andeq	r0, r0, r4, lsr #4
  74:	00000240 	andeq	r0, r0, r0, asr #4
  78:	00000248 	andeq	r0, r0, r8, asr #4
  7c:	00000250 	andeq	r0, r0, r0, asr r2
	...
  88:	00000274 	andeq	r0, r0, r4, ror r2
  8c:	0000027c 	andeq	r0, r0, ip, ror r2
  90:	00000280 	andeq	r0, r0, r0, lsl #5
  94:	00000294 	muleq	r0, r4, r2
	...
  a0:	00000274 	andeq	r0, r0, r4, ror r2
  a4:	0000027c 	andeq	r0, r0, ip, ror r2
  a8:	00000280 	andeq	r0, r0, r0, lsl #5
  ac:	00000294 	muleq	r0, r4, r2
	...
  b8:	00000354 	andeq	r0, r0, r4, asr r3
  bc:	0000035c 	andeq	r0, r0, ip, asr r3
  c0:	00000390 	muleq	r0, r0, r3
  c4:	000003a8 	andeq	r0, r0, r8, lsr #7
	...
  d0:	000003e4 	andeq	r0, r0, r4, ror #7
  d4:	000003e8 	andeq	r0, r0, r8, ror #7
  d8:	000003f0 	strdeq	r0, [r0], -r0	; <UNPREDICTABLE>
  dc:	0000040c 	andeq	r0, r0, ip, lsl #8
  e0:	00000414 	andeq	r0, r0, r4, lsl r4
  e4:	0000041c 	andeq	r0, r0, ip, lsl r4
	...
  f0:	000003e4 	andeq	r0, r0, r4, ror #7
  f4:	000003e8 	andeq	r0, r0, r8, ror #7
  f8:	000003f0 	strdeq	r0, [r0], -r0	; <UNPREDICTABLE>
  fc:	0000040c 	andeq	r0, r0, ip, lsl #8
 100:	00000414 	andeq	r0, r0, r4, lsl r4
 104:	0000041c 	andeq	r0, r0, ip, lsl r4
	...
 110:	000000f8 	strdeq	r0, [r0], -r8
 114:	000000fc 	strdeq	r0, [r0], -ip
 118:	00000100 	andeq	r0, r0, r0, lsl #2
 11c:	00000154 	andeq	r0, r0, r4, asr r1
	...
 128:	000000f8 	strdeq	r0, [r0], -r8
 12c:	000000fc 	strdeq	r0, [r0], -ip
 130:	00000100 	andeq	r0, r0, r0, lsl #2
 134:	00000154 	andeq	r0, r0, r4, asr r1
	...
 140:	000000ac 	andeq	r0, r0, ip, lsr #1
 144:	000000b0 	strheq	r0, [r0], -r0	; <UNPREDICTABLE>
 148:	000000bc 	strheq	r0, [r0], -ip
 14c:	000000c0 	andeq	r0, r0, r0, asr #1
 150:	000000c4 	andeq	r0, r0, r4, asr #1
 154:	000000c8 	andeq	r0, r0, r8, asr #1
 158:	000000cc 	andeq	r0, r0, ip, asr #1
 15c:	000000d0 	ldrdeq	r0, [r0], -r0	; <UNPREDICTABLE>
	...
 168:	00000144 	andeq	r0, r0, r4, asr #2
 16c:	00000148 	andeq	r0, r0, r8, asr #2
 170:	00000154 	andeq	r0, r0, r4, asr r1
 174:	0000015c 	andeq	r0, r0, ip, asr r1
 178:	00000160 	andeq	r0, r0, r0, ror #2
 17c:	00000164 	andeq	r0, r0, r4, ror #2
	...
